
isodir/boot/word.bin:     file format elf32-i386
isodir/boot/word.bin
architecture: i386, flags 0x00000112:
EXEC_P, HAS_SYMS, D_PAGED
start address 0x00100000

Program Header:
    LOAD off    0x00001000 vaddr 0x00100000 paddr 0x00100000 align 2**12
         filesz 0x000000d8 memsz 0x000000d8 flags rw-
    LOAD off    0x00002000 vaddr 0xc0101000 paddr 0x00101000 align 2**12
         filesz 0x00008107 memsz 0x00008107 flags r-x
    LOAD off    0x0000b000 vaddr 0xc010a000 paddr 0x0010a000 align 2**12
         filesz 0x0000164c memsz 0x000080dc flags rw-

Sections:
Idx Name          Size      VMA       LMA       File off  Algn
  0 .multiboot.text 000000a6  00100000  00100000  00001000  2**0
                  CONTENTS, ALLOC, LOAD, READONLY, DATA
  1 .mb2_hdr      00000030  001000a8  001000a8  000010a8  2**3
                  CONTENTS, ALLOC, LOAD, DATA
  2 .text         00006aab  c0101000  00101000  00002000  2**6
                  CONTENTS, ALLOC, LOAD, READONLY, CODE
  3 .rodata       00001107  c0108000  00108000  00009000  2**2
                  CONTENTS, ALLOC, LOAD, READONLY, DATA
  4 .data         0000164c  c010a000  0010a000  0000b000  2**5
                  CONTENTS, ALLOC, LOAD, DATA
  5 .bss          000060dc  c010c000  0010c000  0000c64c  2**12
                  ALLOC
  6 .comment      00000012  00000000  00000000  0000c64c  2**0
                  CONTENTS, READONLY
SYMBOL TABLE:
00000000 l    df *ABS*	00000000 bootNP.o
e85250d6 l       *ABS*	00000000 MAGIC_NUMBER
00000000 l       *ABS*	00000000 ARCH
00001000 l       *ABS*	00000000 PAGESIZE
c0000000 l       *ABS*	00000000 BOOTLOC
001000a8 l       .mb2_hdr	00000000 mb2_hdr_begin
001000d8 l       .mb2_hdr	00000000 mb2_hdr_end
001000b8 l       .mb2_hdr	00000000 mb2_frame_buffer_req
001000cc l       .mb2_hdr	00000000 mb2_framebuffer_end
c01110dc l       .bss	00000000 boot_stack_base
c010c000 l       .bss	00000000 boot_page_directory
c010d000 l       .bss	00000000 boot_page_table1
0010000a l       .multiboot.text	00000000 fill_garbage
00100028 l       .multiboot.text	00000000 end_garbage
c0101060 l       .text	00000000 flush
00000000 l    df *ABS*	00000000 pmm.c
c010a000 l     O .data	00000004 mem_top
c010a004 l     O .data	00000004 mem_bottom
00000000 l    df *ABS*	00000000 vmm.c
c010e014 l     O .bss	00000004 mem_top
c010e018 l     O .bss	00000004 mem_bottom
00000000 l    df *ABS*	00000000 mb_parse.c
c010e028 l     O .bss	00000004 mem_top
c010e02c l     O .bss	00000004 mem_bottom
c010e030 l     O .bss	00000004 bypp
00000000 l    df *ABS*	00000000 gdt.c
00000000 l    df *ABS*	00000000 idt.c
c010e080 l     O .bss	00000800 idt
c010e880 l     O .bss	00000006 idtr
00000000 l    df *ABS*	00000000 paging.c
c0111000 l     O .bss	00000004 mem_top
c0111004 l     O .bss	00000004 mem_bottom
c0111008 l     O .bss	00000004 max_bit_extension
c0103490 l       .text	00000000 eip_get2
c010348e l       .text	00000000 eip_get1
c0103495 l       .text	00000000 eip_get_fin
c01035d4 l       .text	00000000 disable_paging
c01035fb l       .text	00000000 reset_eip
00000000 l    df *ABS*	00000000 kernel.c
c0111010 l     O .bss	00000004 mem_top
c0111014 l     O .bss	00000004 mem_bottom
c0103760 l     F .text	000000c1 init_serial
00000000 l    df *ABS*	00000000 string.c
00000000 l    df *ABS*	00000000 heap.c
c0104014 l     F .text	0000001e get_iflag
00000000 l    df *ABS*	00000000 idtStub.o
c0104322 l       .text	00000000 isr_frame_as
c0104354 l       .text	00000000 irq_frame
c01043aa l       .text	00000000 process_switch_frame
00000000 l    df *ABS*	00000000 apic.c
c0104582 l     F .text	0000001b io_wait
00000000 l    df *ABS*	00000000 timer.c
00000000 l    df *ABS*	00000000 keyboard.c
c0104bcb l     F .text	0000001b io_wait
c0111089 l     O .bss	00000001 current_masks
00000000 l    df *ABS*	00000000 framebuffer.c
00000000 l    df *ABS*	00000000 ps2.c
00000000 l    df *ABS*	00000000 scheduler.c
c01110b4 l     O .bss	00000004 mem_top
c01110b8 l     O .bss	00000004 mem_bottom
00000000 l    df *ABS*	00000000 terminal.c
c01110d8 l     O .bss	00000004 term_bg
c010a188 l     O .data	00000004 term_fg
00000000 l    df *ABS*	00000000 rbtree.c
00000000 l    df *ABS*	00000000 asm_tools.c
c0102728 g     F .text	00000059 kernel_stack_fn
c0101611 g     F .text	00000033 pae_kalloc
c010f000 g     O .bss	00001000 kernel_pd
c0105964 g     F .text	0000000a get_process_head
c010129b g     F .text	00000010 physical_to_frame
c01044dc g     F .text	00000000 isr_stub_17
c0104938 g     F .text	000000c0 calibrate_timer
c0106a4e g     F .text	00000118 printf
c01044b8 g     F .text	00000000 isr_stub_13
c0104664 g     F .text	00000022 read_ioapic_register
c0111088 g     O .bss	00000001 key_buffer_pos
c0101470 g     F .text	00000109 create_vmm
c01110cd g     O .bss	00000001 term_flushed
c01044c0 g     F .text	00000000 isr_stub_14
c0111094 g     O .bss	00000002 cursor_xpaws
c0101a70 g     F .text	00000088 vmm_page_free
c0111044 g     O .bss	00000004 key_codes
c0103082 g     F .text	0000000c load_page_directory
c0103f27 g     F .text	00000016 memmove
c01026e0 g     F .text	00000048 stack_trace
c0111020 g     O .bss	00000004 glob_lapic_addr
c01015ab g     F .text	0000001d page_kfree
c0105634 g     F .text	0000006f ps2_send_byte_port2
c010448e g     F .text	00000000 isr_stub_8
c0101dd2 g     F .text	000000ae parse_MADT
c010a008 g     O .data	00000004 pre_mem
c010579c g     F .text	00000006 run_idle
c0104b83 g     F .text	0000000d poll_timer
c0103631 g     F .text	000000ff pg_init
c010576b g     F .text	00000031 ps2_send_command
c010e068 g     O .bss	00000006 gp
c0103a5b g     F .text	00000196 logf
c0111060 g     O .bss	00000028 key_buffer
c0105b99 g     F .text	00000037 kill_current_process
c010385e g     F .text	00000106 log_integer_to_serial
c0106c16 g     F .text	00000013 tflush
c01077a9 g     F .text	0000020a delete_node
c01015c8 g     F .text	0000002c page_alloc
c0101122 g     F .text	0000004c pre_malloc
c011101c g     O .bss	00000004 cur_heap_pos
c010a186 g     O .data	00000002 user_char_index
c01070cb g     F .text	0000008e rb_left_rotation
c0104686 g     F .text	00000026 write_ioapic_register
c01011f9 g     F .text	00000043 clear_frame
c0103730 g     F .text	00000019 inportb
c0102d23 g     F .text	000000a0 pae_unmap
c0110000 g     O .bss	00001000 kernel_pt
c0102216 g     F .text	0000009f gdt_install
c0111024 g     O .bss	00000004 glob_ioapic_addr
c0103eea g     F .text	0000003d memcpy
c0101814 g     F .text	0000025c vmm_page_alloc
c0104227 g     F .text	000000fb kfree
c0102b30 g     F .text	000000af memory_unmap
c0111040 g     O .bss	00000000 extended_key_lookup
c0103c21 g     F .text	0000003c test_func
c0104448 g       .text	00000000 isr_stub_1
c0104086 g     F .text	00000006 malloc
c0101442 g     F .text	0000002e convert_x86_32_vm_flags
c0106df8 g     F .text	00000088 next_keycode
c0104552 g       .text	00000000 isr_stub_29
c01045cf g     F .text	00000095 get_cpuid
c0105420 g     F .text	00000026 get_glyph
c010e024 g     O .bss	00000004 old_acpi
c010440a g     F .text	00000000 irq_stub_128
c01055bb g     F .text	0000001c check_status
c0102bdf g     F .text	00000144 pae_mmap
c01065f8 g     F .text	000000a3 parse_color
c0107471 g     F .text	00000338 delete_violations
c0106545 g     F .text	00000076 write_char_text_buffer
c0104470 g       .text	00000000 isr_stub_5
c0105e9d g     F .text	000004f4 keycode_to_keysym
c0104502 g       .text	00000000 isr_stub_21
c01044c8 g       .text	00000000 isr_stub_15
c01044ee g       .text	00000000 isr_stub_19
c0106c29 g     F .text	00000021 bark_process
c010669b g     F .text	0000021c draw_text_buffer
c0101af8 g     F .text	000000b1 pae_page_free
c010101f g     F .text	00000000 irq_asm_1
c01110c0 g     O .bss	00000004 text_buffer
c0105d86 g     F .text	000000dd schedule
c010456e g     F .text	00000000 irq_stub_49
c010e020 g     O .bss	00000004 fb
c0107a38 g     F .text	00000073 find_node
c0111018 g     O .bss	00000004 heap_start
c0101ec0 g     F .text	000000b2 get_sdt_by_signature
c0102178 g     F .text	0000009e gdt_set_gate
c0101f72 g     F .text	000000bb init_rsdt_v1
c0104803 g     F .text	00000020 lapic_write_reg
c0105446 g     F .text	000000c1 fill_square
c010e074 g     O .bss	00000004 pesp
c01120dc g       .bss	00000000 _kernel_end
c0104032 g     F .text	00000054 init_heap
c0101031 g     F .text	00000000 enable_paging
c0101c0a g     F .text	0000006e get_pixel_addr
c010e010 g     O .bss	00000004 kernel_vmm
c010695f g     F .text	000000ef term_render_hex
c010443e g       .text	00000000 isr_stub_0
c01044a8 g     F .text	00000000 isr_stub_11
c010e008 g     O .bss	00000004 last_frame
c010a184 g     O .data	00000001 font_size
c011108c g     O .bss	00000004 fb_virt_addr
c0103c5d g     F .text	00000224 kernel_main
c0106c4a g     F .text	000001ae parse_user_chars
c0111090 g     O .bss	00000004 font_head
c010308e g     F .text	0000001c enable_paging_c
c0101309 g     F .text	00000070 transfer_dynamic
c01064be g     F .text	00000087 write_text_buffer
c0102dc3 g     F .text	0000006e create_new_pt
c0104a08 g     F .text	0000004d set_pit_one_shot
c010445c g       .text	00000000 isr_stub_3
c0102f98 g     F .text	00000044 newinit_pd
c010e00c g     O .bss	00000004 current_vmm
c0104548 g       .text	00000000 isr_stub_28
c01047be g     F .text	00000045 print_test_try
c010a00c g     O .data	00000008 test_try
c0101024 g     F .text	00000000 load_directory
c01012ab g     F .text	0000005e alloc_phys_page
c0103821 g     F .text	0000003d log_to_serial
c010292f g     F .text	00000093 print_status_term
c0104578 g     F .text	00000000 irq_stub_50
c010455c g     F .text	00000000 isr_stub_30
c010202d g     F .text	0000014b init_multiboot
c0101579 g     F .text	00000032 page_kalloc
c010336c g     F .text	000002c5 init_pae
c0102f25 g     F .text	00000021 copy_kernel_map
c0103749 g     F .text	00000017 outportb
c01065bb g     F .text	0000003d single_shtoi
c010128b g     F .text	00000010 frame_to_physical
c01022b5 g     F .text	00000061 idt_set_gate
c0104516 g       .text	00000000 isr_stub_23
c011102c g     O .bss	00000004 calibrating
c0105e63 g     F .text	0000003a handle_schedule
c010b64c g       .data	00000000 _binary_font_psf_end
c0104b36 g     F .text	0000004d polled_sleep
c010485e g     F .text	0000001e set_initial_lapic_timer_count
00100000 g     F .multiboot.text	00000000 _start
c01055d7 g     F .text	0000005d ps2_send_byte_port1
c0101061 g     F .text	000000c1 set_memory_map
c01064b2 g     F .text	0000000c is_term_ready
c0102781 g     F .text	000001ae exc_print
c0102aa0 g     F .text	00000090 memory_map
c010470e g     F .text	000000b0 init_ioapic
c0101ba9 g     F .text	00000020 init_user_memory
c0107159 g     F .text	0000008e rb_right_rotation
c01057a2 g     F .text	00000013 set_current_process_idle
c01073b4 g     F .text	000000bd insert_node
c0103fcf g     F .text	00000045 strncpy
c010555f g     F .text	0000005c put_pixel
c01110ac g     O .bss	00000004 initialized
c0104564 g       .text	00000000 isr_stub_31
c01031cf g     F .text	0000019d transfer_pages_to_pae
c01056c8 g     F .text	00000040 ps2_get_responce_to
c01057d9 g     F .text	0000002c init_scheduler
c01110a8 g     O .bss	00000004 idle_process
c0102316 g     F .text	000003ca init_idt
c0103bf1 g     F .text	00000018 panic
c0104452 g       .text	00000000 isr_stub_2
c01110c8 g     O .bss	00000002 textbuf_loc
c0101379 g     F .text	000000c9 kinit
c011109c g     O .bss	00000001 bpp
c0103e81 g     F .text	00000069 memcmp
c0111098 g     O .bss	00000002 screen_width
c01120dc g       .bss	00000000 stack_top
c0107080 g     F .text	0000004b free_node_obj
c01044d2 g       .text	00000000 isr_stub_16
c0104c98 g     F .text	0000018e handle_keychange
c0106391 g     F .text	00000121 scroll_text_buffer_down
c0105805 g     F .text	00000093 add_process
c010488e g     F .text	0000001d send_EOI
c0102e31 g     F .text	000000f4 create_new_pae_pt
c0104a55 g     F .text	000000e1 disable_pic
c0103c1a g     F .text	00000007 test_test
c011109a g     O .bss	00000002 screen_height
c0103f3d  w    F .text	0000002b memset
c0104520 g       .text	00000000 isr_stub_24
c01110cc g     O .bss	00000001 term_ready
c01052c7 g     F .text	00000159 fb_put_glyph
c010596e g     F .text	0000022b create_new_pdptes
c01044f8 g       .text	00000000 isr_stub_20
c0102fdc g     F .text	000000a6 init_kpt
c010452a g       .text	00000000 isr_stub_25
c010e040 g     O .bss	00000028 desc
c01057b5 g     F .text	00000024 init_idle_process
c01110b0 g     O .bss	00000004 next_free_pid
c0104823 g     F .text	0000001c lapic_read_reg
c011100c g     O .bss	00000001 task_state
c010487c g     F .text	00000012 get_lapic_timer_count
c01015f4 g     F .text	0000001d page_free
c0102a68 g     F .text	00000038 isr_handler
c0111028 g     O .bss	00000004 ticks_per_ms
c0103964 g     F .text	000000f7 print_hex
c0104430 g     F .text	00000000 irq_stub_48
c010176e g     F .text	0000000e set_kernel_vmm
c0103f8c g     F .text	00000043 strcmp
c0101644 g     F .text	0000001d pae_kfree
c0104534 g       .text	00000000 isr_stub_26
c0105bd0 g     F .text	000001b6 create_process
c0105708 g     F .text	00000063 ps2_send_dbyte
c0102f46 g     F .text	00000028 copy_higher_half_kernel_pd
c0105507 g     F .text	00000058 init_font
c0106e80 g     F .text	00000086 terminal_loop
c010459d g     F .text	00000032 get_apic_addr
c01048ab g     F .text	0000008d init_apic
c01110d0 g     O .bss	00000004 max_char_x
c010e070 g     O .bss	00000004 kesp
c010e004 g     O .bss	00000004 num_frames
c01110ca g     O .bss	00000002 cur_lines
c01056a3 g     F .text	00000025 ps2_get_responce
c0104484 g       .text	00000000 isr_stub_7
c010a18c g       .data	00000000 _binary_font_psf_start
c01016b1 g     F .text	000000bd vmm_transfer_dynamic
c01029c2 g     F .text	000000a6 irq_handler
c0104466 g       .text	00000000 isr_stub_4
c0106f06 g     F .text	00000037 start_terminal
c0104e26 g     F .text	000002c8 init_ps2_controller
c01030aa g     F .text	00000125 handle_exception
c010527b g     F .text	0000001a fb_set_width
c01079b3 g     F .text	00000085 make_node
c0102f6e g     F .text	0000002a copy_kernel_pd_index
c01110a4 g     O .bss	00000004 current_process
c010e01c g     O .bss	00000004 rsdt_addr
c0101c78 g     F .text	0000015a init_framebuffer
c0101043 g     F .text	00000000 flush_gdt
c01068b7 g     F .text	000000a8 draw_user_chars
c0111096 g     O .bss	00000002 cursor_ypaws
c0105295 g     F .text	00000018 fb_set_bpp
c0103c09 g     F .text	00000011 triple_fault
c01044e4 g       .text	00000000 isr_stub_18
c01071e7 g     F .text	000001cd insert_violations
c01110a0 g     O .bss	00000004 process_list_head
c01046ac g     F .text	00000062 ioapic_pit_irq
c01052ad g     F .text	0000001a fb_set_height
c0104b90 g     F .text	0000003b arm_interrupt_timer
c0106b66 g     F .text	000000b0 write_user_char
c0105898 g     F .text	000000cc delete_process
c010704c g     F .text	00000034 alloc_node_obj
c010483f g     F .text	0000001f lapic_timer_init
c0106f3d g     F .text	0000010f init_terminal
c01044a0 g     F .text	00000000 isr_stub_10
c01044b0 g     F .text	00000000 isr_stub_12
c01110c4 g     O .bss	00000004 user_chars
c010447a g       .text	00000000 isr_stub_6
000014c0 g       *ABS*	00000000 _binary_font_psf_size
c010116e g     F .text	0000008b get_first_frame
c0101e80 g     F .text	00000040 validate_RSDP
c0103f68 g     F .text	00000024 strlen
c010177c g     F .text	00000098 set_current_vmm
00100000 g       .multiboot.text	00000000 _kernel_start
c010e000 g     O .bss	00000004 frames
c010a020 g     O .data	00000164 key_lookup
c0101bc9 g     F .text	00000041 alloc_stack
c01049f8 g     F .text	00000010 end_calibration
c0104496 g       .text	00000000 isr_stub_9
c0104092 g     F .text	00000195 kalloc
c01050ee g     F .text	0000018d init_keyboard
c010450c g       .text	00000000 isr_stub_22
c0104be6 g     F .text	000000b2 handle_masks
c01110bc g     O .bss	00000001 key_buffer_tail
c010123c g     F .text	0000004f set_frame
c01110d4 g     O .bss	00000004 max_char_y
c010408c g     F .text	00000006 free
c0101694 g     F .text	0000001d pae_free
c010453e g       .text	00000000 isr_stub_27
c0101661 g     F .text	00000033 pae_alloc



Disassembly of section .multiboot.text:

00100000 <_start>:
  100000:	b9 00 00 00 00       	mov    $0x0,%ecx
  100005:	b8 00 c0 10 00       	mov    $0x10c000,%eax

0010000a <fill_garbage>:
  10000a:	c7 00 00 00 00 00    	movl   $0x0,(%eax)
  100010:	c7 80 00 10 00 00 00 	movl   $0x0,0x1000(%eax)
  100017:	00 00 00 
  10001a:	83 c0 04             	add    $0x4,%eax
  10001d:	83 c1 01             	add    $0x1,%ecx
  100020:	81 f9 00 04 00 00    	cmp    $0x400,%ecx
  100026:	7c e2                	jl     10000a <fill_garbage>

00100028 <end_garbage>:
  100028:	bc dc 20 11 c0       	mov    $0xc01120dc,%esp
  10002d:	bf 00 d0 10 00       	mov    $0x10d000,%edi
  100032:	be 00 00 00 00       	mov    $0x0,%esi
  100037:	b9 00 04 00 00       	mov    $0x400,%ecx
  10003c:	81 fe 00 00 10 00    	cmp    $0x100000,%esi
  100042:	7c 0f                	jl     100053 <end_garbage+0x2b>
  100044:	81 fe dc 20 11 00    	cmp    $0x1120dc,%esi
  10004a:	7d 12                	jge    10005e <end_garbage+0x36>
  10004c:	89 f2                	mov    %esi,%edx
  10004e:	83 ca 03             	or     $0x3,%edx
  100051:	89 17                	mov    %edx,(%edi)
  100053:	81 c6 00 10 00 00    	add    $0x1000,%esi
  100059:	83 c7 04             	add    $0x4,%edi
  10005c:	e2 de                	loop   10003c <end_garbage+0x14>
  10005e:	c7 05 00 c0 10 00 03 	movl   $0x10d003,0x10c000
  100065:	d0 10 00 
  100068:	c7 05 00 cc 10 00 03 	movl   $0x10d003,0x10cc00
  10006f:	d0 10 00 
  100072:	c7 05 fc cf 10 00 03 	movl   $0x10c003,0x10cffc
  100079:	c0 10 00 
  10007c:	b9 00 c0 10 00       	mov    $0x10c000,%ecx
  100081:	0f 22 d9             	mov    %ecx,%cr3
  100084:	0f 20 d8             	mov    %cr3,%eax
  100087:	a1 00 b4 10 00       	mov    0x10b400,%eax
  10008c:	3d 03 00 10 00       	cmp    $0x100003,%eax
  100091:	fa                   	cli
  100092:	0f 20 c1             	mov    %cr0,%ecx
  100095:	81 c9 01 00 00 80    	or     $0x80000001,%ecx
  10009b:	0f 22 c1             	mov    %ecx,%cr0
  10009e:	8d 0d 00 10 10 c0    	lea    0xc0101000,%ecx
  1000a4:	ff e1                	jmp    *%ecx

Disassembly of section .mb2_hdr:

001000a8 <mb2_hdr_begin>:
  1000a8:	d6                   	(bad)
  1000a9:	50                   	push   %eax
  1000aa:	52                   	push   %edx
  1000ab:	e8 00 00 00 00       	call   1000b0 <mb2_hdr_begin+0x8>
  1000b0:	30 00                	xor    %al,(%eax)
  1000b2:	00 00                	add    %al,(%eax)
  1000b4:	fa                   	cli
  1000b5:	ae                   	scas   %es:(%edi),%al
  1000b6:	ad                   	lods   %ds:(%esi),%eax
  1000b7:	17                   	pop    %ss

001000b8 <mb2_frame_buffer_req>:
  1000b8:	05 00 01 00 14       	add    $0x14000100,%eax
  1000bd:	00 00                	add    %al,(%eax)
  1000bf:	00 20                	add    %ah,(%eax)
  1000c1:	03 00                	add    (%eax),%eax
  1000c3:	00 58 02             	add    %bl,0x2(%eax)
  1000c6:	00 00                	add    %al,(%eax)
  1000c8:	00 00                	add    %al,(%eax)
	...

001000cc <mb2_framebuffer_end>:
	...
  1000d4:	08 00                	or     %al,(%eax)
	...

Disassembly of section .text:

c0101000 <irq_asm_1-0x1f>:
c0101000:	c7 05 00 c0 10 c0 00 	movl   $0x0,0xc010c000
c0101007:	00 00 00 
c010100a:	0f 20 d9             	mov    %cr3,%ecx
c010100d:	0f 22 d9             	mov    %ecx,%cr3
c0101010:	53                   	push   %ebx
c0101011:	68 00 c0 10 c0       	push   $0xc010c000
c0101016:	e8 42 2c 00 00       	call   c0103c5d <kernel_main>
c010101b:	fa                   	cli
c010101c:	f4                   	hlt
c010101d:	eb fd                	jmp    c010101c <BOOTLOC+0x10101c>

c010101f <irq_asm_1>:
c010101f:	bb ef be e0 ce       	mov    $0xcee0beef,%ebx

c0101024 <load_directory>:
c0101024:	55                   	push   %ebp
c0101025:	89 e5                	mov    %esp,%ebp
c0101027:	8b 45 08             	mov    0x8(%ebp),%eax
c010102a:	0f 22 d8             	mov    %eax,%cr3
c010102d:	89 ec                	mov    %ebp,%esp
c010102f:	5d                   	pop    %ebp
c0101030:	c3                   	ret

c0101031 <enable_paging>:
c0101031:	55                   	push   %ebp
c0101032:	89 e5                	mov    %esp,%ebp
c0101034:	0f 20 c0             	mov    %cr0,%eax
c0101037:	0d 00 00 00 80       	or     $0x80000000,%eax
c010103c:	0f 22 c0             	mov    %eax,%cr0
c010103f:	89 ec                	mov    %ebp,%esp
c0101041:	5d                   	pop    %ebp
c0101042:	c3                   	ret

c0101043 <flush_gdt>:
c0101043:	8b 44 24 04          	mov    0x4(%esp),%eax
c0101047:	fa                   	cli
c0101048:	0f 01 10             	lgdtl  (%eax)
c010104b:	66 b8 10 00          	mov    $0x10,%ax
c010104f:	8e d8                	mov    %eax,%ds
c0101051:	8e c0                	mov    %eax,%es
c0101053:	8e e0                	mov    %eax,%fs
c0101055:	8e e8                	mov    %eax,%gs
c0101057:	8e d0                	mov    %eax,%ss
c0101059:	ea 60 10 10 c0 08 00 	ljmp   $0x8,$0xc0101060

c0101060 <flush>:
c0101060:	c3                   	ret

c0101061 <set_memory_map>:
c0101061:	55                   	push   %ebp
c0101062:	89 e5                	mov    %esp,%ebp
c0101064:	53                   	push   %ebx
c0101065:	83 ec 24             	sub    $0x24,%esp
c0101068:	8b 45 08             	mov    0x8(%ebp),%eax
c010106b:	8b 40 04             	mov    0x4(%eax),%eax
c010106e:	8d 48 f0             	lea    -0x10(%eax),%ecx
c0101071:	8b 45 08             	mov    0x8(%ebp),%eax
c0101074:	8b 58 08             	mov    0x8(%eax),%ebx
c0101077:	89 c8                	mov    %ecx,%eax
c0101079:	ba 00 00 00 00       	mov    $0x0,%edx
c010107e:	f7 f3                	div    %ebx
c0101080:	89 45 f0             	mov    %eax,-0x10(%ebp)
c0101083:	c7 45 f4 00 00 00 00 	movl   $0x0,-0xc(%ebp)
c010108a:	e9 80 00 00 00       	jmp    c010110f <set_memory_map+0xae>
c010108f:	8b 4d 08             	mov    0x8(%ebp),%ecx
c0101092:	8b 55 f4             	mov    -0xc(%ebp),%edx
c0101095:	89 d0                	mov    %edx,%eax
c0101097:	01 c0                	add    %eax,%eax
c0101099:	01 d0                	add    %edx,%eax
c010109b:	c1 e0 03             	shl    $0x3,%eax
c010109e:	01 c8                	add    %ecx,%eax
c01010a0:	83 c0 10             	add    $0x10,%eax
c01010a3:	8b 10                	mov    (%eax),%edx
c01010a5:	89 55 d8             	mov    %edx,-0x28(%ebp)
c01010a8:	8b 50 04             	mov    0x4(%eax),%edx
c01010ab:	89 55 dc             	mov    %edx,-0x24(%ebp)
c01010ae:	8b 50 08             	mov    0x8(%eax),%edx
c01010b1:	89 55 e0             	mov    %edx,-0x20(%ebp)
c01010b4:	8b 50 0c             	mov    0xc(%eax),%edx
c01010b7:	89 55 e4             	mov    %edx,-0x1c(%ebp)
c01010ba:	8b 50 10             	mov    0x10(%eax),%edx
c01010bd:	89 55 e8             	mov    %edx,-0x18(%ebp)
c01010c0:	8b 40 14             	mov    0x14(%eax),%eax
c01010c3:	89 45 ec             	mov    %eax,-0x14(%ebp)
c01010c6:	8b 45 e8             	mov    -0x18(%ebp),%eax
c01010c9:	83 f8 01             	cmp    $0x1,%eax
c01010cc:	75 3d                	jne    c010110b <set_memory_map+0xaa>
c01010ce:	8b 45 d8             	mov    -0x28(%ebp),%eax
c01010d1:	8b 55 dc             	mov    -0x24(%ebp),%edx
c01010d4:	a3 04 a0 10 c0       	mov    %eax,0xc010a004
c01010d9:	8b 45 d8             	mov    -0x28(%ebp),%eax
c01010dc:	8b 55 dc             	mov    -0x24(%ebp),%edx
c01010df:	89 c1                	mov    %eax,%ecx
c01010e1:	8b 45 e0             	mov    -0x20(%ebp),%eax
c01010e4:	8b 55 e4             	mov    -0x1c(%ebp),%edx
c01010e7:	01 c8                	add    %ecx,%eax
c01010e9:	a3 00 a0 10 c0       	mov    %eax,0xc010a000
c01010ee:	8b 15 00 a0 10 c0    	mov    0xc010a000,%edx
c01010f4:	a1 04 a0 10 c0       	mov    0xc010a004,%eax
c01010f9:	83 ec 04             	sub    $0x4,%esp
c01010fc:	52                   	push   %edx
c01010fd:	50                   	push   %eax
c01010fe:	68 00 80 10 c0       	push   $0xc0108000
c0101103:	e8 53 29 00 00       	call   c0103a5b <logf>
c0101108:	83 c4 10             	add    $0x10,%esp
c010110b:	83 45 f4 01          	addl   $0x1,-0xc(%ebp)
c010110f:	8b 45 f4             	mov    -0xc(%ebp),%eax
c0101112:	3b 45 f0             	cmp    -0x10(%ebp),%eax
c0101115:	0f 8c 74 ff ff ff    	jl     c010108f <set_memory_map+0x2e>
c010111b:	90                   	nop
c010111c:	90                   	nop
c010111d:	8b 5d fc             	mov    -0x4(%ebp),%ebx
c0101120:	c9                   	leave
c0101121:	c3                   	ret

c0101122 <pre_malloc>:
c0101122:	55                   	push   %ebp
c0101123:	89 e5                	mov    %esp,%ebp
c0101125:	83 ec 10             	sub    $0x10,%esp
c0101128:	a1 08 a0 10 c0       	mov    0xc010a008,%eax
c010112d:	05 ff 03 00 00       	add    $0x3ff,%eax
c0101132:	25 00 fc ff ff       	and    $0xfffffc00,%eax
c0101137:	89 45 fc             	mov    %eax,-0x4(%ebp)
c010113a:	8b 45 08             	mov    0x8(%ebp),%eax
c010113d:	05 ff 03 00 00       	add    $0x3ff,%eax
c0101142:	25 00 fc ff ff       	and    $0xfffffc00,%eax
c0101147:	89 c2                	mov    %eax,%edx
c0101149:	a1 08 a0 10 c0       	mov    0xc010a008,%eax
c010114e:	01 d0                	add    %edx,%eax
c0101150:	a3 08 a0 10 c0       	mov    %eax,0xc010a008
c0101155:	83 7d 0c 00          	cmpl   $0x0,0xc(%ebp)
c0101159:	74 0e                	je     c0101169 <pre_malloc+0x47>
c010115b:	8b 45 fc             	mov    -0x4(%ebp),%eax
c010115e:	8d 90 00 00 00 40    	lea    0x40000000(%eax),%edx
c0101164:	8b 45 0c             	mov    0xc(%ebp),%eax
c0101167:	89 10                	mov    %edx,(%eax)
c0101169:	8b 45 fc             	mov    -0x4(%ebp),%eax
c010116c:	c9                   	leave
c010116d:	c3                   	ret

c010116e <get_first_frame>:
c010116e:	55                   	push   %ebp
c010116f:	89 e5                	mov    %esp,%ebp
c0101171:	83 ec 10             	sub    $0x10,%esp
c0101174:	c7 45 fc 00 00 00 00 	movl   $0x0,-0x4(%ebp)
c010117b:	eb 6b                	jmp    c01011e8 <get_first_frame+0x7a>
c010117d:	a1 00 e0 10 c0       	mov    0xc010e000,%eax
c0101182:	8b 55 fc             	mov    -0x4(%ebp),%edx
c0101185:	c1 e2 02             	shl    $0x2,%edx
c0101188:	01 d0                	add    %edx,%eax
c010118a:	8b 00                	mov    (%eax),%eax
c010118c:	83 f8 ff             	cmp    $0xffffffff,%eax
c010118f:	74 53                	je     c01011e4 <get_first_frame+0x76>
c0101191:	c7 45 f8 00 00 00 00 	movl   $0x0,-0x8(%ebp)
c0101198:	eb 44                	jmp    c01011de <get_first_frame+0x70>
c010119a:	8b 45 f8             	mov    -0x8(%ebp),%eax
c010119d:	ba 01 00 00 00       	mov    $0x1,%edx
c01011a2:	89 c1                	mov    %eax,%ecx
c01011a4:	d3 e2                	shl    %cl,%edx
c01011a6:	89 d0                	mov    %edx,%eax
c01011a8:	89 45 f4             	mov    %eax,-0xc(%ebp)
c01011ab:	a1 00 e0 10 c0       	mov    0xc010e000,%eax
c01011b0:	8b 55 fc             	mov    -0x4(%ebp),%edx
c01011b3:	c1 e2 02             	shl    $0x2,%edx
c01011b6:	01 d0                	add    %edx,%eax
c01011b8:	8b 00                	mov    (%eax),%eax
c01011ba:	23 45 f4             	and    -0xc(%ebp),%eax
c01011bd:	85 c0                	test   %eax,%eax
c01011bf:	75 19                	jne    c01011da <get_first_frame+0x6c>
c01011c1:	8b 45 fc             	mov    -0x4(%ebp),%eax
c01011c4:	c1 e0 05             	shl    $0x5,%eax
c01011c7:	89 c2                	mov    %eax,%edx
c01011c9:	8b 45 f8             	mov    -0x8(%ebp),%eax
c01011cc:	01 d0                	add    %edx,%eax
c01011ce:	a3 08 e0 10 c0       	mov    %eax,0xc010e008
c01011d3:	a1 08 e0 10 c0       	mov    0xc010e008,%eax
c01011d8:	eb 1d                	jmp    c01011f7 <get_first_frame+0x89>
c01011da:	83 45 f8 01          	addl   $0x1,-0x8(%ebp)
c01011de:	83 7d f8 1f          	cmpl   $0x1f,-0x8(%ebp)
c01011e2:	7e b6                	jle    c010119a <get_first_frame+0x2c>
c01011e4:	83 45 fc 01          	addl   $0x1,-0x4(%ebp)
c01011e8:	a1 04 e0 10 c0       	mov    0xc010e004,%eax
c01011ed:	39 45 fc             	cmp    %eax,-0x4(%ebp)
c01011f0:	72 8b                	jb     c010117d <get_first_frame+0xf>
c01011f2:	b8 ff ff ff ff       	mov    $0xffffffff,%eax
c01011f7:	c9                   	leave
c01011f8:	c3                   	ret

c01011f9 <clear_frame>:
c01011f9:	55                   	push   %ebp
c01011fa:	89 e5                	mov    %esp,%ebp
c01011fc:	53                   	push   %ebx
c01011fd:	8b 0d 00 e0 10 c0    	mov    0xc010e000,%ecx
c0101203:	8b 45 08             	mov    0x8(%ebp),%eax
c0101206:	c1 e8 05             	shr    $0x5,%eax
c0101209:	8d 14 85 00 00 00 00 	lea    0x0(,%eax,4),%edx
c0101210:	01 ca                	add    %ecx,%edx
c0101212:	8b 12                	mov    (%edx),%edx
c0101214:	8b 4d 08             	mov    0x8(%ebp),%ecx
c0101217:	83 e1 1f             	and    $0x1f,%ecx
c010121a:	bb 01 00 00 00       	mov    $0x1,%ebx
c010121f:	d3 e3                	shl    %cl,%ebx
c0101221:	89 d9                	mov    %ebx,%ecx
c0101223:	f7 d1                	not    %ecx
c0101225:	89 cb                	mov    %ecx,%ebx
c0101227:	8b 0d 00 e0 10 c0    	mov    0xc010e000,%ecx
c010122d:	c1 e0 02             	shl    $0x2,%eax
c0101230:	01 c8                	add    %ecx,%eax
c0101232:	21 da                	and    %ebx,%edx
c0101234:	89 10                	mov    %edx,(%eax)
c0101236:	90                   	nop
c0101237:	8b 5d fc             	mov    -0x4(%ebp),%ebx
c010123a:	c9                   	leave
c010123b:	c3                   	ret

c010123c <set_frame>:
c010123c:	55                   	push   %ebp
c010123d:	89 e5                	mov    %esp,%ebp
c010123f:	53                   	push   %ebx
c0101240:	83 ec 10             	sub    $0x10,%esp
c0101243:	8b 45 08             	mov    0x8(%ebp),%eax
c0101246:	c1 e8 05             	shr    $0x5,%eax
c0101249:	89 45 f8             	mov    %eax,-0x8(%ebp)
c010124c:	8b 45 08             	mov    0x8(%ebp),%eax
c010124f:	83 e0 1f             	and    $0x1f,%eax
c0101252:	89 45 f4             	mov    %eax,-0xc(%ebp)
c0101255:	a1 00 e0 10 c0       	mov    0xc010e000,%eax
c010125a:	8b 55 f8             	mov    -0x8(%ebp),%edx
c010125d:	c1 e2 02             	shl    $0x2,%edx
c0101260:	01 d0                	add    %edx,%eax
c0101262:	8b 10                	mov    (%eax),%edx
c0101264:	8b 45 f4             	mov    -0xc(%ebp),%eax
c0101267:	bb 01 00 00 00       	mov    $0x1,%ebx
c010126c:	89 c1                	mov    %eax,%ecx
c010126e:	d3 e3                	shl    %cl,%ebx
c0101270:	89 d8                	mov    %ebx,%eax
c0101272:	89 c3                	mov    %eax,%ebx
c0101274:	a1 00 e0 10 c0       	mov    0xc010e000,%eax
c0101279:	8b 4d f8             	mov    -0x8(%ebp),%ecx
c010127c:	c1 e1 02             	shl    $0x2,%ecx
c010127f:	01 c8                	add    %ecx,%eax
c0101281:	09 da                	or     %ebx,%edx
c0101283:	89 10                	mov    %edx,(%eax)
c0101285:	90                   	nop
c0101286:	8b 5d fc             	mov    -0x4(%ebp),%ebx
c0101289:	c9                   	leave
c010128a:	c3                   	ret

c010128b <frame_to_physical>:
c010128b:	55                   	push   %ebp
c010128c:	89 e5                	mov    %esp,%ebp
c010128e:	8b 45 08             	mov    0x8(%ebp),%eax
c0101291:	05 00 01 00 00       	add    $0x100,%eax
c0101296:	c1 e0 0c             	shl    $0xc,%eax
c0101299:	5d                   	pop    %ebp
c010129a:	c3                   	ret

c010129b <physical_to_frame>:
c010129b:	55                   	push   %ebp
c010129c:	89 e5                	mov    %esp,%ebp
c010129e:	8b 45 08             	mov    0x8(%ebp),%eax
c01012a1:	2d 00 00 10 00       	sub    $0x100000,%eax
c01012a6:	c1 e8 0c             	shr    $0xc,%eax
c01012a9:	5d                   	pop    %ebp
c01012aa:	c3                   	ret

c01012ab <alloc_phys_page>:
c01012ab:	55                   	push   %ebp
c01012ac:	89 e5                	mov    %esp,%ebp
c01012ae:	83 ec 18             	sub    $0x18,%esp
c01012b1:	e8 b8 fe ff ff       	call   c010116e <get_first_frame>
c01012b6:	89 45 f4             	mov    %eax,-0xc(%ebp)
c01012b9:	83 7d f4 ff          	cmpl   $0xffffffff,-0xc(%ebp)
c01012bd:	75 0c                	jne    c01012cb <alloc_phys_page+0x20>
c01012bf:	b8 00 00 00 00       	mov    $0x0,%eax
c01012c4:	ba 00 00 00 00       	mov    $0x0,%edx
c01012c9:	eb 3c                	jmp    c0101307 <alloc_phys_page+0x5c>
c01012cb:	ff 75 f4             	push   -0xc(%ebp)
c01012ce:	e8 69 ff ff ff       	call   c010123c <set_frame>
c01012d3:	83 c4 04             	add    $0x4,%esp
c01012d6:	ff 75 f4             	push   -0xc(%ebp)
c01012d9:	e8 ad ff ff ff       	call   c010128b <frame_to_physical>
c01012de:	83 c4 04             	add    $0x4,%esp
c01012e1:	3d 00 00 00 01       	cmp    $0x1000000,%eax
c01012e6:	76 10                	jbe    c01012f8 <alloc_phys_page+0x4d>
c01012e8:	83 ec 0c             	sub    $0xc,%esp
c01012eb:	68 20 80 10 c0       	push   $0xc0108020
c01012f0:	e8 fc 28 00 00       	call   c0103bf1 <panic>
c01012f5:	83 c4 10             	add    $0x10,%esp
c01012f8:	83 ec 0c             	sub    $0xc,%esp
c01012fb:	ff 75 f4             	push   -0xc(%ebp)
c01012fe:	e8 88 ff ff ff       	call   c010128b <frame_to_physical>
c0101303:	83 c4 10             	add    $0x10,%esp
c0101306:	99                   	cltd
c0101307:	c9                   	leave
c0101308:	c3                   	ret

c0101309 <transfer_dynamic>:
c0101309:	55                   	push   %ebp
c010130a:	89 e5                	mov    %esp,%ebp
c010130c:	83 ec 18             	sub    $0x18,%esp
c010130f:	a1 04 e0 10 c0       	mov    0xc010e004,%eax
c0101314:	83 ec 04             	sub    $0x4,%esp
c0101317:	6a 00                	push   $0x0
c0101319:	6a 03                	push   $0x3
c010131b:	50                   	push   %eax
c010131c:	e8 58 02 00 00       	call   c0101579 <page_kalloc>
c0101321:	83 c4 10             	add    $0x10,%esp
c0101324:	89 45 f4             	mov    %eax,-0xc(%ebp)
c0101327:	a1 00 e0 10 c0       	mov    0xc010e000,%eax
c010132c:	83 ec 08             	sub    $0x8,%esp
c010132f:	50                   	push   %eax
c0101330:	68 2f 80 10 c0       	push   $0xc010802f
c0101335:	e8 21 27 00 00       	call   c0103a5b <logf>
c010133a:	83 c4 10             	add    $0x10,%esp
c010133d:	8b 15 04 e0 10 c0    	mov    0xc010e004,%edx
c0101343:	a1 00 e0 10 c0       	mov    0xc010e000,%eax
c0101348:	83 ec 04             	sub    $0x4,%esp
c010134b:	52                   	push   %edx
c010134c:	50                   	push   %eax
c010134d:	ff 75 f4             	push   -0xc(%ebp)
c0101350:	e8 95 2b 00 00       	call   c0103eea <memcpy>
c0101355:	83 c4 10             	add    $0x10,%esp
c0101358:	8b 45 f4             	mov    -0xc(%ebp),%eax
c010135b:	a3 00 e0 10 c0       	mov    %eax,0xc010e000
c0101360:	a1 00 e0 10 c0       	mov    0xc010e000,%eax
c0101365:	83 ec 08             	sub    $0x8,%esp
c0101368:	50                   	push   %eax
c0101369:	68 48 80 10 c0       	push   $0xc0108048
c010136e:	e8 e8 26 00 00       	call   c0103a5b <logf>
c0101373:	83 c4 10             	add    $0x10,%esp
c0101376:	90                   	nop
c0101377:	c9                   	leave
c0101378:	c3                   	ret

c0101379 <kinit>:
c0101379:	55                   	push   %ebp
c010137a:	89 e5                	mov    %esp,%ebp
c010137c:	83 ec 18             	sub    $0x18,%esp
c010137f:	83 ec 08             	sub    $0x8,%esp
c0101382:	ff 75 08             	push   0x8(%ebp)
c0101385:	68 61 80 10 c0       	push   $0xc0108061
c010138a:	e8 cc 26 00 00       	call   c0103a5b <logf>
c010138f:	83 c4 10             	add    $0x10,%esp
c0101392:	81 7d 08 dc 20 11 c0 	cmpl   $0xc01120dc,0x8(%ebp)
c0101399:	72 10                	jb     c01013ab <kinit+0x32>
c010139b:	8b 15 08 a0 10 c0    	mov    0xc010a008,%edx
c01013a1:	8b 45 08             	mov    0x8(%ebp),%eax
c01013a4:	01 d0                	add    %edx,%eax
c01013a6:	a3 08 a0 10 c0       	mov    %eax,0xc010a008
c01013ab:	8b 15 08 a0 10 c0    	mov    0xc010a008,%edx
c01013b1:	8b 45 08             	mov    0x8(%ebp),%eax
c01013b4:	52                   	push   %edx
c01013b5:	50                   	push   %eax
c01013b6:	68 dc 20 11 c0       	push   $0xc01120dc
c01013bb:	68 70 80 10 c0       	push   $0xc0108070
c01013c0:	e8 96 26 00 00       	call   c0103a5b <logf>
c01013c5:	83 c4 10             	add    $0x10,%esp
c01013c8:	83 ec 08             	sub    $0x8,%esp
c01013cb:	68 00 0a 00 00       	push   $0xa00
c01013d0:	68 92 80 10 c0       	push   $0xc0108092
c01013d5:	e8 81 26 00 00       	call   c0103a5b <logf>
c01013da:	83 c4 10             	add    $0x10,%esp
c01013dd:	c7 05 04 e0 10 c0 00 	movl   $0xa00,0xc010e004
c01013e4:	0a 00 00 
c01013e7:	a1 04 e0 10 c0       	mov    0xc010e004,%eax
c01013ec:	83 ec 08             	sub    $0x8,%esp
c01013ef:	6a 00                	push   $0x0
c01013f1:	50                   	push   %eax
c01013f2:	e8 2b fd ff ff       	call   c0101122 <pre_malloc>
c01013f7:	83 c4 10             	add    $0x10,%esp
c01013fa:	a3 00 e0 10 c0       	mov    %eax,0xc010e000
c01013ff:	8b 15 04 e0 10 c0    	mov    0xc010e004,%edx
c0101405:	a1 00 e0 10 c0       	mov    0xc010e000,%eax
c010140a:	83 ec 04             	sub    $0x4,%esp
c010140d:	52                   	push   %edx
c010140e:	6a 00                	push   $0x0
c0101410:	50                   	push   %eax
c0101411:	e8 27 2b 00 00       	call   c0103f3d <memset>
c0101416:	83 c4 10             	add    $0x10,%esp
c0101419:	c7 45 f4 00 00 00 00 	movl   $0x0,-0xc(%ebp)
c0101420:	eb 13                	jmp    c0101435 <kinit+0xbc>
c0101422:	8b 45 f4             	mov    -0xc(%ebp),%eax
c0101425:	83 ec 0c             	sub    $0xc,%esp
c0101428:	50                   	push   %eax
c0101429:	e8 0e fe ff ff       	call   c010123c <set_frame>
c010142e:	83 c4 10             	add    $0x10,%esp
c0101431:	83 45 f4 01          	addl   $0x1,-0xc(%ebp)
c0101435:	83 7d f4 2f          	cmpl   $0x2f,-0xc(%ebp)
c0101439:	7e e7                	jle    c0101422 <kinit+0xa9>
c010143b:	a1 08 a0 10 c0       	mov    0xc010a008,%eax
c0101440:	c9                   	leave
c0101441:	c3                   	ret

c0101442 <convert_x86_32_vm_flags>:
c0101442:	55                   	push   %ebp
c0101443:	89 e5                	mov    %esp,%ebp
c0101445:	83 ec 10             	sub    $0x10,%esp
c0101448:	c7 45 fc 01 00 00 00 	movl   $0x1,-0x4(%ebp)
c010144f:	8b 45 08             	mov    0x8(%ebp),%eax
c0101452:	83 e0 02             	and    $0x2,%eax
c0101455:	85 c0                	test   %eax,%eax
c0101457:	74 04                	je     c010145d <convert_x86_32_vm_flags+0x1b>
c0101459:	83 4d fc 02          	orl    $0x2,-0x4(%ebp)
c010145d:	8b 45 08             	mov    0x8(%ebp),%eax
c0101460:	83 e0 04             	and    $0x4,%eax
c0101463:	85 c0                	test   %eax,%eax
c0101465:	74 04                	je     c010146b <convert_x86_32_vm_flags+0x29>
c0101467:	83 4d fc 04          	orl    $0x4,-0x4(%ebp)
c010146b:	8b 45 fc             	mov    -0x4(%ebp),%eax
c010146e:	c9                   	leave
c010146f:	c3                   	ret

c0101470 <create_vmm>:
c0101470:	55                   	push   %ebp
c0101471:	89 e5                	mov    %esp,%ebp
c0101473:	83 ec 18             	sub    $0x18,%esp
c0101476:	83 7d 14 00          	cmpl   $0x0,0x14(%ebp)
c010147a:	75 1f                	jne    c010149b <create_vmm+0x2b>
c010147c:	e8 2a fe ff ff       	call   c01012ab <alloc_phys_page>
c0101481:	6a 03                	push   $0x3
c0101483:	68 00 00 00 ff       	push   $0xff000000
c0101488:	50                   	push   %eax
c0101489:	ff 75 08             	push   0x8(%ebp)
c010148c:	e8 0f 16 00 00       	call   c0102aa0 <memory_map>
c0101491:	83 c4 10             	add    $0x10,%esp
c0101494:	c7 45 14 00 00 00 ff 	movl   $0xff000000,0x14(%ebp)
c010149b:	83 ec 08             	sub    $0x8,%esp
c010149e:	ff 75 14             	push   0x14(%ebp)
c01014a1:	68 a4 80 10 c0       	push   $0xc01080a4
c01014a6:	e8 b0 25 00 00       	call   c0103a5b <logf>
c01014ab:	83 c4 10             	add    $0x10,%esp
c01014ae:	83 ec 04             	sub    $0x4,%esp
c01014b1:	68 00 10 00 00       	push   $0x1000
c01014b6:	6a 00                	push   $0x0
c01014b8:	ff 75 14             	push   0x14(%ebp)
c01014bb:	e8 7d 2a 00 00       	call   c0103f3d <memset>
c01014c0:	83 c4 10             	add    $0x10,%esp
c01014c3:	8b 45 14             	mov    0x14(%ebp),%eax
c01014c6:	89 45 f4             	mov    %eax,-0xc(%ebp)
c01014c9:	8b 45 f4             	mov    -0xc(%ebp),%eax
c01014cc:	8b 55 08             	mov    0x8(%ebp),%edx
c01014cf:	89 10                	mov    %edx,(%eax)
c01014d1:	8b 45 f4             	mov    -0xc(%ebp),%eax
c01014d4:	c7 40 20 00 00 00 00 	movl   $0x0,0x20(%eax)
c01014db:	8b 45 14             	mov    0x14(%ebp),%eax
c01014de:	83 c0 30             	add    $0x30,%eax
c01014e1:	89 c2                	mov    %eax,%edx
c01014e3:	8b 45 f4             	mov    -0xc(%ebp),%eax
c01014e6:	89 50 24             	mov    %edx,0x24(%eax)
c01014e9:	8b 45 0c             	mov    0xc(%ebp),%eax
c01014ec:	05 ff 0f 00 00       	add    $0xfff,%eax
c01014f1:	25 00 f0 ff ff       	and    $0xfffff000,%eax
c01014f6:	83 ec 04             	sub    $0x4,%esp
c01014f9:	ff 75 10             	push   0x10(%ebp)
c01014fc:	50                   	push   %eax
c01014fd:	68 c0 80 10 c0       	push   $0xc01080c0
c0101502:	e8 54 25 00 00       	call   c0103a5b <logf>
c0101507:	83 c4 10             	add    $0x10,%esp
c010150a:	8b 45 0c             	mov    0xc(%ebp),%eax
c010150d:	05 ff 0f 00 00       	add    $0xfff,%eax
c0101512:	25 00 f0 ff ff       	and    $0xfffff000,%eax
c0101517:	89 c2                	mov    %eax,%edx
c0101519:	8b 45 f4             	mov    -0xc(%ebp),%eax
c010151c:	89 50 28             	mov    %edx,0x28(%eax)
c010151f:	8b 45 f4             	mov    -0xc(%ebp),%eax
c0101522:	8b 55 10             	mov    0x10(%ebp),%edx
c0101525:	89 50 2c             	mov    %edx,0x2c(%eax)
c0101528:	a1 10 e0 10 c0       	mov    0xc010e010,%eax
c010152d:	85 c0                	test   %eax,%eax
c010152f:	74 0e                	je     c010153f <create_vmm+0xcf>
c0101531:	a1 10 e0 10 c0       	mov    0xc010e010,%eax
c0101536:	8b 50 04             	mov    0x4(%eax),%edx
c0101539:	8b 45 f4             	mov    -0xc(%ebp),%eax
c010153c:	89 50 04             	mov    %edx,0x4(%eax)
c010153f:	8b 45 f4             	mov    -0xc(%ebp),%eax
c0101542:	8b 50 2c             	mov    0x2c(%eax),%edx
c0101545:	8b 45 f4             	mov    -0xc(%ebp),%eax
c0101548:	8b 40 28             	mov    0x28(%eax),%eax
c010154b:	6a 00                	push   $0x0
c010154d:	52                   	push   %edx
c010154e:	50                   	push   %eax
c010154f:	ff 75 f4             	push   -0xc(%ebp)
c0101552:	e8 5c 64 00 00       	call   c01079b3 <make_node>
c0101557:	83 c4 10             	add    $0x10,%esp
c010155a:	8b 45 f4             	mov    -0xc(%ebp),%eax
c010155d:	8b 40 20             	mov    0x20(%eax),%eax
c0101560:	8b 40 08             	mov    0x8(%eax),%eax
c0101563:	83 ec 08             	sub    $0x8,%esp
c0101566:	50                   	push   %eax
c0101567:	68 ec 80 10 c0       	push   $0xc01080ec
c010156c:	e8 ea 24 00 00       	call   c0103a5b <logf>
c0101571:	83 c4 10             	add    $0x10,%esp
c0101574:	8b 45 f4             	mov    -0xc(%ebp),%eax
c0101577:	c9                   	leave
c0101578:	c3                   	ret

c0101579 <page_kalloc>:
c0101579:	55                   	push   %ebp
c010157a:	89 e5                	mov    %esp,%ebp
c010157c:	83 ec 18             	sub    $0x18,%esp
c010157f:	8b 45 10             	mov    0x10(%ebp),%eax
c0101582:	ba 00 00 00 00       	mov    $0x0,%edx
c0101587:	8b 0d 10 e0 10 c0    	mov    0xc010e010,%ecx
c010158d:	83 ec 08             	sub    $0x8,%esp
c0101590:	6a 00                	push   $0x0
c0101592:	52                   	push   %edx
c0101593:	50                   	push   %eax
c0101594:	ff 75 0c             	push   0xc(%ebp)
c0101597:	ff 75 08             	push   0x8(%ebp)
c010159a:	51                   	push   %ecx
c010159b:	e8 74 02 00 00       	call   c0101814 <vmm_page_alloc>
c01015a0:	83 c4 20             	add    $0x20,%esp
c01015a3:	89 45 f4             	mov    %eax,-0xc(%ebp)
c01015a6:	8b 45 f4             	mov    -0xc(%ebp),%eax
c01015a9:	c9                   	leave
c01015aa:	c3                   	ret

c01015ab <page_kfree>:
c01015ab:	55                   	push   %ebp
c01015ac:	89 e5                	mov    %esp,%ebp
c01015ae:	83 ec 08             	sub    $0x8,%esp
c01015b1:	a1 10 e0 10 c0       	mov    0xc010e010,%eax
c01015b6:	83 ec 08             	sub    $0x8,%esp
c01015b9:	ff 75 08             	push   0x8(%ebp)
c01015bc:	50                   	push   %eax
c01015bd:	e8 ae 04 00 00       	call   c0101a70 <vmm_page_free>
c01015c2:	83 c4 10             	add    $0x10,%esp
c01015c5:	90                   	nop
c01015c6:	c9                   	leave
c01015c7:	c3                   	ret

c01015c8 <page_alloc>:
c01015c8:	55                   	push   %ebp
c01015c9:	89 e5                	mov    %esp,%ebp
c01015cb:	83 ec 08             	sub    $0x8,%esp
c01015ce:	8b 45 10             	mov    0x10(%ebp),%eax
c01015d1:	ba 00 00 00 00       	mov    $0x0,%edx
c01015d6:	8b 0d 0c e0 10 c0    	mov    0xc010e00c,%ecx
c01015dc:	83 ec 08             	sub    $0x8,%esp
c01015df:	6a 00                	push   $0x0
c01015e1:	52                   	push   %edx
c01015e2:	50                   	push   %eax
c01015e3:	ff 75 0c             	push   0xc(%ebp)
c01015e6:	ff 75 08             	push   0x8(%ebp)
c01015e9:	51                   	push   %ecx
c01015ea:	e8 25 02 00 00       	call   c0101814 <vmm_page_alloc>
c01015ef:	83 c4 20             	add    $0x20,%esp
c01015f2:	c9                   	leave
c01015f3:	c3                   	ret

c01015f4 <page_free>:
c01015f4:	55                   	push   %ebp
c01015f5:	89 e5                	mov    %esp,%ebp
c01015f7:	83 ec 08             	sub    $0x8,%esp
c01015fa:	a1 0c e0 10 c0       	mov    0xc010e00c,%eax
c01015ff:	83 ec 08             	sub    $0x8,%esp
c0101602:	ff 75 08             	push   0x8(%ebp)
c0101605:	50                   	push   %eax
c0101606:	e8 65 04 00 00       	call   c0101a70 <vmm_page_free>
c010160b:	83 c4 10             	add    $0x10,%esp
c010160e:	90                   	nop
c010160f:	c9                   	leave
c0101610:	c3                   	ret

c0101611 <pae_kalloc>:
c0101611:	55                   	push   %ebp
c0101612:	89 e5                	mov    %esp,%ebp
c0101614:	83 ec 18             	sub    $0x18,%esp
c0101617:	8b 45 10             	mov    0x10(%ebp),%eax
c010161a:	89 45 f0             	mov    %eax,-0x10(%ebp)
c010161d:	8b 45 14             	mov    0x14(%ebp),%eax
c0101620:	89 45 f4             	mov    %eax,-0xc(%ebp)
c0101623:	a1 10 e0 10 c0       	mov    0xc010e010,%eax
c0101628:	83 ec 08             	sub    $0x8,%esp
c010162b:	6a 01                	push   $0x1
c010162d:	ff 75 f4             	push   -0xc(%ebp)
c0101630:	ff 75 f0             	push   -0x10(%ebp)
c0101633:	ff 75 0c             	push   0xc(%ebp)
c0101636:	ff 75 08             	push   0x8(%ebp)
c0101639:	50                   	push   %eax
c010163a:	e8 d5 01 00 00       	call   c0101814 <vmm_page_alloc>
c010163f:	83 c4 20             	add    $0x20,%esp
c0101642:	c9                   	leave
c0101643:	c3                   	ret

c0101644 <pae_kfree>:
c0101644:	55                   	push   %ebp
c0101645:	89 e5                	mov    %esp,%ebp
c0101647:	83 ec 08             	sub    $0x8,%esp
c010164a:	a1 10 e0 10 c0       	mov    0xc010e010,%eax
c010164f:	83 ec 08             	sub    $0x8,%esp
c0101652:	ff 75 08             	push   0x8(%ebp)
c0101655:	50                   	push   %eax
c0101656:	e8 9d 04 00 00       	call   c0101af8 <pae_page_free>
c010165b:	83 c4 10             	add    $0x10,%esp
c010165e:	90                   	nop
c010165f:	c9                   	leave
c0101660:	c3                   	ret

c0101661 <pae_alloc>:
c0101661:	55                   	push   %ebp
c0101662:	89 e5                	mov    %esp,%ebp
c0101664:	83 ec 18             	sub    $0x18,%esp
c0101667:	8b 45 10             	mov    0x10(%ebp),%eax
c010166a:	89 45 f0             	mov    %eax,-0x10(%ebp)
c010166d:	8b 45 14             	mov    0x14(%ebp),%eax
c0101670:	89 45 f4             	mov    %eax,-0xc(%ebp)
c0101673:	a1 0c e0 10 c0       	mov    0xc010e00c,%eax
c0101678:	83 ec 08             	sub    $0x8,%esp
c010167b:	6a 01                	push   $0x1
c010167d:	ff 75 f4             	push   -0xc(%ebp)
c0101680:	ff 75 f0             	push   -0x10(%ebp)
c0101683:	ff 75 0c             	push   0xc(%ebp)
c0101686:	ff 75 08             	push   0x8(%ebp)
c0101689:	50                   	push   %eax
c010168a:	e8 85 01 00 00       	call   c0101814 <vmm_page_alloc>
c010168f:	83 c4 20             	add    $0x20,%esp
c0101692:	c9                   	leave
c0101693:	c3                   	ret

c0101694 <pae_free>:
c0101694:	55                   	push   %ebp
c0101695:	89 e5                	mov    %esp,%ebp
c0101697:	83 ec 08             	sub    $0x8,%esp
c010169a:	a1 0c e0 10 c0       	mov    0xc010e00c,%eax
c010169f:	83 ec 08             	sub    $0x8,%esp
c01016a2:	ff 75 08             	push   0x8(%ebp)
c01016a5:	50                   	push   %eax
c01016a6:	e8 4d 04 00 00       	call   c0101af8 <pae_page_free>
c01016ab:	83 c4 10             	add    $0x10,%esp
c01016ae:	90                   	nop
c01016af:	c9                   	leave
c01016b0:	c3                   	ret

c01016b1 <vmm_transfer_dynamic>:
c01016b1:	55                   	push   %ebp
c01016b2:	89 e5                	mov    %esp,%ebp
c01016b4:	83 ec 18             	sub    $0x18,%esp
c01016b7:	83 ec 04             	sub    $0x4,%esp
c01016ba:	6a 00                	push   $0x0
c01016bc:	6a 03                	push   $0x3
c01016be:	68 00 10 00 00       	push   $0x1000
c01016c3:	e8 b1 fe ff ff       	call   c0101579 <page_kalloc>
c01016c8:	83 c4 10             	add    $0x10,%esp
c01016cb:	89 45 f4             	mov    %eax,-0xc(%ebp)
c01016ce:	8b 45 08             	mov    0x8(%ebp),%eax
c01016d1:	8b 00                	mov    (%eax),%eax
c01016d3:	83 ec 04             	sub    $0x4,%esp
c01016d6:	68 00 10 00 00       	push   $0x1000
c01016db:	50                   	push   %eax
c01016dc:	ff 75 f4             	push   -0xc(%ebp)
c01016df:	e8 06 28 00 00       	call   c0103eea <memcpy>
c01016e4:	83 c4 10             	add    $0x10,%esp
c01016e7:	8b 45 08             	mov    0x8(%ebp),%eax
c01016ea:	8b 00                	mov    (%eax),%eax
c01016ec:	83 ec 04             	sub    $0x4,%esp
c01016ef:	ff 75 f4             	push   -0xc(%ebp)
c01016f2:	50                   	push   %eax
c01016f3:	68 0c 81 10 c0       	push   $0xc010810c
c01016f8:	e8 5e 23 00 00       	call   c0103a5b <logf>
c01016fd:	83 c4 10             	add    $0x10,%esp
c0101700:	8b 45 08             	mov    0x8(%ebp),%eax
c0101703:	8b 00                	mov    (%eax),%eax
c0101705:	8b 40 20             	mov    0x20(%eax),%eax
c0101708:	89 c1                	mov    %eax,%ecx
c010170a:	8b 45 08             	mov    0x8(%ebp),%eax
c010170d:	8b 00                	mov    (%eax),%eax
c010170f:	89 c2                	mov    %eax,%edx
c0101711:	89 c8                	mov    %ecx,%eax
c0101713:	29 d0                	sub    %edx,%eax
c0101715:	89 45 f0             	mov    %eax,-0x10(%ebp)
c0101718:	8b 45 08             	mov    0x8(%ebp),%eax
c010171b:	89 45 ec             	mov    %eax,-0x14(%ebp)
c010171e:	8b 45 08             	mov    0x8(%ebp),%eax
c0101721:	8b 55 f4             	mov    -0xc(%ebp),%edx
c0101724:	89 10                	mov    %edx,(%eax)
c0101726:	8b 45 08             	mov    0x8(%ebp),%eax
c0101729:	8b 00                	mov    (%eax),%eax
c010172b:	89 c1                	mov    %eax,%ecx
c010172d:	8b 45 08             	mov    0x8(%ebp),%eax
c0101730:	8b 00                	mov    (%eax),%eax
c0101732:	8b 40 24             	mov    0x24(%eax),%eax
c0101735:	25 ff 03 00 00       	and    $0x3ff,%eax
c010173a:	89 c2                	mov    %eax,%edx
c010173c:	8b 45 08             	mov    0x8(%ebp),%eax
c010173f:	8b 00                	mov    (%eax),%eax
c0101741:	01 ca                	add    %ecx,%edx
c0101743:	89 50 24             	mov    %edx,0x24(%eax)
c0101746:	8b 45 08             	mov    0x8(%ebp),%eax
c0101749:	8b 00                	mov    (%eax),%eax
c010174b:	89 c2                	mov    %eax,%edx
c010174d:	8b 45 f0             	mov    -0x10(%ebp),%eax
c0101750:	01 c2                	add    %eax,%edx
c0101752:	8b 45 08             	mov    0x8(%ebp),%eax
c0101755:	8b 00                	mov    (%eax),%eax
c0101757:	89 50 20             	mov    %edx,0x20(%eax)
c010175a:	83 ec 08             	sub    $0x8,%esp
c010175d:	ff 75 ec             	push   -0x14(%ebp)
c0101760:	ff 75 0c             	push   0xc(%ebp)
c0101763:	e8 c8 13 00 00       	call   c0102b30 <memory_unmap>
c0101768:	83 c4 10             	add    $0x10,%esp
c010176b:	90                   	nop
c010176c:	c9                   	leave
c010176d:	c3                   	ret

c010176e <set_kernel_vmm>:
c010176e:	55                   	push   %ebp
c010176f:	89 e5                	mov    %esp,%ebp
c0101771:	8b 45 08             	mov    0x8(%ebp),%eax
c0101774:	a3 10 e0 10 c0       	mov    %eax,0xc010e010
c0101779:	90                   	nop
c010177a:	5d                   	pop    %ebp
c010177b:	c3                   	ret

c010177c <set_current_vmm>:
c010177c:	55                   	push   %ebp
c010177d:	89 e5                	mov    %esp,%ebp
c010177f:	83 ec 10             	sub    $0x10,%esp
c0101782:	8b 45 08             	mov    0x8(%ebp),%eax
c0101785:	a3 0c e0 10 c0       	mov    %eax,0xc010e00c
c010178a:	a1 0c e0 10 c0       	mov    0xc010e00c,%eax
c010178f:	8b 40 04             	mov    0x4(%eax),%eax
c0101792:	85 c0                	test   %eax,%eax
c0101794:	74 6b                	je     c0101801 <set_current_vmm+0x85>
c0101796:	a1 0c e0 10 c0       	mov    0xc010e00c,%eax
c010179b:	8b 50 0c             	mov    0xc(%eax),%edx
c010179e:	8b 40 08             	mov    0x8(%eax),%eax
c01017a1:	89 c1                	mov    %eax,%ecx
c01017a3:	09 d1                	or     %edx,%ecx
c01017a5:	74 5a                	je     c0101801 <set_current_vmm+0x85>
c01017a7:	a1 0c e0 10 c0       	mov    0xc010e00c,%eax
c01017ac:	8b 50 0c             	mov    0xc(%eax),%edx
c01017af:	8b 40 08             	mov    0x8(%eax),%eax
c01017b2:	8b 0d 0c e0 10 c0    	mov    0xc010e00c,%ecx
c01017b8:	8b 49 04             	mov    0x4(%ecx),%ecx
c01017bb:	83 c8 01             	or     $0x1,%eax
c01017be:	89 01                	mov    %eax,(%ecx)
c01017c0:	89 51 04             	mov    %edx,0x4(%ecx)
c01017c3:	a1 0c e0 10 c0       	mov    0xc010e00c,%eax
c01017c8:	8b 50 14             	mov    0x14(%eax),%edx
c01017cb:	8b 40 10             	mov    0x10(%eax),%eax
c01017ce:	8b 0d 0c e0 10 c0    	mov    0xc010e00c,%ecx
c01017d4:	8b 49 04             	mov    0x4(%ecx),%ecx
c01017d7:	83 c1 08             	add    $0x8,%ecx
c01017da:	83 c8 01             	or     $0x1,%eax
c01017dd:	89 01                	mov    %eax,(%ecx)
c01017df:	89 51 04             	mov    %edx,0x4(%ecx)
c01017e2:	a1 0c e0 10 c0       	mov    0xc010e00c,%eax
c01017e7:	8b 50 1c             	mov    0x1c(%eax),%edx
c01017ea:	8b 40 18             	mov    0x18(%eax),%eax
c01017ed:	8b 0d 0c e0 10 c0    	mov    0xc010e00c,%ecx
c01017f3:	8b 49 04             	mov    0x4(%ecx),%ecx
c01017f6:	83 c1 10             	add    $0x10,%ecx
c01017f9:	83 c8 01             	or     $0x1,%eax
c01017fc:	89 01                	mov    %eax,(%ecx)
c01017fe:	89 51 04             	mov    %edx,0x4(%ecx)
c0101801:	0f 20 d8             	mov    %cr3,%eax
c0101804:	0f 22 d8             	mov    %eax,%cr3
c0101807:	c7 45 fc 00 00 00 00 	movl   $0x0,-0x4(%ebp)
c010180e:	89 65 fc             	mov    %esp,-0x4(%ebp)
c0101811:	90                   	nop
c0101812:	c9                   	leave
c0101813:	c3                   	ret

c0101814 <vmm_page_alloc>:
c0101814:	55                   	push   %ebp
c0101815:	89 e5                	mov    %esp,%ebp
c0101817:	56                   	push   %esi
c0101818:	53                   	push   %ebx
c0101819:	83 ec 30             	sub    $0x30,%esp
c010181c:	8b 45 14             	mov    0x14(%ebp),%eax
c010181f:	89 45 d0             	mov    %eax,-0x30(%ebp)
c0101822:	8b 45 18             	mov    0x18(%ebp),%eax
c0101825:	89 45 d4             	mov    %eax,-0x2c(%ebp)
c0101828:	8b 45 08             	mov    0x8(%ebp),%eax
c010182b:	8b 40 20             	mov    0x20(%eax),%eax
c010182e:	89 45 f4             	mov    %eax,-0xc(%ebp)
c0101831:	8b 45 0c             	mov    0xc(%ebp),%eax
c0101834:	05 ff 0f 00 00       	add    $0xfff,%eax
c0101839:	25 00 f0 ff ff       	and    $0xfffff000,%eax
c010183e:	89 45 0c             	mov    %eax,0xc(%ebp)
c0101841:	83 ec 08             	sub    $0x8,%esp
c0101844:	ff 75 08             	push   0x8(%ebp)
c0101847:	68 38 81 10 c0       	push   $0xc0108138
c010184c:	e8 0a 22 00 00       	call   c0103a5b <logf>
c0101851:	83 c4 10             	add    $0x10,%esp
c0101854:	83 7d f4 00          	cmpl   $0x0,-0xc(%ebp)
c0101858:	75 1a                	jne    c0101874 <vmm_page_alloc+0x60>
c010185a:	83 ec 0c             	sub    $0xc,%esp
c010185d:	68 68 81 10 c0       	push   $0xc0108168
c0101862:	e8 f4 21 00 00       	call   c0103a5b <logf>
c0101867:	83 c4 10             	add    $0x10,%esp
c010186a:	b8 00 00 00 00       	mov    $0x0,%eax
c010186f:	e9 f5 01 00 00       	jmp    c0101a69 <vmm_page_alloc+0x255>
c0101874:	c7 45 f0 00 00 00 00 	movl   $0x0,-0x10(%ebp)
c010187b:	eb 38                	jmp    c01018b5 <vmm_page_alloc+0xa1>
c010187d:	8b 45 f4             	mov    -0xc(%ebp),%eax
c0101880:	8b 40 08             	mov    0x8(%eax),%eax
c0101883:	39 45 0c             	cmp    %eax,0xc(%ebp)
c0101886:	75 08                	jne    c0101890 <vmm_page_alloc+0x7c>
c0101888:	8b 45 f4             	mov    -0xc(%ebp),%eax
c010188b:	89 45 f0             	mov    %eax,-0x10(%ebp)
c010188e:	eb 2b                	jmp    c01018bb <vmm_page_alloc+0xa7>
c0101890:	8b 45 f4             	mov    -0xc(%ebp),%eax
c0101893:	8b 40 08             	mov    0x8(%eax),%eax
c0101896:	39 45 0c             	cmp    %eax,0xc(%ebp)
c0101899:	72 0b                	jb     c01018a6 <vmm_page_alloc+0x92>
c010189b:	8b 45 f4             	mov    -0xc(%ebp),%eax
c010189e:	8b 40 18             	mov    0x18(%eax),%eax
c01018a1:	89 45 f4             	mov    %eax,-0xc(%ebp)
c01018a4:	eb 0f                	jmp    c01018b5 <vmm_page_alloc+0xa1>
c01018a6:	8b 45 f4             	mov    -0xc(%ebp),%eax
c01018a9:	89 45 f0             	mov    %eax,-0x10(%ebp)
c01018ac:	8b 45 f4             	mov    -0xc(%ebp),%eax
c01018af:	8b 40 14             	mov    0x14(%eax),%eax
c01018b2:	89 45 f4             	mov    %eax,-0xc(%ebp)
c01018b5:	83 7d f4 00          	cmpl   $0x0,-0xc(%ebp)
c01018b9:	75 c2                	jne    c010187d <vmm_page_alloc+0x69>
c01018bb:	83 7d f0 00          	cmpl   $0x0,-0x10(%ebp)
c01018bf:	75 1a                	jne    c01018db <vmm_page_alloc+0xc7>
c01018c1:	83 ec 0c             	sub    $0xc,%esp
c01018c4:	68 8a 81 10 c0       	push   $0xc010818a
c01018c9:	e8 8d 21 00 00       	call   c0103a5b <logf>
c01018ce:	83 c4 10             	add    $0x10,%esp
c01018d1:	b8 00 00 00 00       	mov    $0x0,%eax
c01018d6:	e9 8e 01 00 00       	jmp    c0101a69 <vmm_page_alloc+0x255>
c01018db:	8b 45 f0             	mov    -0x10(%ebp),%eax
c01018de:	8b 40 08             	mov    0x8(%eax),%eax
c01018e1:	39 45 0c             	cmp    %eax,0xc(%ebp)
c01018e4:	73 23                	jae    c0101909 <vmm_page_alloc+0xf5>
c01018e6:	8b 45 f0             	mov    -0x10(%ebp),%eax
c01018e9:	8b 40 08             	mov    0x8(%eax),%eax
c01018ec:	2b 45 0c             	sub    0xc(%ebp),%eax
c01018ef:	8b 55 f0             	mov    -0x10(%ebp),%edx
c01018f2:	8b 4a 04             	mov    0x4(%edx),%ecx
c01018f5:	8b 55 0c             	mov    0xc(%ebp),%edx
c01018f8:	01 ca                	add    %ecx,%edx
c01018fa:	6a 00                	push   $0x0
c01018fc:	50                   	push   %eax
c01018fd:	52                   	push   %edx
c01018fe:	ff 75 08             	push   0x8(%ebp)
c0101901:	e8 ad 60 00 00       	call   c01079b3 <make_node>
c0101906:	83 c4 10             	add    $0x10,%esp
c0101909:	8b 45 f0             	mov    -0x10(%ebp),%eax
c010190c:	8b 40 04             	mov    0x4(%eax),%eax
c010190f:	89 45 e4             	mov    %eax,-0x1c(%ebp)
c0101912:	a1 10 e0 10 c0       	mov    0xc010e010,%eax
c0101917:	83 c0 20             	add    $0x20,%eax
c010191a:	83 ec 04             	sub    $0x4,%esp
c010191d:	ff 75 f0             	push   -0x10(%ebp)
c0101920:	50                   	push   %eax
c0101921:	ff 75 08             	push   0x8(%ebp)
c0101924:	e8 80 5e 00 00       	call   c01077a9 <delete_node>
c0101929:	83 c4 10             	add    $0x10,%esp
c010192c:	8b 45 d0             	mov    -0x30(%ebp),%eax
c010192f:	0b 45 d4             	or     -0x2c(%ebp),%eax
c0101932:	75 70                	jne    c01019a4 <vmm_page_alloc+0x190>
c0101934:	c7 45 ec 00 00 00 00 	movl   $0x0,-0x14(%ebp)
c010193b:	eb 5a                	jmp    c0101997 <vmm_page_alloc+0x183>
c010193d:	83 7d 1c 00          	cmpl   $0x0,0x1c(%ebp)
c0101941:	74 29                	je     c010196c <vmm_page_alloc+0x158>
c0101943:	8b 55 ec             	mov    -0x14(%ebp),%edx
c0101946:	8b 45 e4             	mov    -0x1c(%ebp),%eax
c0101949:	01 d0                	add    %edx,%eax
c010194b:	89 c3                	mov    %eax,%ebx
c010194d:	e8 59 f9 ff ff       	call   c01012ab <alloc_phys_page>
c0101952:	8b 4d 08             	mov    0x8(%ebp),%ecx
c0101955:	8b 49 04             	mov    0x4(%ecx),%ecx
c0101958:	83 ec 0c             	sub    $0xc,%esp
c010195b:	ff 75 10             	push   0x10(%ebp)
c010195e:	53                   	push   %ebx
c010195f:	52                   	push   %edx
c0101960:	50                   	push   %eax
c0101961:	51                   	push   %ecx
c0101962:	e8 78 12 00 00       	call   c0102bdf <pae_mmap>
c0101967:	83 c4 20             	add    $0x20,%esp
c010196a:	eb 24                	jmp    c0101990 <vmm_page_alloc+0x17c>
c010196c:	8b 55 ec             	mov    -0x14(%ebp),%edx
c010196f:	8b 45 e4             	mov    -0x1c(%ebp),%eax
c0101972:	01 d0                	add    %edx,%eax
c0101974:	89 c3                	mov    %eax,%ebx
c0101976:	e8 30 f9 ff ff       	call   c01012ab <alloc_phys_page>
c010197b:	89 c2                	mov    %eax,%edx
c010197d:	8b 45 08             	mov    0x8(%ebp),%eax
c0101980:	8b 00                	mov    (%eax),%eax
c0101982:	ff 75 10             	push   0x10(%ebp)
c0101985:	53                   	push   %ebx
c0101986:	52                   	push   %edx
c0101987:	50                   	push   %eax
c0101988:	e8 13 11 00 00       	call   c0102aa0 <memory_map>
c010198d:	83 c4 10             	add    $0x10,%esp
c0101990:	81 45 ec 00 10 00 00 	addl   $0x1000,-0x14(%ebp)
c0101997:	8b 45 ec             	mov    -0x14(%ebp),%eax
c010199a:	3b 45 0c             	cmp    0xc(%ebp),%eax
c010199d:	72 9e                	jb     c010193d <vmm_page_alloc+0x129>
c010199f:	e9 93 00 00 00       	jmp    c0101a37 <vmm_page_alloc+0x223>
c01019a4:	c7 45 e8 00 00 00 00 	movl   $0x0,-0x18(%ebp)
c01019ab:	eb 7e                	jmp    c0101a2b <vmm_page_alloc+0x217>
c01019ad:	83 7d 1c 00          	cmpl   $0x0,0x1c(%ebp)
c01019b1:	74 3b                	je     c01019ee <vmm_page_alloc+0x1da>
c01019b3:	8b 55 e8             	mov    -0x18(%ebp),%edx
c01019b6:	8b 45 e4             	mov    -0x1c(%ebp),%eax
c01019b9:	01 d0                	add    %edx,%eax
c01019bb:	89 c6                	mov    %eax,%esi
c01019bd:	8b 45 d0             	mov    -0x30(%ebp),%eax
c01019c0:	8b 55 d4             	mov    -0x2c(%ebp),%edx
c01019c3:	25 00 f0 ff ff       	and    $0xfffff000,%eax
c01019c8:	89 c1                	mov    %eax,%ecx
c01019ca:	89 d3                	mov    %edx,%ebx
c01019cc:	8b 45 e8             	mov    -0x18(%ebp),%eax
c01019cf:	99                   	cltd
c01019d0:	01 c8                	add    %ecx,%eax
c01019d2:	11 da                	adc    %ebx,%edx
c01019d4:	8b 4d 08             	mov    0x8(%ebp),%ecx
c01019d7:	8b 49 04             	mov    0x4(%ecx),%ecx
c01019da:	83 ec 0c             	sub    $0xc,%esp
c01019dd:	ff 75 10             	push   0x10(%ebp)
c01019e0:	56                   	push   %esi
c01019e1:	52                   	push   %edx
c01019e2:	50                   	push   %eax
c01019e3:	51                   	push   %ecx
c01019e4:	e8 f6 11 00 00       	call   c0102bdf <pae_mmap>
c01019e9:	83 c4 20             	add    $0x20,%esp
c01019ec:	eb 36                	jmp    c0101a24 <vmm_page_alloc+0x210>
c01019ee:	8b 55 e8             	mov    -0x18(%ebp),%edx
c01019f1:	8b 45 e4             	mov    -0x1c(%ebp),%eax
c01019f4:	01 d0                	add    %edx,%eax
c01019f6:	89 c6                	mov    %eax,%esi
c01019f8:	8b 45 d0             	mov    -0x30(%ebp),%eax
c01019fb:	8b 55 d4             	mov    -0x2c(%ebp),%edx
c01019fe:	25 00 f0 ff ff       	and    $0xfffff000,%eax
c0101a03:	89 c1                	mov    %eax,%ecx
c0101a05:	89 d3                	mov    %edx,%ebx
c0101a07:	8b 45 e8             	mov    -0x18(%ebp),%eax
c0101a0a:	99                   	cltd
c0101a0b:	01 c8                	add    %ecx,%eax
c0101a0d:	11 da                	adc    %ebx,%edx
c0101a0f:	89 c2                	mov    %eax,%edx
c0101a11:	8b 45 08             	mov    0x8(%ebp),%eax
c0101a14:	8b 00                	mov    (%eax),%eax
c0101a16:	ff 75 10             	push   0x10(%ebp)
c0101a19:	56                   	push   %esi
c0101a1a:	52                   	push   %edx
c0101a1b:	50                   	push   %eax
c0101a1c:	e8 7f 10 00 00       	call   c0102aa0 <memory_map>
c0101a21:	83 c4 10             	add    $0x10,%esp
c0101a24:	81 45 e8 00 10 00 00 	addl   $0x1000,-0x18(%ebp)
c0101a2b:	8b 45 e8             	mov    -0x18(%ebp),%eax
c0101a2e:	3b 45 0c             	cmp    0xc(%ebp),%eax
c0101a31:	0f 82 76 ff ff ff    	jb     c01019ad <vmm_page_alloc+0x199>
c0101a37:	83 ec 04             	sub    $0x4,%esp
c0101a3a:	ff 75 d4             	push   -0x2c(%ebp)
c0101a3d:	ff 75 d0             	push   -0x30(%ebp)
c0101a40:	68 a1 81 10 c0       	push   $0xc01081a1
c0101a45:	e8 11 20 00 00       	call   c0103a5b <logf>
c0101a4a:	83 c4 10             	add    $0x10,%esp
c0101a4d:	8b 4d e4             	mov    -0x1c(%ebp),%ecx
c0101a50:	bb 00 00 00 00       	mov    $0x0,%ebx
c0101a55:	8b 45 d0             	mov    -0x30(%ebp),%eax
c0101a58:	8b 55 d4             	mov    -0x2c(%ebp),%edx
c0101a5b:	25 ff 0f 00 00       	and    $0xfff,%eax
c0101a60:	ba 00 00 00 00       	mov    $0x0,%edx
c0101a65:	01 c8                	add    %ecx,%eax
c0101a67:	11 da                	adc    %ebx,%edx
c0101a69:	8d 65 f8             	lea    -0x8(%ebp),%esp
c0101a6c:	5b                   	pop    %ebx
c0101a6d:	5e                   	pop    %esi
c0101a6e:	5d                   	pop    %ebp
c0101a6f:	c3                   	ret

c0101a70 <vmm_page_free>:
c0101a70:	55                   	push   %ebp
c0101a71:	89 e5                	mov    %esp,%ebp
c0101a73:	83 ec 18             	sub    $0x18,%esp
c0101a76:	8b 45 08             	mov    0x8(%ebp),%eax
c0101a79:	8b 00                	mov    (%eax),%eax
c0101a7b:	89 45 f4             	mov    %eax,-0xc(%ebp)
c0101a7e:	8b 45 0c             	mov    0xc(%ebp),%eax
c0101a81:	c1 e8 16             	shr    $0x16,%eax
c0101a84:	8d 14 85 00 00 00 00 	lea    0x0(,%eax,4),%edx
c0101a8b:	8b 45 f4             	mov    -0xc(%ebp),%eax
c0101a8e:	01 d0                	add    %edx,%eax
c0101a90:	8b 00                	mov    (%eax),%eax
c0101a92:	25 00 fc ff ff       	and    $0xfffffc00,%eax
c0101a97:	89 45 f0             	mov    %eax,-0x10(%ebp)
c0101a9a:	83 7d f0 00          	cmpl   $0x0,-0x10(%ebp)
c0101a9e:	74 52                	je     c0101af2 <vmm_page_free+0x82>
c0101aa0:	8b 45 0c             	mov    0xc(%ebp),%eax
c0101aa3:	c1 e8 0c             	shr    $0xc,%eax
c0101aa6:	25 00 fc ff ff       	and    $0xfffffc00,%eax
c0101aab:	8d 14 85 00 00 00 00 	lea    0x0(,%eax,4),%edx
c0101ab2:	8b 45 f0             	mov    -0x10(%ebp),%eax
c0101ab5:	01 d0                	add    %edx,%eax
c0101ab7:	8b 00                	mov    (%eax),%eax
c0101ab9:	89 45 ec             	mov    %eax,-0x14(%ebp)
c0101abc:	8b 45 ec             	mov    -0x14(%ebp),%eax
c0101abf:	83 e0 01             	and    $0x1,%eax
c0101ac2:	85 c0                	test   %eax,%eax
c0101ac4:	74 2f                	je     c0101af5 <vmm_page_free+0x85>
c0101ac6:	8b 45 0c             	mov    0xc(%ebp),%eax
c0101ac9:	6a 00                	push   $0x0
c0101acb:	68 00 10 00 00       	push   $0x1000
c0101ad0:	50                   	push   %eax
c0101ad1:	ff 75 08             	push   0x8(%ebp)
c0101ad4:	e8 da 5e 00 00       	call   c01079b3 <make_node>
c0101ad9:	83 c4 10             	add    $0x10,%esp
c0101adc:	8b 45 08             	mov    0x8(%ebp),%eax
c0101adf:	8b 00                	mov    (%eax),%eax
c0101ae1:	83 ec 08             	sub    $0x8,%esp
c0101ae4:	ff 75 0c             	push   0xc(%ebp)
c0101ae7:	50                   	push   %eax
c0101ae8:	e8 43 10 00 00       	call   c0102b30 <memory_unmap>
c0101aed:	83 c4 10             	add    $0x10,%esp
c0101af0:	eb 04                	jmp    c0101af6 <vmm_page_free+0x86>
c0101af2:	90                   	nop
c0101af3:	eb 01                	jmp    c0101af6 <vmm_page_free+0x86>
c0101af5:	90                   	nop
c0101af6:	c9                   	leave
c0101af7:	c3                   	ret

c0101af8 <pae_page_free>:
c0101af8:	55                   	push   %ebp
c0101af9:	89 e5                	mov    %esp,%ebp
c0101afb:	83 ec 28             	sub    $0x28,%esp
c0101afe:	8b 45 0c             	mov    0xc(%ebp),%eax
c0101b01:	c1 e8 1d             	shr    $0x1d,%eax
c0101b04:	89 45 f4             	mov    %eax,-0xc(%ebp)
c0101b07:	8b 45 0c             	mov    0xc(%ebp),%eax
c0101b0a:	c1 e8 15             	shr    $0x15,%eax
c0101b0d:	25 ff 01 00 00       	and    $0x1ff,%eax
c0101b12:	89 45 f0             	mov    %eax,-0x10(%ebp)
c0101b15:	8b 45 0c             	mov    0xc(%ebp),%eax
c0101b18:	c1 e8 0c             	shr    $0xc,%eax
c0101b1b:	25 ff 01 00 00       	and    $0x1ff,%eax
c0101b20:	89 45 ec             	mov    %eax,-0x14(%ebp)
c0101b23:	8b 45 f4             	mov    -0xc(%ebp),%eax
c0101b26:	c1 e0 1e             	shl    $0x1e,%eax
c0101b29:	05 00 00 e0 3f       	add    $0x3fe00000,%eax
c0101b2e:	89 45 e8             	mov    %eax,-0x18(%ebp)
c0101b31:	8b 45 f0             	mov    -0x10(%ebp),%eax
c0101b34:	c1 e0 0c             	shl    $0xc,%eax
c0101b37:	89 c2                	mov    %eax,%edx
c0101b39:	8b 45 e8             	mov    -0x18(%ebp),%eax
c0101b3c:	09 d0                	or     %edx,%eax
c0101b3e:	89 45 e4             	mov    %eax,-0x1c(%ebp)
c0101b41:	8b 45 ec             	mov    -0x14(%ebp),%eax
c0101b44:	8d 14 c5 00 00 00 00 	lea    0x0(,%eax,8),%edx
c0101b4b:	8b 45 e4             	mov    -0x1c(%ebp),%eax
c0101b4e:	01 d0                	add    %edx,%eax
c0101b50:	8b 50 04             	mov    0x4(%eax),%edx
c0101b53:	8b 00                	mov    (%eax),%eax
c0101b55:	25 ff 03 00 00       	and    $0x3ff,%eax
c0101b5a:	ba 00 00 00 00       	mov    $0x0,%edx
c0101b5f:	89 45 d8             	mov    %eax,-0x28(%ebp)
c0101b62:	89 55 dc             	mov    %edx,-0x24(%ebp)
c0101b65:	8b 45 e4             	mov    -0x1c(%ebp),%eax
c0101b68:	ba 00 00 00 00       	mov    $0x0,%edx
c0101b6d:	83 e0 fe             	and    $0xfffffffe,%eax
c0101b70:	ba 00 00 00 00       	mov    $0x0,%edx
c0101b75:	8b 4d e4             	mov    -0x1c(%ebp),%ecx
c0101b78:	89 01                	mov    %eax,(%ecx)
c0101b7a:	89 51 04             	mov    %edx,0x4(%ecx)
c0101b7d:	8b 45 d8             	mov    -0x28(%ebp),%eax
c0101b80:	83 ec 0c             	sub    $0xc,%esp
c0101b83:	50                   	push   %eax
c0101b84:	e8 12 f7 ff ff       	call   c010129b <physical_to_frame>
c0101b89:	83 c4 10             	add    $0x10,%esp
c0101b8c:	83 ec 0c             	sub    $0xc,%esp
c0101b8f:	50                   	push   %eax
c0101b90:	e8 64 f6 ff ff       	call   c01011f9 <clear_frame>
c0101b95:	83 c4 10             	add    $0x10,%esp
c0101b98:	83 ec 0c             	sub    $0xc,%esp
c0101b9b:	ff 75 0c             	push   0xc(%ebp)
c0101b9e:	e8 80 11 00 00       	call   c0102d23 <pae_unmap>
c0101ba3:	83 c4 10             	add    $0x10,%esp
c0101ba6:	90                   	nop
c0101ba7:	c9                   	leave
c0101ba8:	c3                   	ret

c0101ba9 <init_user_memory>:
c0101ba9:	55                   	push   %ebp
c0101baa:	89 e5                	mov    %esp,%ebp
c0101bac:	83 ec 18             	sub    $0x18,%esp
c0101baf:	83 ec 04             	sub    $0x4,%esp
c0101bb2:	6a 00                	push   $0x0
c0101bb4:	6a 03                	push   $0x3
c0101bb6:	68 00 10 00 00       	push   $0x1000
c0101bbb:	e8 b9 f9 ff ff       	call   c0101579 <page_kalloc>
c0101bc0:	83 c4 10             	add    $0x10,%esp
c0101bc3:	89 45 f4             	mov    %eax,-0xc(%ebp)
c0101bc6:	90                   	nop
c0101bc7:	c9                   	leave
c0101bc8:	c3                   	ret

c0101bc9 <alloc_stack>:
c0101bc9:	55                   	push   %ebp
c0101bca:	89 e5                	mov    %esp,%ebp
c0101bcc:	83 ec 18             	sub    $0x18,%esp
c0101bcf:	8b 45 08             	mov    0x8(%ebp),%eax
c0101bd2:	a3 0c e0 10 c0       	mov    %eax,0xc010e00c
c0101bd7:	6a 00                	push   $0x0
c0101bd9:	6a 00                	push   $0x0
c0101bdb:	6a 03                	push   $0x3
c0101bdd:	68 00 10 00 00       	push   $0x1000
c0101be2:	e8 7a fa ff ff       	call   c0101661 <pae_alloc>
c0101be7:	83 c4 10             	add    $0x10,%esp
c0101bea:	89 45 f4             	mov    %eax,-0xc(%ebp)
c0101bed:	83 ec 08             	sub    $0x8,%esp
c0101bf0:	ff 75 f4             	push   -0xc(%ebp)
c0101bf3:	68 b4 81 10 c0       	push   $0xc01081b4
c0101bf8:	e8 5e 1e 00 00       	call   c0103a5b <logf>
c0101bfd:	83 c4 10             	add    $0x10,%esp
c0101c00:	8b 45 f4             	mov    -0xc(%ebp),%eax
c0101c03:	05 ff 0f 00 00       	add    $0xfff,%eax
c0101c08:	c9                   	leave
c0101c09:	c3                   	ret

c0101c0a <get_pixel_addr>:
c0101c0a:	55                   	push   %ebp
c0101c0b:	89 e5                	mov    %esp,%ebp
c0101c0d:	83 ec 10             	sub    $0x10,%esp
c0101c10:	a1 20 e0 10 c0       	mov    0xc010e020,%eax
c0101c15:	8b 40 14             	mov    0x14(%eax),%eax
c0101c18:	3b 45 08             	cmp    0x8(%ebp),%eax
c0101c1b:	73 0b                	jae    c0101c28 <get_pixel_addr+0x1e>
c0101c1d:	a1 20 e0 10 c0       	mov    0xc010e020,%eax
c0101c22:	8b 40 14             	mov    0x14(%eax),%eax
c0101c25:	89 45 08             	mov    %eax,0x8(%ebp)
c0101c28:	a1 20 e0 10 c0       	mov    0xc010e020,%eax
c0101c2d:	8b 40 18             	mov    0x18(%eax),%eax
c0101c30:	3b 45 0c             	cmp    0xc(%ebp),%eax
c0101c33:	73 0b                	jae    c0101c40 <get_pixel_addr+0x36>
c0101c35:	a1 20 e0 10 c0       	mov    0xc010e020,%eax
c0101c3a:	8b 40 18             	mov    0x18(%eax),%eax
c0101c3d:	89 45 0c             	mov    %eax,0xc(%ebp)
c0101c40:	a1 20 e0 10 c0       	mov    0xc010e020,%eax
c0101c45:	8b 40 10             	mov    0x10(%eax),%eax
c0101c48:	8b 55 0c             	mov    0xc(%ebp),%edx
c0101c4b:	0f af c2             	imul   %edx,%eax
c0101c4e:	89 45 fc             	mov    %eax,-0x4(%ebp)
c0101c51:	a1 30 e0 10 c0       	mov    0xc010e030,%eax
c0101c56:	8b 55 08             	mov    0x8(%ebp),%edx
c0101c59:	0f af c2             	imul   %edx,%eax
c0101c5c:	89 45 f8             	mov    %eax,-0x8(%ebp)
c0101c5f:	a1 8c 10 11 c0       	mov    0xc011108c,%eax
c0101c64:	89 c2                	mov    %eax,%edx
c0101c66:	8b 45 fc             	mov    -0x4(%ebp),%eax
c0101c69:	01 c2                	add    %eax,%edx
c0101c6b:	8b 45 f8             	mov    -0x8(%ebp),%eax
c0101c6e:	01 d0                	add    %edx,%eax
c0101c70:	89 45 f4             	mov    %eax,-0xc(%ebp)
c0101c73:	8b 45 f4             	mov    -0xc(%ebp),%eax
c0101c76:	c9                   	leave
c0101c77:	c3                   	ret

c0101c78 <init_framebuffer>:
c0101c78:	55                   	push   %ebp
c0101c79:	89 e5                	mov    %esp,%ebp
c0101c7b:	83 ec 18             	sub    $0x18,%esp
c0101c7e:	a1 20 e0 10 c0       	mov    0xc010e020,%eax
c0101c83:	8b 50 0c             	mov    0xc(%eax),%edx
c0101c86:	8b 40 08             	mov    0x8(%eax),%eax
c0101c89:	89 45 f4             	mov    %eax,-0xc(%ebp)
c0101c8c:	a1 20 e0 10 c0       	mov    0xc010e020,%eax
c0101c91:	8b 50 10             	mov    0x10(%eax),%edx
c0101c94:	a1 20 e0 10 c0       	mov    0xc010e020,%eax
c0101c99:	8b 40 18             	mov    0x18(%eax),%eax
c0101c9c:	0f af c2             	imul   %edx,%eax
c0101c9f:	89 45 f0             	mov    %eax,-0x10(%ebp)
c0101ca2:	a1 20 e0 10 c0       	mov    0xc010e020,%eax
c0101ca7:	0f b6 40 1d          	movzbl 0x1d(%eax),%eax
c0101cab:	0f b6 c0             	movzbl %al,%eax
c0101cae:	83 ec 08             	sub    $0x8,%esp
c0101cb1:	50                   	push   %eax
c0101cb2:	68 d4 81 10 c0       	push   $0xc01081d4
c0101cb7:	e8 9f 1d 00 00       	call   c0103a5b <logf>
c0101cbc:	83 c4 10             	add    $0x10,%esp
c0101cbf:	a1 20 e0 10 c0       	mov    0xc010e020,%eax
c0101cc4:	8b 48 18             	mov    0x18(%eax),%ecx
c0101cc7:	a1 20 e0 10 c0       	mov    0xc010e020,%eax
c0101ccc:	8b 50 14             	mov    0x14(%eax),%edx
c0101ccf:	a1 20 e0 10 c0       	mov    0xc010e020,%eax
c0101cd4:	0f b6 40 1c          	movzbl 0x1c(%eax),%eax
c0101cd8:	0f b6 c0             	movzbl %al,%eax
c0101cdb:	51                   	push   %ecx
c0101cdc:	52                   	push   %edx
c0101cdd:	50                   	push   %eax
c0101cde:	68 f0 81 10 c0       	push   $0xc01081f0
c0101ce3:	e8 73 1d 00 00       	call   c0103a5b <logf>
c0101ce8:	83 c4 10             	add    $0x10,%esp
c0101ceb:	83 ec 08             	sub    $0x8,%esp
c0101cee:	ff 75 f4             	push   -0xc(%ebp)
c0101cf1:	68 34 82 10 c0       	push   $0xc0108234
c0101cf6:	e8 60 1d 00 00       	call   c0103a5b <logf>
c0101cfb:	83 c4 10             	add    $0x10,%esp
c0101cfe:	a1 20 e0 10 c0       	mov    0xc010e020,%eax
c0101d03:	0f b6 40 1d          	movzbl 0x1d(%eax),%eax
c0101d07:	0f b6 c0             	movzbl %al,%eax
c0101d0a:	83 f8 02             	cmp    $0x2,%eax
c0101d0d:	74 34                	je     c0101d43 <init_framebuffer+0xcb>
c0101d0f:	83 f8 02             	cmp    $0x2,%eax
c0101d12:	7f 41                	jg     c0101d55 <init_framebuffer+0xdd>
c0101d14:	85 c0                	test   %eax,%eax
c0101d16:	74 07                	je     c0101d1f <init_framebuffer+0xa7>
c0101d18:	83 f8 01             	cmp    $0x1,%eax
c0101d1b:	74 14                	je     c0101d31 <init_framebuffer+0xb9>
c0101d1d:	eb 36                	jmp    c0101d55 <init_framebuffer+0xdd>
c0101d1f:	83 ec 0c             	sub    $0xc,%esp
c0101d22:	68 44 82 10 c0       	push   $0xc0108244
c0101d27:	e8 c5 1e 00 00       	call   c0103bf1 <panic>
c0101d2c:	83 c4 10             	add    $0x10,%esp
c0101d2f:	eb 29                	jmp    c0101d5a <init_framebuffer+0xe2>
c0101d31:	83 ec 0c             	sub    $0xc,%esp
c0101d34:	68 80 82 10 c0       	push   $0xc0108280
c0101d39:	e8 1d 1d 00 00       	call   c0103a5b <logf>
c0101d3e:	83 c4 10             	add    $0x10,%esp
c0101d41:	eb 17                	jmp    c0101d5a <init_framebuffer+0xe2>
c0101d43:	83 ec 0c             	sub    $0xc,%esp
c0101d46:	68 a8 82 10 c0       	push   $0xc01082a8
c0101d4b:	e8 a1 1e 00 00       	call   c0103bf1 <panic>
c0101d50:	83 c4 10             	add    $0x10,%esp
c0101d53:	eb 05                	jmp    c0101d5a <init_framebuffer+0xe2>
c0101d55:	e8 af 1e 00 00       	call   c0103c09 <triple_fault>
c0101d5a:	a1 20 e0 10 c0       	mov    0xc010e020,%eax
c0101d5f:	8b 50 0c             	mov    0xc(%eax),%edx
c0101d62:	8b 40 08             	mov    0x8(%eax),%eax
c0101d65:	52                   	push   %edx
c0101d66:	50                   	push   %eax
c0101d67:	6a 03                	push   $0x3
c0101d69:	ff 75 f0             	push   -0x10(%ebp)
c0101d6c:	e8 a0 f8 ff ff       	call   c0101611 <pae_kalloc>
c0101d71:	83 c4 10             	add    $0x10,%esp
c0101d74:	a3 8c 10 11 c0       	mov    %eax,0xc011108c
c0101d79:	a1 20 e0 10 c0       	mov    0xc010e020,%eax
c0101d7e:	0f b6 40 1c          	movzbl 0x1c(%eax),%eax
c0101d82:	c0 e8 03             	shr    $0x3,%al
c0101d85:	0f b6 c0             	movzbl %al,%eax
c0101d88:	a3 30 e0 10 c0       	mov    %eax,0xc010e030
c0101d8d:	a1 30 e0 10 c0       	mov    0xc010e030,%eax
c0101d92:	0f b6 c0             	movzbl %al,%eax
c0101d95:	83 ec 0c             	sub    $0xc,%esp
c0101d98:	50                   	push   %eax
c0101d99:	e8 f7 34 00 00       	call   c0105295 <fb_set_bpp>
c0101d9e:	83 c4 10             	add    $0x10,%esp
c0101da1:	a1 20 e0 10 c0       	mov    0xc010e020,%eax
c0101da6:	8b 40 14             	mov    0x14(%eax),%eax
c0101da9:	0f b7 c0             	movzwl %ax,%eax
c0101dac:	83 ec 0c             	sub    $0xc,%esp
c0101daf:	50                   	push   %eax
c0101db0:	e8 c6 34 00 00       	call   c010527b <fb_set_width>
c0101db5:	83 c4 10             	add    $0x10,%esp
c0101db8:	a1 20 e0 10 c0       	mov    0xc010e020,%eax
c0101dbd:	8b 40 18             	mov    0x18(%eax),%eax
c0101dc0:	0f b7 c0             	movzwl %ax,%eax
c0101dc3:	83 ec 0c             	sub    $0xc,%esp
c0101dc6:	50                   	push   %eax
c0101dc7:	e8 e1 34 00 00       	call   c01052ad <fb_set_height>
c0101dcc:	83 c4 10             	add    $0x10,%esp
c0101dcf:	90                   	nop
c0101dd0:	c9                   	leave
c0101dd1:	c3                   	ret

c0101dd2 <parse_MADT>:
c0101dd2:	55                   	push   %ebp
c0101dd3:	89 e5                	mov    %esp,%ebp
c0101dd5:	83 ec 38             	sub    $0x38,%esp
c0101dd8:	8b 55 08             	mov    0x8(%ebp),%edx
c0101ddb:	8b 45 0c             	mov    0xc(%ebp),%eax
c0101dde:	88 55 d4             	mov    %dl,-0x2c(%ebp)
c0101de1:	88 45 d0             	mov    %al,-0x30(%ebp)
c0101de4:	83 ec 0c             	sub    $0xc,%esp
c0101de7:	68 da 82 10 c0       	push   $0xc01082da
c0101dec:	e8 cf 00 00 00       	call   c0101ec0 <get_sdt_by_signature>
c0101df1:	83 c4 10             	add    $0x10,%esp
c0101df4:	89 45 e8             	mov    %eax,-0x18(%ebp)
c0101df7:	66 c7 45 f6 2c 00    	movw   $0x2c,-0xa(%ebp)
c0101dfd:	0f b7 55 f6          	movzwl -0xa(%ebp),%edx
c0101e01:	8b 45 e8             	mov    -0x18(%ebp),%eax
c0101e04:	01 d0                	add    %edx,%eax
c0101e06:	89 45 f0             	mov    %eax,-0x10(%ebp)
c0101e09:	c6 45 ef 00          	movb   $0x0,-0x11(%ebp)
c0101e0d:	eb 47                	jmp    c0101e56 <parse_MADT+0x84>
c0101e0f:	8b 45 f0             	mov    -0x10(%ebp),%eax
c0101e12:	89 45 e4             	mov    %eax,-0x1c(%ebp)
c0101e15:	8b 45 e4             	mov    -0x1c(%ebp),%eax
c0101e18:	0f b6 00             	movzbl (%eax),%eax
c0101e1b:	38 45 d4             	cmp    %al,-0x2c(%ebp)
c0101e1e:	75 1b                	jne    c0101e3b <parse_MADT+0x69>
c0101e20:	0f b6 45 ef          	movzbl -0x11(%ebp),%eax
c0101e24:	83 c0 01             	add    $0x1,%eax
c0101e27:	88 45 ef             	mov    %al,-0x11(%ebp)
c0101e2a:	0f b6 45 ef          	movzbl -0x11(%ebp),%eax
c0101e2e:	3a 45 d0             	cmp    -0x30(%ebp),%al
c0101e31:	75 08                	jne    c0101e3b <parse_MADT+0x69>
c0101e33:	8b 45 f0             	mov    -0x10(%ebp),%eax
c0101e36:	83 c0 02             	add    $0x2,%eax
c0101e39:	eb 43                	jmp    c0101e7e <parse_MADT+0xac>
c0101e3b:	8b 45 e4             	mov    -0x1c(%ebp),%eax
c0101e3e:	0f b6 40 01          	movzbl 0x1(%eax),%eax
c0101e42:	0f b6 c0             	movzbl %al,%eax
c0101e45:	66 01 45 f6          	add    %ax,-0xa(%ebp)
c0101e49:	8b 45 e4             	mov    -0x1c(%ebp),%eax
c0101e4c:	0f b6 40 01          	movzbl 0x1(%eax),%eax
c0101e50:	0f b6 c0             	movzbl %al,%eax
c0101e53:	01 45 f0             	add    %eax,-0x10(%ebp)
c0101e56:	0f b7 45 f6          	movzwl -0xa(%ebp),%eax
c0101e5a:	8b 55 e8             	mov    -0x18(%ebp),%edx
c0101e5d:	8b 52 04             	mov    0x4(%edx),%edx
c0101e60:	39 c2                	cmp    %eax,%edx
c0101e62:	73 ab                	jae    c0101e0f <parse_MADT+0x3d>
c0101e64:	0f b6 45 d4          	movzbl -0x2c(%ebp),%eax
c0101e68:	83 ec 08             	sub    $0x8,%esp
c0101e6b:	50                   	push   %eax
c0101e6c:	68 e0 82 10 c0       	push   $0xc01082e0
c0101e71:	e8 e5 1b 00 00       	call   c0103a5b <logf>
c0101e76:	83 c4 10             	add    $0x10,%esp
c0101e79:	b8 00 00 00 00       	mov    $0x0,%eax
c0101e7e:	c9                   	leave
c0101e7f:	c3                   	ret

c0101e80 <validate_RSDP>:
c0101e80:	55                   	push   %ebp
c0101e81:	89 e5                	mov    %esp,%ebp
c0101e83:	83 ec 10             	sub    $0x10,%esp
c0101e86:	c7 45 fc 00 00 00 00 	movl   $0x0,-0x4(%ebp)
c0101e8d:	c7 45 f8 00 00 00 00 	movl   $0x0,-0x8(%ebp)
c0101e94:	eb 15                	jmp    c0101eab <validate_RSDP+0x2b>
c0101e96:	8b 55 f8             	mov    -0x8(%ebp),%edx
c0101e99:	8b 45 08             	mov    0x8(%ebp),%eax
c0101e9c:	01 d0                	add    %edx,%eax
c0101e9e:	0f b6 00             	movzbl (%eax),%eax
c0101ea1:	0f be c0             	movsbl %al,%eax
c0101ea4:	01 45 fc             	add    %eax,-0x4(%ebp)
c0101ea7:	83 45 f8 01          	addl   $0x1,-0x8(%ebp)
c0101eab:	8b 45 f8             	mov    -0x8(%ebp),%eax
c0101eae:	3b 45 0c             	cmp    0xc(%ebp),%eax
c0101eb1:	72 e3                	jb     c0101e96 <validate_RSDP+0x16>
c0101eb3:	8b 45 fc             	mov    -0x4(%ebp),%eax
c0101eb6:	0f b6 c0             	movzbl %al,%eax
c0101eb9:	85 c0                	test   %eax,%eax
c0101ebb:	0f 94 c0             	sete   %al
c0101ebe:	c9                   	leave
c0101ebf:	c3                   	ret

c0101ec0 <get_sdt_by_signature>:
c0101ec0:	55                   	push   %ebp
c0101ec1:	89 e5                	mov    %esp,%ebp
c0101ec3:	83 ec 28             	sub    $0x28,%esp
c0101ec6:	a1 1c e0 10 c0       	mov    0xc010e01c,%eax
c0101ecb:	8b 40 04             	mov    0x4(%eax),%eax
c0101ece:	83 e8 24             	sub    $0x24,%eax
c0101ed1:	c1 e8 02             	shr    $0x2,%eax
c0101ed4:	83 e8 01             	sub    $0x1,%eax
c0101ed7:	89 45 f0             	mov    %eax,-0x10(%ebp)
c0101eda:	a1 1c e0 10 c0       	mov    0xc010e01c,%eax
c0101edf:	89 45 ec             	mov    %eax,-0x14(%ebp)
c0101ee2:	8b 45 ec             	mov    -0x14(%ebp),%eax
c0101ee5:	8b 40 04             	mov    0x4(%eax),%eax
c0101ee8:	83 e8 24             	sub    $0x24,%eax
c0101eeb:	c1 e8 02             	shr    $0x2,%eax
c0101eee:	89 45 e8             	mov    %eax,-0x18(%ebp)
c0101ef1:	c7 45 f4 00 00 00 00 	movl   $0x0,-0xc(%ebp)
c0101ef8:	eb 59                	jmp    c0101f53 <get_sdt_by_signature+0x93>
c0101efa:	8b 45 ec             	mov    -0x14(%ebp),%eax
c0101efd:	8b 55 f4             	mov    -0xc(%ebp),%edx
c0101f00:	83 c2 08             	add    $0x8,%edx
c0101f03:	8b 44 90 04          	mov    0x4(%eax,%edx,4),%eax
c0101f07:	89 45 e4             	mov    %eax,-0x1c(%ebp)
c0101f0a:	8b 45 e4             	mov    -0x1c(%ebp),%eax
c0101f0d:	25 00 fc ff ff       	and    $0xfffffc00,%eax
c0101f12:	89 c1                	mov    %eax,%ecx
c0101f14:	8b 45 e4             	mov    -0x1c(%ebp),%eax
c0101f17:	25 00 fc ff ff       	and    $0xfffffc00,%eax
c0101f1c:	89 c2                	mov    %eax,%edx
c0101f1e:	a1 0c e0 10 c0       	mov    0xc010e00c,%eax
c0101f23:	8b 00                	mov    (%eax),%eax
c0101f25:	6a 03                	push   $0x3
c0101f27:	51                   	push   %ecx
c0101f28:	52                   	push   %edx
c0101f29:	50                   	push   %eax
c0101f2a:	e8 71 0b 00 00       	call   c0102aa0 <memory_map>
c0101f2f:	83 c4 10             	add    $0x10,%esp
c0101f32:	8b 45 e4             	mov    -0x1c(%ebp),%eax
c0101f35:	83 ec 04             	sub    $0x4,%esp
c0101f38:	6a 04                	push   $0x4
c0101f3a:	50                   	push   %eax
c0101f3b:	ff 75 08             	push   0x8(%ebp)
c0101f3e:	e8 49 20 00 00       	call   c0103f8c <strcmp>
c0101f43:	83 c4 10             	add    $0x10,%esp
c0101f46:	84 c0                	test   %al,%al
c0101f48:	74 05                	je     c0101f4f <get_sdt_by_signature+0x8f>
c0101f4a:	8b 45 e4             	mov    -0x1c(%ebp),%eax
c0101f4d:	eb 21                	jmp    c0101f70 <get_sdt_by_signature+0xb0>
c0101f4f:	83 45 f4 01          	addl   $0x1,-0xc(%ebp)
c0101f53:	8b 45 f4             	mov    -0xc(%ebp),%eax
c0101f56:	3b 45 e8             	cmp    -0x18(%ebp),%eax
c0101f59:	7c 9f                	jl     c0101efa <get_sdt_by_signature+0x3a>
c0101f5b:	83 ec 0c             	sub    $0xc,%esp
c0101f5e:	68 04 83 10 c0       	push   $0xc0108304
c0101f63:	e8 89 1c 00 00       	call   c0103bf1 <panic>
c0101f68:	83 c4 10             	add    $0x10,%esp
c0101f6b:	b8 00 00 00 00       	mov    $0x0,%eax
c0101f70:	c9                   	leave
c0101f71:	c3                   	ret

c0101f72 <init_rsdt_v1>:
c0101f72:	55                   	push   %ebp
c0101f73:	89 e5                	mov    %esp,%ebp
c0101f75:	83 ec 18             	sub    $0x18,%esp
c0101f78:	a1 24 e0 10 c0       	mov    0xc010e024,%eax
c0101f7d:	85 c0                	test   %eax,%eax
c0101f7f:	0f 84 a5 00 00 00    	je     c010202a <init_rsdt_v1+0xb8>
c0101f85:	a1 24 e0 10 c0       	mov    0xc010e024,%eax
c0101f8a:	83 c0 08             	add    $0x8,%eax
c0101f8d:	89 45 f4             	mov    %eax,-0xc(%ebp)
c0101f90:	6a 04                	push   $0x4
c0101f92:	ff 75 f4             	push   -0xc(%ebp)
c0101f95:	e8 e6 fe ff ff       	call   c0101e80 <validate_RSDP>
c0101f9a:	83 c4 08             	add    $0x8,%esp
c0101f9d:	84 c0                	test   %al,%al
c0101f9f:	74 12                	je     c0101fb3 <init_rsdt_v1+0x41>
c0101fa1:	83 ec 0c             	sub    $0xc,%esp
c0101fa4:	68 28 83 10 c0       	push   $0xc0108328
c0101fa9:	e8 ad 1a 00 00       	call   c0103a5b <logf>
c0101fae:	83 c4 10             	add    $0x10,%esp
c0101fb1:	eb 78                	jmp    c010202b <init_rsdt_v1+0xb9>
c0101fb3:	8b 45 f4             	mov    -0xc(%ebp),%eax
c0101fb6:	8b 40 10             	mov    0x10(%eax),%eax
c0101fb9:	25 00 f0 ff ff       	and    $0xfffff000,%eax
c0101fbe:	89 c1                	mov    %eax,%ecx
c0101fc0:	8b 45 f4             	mov    -0xc(%ebp),%eax
c0101fc3:	8b 40 10             	mov    0x10(%eax),%eax
c0101fc6:	25 00 f0 ff ff       	and    $0xfffff000,%eax
c0101fcb:	89 c2                	mov    %eax,%edx
c0101fcd:	a1 0c e0 10 c0       	mov    0xc010e00c,%eax
c0101fd2:	8b 00                	mov    (%eax),%eax
c0101fd4:	6a 01                	push   $0x1
c0101fd6:	51                   	push   %ecx
c0101fd7:	52                   	push   %edx
c0101fd8:	50                   	push   %eax
c0101fd9:	e8 c2 0a 00 00       	call   c0102aa0 <memory_map>
c0101fde:	83 c4 10             	add    $0x10,%esp
c0101fe1:	8b 45 f4             	mov    -0xc(%ebp),%eax
c0101fe4:	8b 40 10             	mov    0x10(%eax),%eax
c0101fe7:	a3 1c e0 10 c0       	mov    %eax,0xc010e01c
c0101fec:	a1 1c e0 10 c0       	mov    0xc010e01c,%eax
c0101ff1:	8b 40 04             	mov    0x4(%eax),%eax
c0101ff4:	8b 15 1c e0 10 c0    	mov    0xc010e01c,%edx
c0101ffa:	01 d0                	add    %edx,%eax
c0101ffc:	8b 15 1c e0 10 c0    	mov    0xc010e01c,%edx
c0102002:	81 c2 ff 03 00 00    	add    $0x3ff,%edx
c0102008:	81 e2 00 fc ff ff    	and    $0xfffffc00,%edx
c010200e:	39 c2                	cmp    %eax,%edx
c0102010:	73 19                	jae    c010202b <init_rsdt_v1+0xb9>
c0102012:	a1 0c e0 10 c0       	mov    0xc010e00c,%eax
c0102017:	8b 00                	mov    (%eax),%eax
c0102019:	6a 01                	push   $0x1
c010201b:	6a 00                	push   $0x0
c010201d:	6a 00                	push   $0x0
c010201f:	50                   	push   %eax
c0102020:	e8 7b 0a 00 00       	call   c0102aa0 <memory_map>
c0102025:	83 c4 10             	add    $0x10,%esp
c0102028:	eb 01                	jmp    c010202b <init_rsdt_v1+0xb9>
c010202a:	90                   	nop
c010202b:	c9                   	leave
c010202c:	c3                   	ret

c010202d <init_multiboot>:
c010202d:	55                   	push   %ebp
c010202e:	89 e5                	mov    %esp,%ebp
c0102030:	83 ec 28             	sub    $0x28,%esp
c0102033:	c7 45 e0 00 00 00 00 	movl   $0x0,-0x20(%ebp)
c010203a:	c7 45 e4 00 00 00 00 	movl   $0x0,-0x1c(%ebp)
c0102041:	c7 45 e8 00 00 00 00 	movl   $0x0,-0x18(%ebp)
c0102048:	8b 45 10             	mov    0x10(%ebp),%eax
c010204b:	8b 00                	mov    (%eax),%eax
c010204d:	89 45 f0             	mov    %eax,-0x10(%ebp)
c0102050:	8b 55 10             	mov    0x10(%ebp),%edx
c0102053:	8b 45 f0             	mov    -0x10(%ebp),%eax
c0102056:	01 d0                	add    %edx,%eax
c0102058:	8b 55 10             	mov    0x10(%ebp),%edx
c010205b:	81 c2 ff 03 00 00    	add    $0x3ff,%edx
c0102061:	81 e2 00 fc ff ff    	and    $0xfffffc00,%edx
c0102067:	39 c2                	cmp    %eax,%edx
c0102069:	73 56                	jae    c01020c1 <init_multiboot+0x94>
c010206b:	8b 45 10             	mov    0x10(%ebp),%eax
c010206e:	25 00 fc ff ff       	and    $0xfffffc00,%eax
c0102073:	89 c2                	mov    %eax,%edx
c0102075:	8b 45 10             	mov    0x10(%ebp),%eax
c0102078:	05 00 00 00 40       	add    $0x40000000,%eax
c010207d:	25 00 fc ff ff       	and    $0xfffffc00,%eax
c0102082:	6a 03                	push   $0x3
c0102084:	52                   	push   %edx
c0102085:	50                   	push   %eax
c0102086:	ff 75 0c             	push   0xc(%ebp)
c0102089:	e8 12 0a 00 00       	call   c0102aa0 <memory_map>
c010208e:	83 c4 10             	add    $0x10,%esp
c0102091:	8b 55 10             	mov    0x10(%ebp),%edx
c0102094:	8b 45 f0             	mov    -0x10(%ebp),%eax
c0102097:	01 d0                	add    %edx,%eax
c0102099:	25 00 fc ff ff       	and    $0xfffffc00,%eax
c010209e:	89 c1                	mov    %eax,%ecx
c01020a0:	8b 55 10             	mov    0x10(%ebp),%edx
c01020a3:	8b 45 f0             	mov    -0x10(%ebp),%eax
c01020a6:	01 d0                	add    %edx,%eax
c01020a8:	05 00 00 00 40       	add    $0x40000000,%eax
c01020ad:	25 00 fc ff ff       	and    $0xfffffc00,%eax
c01020b2:	6a 03                	push   $0x3
c01020b4:	51                   	push   %ecx
c01020b5:	50                   	push   %eax
c01020b6:	ff 75 0c             	push   0xc(%ebp)
c01020b9:	e8 e2 09 00 00       	call   c0102aa0 <memory_map>
c01020be:	83 c4 10             	add    $0x10,%esp
c01020c1:	8b 55 10             	mov    0x10(%ebp),%edx
c01020c4:	8b 45 f0             	mov    -0x10(%ebp),%eax
c01020c7:	01 d0                	add    %edx,%eax
c01020c9:	8b 00                	mov    (%eax),%eax
c01020cb:	89 45 ec             	mov    %eax,-0x14(%ebp)
c01020ce:	8b 45 10             	mov    0x10(%ebp),%eax
c01020d1:	83 c0 08             	add    $0x8,%eax
c01020d4:	89 45 f4             	mov    %eax,-0xc(%ebp)
c01020d7:	eb 5d                	jmp    c0102136 <init_multiboot+0x109>
c01020d9:	8b 45 f4             	mov    -0xc(%ebp),%eax
c01020dc:	8b 00                	mov    (%eax),%eax
c01020de:	83 f8 0f             	cmp    $0xf,%eax
c01020e1:	74 43                	je     c0102126 <init_multiboot+0xf9>
c01020e3:	83 f8 0f             	cmp    $0xf,%eax
c01020e6:	77 3f                	ja     c0102127 <init_multiboot+0xfa>
c01020e8:	83 f8 0e             	cmp    $0xe,%eax
c01020eb:	74 31                	je     c010211e <init_multiboot+0xf1>
c01020ed:	83 f8 0e             	cmp    $0xe,%eax
c01020f0:	77 35                	ja     c0102127 <init_multiboot+0xfa>
c01020f2:	83 f8 06             	cmp    $0x6,%eax
c01020f5:	74 07                	je     c01020fe <init_multiboot+0xd1>
c01020f7:	83 f8 08             	cmp    $0x8,%eax
c01020fa:	74 1a                	je     c0102116 <init_multiboot+0xe9>
c01020fc:	eb 29                	jmp    c0102127 <init_multiboot+0xfa>
c01020fe:	83 ec 0c             	sub    $0xc,%esp
c0102101:	68 42 83 10 c0       	push   $0xc0108342
c0102106:	e8 50 19 00 00       	call   c0103a5b <logf>
c010210b:	83 c4 10             	add    $0x10,%esp
c010210e:	8b 45 f4             	mov    -0xc(%ebp),%eax
c0102111:	89 45 e0             	mov    %eax,-0x20(%ebp)
c0102114:	eb 11                	jmp    c0102127 <init_multiboot+0xfa>
c0102116:	8b 45 f4             	mov    -0xc(%ebp),%eax
c0102119:	89 45 e4             	mov    %eax,-0x1c(%ebp)
c010211c:	eb 09                	jmp    c0102127 <init_multiboot+0xfa>
c010211e:	8b 45 f4             	mov    -0xc(%ebp),%eax
c0102121:	89 45 e8             	mov    %eax,-0x18(%ebp)
c0102124:	eb 01                	jmp    c0102127 <init_multiboot+0xfa>
c0102126:	90                   	nop
c0102127:	8b 45 f4             	mov    -0xc(%ebp),%eax
c010212a:	8b 40 04             	mov    0x4(%eax),%eax
c010212d:	83 c0 07             	add    $0x7,%eax
c0102130:	83 e0 f8             	and    $0xfffffff8,%eax
c0102133:	01 45 f4             	add    %eax,-0xc(%ebp)
c0102136:	8b 45 f4             	mov    -0xc(%ebp),%eax
c0102139:	8b 00                	mov    (%eax),%eax
c010213b:	85 c0                	test   %eax,%eax
c010213d:	75 9a                	jne    c01020d9 <init_multiboot+0xac>
c010213f:	8b 45 e4             	mov    -0x1c(%ebp),%eax
c0102142:	a3 20 e0 10 c0       	mov    %eax,0xc010e020
c0102147:	8b 45 e8             	mov    -0x18(%ebp),%eax
c010214a:	a3 24 e0 10 c0       	mov    %eax,0xc010e024
c010214f:	a1 24 e0 10 c0       	mov    0xc010e024,%eax
c0102154:	85 c0                	test   %eax,%eax
c0102156:	74 05                	je     c010215d <init_multiboot+0x130>
c0102158:	e8 15 fe ff ff       	call   c0101f72 <init_rsdt_v1>
c010215d:	8b 45 08             	mov    0x8(%ebp),%eax
c0102160:	8b 55 e0             	mov    -0x20(%ebp),%edx
c0102163:	89 10                	mov    %edx,(%eax)
c0102165:	8b 55 e4             	mov    -0x1c(%ebp),%edx
c0102168:	89 50 04             	mov    %edx,0x4(%eax)
c010216b:	8b 55 e8             	mov    -0x18(%ebp),%edx
c010216e:	89 50 08             	mov    %edx,0x8(%eax)
c0102171:	8b 45 08             	mov    0x8(%ebp),%eax
c0102174:	c9                   	leave
c0102175:	c2 04 00             	ret    $0x4

c0102178 <gdt_set_gate>:
c0102178:	55                   	push   %ebp
c0102179:	89 e5                	mov    %esp,%ebp
c010217b:	83 ec 08             	sub    $0x8,%esp
c010217e:	8b 55 14             	mov    0x14(%ebp),%edx
c0102181:	8b 45 18             	mov    0x18(%ebp),%eax
c0102184:	88 55 fc             	mov    %dl,-0x4(%ebp)
c0102187:	88 45 f8             	mov    %al,-0x8(%ebp)
c010218a:	8b 45 0c             	mov    0xc(%ebp),%eax
c010218d:	89 c2                	mov    %eax,%edx
c010218f:	8b 45 08             	mov    0x8(%ebp),%eax
c0102192:	66 89 14 c5 42 e0 10 	mov    %dx,-0x3fef1fbe(,%eax,8)
c0102199:	c0 
c010219a:	8b 45 0c             	mov    0xc(%ebp),%eax
c010219d:	c1 e8 10             	shr    $0x10,%eax
c01021a0:	89 c2                	mov    %eax,%edx
c01021a2:	8b 45 08             	mov    0x8(%ebp),%eax
c01021a5:	88 14 c5 44 e0 10 c0 	mov    %dl,-0x3fef1fbc(,%eax,8)
c01021ac:	8b 45 0c             	mov    0xc(%ebp),%eax
c01021af:	c1 e8 18             	shr    $0x18,%eax
c01021b2:	89 c2                	mov    %eax,%edx
c01021b4:	8b 45 08             	mov    0x8(%ebp),%eax
c01021b7:	88 14 c5 47 e0 10 c0 	mov    %dl,-0x3fef1fb9(,%eax,8)
c01021be:	8b 45 10             	mov    0x10(%ebp),%eax
c01021c1:	89 c2                	mov    %eax,%edx
c01021c3:	8b 45 08             	mov    0x8(%ebp),%eax
c01021c6:	66 89 14 c5 40 e0 10 	mov    %dx,-0x3fef1fc0(,%eax,8)
c01021cd:	c0 
c01021ce:	8b 45 10             	mov    0x10(%ebp),%eax
c01021d1:	c1 e8 10             	shr    $0x10,%eax
c01021d4:	83 e0 0f             	and    $0xf,%eax
c01021d7:	89 c2                	mov    %eax,%edx
c01021d9:	8b 45 08             	mov    0x8(%ebp),%eax
c01021dc:	88 14 c5 46 e0 10 c0 	mov    %dl,-0x3fef1fba(,%eax,8)
c01021e3:	8b 45 08             	mov    0x8(%ebp),%eax
c01021e6:	0f b6 04 c5 46 e0 10 	movzbl -0x3fef1fba(,%eax,8),%eax
c01021ed:	c0 
c01021ee:	89 c2                	mov    %eax,%edx
c01021f0:	0f b6 45 f8          	movzbl -0x8(%ebp),%eax
c01021f4:	83 e0 f0             	and    $0xfffffff0,%eax
c01021f7:	09 d0                	or     %edx,%eax
c01021f9:	89 c2                	mov    %eax,%edx
c01021fb:	8b 45 08             	mov    0x8(%ebp),%eax
c01021fe:	88 14 c5 46 e0 10 c0 	mov    %dl,-0x3fef1fba(,%eax,8)
c0102205:	8b 45 08             	mov    0x8(%ebp),%eax
c0102208:	0f b6 55 fc          	movzbl -0x4(%ebp),%edx
c010220c:	88 14 c5 45 e0 10 c0 	mov    %dl,-0x3fef1fbb(,%eax,8)
c0102213:	90                   	nop
c0102214:	c9                   	leave
c0102215:	c3                   	ret

c0102216 <gdt_install>:
c0102216:	55                   	push   %ebp
c0102217:	89 e5                	mov    %esp,%ebp
c0102219:	83 ec 08             	sub    $0x8,%esp
c010221c:	66 c7 05 68 e0 10 c0 	movw   $0x27,0xc010e068
c0102223:	27 00 
c0102225:	b8 40 e0 10 c0       	mov    $0xc010e040,%eax
c010222a:	a3 6a e0 10 c0       	mov    %eax,0xc010e06a
c010222f:	6a 00                	push   $0x0
c0102231:	6a 00                	push   $0x0
c0102233:	6a 00                	push   $0x0
c0102235:	6a 00                	push   $0x0
c0102237:	6a 00                	push   $0x0
c0102239:	e8 3a ff ff ff       	call   c0102178 <gdt_set_gate>
c010223e:	83 c4 14             	add    $0x14,%esp
c0102241:	68 cf 00 00 00       	push   $0xcf
c0102246:	68 9a 00 00 00       	push   $0x9a
c010224b:	6a ff                	push   $0xffffffff
c010224d:	6a 00                	push   $0x0
c010224f:	6a 01                	push   $0x1
c0102251:	e8 22 ff ff ff       	call   c0102178 <gdt_set_gate>
c0102256:	83 c4 14             	add    $0x14,%esp
c0102259:	68 cf 00 00 00       	push   $0xcf
c010225e:	68 92 00 00 00       	push   $0x92
c0102263:	6a ff                	push   $0xffffffff
c0102265:	6a 00                	push   $0x0
c0102267:	6a 02                	push   $0x2
c0102269:	e8 0a ff ff ff       	call   c0102178 <gdt_set_gate>
c010226e:	83 c4 14             	add    $0x14,%esp
c0102271:	68 cf 00 00 00       	push   $0xcf
c0102276:	68 fa 00 00 00       	push   $0xfa
c010227b:	6a ff                	push   $0xffffffff
c010227d:	6a 00                	push   $0x0
c010227f:	6a 03                	push   $0x3
c0102281:	e8 f2 fe ff ff       	call   c0102178 <gdt_set_gate>
c0102286:	83 c4 14             	add    $0x14,%esp
c0102289:	68 cf 00 00 00       	push   $0xcf
c010228e:	68 f2 00 00 00       	push   $0xf2
c0102293:	6a ff                	push   $0xffffffff
c0102295:	6a 00                	push   $0x0
c0102297:	6a 04                	push   $0x4
c0102299:	e8 da fe ff ff       	call   c0102178 <gdt_set_gate>
c010229e:	83 c4 14             	add    $0x14,%esp
c01022a1:	b8 68 e0 10 c0       	mov    $0xc010e068,%eax
c01022a6:	83 ec 0c             	sub    $0xc,%esp
c01022a9:	50                   	push   %eax
c01022aa:	e8 94 ed ff ff       	call   c0101043 <flush_gdt>
c01022af:	83 c4 10             	add    $0x10,%esp
c01022b2:	90                   	nop
c01022b3:	c9                   	leave
c01022b4:	c3                   	ret

c01022b5 <idt_set_gate>:
c01022b5:	55                   	push   %ebp
c01022b6:	89 e5                	mov    %esp,%ebp
c01022b8:	83 ec 08             	sub    $0x8,%esp
c01022bb:	8b 55 08             	mov    0x8(%ebp),%edx
c01022be:	8b 45 10             	mov    0x10(%ebp),%eax
c01022c1:	88 55 fc             	mov    %dl,-0x4(%ebp)
c01022c4:	88 45 f8             	mov    %al,-0x8(%ebp)
c01022c7:	0f b6 45 fc          	movzbl -0x4(%ebp),%eax
c01022cb:	8b 55 0c             	mov    0xc(%ebp),%edx
c01022ce:	66 89 14 c5 80 e0 10 	mov    %dx,-0x3fef1f80(,%eax,8)
c01022d5:	c0 
c01022d6:	0f b6 45 fc          	movzbl -0x4(%ebp),%eax
c01022da:	66 c7 04 c5 82 e0 10 	movw   $0x8,-0x3fef1f7e(,%eax,8)
c01022e1:	c0 08 00 
c01022e4:	0f b6 45 fc          	movzbl -0x4(%ebp),%eax
c01022e8:	0f b6 55 f8          	movzbl -0x8(%ebp),%edx
c01022ec:	88 14 c5 85 e0 10 c0 	mov    %dl,-0x3fef1f7b(,%eax,8)
c01022f3:	8b 45 0c             	mov    0xc(%ebp),%eax
c01022f6:	c1 e8 10             	shr    $0x10,%eax
c01022f9:	89 c2                	mov    %eax,%edx
c01022fb:	0f b6 45 fc          	movzbl -0x4(%ebp),%eax
c01022ff:	66 89 14 c5 86 e0 10 	mov    %dx,-0x3fef1f7a(,%eax,8)
c0102306:	c0 
c0102307:	0f b6 45 fc          	movzbl -0x4(%ebp),%eax
c010230b:	c6 04 c5 84 e0 10 c0 	movb   $0x0,-0x3fef1f7c(,%eax,8)
c0102312:	00 
c0102313:	90                   	nop
c0102314:	c9                   	leave
c0102315:	c3                   	ret

c0102316 <init_idt>:
c0102316:	55                   	push   %ebp
c0102317:	89 e5                	mov    %esp,%ebp
c0102319:	83 ec 08             	sub    $0x8,%esp
c010231c:	b8 80 e0 10 c0       	mov    $0xc010e080,%eax
c0102321:	a3 82 e8 10 c0       	mov    %eax,0xc010e882
c0102326:	66 c7 05 80 e8 10 c0 	movw   $0x7ff,0xc010e880
c010232d:	ff 07 
c010232f:	83 ec 04             	sub    $0x4,%esp
c0102332:	68 ff 07 00 00       	push   $0x7ff
c0102337:	6a 00                	push   $0x0
c0102339:	68 80 e0 10 c0       	push   $0xc010e080
c010233e:	e8 fa 1b 00 00       	call   c0103f3d <memset>
c0102343:	83 c4 10             	add    $0x10,%esp
c0102346:	b8 3e 44 10 c0       	mov    $0xc010443e,%eax
c010234b:	83 ec 04             	sub    $0x4,%esp
c010234e:	68 8e 00 00 00       	push   $0x8e
c0102353:	50                   	push   %eax
c0102354:	6a 00                	push   $0x0
c0102356:	e8 5a ff ff ff       	call   c01022b5 <idt_set_gate>
c010235b:	83 c4 10             	add    $0x10,%esp
c010235e:	b8 48 44 10 c0       	mov    $0xc0104448,%eax
c0102363:	83 ec 04             	sub    $0x4,%esp
c0102366:	68 8e 00 00 00       	push   $0x8e
c010236b:	50                   	push   %eax
c010236c:	6a 01                	push   $0x1
c010236e:	e8 42 ff ff ff       	call   c01022b5 <idt_set_gate>
c0102373:	83 c4 10             	add    $0x10,%esp
c0102376:	b8 52 44 10 c0       	mov    $0xc0104452,%eax
c010237b:	83 ec 04             	sub    $0x4,%esp
c010237e:	68 8e 00 00 00       	push   $0x8e
c0102383:	50                   	push   %eax
c0102384:	6a 02                	push   $0x2
c0102386:	e8 2a ff ff ff       	call   c01022b5 <idt_set_gate>
c010238b:	83 c4 10             	add    $0x10,%esp
c010238e:	b8 5c 44 10 c0       	mov    $0xc010445c,%eax
c0102393:	83 ec 04             	sub    $0x4,%esp
c0102396:	68 8e 00 00 00       	push   $0x8e
c010239b:	50                   	push   %eax
c010239c:	6a 03                	push   $0x3
c010239e:	e8 12 ff ff ff       	call   c01022b5 <idt_set_gate>
c01023a3:	83 c4 10             	add    $0x10,%esp
c01023a6:	b8 66 44 10 c0       	mov    $0xc0104466,%eax
c01023ab:	83 ec 04             	sub    $0x4,%esp
c01023ae:	68 8e 00 00 00       	push   $0x8e
c01023b3:	50                   	push   %eax
c01023b4:	6a 04                	push   $0x4
c01023b6:	e8 fa fe ff ff       	call   c01022b5 <idt_set_gate>
c01023bb:	83 c4 10             	add    $0x10,%esp
c01023be:	b8 70 44 10 c0       	mov    $0xc0104470,%eax
c01023c3:	83 ec 04             	sub    $0x4,%esp
c01023c6:	68 8e 00 00 00       	push   $0x8e
c01023cb:	50                   	push   %eax
c01023cc:	6a 05                	push   $0x5
c01023ce:	e8 e2 fe ff ff       	call   c01022b5 <idt_set_gate>
c01023d3:	83 c4 10             	add    $0x10,%esp
c01023d6:	b8 7a 44 10 c0       	mov    $0xc010447a,%eax
c01023db:	83 ec 04             	sub    $0x4,%esp
c01023de:	68 8e 00 00 00       	push   $0x8e
c01023e3:	50                   	push   %eax
c01023e4:	6a 06                	push   $0x6
c01023e6:	e8 ca fe ff ff       	call   c01022b5 <idt_set_gate>
c01023eb:	83 c4 10             	add    $0x10,%esp
c01023ee:	b8 84 44 10 c0       	mov    $0xc0104484,%eax
c01023f3:	83 ec 04             	sub    $0x4,%esp
c01023f6:	68 8e 00 00 00       	push   $0x8e
c01023fb:	50                   	push   %eax
c01023fc:	6a 07                	push   $0x7
c01023fe:	e8 b2 fe ff ff       	call   c01022b5 <idt_set_gate>
c0102403:	83 c4 10             	add    $0x10,%esp
c0102406:	b8 8e 44 10 c0       	mov    $0xc010448e,%eax
c010240b:	83 ec 04             	sub    $0x4,%esp
c010240e:	68 8e 00 00 00       	push   $0x8e
c0102413:	50                   	push   %eax
c0102414:	6a 08                	push   $0x8
c0102416:	e8 9a fe ff ff       	call   c01022b5 <idt_set_gate>
c010241b:	83 c4 10             	add    $0x10,%esp
c010241e:	b8 96 44 10 c0       	mov    $0xc0104496,%eax
c0102423:	83 ec 04             	sub    $0x4,%esp
c0102426:	68 8e 00 00 00       	push   $0x8e
c010242b:	50                   	push   %eax
c010242c:	6a 09                	push   $0x9
c010242e:	e8 82 fe ff ff       	call   c01022b5 <idt_set_gate>
c0102433:	83 c4 10             	add    $0x10,%esp
c0102436:	b8 a0 44 10 c0       	mov    $0xc01044a0,%eax
c010243b:	83 ec 04             	sub    $0x4,%esp
c010243e:	68 8e 00 00 00       	push   $0x8e
c0102443:	50                   	push   %eax
c0102444:	6a 0a                	push   $0xa
c0102446:	e8 6a fe ff ff       	call   c01022b5 <idt_set_gate>
c010244b:	83 c4 10             	add    $0x10,%esp
c010244e:	b8 a8 44 10 c0       	mov    $0xc01044a8,%eax
c0102453:	83 ec 04             	sub    $0x4,%esp
c0102456:	68 8e 00 00 00       	push   $0x8e
c010245b:	50                   	push   %eax
c010245c:	6a 0b                	push   $0xb
c010245e:	e8 52 fe ff ff       	call   c01022b5 <idt_set_gate>
c0102463:	83 c4 10             	add    $0x10,%esp
c0102466:	b8 b0 44 10 c0       	mov    $0xc01044b0,%eax
c010246b:	83 ec 04             	sub    $0x4,%esp
c010246e:	68 8e 00 00 00       	push   $0x8e
c0102473:	50                   	push   %eax
c0102474:	6a 0c                	push   $0xc
c0102476:	e8 3a fe ff ff       	call   c01022b5 <idt_set_gate>
c010247b:	83 c4 10             	add    $0x10,%esp
c010247e:	b8 b8 44 10 c0       	mov    $0xc01044b8,%eax
c0102483:	83 ec 04             	sub    $0x4,%esp
c0102486:	68 8e 00 00 00       	push   $0x8e
c010248b:	50                   	push   %eax
c010248c:	6a 0d                	push   $0xd
c010248e:	e8 22 fe ff ff       	call   c01022b5 <idt_set_gate>
c0102493:	83 c4 10             	add    $0x10,%esp
c0102496:	b8 c0 44 10 c0       	mov    $0xc01044c0,%eax
c010249b:	83 ec 04             	sub    $0x4,%esp
c010249e:	68 8e 00 00 00       	push   $0x8e
c01024a3:	50                   	push   %eax
c01024a4:	6a 0e                	push   $0xe
c01024a6:	e8 0a fe ff ff       	call   c01022b5 <idt_set_gate>
c01024ab:	83 c4 10             	add    $0x10,%esp
c01024ae:	b8 c8 44 10 c0       	mov    $0xc01044c8,%eax
c01024b3:	83 ec 04             	sub    $0x4,%esp
c01024b6:	68 8e 00 00 00       	push   $0x8e
c01024bb:	50                   	push   %eax
c01024bc:	6a 0f                	push   $0xf
c01024be:	e8 f2 fd ff ff       	call   c01022b5 <idt_set_gate>
c01024c3:	83 c4 10             	add    $0x10,%esp
c01024c6:	b8 d2 44 10 c0       	mov    $0xc01044d2,%eax
c01024cb:	83 ec 04             	sub    $0x4,%esp
c01024ce:	68 8e 00 00 00       	push   $0x8e
c01024d3:	50                   	push   %eax
c01024d4:	6a 10                	push   $0x10
c01024d6:	e8 da fd ff ff       	call   c01022b5 <idt_set_gate>
c01024db:	83 c4 10             	add    $0x10,%esp
c01024de:	b8 dc 44 10 c0       	mov    $0xc01044dc,%eax
c01024e3:	83 ec 04             	sub    $0x4,%esp
c01024e6:	68 8e 00 00 00       	push   $0x8e
c01024eb:	50                   	push   %eax
c01024ec:	6a 11                	push   $0x11
c01024ee:	e8 c2 fd ff ff       	call   c01022b5 <idt_set_gate>
c01024f3:	83 c4 10             	add    $0x10,%esp
c01024f6:	b8 e4 44 10 c0       	mov    $0xc01044e4,%eax
c01024fb:	83 ec 04             	sub    $0x4,%esp
c01024fe:	68 8e 00 00 00       	push   $0x8e
c0102503:	50                   	push   %eax
c0102504:	6a 12                	push   $0x12
c0102506:	e8 aa fd ff ff       	call   c01022b5 <idt_set_gate>
c010250b:	83 c4 10             	add    $0x10,%esp
c010250e:	b8 ee 44 10 c0       	mov    $0xc01044ee,%eax
c0102513:	83 ec 04             	sub    $0x4,%esp
c0102516:	68 8e 00 00 00       	push   $0x8e
c010251b:	50                   	push   %eax
c010251c:	6a 13                	push   $0x13
c010251e:	e8 92 fd ff ff       	call   c01022b5 <idt_set_gate>
c0102523:	83 c4 10             	add    $0x10,%esp
c0102526:	b8 f8 44 10 c0       	mov    $0xc01044f8,%eax
c010252b:	83 ec 04             	sub    $0x4,%esp
c010252e:	68 8e 00 00 00       	push   $0x8e
c0102533:	50                   	push   %eax
c0102534:	6a 14                	push   $0x14
c0102536:	e8 7a fd ff ff       	call   c01022b5 <idt_set_gate>
c010253b:	83 c4 10             	add    $0x10,%esp
c010253e:	b8 02 45 10 c0       	mov    $0xc0104502,%eax
c0102543:	83 ec 04             	sub    $0x4,%esp
c0102546:	68 8e 00 00 00       	push   $0x8e
c010254b:	50                   	push   %eax
c010254c:	6a 15                	push   $0x15
c010254e:	e8 62 fd ff ff       	call   c01022b5 <idt_set_gate>
c0102553:	83 c4 10             	add    $0x10,%esp
c0102556:	b8 0c 45 10 c0       	mov    $0xc010450c,%eax
c010255b:	83 ec 04             	sub    $0x4,%esp
c010255e:	68 8e 00 00 00       	push   $0x8e
c0102563:	50                   	push   %eax
c0102564:	6a 16                	push   $0x16
c0102566:	e8 4a fd ff ff       	call   c01022b5 <idt_set_gate>
c010256b:	83 c4 10             	add    $0x10,%esp
c010256e:	b8 16 45 10 c0       	mov    $0xc0104516,%eax
c0102573:	83 ec 04             	sub    $0x4,%esp
c0102576:	68 8e 00 00 00       	push   $0x8e
c010257b:	50                   	push   %eax
c010257c:	6a 17                	push   $0x17
c010257e:	e8 32 fd ff ff       	call   c01022b5 <idt_set_gate>
c0102583:	83 c4 10             	add    $0x10,%esp
c0102586:	b8 20 45 10 c0       	mov    $0xc0104520,%eax
c010258b:	83 ec 04             	sub    $0x4,%esp
c010258e:	68 8e 00 00 00       	push   $0x8e
c0102593:	50                   	push   %eax
c0102594:	6a 18                	push   $0x18
c0102596:	e8 1a fd ff ff       	call   c01022b5 <idt_set_gate>
c010259b:	83 c4 10             	add    $0x10,%esp
c010259e:	b8 2a 45 10 c0       	mov    $0xc010452a,%eax
c01025a3:	83 ec 04             	sub    $0x4,%esp
c01025a6:	68 8e 00 00 00       	push   $0x8e
c01025ab:	50                   	push   %eax
c01025ac:	6a 19                	push   $0x19
c01025ae:	e8 02 fd ff ff       	call   c01022b5 <idt_set_gate>
c01025b3:	83 c4 10             	add    $0x10,%esp
c01025b6:	b8 34 45 10 c0       	mov    $0xc0104534,%eax
c01025bb:	83 ec 04             	sub    $0x4,%esp
c01025be:	68 8e 00 00 00       	push   $0x8e
c01025c3:	50                   	push   %eax
c01025c4:	6a 1a                	push   $0x1a
c01025c6:	e8 ea fc ff ff       	call   c01022b5 <idt_set_gate>
c01025cb:	83 c4 10             	add    $0x10,%esp
c01025ce:	b8 3e 45 10 c0       	mov    $0xc010453e,%eax
c01025d3:	83 ec 04             	sub    $0x4,%esp
c01025d6:	68 8e 00 00 00       	push   $0x8e
c01025db:	50                   	push   %eax
c01025dc:	6a 1b                	push   $0x1b
c01025de:	e8 d2 fc ff ff       	call   c01022b5 <idt_set_gate>
c01025e3:	83 c4 10             	add    $0x10,%esp
c01025e6:	b8 48 45 10 c0       	mov    $0xc0104548,%eax
c01025eb:	83 ec 04             	sub    $0x4,%esp
c01025ee:	68 8e 00 00 00       	push   $0x8e
c01025f3:	50                   	push   %eax
c01025f4:	6a 1c                	push   $0x1c
c01025f6:	e8 ba fc ff ff       	call   c01022b5 <idt_set_gate>
c01025fb:	83 c4 10             	add    $0x10,%esp
c01025fe:	b8 52 45 10 c0       	mov    $0xc0104552,%eax
c0102603:	83 ec 04             	sub    $0x4,%esp
c0102606:	68 8e 00 00 00       	push   $0x8e
c010260b:	50                   	push   %eax
c010260c:	6a 1d                	push   $0x1d
c010260e:	e8 a2 fc ff ff       	call   c01022b5 <idt_set_gate>
c0102613:	83 c4 10             	add    $0x10,%esp
c0102616:	b8 5c 45 10 c0       	mov    $0xc010455c,%eax
c010261b:	83 ec 04             	sub    $0x4,%esp
c010261e:	68 8e 00 00 00       	push   $0x8e
c0102623:	50                   	push   %eax
c0102624:	6a 1e                	push   $0x1e
c0102626:	e8 8a fc ff ff       	call   c01022b5 <idt_set_gate>
c010262b:	83 c4 10             	add    $0x10,%esp
c010262e:	b8 64 45 10 c0       	mov    $0xc0104564,%eax
c0102633:	83 ec 04             	sub    $0x4,%esp
c0102636:	68 8e 00 00 00       	push   $0x8e
c010263b:	50                   	push   %eax
c010263c:	6a 1f                	push   $0x1f
c010263e:	e8 72 fc ff ff       	call   c01022b5 <idt_set_gate>
c0102643:	83 c4 10             	add    $0x10,%esp
c0102646:	b8 30 44 10 c0       	mov    $0xc0104430,%eax
c010264b:	83 ec 04             	sub    $0x4,%esp
c010264e:	68 8f 00 00 00       	push   $0x8f
c0102653:	50                   	push   %eax
c0102654:	6a 30                	push   $0x30
c0102656:	e8 5a fc ff ff       	call   c01022b5 <idt_set_gate>
c010265b:	83 c4 10             	add    $0x10,%esp
c010265e:	b8 6e 45 10 c0       	mov    $0xc010456e,%eax
c0102663:	83 ec 04             	sub    $0x4,%esp
c0102666:	68 8f 00 00 00       	push   $0x8f
c010266b:	50                   	push   %eax
c010266c:	6a 31                	push   $0x31
c010266e:	e8 42 fc ff ff       	call   c01022b5 <idt_set_gate>
c0102673:	83 c4 10             	add    $0x10,%esp
c0102676:	b8 78 45 10 c0       	mov    $0xc0104578,%eax
c010267b:	83 ec 04             	sub    $0x4,%esp
c010267e:	68 8f 00 00 00       	push   $0x8f
c0102683:	50                   	push   %eax
c0102684:	6a 32                	push   $0x32
c0102686:	e8 2a fc ff ff       	call   c01022b5 <idt_set_gate>
c010268b:	83 c4 10             	add    $0x10,%esp
c010268e:	b8 0a 44 10 c0       	mov    $0xc010440a,%eax
c0102693:	83 ec 04             	sub    $0x4,%esp
c0102696:	68 8f 00 00 00       	push   $0x8f
c010269b:	50                   	push   %eax
c010269c:	68 80 00 00 00       	push   $0x80
c01026a1:	e8 0f fc ff ff       	call   c01022b5 <idt_set_gate>
c01026a6:	83 c4 10             	add    $0x10,%esp
c01026a9:	83 ec 0c             	sub    $0xc,%esp
c01026ac:	68 60 83 10 c0       	push   $0xc0108360
c01026b1:	e8 6b 11 00 00       	call   c0103821 <log_to_serial>
c01026b6:	83 c4 10             	add    $0x10,%esp
c01026b9:	0f 01 1d 80 e8 10 c0 	lidtl  0xc010e880
c01026c0:	89 25 70 e0 10 c0    	mov    %esp,0xc010e070
c01026c6:	a1 70 e0 10 c0       	mov    0xc010e070,%eax
c01026cb:	83 ec 08             	sub    $0x8,%esp
c01026ce:	50                   	push   %eax
c01026cf:	68 6c 83 10 c0       	push   $0xc010836c
c01026d4:	e8 82 13 00 00       	call   c0103a5b <logf>
c01026d9:	83 c4 10             	add    $0x10,%esp
c01026dc:	fb                   	sti
c01026dd:	90                   	nop
c01026de:	c9                   	leave
c01026df:	c3                   	ret

c01026e0 <stack_trace>:
c01026e0:	55                   	push   %ebp
c01026e1:	89 e5                	mov    %esp,%ebp
c01026e3:	83 ec 18             	sub    $0x18,%esp
c01026e6:	c7 45 f4 00 00 00 00 	movl   $0x0,-0xc(%ebp)
c01026ed:	89 e8                	mov    %ebp,%eax
c01026ef:	89 45 f4             	mov    %eax,-0xc(%ebp)
c01026f2:	c7 45 f0 00 00 00 00 	movl   $0x0,-0x10(%ebp)
c01026f9:	eb 23                	jmp    c010271e <stack_trace+0x3e>
c01026fb:	8b 45 f4             	mov    -0xc(%ebp),%eax
c01026fe:	83 c0 04             	add    $0x4,%eax
c0102701:	8b 00                	mov    (%eax),%eax
c0102703:	83 ec 04             	sub    $0x4,%esp
c0102706:	6a 01                	push   $0x1
c0102708:	50                   	push   %eax
c0102709:	68 7c 83 10 c0       	push   $0xc010837c
c010270e:	e8 48 13 00 00       	call   c0103a5b <logf>
c0102713:	83 c4 10             	add    $0x10,%esp
c0102716:	8b 45 f4             	mov    -0xc(%ebp),%eax
c0102719:	8b 00                	mov    (%eax),%eax
c010271b:	89 45 f4             	mov    %eax,-0xc(%ebp)
c010271e:	83 7d f4 00          	cmpl   $0x0,-0xc(%ebp)
c0102722:	75 d7                	jne    c01026fb <stack_trace+0x1b>
c0102724:	90                   	nop
c0102725:	90                   	nop
c0102726:	c9                   	leave
c0102727:	c3                   	ret

c0102728 <kernel_stack_fn>:
c0102728:	55                   	push   %ebp
c0102729:	89 e5                	mov    %esp,%ebp
c010272b:	53                   	push   %ebx
c010272c:	83 ec 14             	sub    $0x14,%esp
c010272f:	83 7d 08 04          	cmpl   $0x4,0x8(%ebp)
c0102733:	75 35                	jne    c010276a <kernel_stack_fn+0x42>
c0102735:	89 45 f4             	mov    %eax,-0xc(%ebp)
c0102738:	89 5d f0             	mov    %ebx,-0x10(%ebp)
c010273b:	89 4d ec             	mov    %ecx,-0x14(%ebp)
c010273e:	89 55 e8             	mov    %edx,-0x18(%ebp)
c0102741:	8b 5d e8             	mov    -0x18(%ebp),%ebx
c0102744:	8b 4d ec             	mov    -0x14(%ebp),%ecx
c0102747:	8b 55 f0             	mov    -0x10(%ebp),%edx
c010274a:	8b 45 f4             	mov    -0xc(%ebp),%eax
c010274d:	53                   	push   %ebx
c010274e:	51                   	push   %ecx
c010274f:	52                   	push   %edx
c0102750:	50                   	push   %eax
c0102751:	e8 7a 34 00 00       	call   c0105bd0 <create_process>
c0102756:	83 c4 10             	add    $0x10,%esp
c0102759:	83 ec 0c             	sub    $0xc,%esp
c010275c:	68 92 83 10 c0       	push   $0xc0108392
c0102761:	e8 f5 12 00 00       	call   c0103a5b <logf>
c0102766:	83 c4 10             	add    $0x10,%esp
c0102769:	90                   	nop
c010276a:	a1 20 10 11 c0       	mov    0xc0111020,%eax
c010276f:	83 ec 0c             	sub    $0xc,%esp
c0102772:	50                   	push   %eax
c0102773:	e8 16 21 00 00       	call   c010488e <send_EOI>
c0102778:	83 c4 10             	add    $0x10,%esp
c010277b:	90                   	nop
c010277c:	8b 5d fc             	mov    -0x4(%ebp),%ebx
c010277f:	c9                   	leave
c0102780:	c3                   	ret

c0102781 <exc_print>:
c0102781:	55                   	push   %ebp
c0102782:	89 e5                	mov    %esp,%ebp
c0102784:	57                   	push   %edi
c0102785:	56                   	push   %esi
c0102786:	53                   	push   %ebx
c0102787:	83 ec 3c             	sub    $0x3c,%esp
c010278a:	c7 45 e4 01 00 00 00 	movl   $0x1,-0x1c(%ebp)
c0102791:	8b 45 08             	mov    0x8(%ebp),%eax
c0102794:	8b 40 2c             	mov    0x2c(%eax),%eax
c0102797:	83 f8 1b             	cmp    $0x1b,%eax
c010279a:	0f 87 3e 01 00 00    	ja     c01028de <exc_print+0x15d>
c01027a0:	8b 04 85 3c 85 10 c0 	mov    -0x3fef7ac4(,%eax,4),%eax
c01027a7:	ff e0                	jmp    *%eax
c01027a9:	83 ec 0c             	sub    $0xc,%esp
c01027ac:	68 a4 83 10 c0       	push   $0xc01083a4
c01027b1:	e8 a5 12 00 00       	call   c0103a5b <logf>
c01027b6:	83 c4 10             	add    $0x10,%esp
c01027b9:	e9 56 01 00 00       	jmp    c0102914 <exc_print+0x193>
c01027be:	83 ec 0c             	sub    $0xc,%esp
c01027c1:	68 c8 83 10 c0       	push   $0xc01083c8
c01027c6:	e8 90 12 00 00       	call   c0103a5b <logf>
c01027cb:	83 c4 10             	add    $0x10,%esp
c01027ce:	e9 41 01 00 00       	jmp    c0102914 <exc_print+0x193>
c01027d3:	8b 45 08             	mov    0x8(%ebp),%eax
c01027d6:	8b 40 30             	mov    0x30(%eax),%eax
c01027d9:	83 ec 08             	sub    $0x8,%esp
c01027dc:	50                   	push   %eax
c01027dd:	68 e9 83 10 c0       	push   $0xc01083e9
c01027e2:	e8 74 12 00 00       	call   c0103a5b <logf>
c01027e7:	83 c4 10             	add    $0x10,%esp
c01027ea:	83 ec 0c             	sub    $0xc,%esp
c01027ed:	68 f8 83 10 c0       	push   $0xc01083f8
c01027f2:	e8 2a 10 00 00       	call   c0103821 <log_to_serial>
c01027f7:	83 c4 10             	add    $0x10,%esp
c01027fa:	e9 15 01 00 00       	jmp    c0102914 <exc_print+0x193>
c01027ff:	83 ec 0c             	sub    $0xc,%esp
c0102802:	68 20 84 10 c0       	push   $0xc0108420
c0102807:	e8 4f 12 00 00       	call   c0103a5b <logf>
c010280c:	83 c4 10             	add    $0x10,%esp
c010280f:	c7 45 e4 01 00 00 00 	movl   $0x1,-0x1c(%ebp)
c0102816:	e9 f9 00 00 00       	jmp    c0102914 <exc_print+0x193>
c010281b:	8b 45 08             	mov    0x8(%ebp),%eax
c010281e:	8b 40 04             	mov    0x4(%eax),%eax
c0102821:	83 ec 08             	sub    $0x8,%esp
c0102824:	50                   	push   %eax
c0102825:	68 5c 84 10 c0       	push   $0xc010845c
c010282a:	e8 1f 42 00 00       	call   c0106a4e <printf>
c010282f:	83 c4 10             	add    $0x10,%esp
c0102832:	8b 45 08             	mov    0x8(%ebp),%eax
c0102835:	8b 70 3c             	mov    0x3c(%eax),%esi
c0102838:	8b 45 08             	mov    0x8(%ebp),%eax
c010283b:	8b 78 38             	mov    0x38(%eax),%edi
c010283e:	8b 45 08             	mov    0x8(%ebp),%eax
c0102841:	8b 40 34             	mov    0x34(%eax),%eax
c0102844:	89 45 d4             	mov    %eax,-0x2c(%ebp)
c0102847:	8b 45 08             	mov    0x8(%ebp),%eax
c010284a:	8b 48 08             	mov    0x8(%eax),%ecx
c010284d:	89 4d d0             	mov    %ecx,-0x30(%ebp)
c0102850:	8b 45 08             	mov    0x8(%ebp),%eax
c0102853:	8b 58 04             	mov    0x4(%eax),%ebx
c0102856:	89 5d cc             	mov    %ebx,-0x34(%ebp)
c0102859:	8b 45 08             	mov    0x8(%ebp),%eax
c010285c:	8b 10                	mov    (%eax),%edx
c010285e:	89 55 c8             	mov    %edx,-0x38(%ebp)
c0102861:	8b 45 08             	mov    0x8(%ebp),%eax
c0102864:	8b 40 0c             	mov    0xc(%eax),%eax
c0102867:	89 45 c4             	mov    %eax,-0x3c(%ebp)
c010286a:	8b 45 08             	mov    0x8(%ebp),%eax
c010286d:	8b 48 10             	mov    0x10(%eax),%ecx
c0102870:	89 4d c0             	mov    %ecx,-0x40(%ebp)
c0102873:	8b 45 08             	mov    0x8(%ebp),%eax
c0102876:	8b 58 18             	mov    0x18(%eax),%ebx
c0102879:	8b 45 08             	mov    0x8(%ebp),%eax
c010287c:	8b 48 1c             	mov    0x1c(%eax),%ecx
c010287f:	8b 45 08             	mov    0x8(%ebp),%eax
c0102882:	8b 50 20             	mov    0x20(%eax),%edx
c0102885:	8b 45 08             	mov    0x8(%ebp),%eax
c0102888:	8b 40 24             	mov    0x24(%eax),%eax
c010288b:	83 ec 0c             	sub    $0xc,%esp
c010288e:	56                   	push   %esi
c010288f:	57                   	push   %edi
c0102890:	ff 75 d4             	push   -0x2c(%ebp)
c0102893:	ff 75 d0             	push   -0x30(%ebp)
c0102896:	ff 75 cc             	push   -0x34(%ebp)
c0102899:	ff 75 c8             	push   -0x38(%ebp)
c010289c:	ff 75 c4             	push   -0x3c(%ebp)
c010289f:	ff 75 c0             	push   -0x40(%ebp)
c01028a2:	53                   	push   %ebx
c01028a3:	51                   	push   %ecx
c01028a4:	52                   	push   %edx
c01028a5:	50                   	push   %eax
c01028a6:	68 88 84 10 c0       	push   $0xc0108488
c01028ab:	e8 ab 11 00 00       	call   c0103a5b <logf>
c01028b0:	83 c4 40             	add    $0x40,%esp
c01028b3:	83 ec 0c             	sub    $0xc,%esp
c01028b6:	ff 75 08             	push   0x8(%ebp)
c01028b9:	e8 ec 07 00 00       	call   c01030aa <handle_exception>
c01028be:	83 c4 10             	add    $0x10,%esp
c01028c1:	0f b6 c0             	movzbl %al,%eax
c01028c4:	89 45 e4             	mov    %eax,-0x1c(%ebp)
c01028c7:	eb 4b                	jmp    c0102914 <exc_print+0x193>
c01028c9:	83 ec 0c             	sub    $0xc,%esp
c01028cc:	68 f9 84 10 c0       	push   $0xc01084f9
c01028d1:	e8 85 11 00 00       	call   c0103a5b <logf>
c01028d6:	83 c4 10             	add    $0x10,%esp
c01028d9:	e8 02 fe ff ff       	call   c01026e0 <stack_trace>
c01028de:	8b 45 08             	mov    0x8(%ebp),%eax
c01028e1:	8b 50 2c             	mov    0x2c(%eax),%edx
c01028e4:	8b 45 08             	mov    0x8(%ebp),%eax
c01028e7:	8b 40 30             	mov    0x30(%eax),%eax
c01028ea:	83 ec 04             	sub    $0x4,%esp
c01028ed:	52                   	push   %edx
c01028ee:	50                   	push   %eax
c01028ef:	68 14 85 10 c0       	push   $0xc0108514
c01028f4:	e8 62 11 00 00       	call   c0103a5b <logf>
c01028f9:	83 c4 10             	add    $0x10,%esp
c01028fc:	c7 45 e4 01 00 00 00 	movl   $0x1,-0x1c(%ebp)
c0102903:	83 ec 0c             	sub    $0xc,%esp
c0102906:	68 37 85 10 c0       	push   $0xc0108537
c010290b:	e8 11 0f 00 00       	call   c0103821 <log_to_serial>
c0102910:	83 c4 10             	add    $0x10,%esp
c0102913:	90                   	nop
c0102914:	83 ec 0c             	sub    $0xc,%esp
c0102917:	68 37 85 10 c0       	push   $0xc0108537
c010291c:	e8 3a 11 00 00       	call   c0103a5b <logf>
c0102921:	83 c4 10             	add    $0x10,%esp
c0102924:	8b 45 e4             	mov    -0x1c(%ebp),%eax
c0102927:	8d 65 f4             	lea    -0xc(%ebp),%esp
c010292a:	5b                   	pop    %ebx
c010292b:	5e                   	pop    %esi
c010292c:	5f                   	pop    %edi
c010292d:	5d                   	pop    %ebp
c010292e:	c3                   	ret

c010292f <print_status_term>:
c010292f:	55                   	push   %ebp
c0102930:	89 e5                	mov    %esp,%ebp
c0102932:	57                   	push   %edi
c0102933:	56                   	push   %esi
c0102934:	53                   	push   %ebx
c0102935:	83 ec 2c             	sub    $0x2c,%esp
c0102938:	8b 45 08             	mov    0x8(%ebp),%eax
c010293b:	8b 70 3c             	mov    0x3c(%eax),%esi
c010293e:	8b 45 08             	mov    0x8(%ebp),%eax
c0102941:	8b 78 38             	mov    0x38(%eax),%edi
c0102944:	8b 45 08             	mov    0x8(%ebp),%eax
c0102947:	8b 40 34             	mov    0x34(%eax),%eax
c010294a:	89 45 e4             	mov    %eax,-0x1c(%ebp)
c010294d:	8b 45 08             	mov    0x8(%ebp),%eax
c0102950:	8b 50 08             	mov    0x8(%eax),%edx
c0102953:	89 55 e0             	mov    %edx,-0x20(%ebp)
c0102956:	8b 45 08             	mov    0x8(%ebp),%eax
c0102959:	8b 48 04             	mov    0x4(%eax),%ecx
c010295c:	89 4d dc             	mov    %ecx,-0x24(%ebp)
c010295f:	8b 45 08             	mov    0x8(%ebp),%eax
c0102962:	8b 18                	mov    (%eax),%ebx
c0102964:	89 5d d8             	mov    %ebx,-0x28(%ebp)
c0102967:	8b 45 08             	mov    0x8(%ebp),%eax
c010296a:	8b 40 0c             	mov    0xc(%eax),%eax
c010296d:	89 45 d4             	mov    %eax,-0x2c(%ebp)
c0102970:	8b 45 08             	mov    0x8(%ebp),%eax
c0102973:	8b 50 10             	mov    0x10(%eax),%edx
c0102976:	89 55 d0             	mov    %edx,-0x30(%ebp)
c0102979:	8b 45 08             	mov    0x8(%ebp),%eax
c010297c:	8b 58 18             	mov    0x18(%eax),%ebx
c010297f:	8b 45 08             	mov    0x8(%ebp),%eax
c0102982:	8b 48 1c             	mov    0x1c(%eax),%ecx
c0102985:	8b 45 08             	mov    0x8(%ebp),%eax
c0102988:	8b 50 20             	mov    0x20(%eax),%edx
c010298b:	8b 45 08             	mov    0x8(%ebp),%eax
c010298e:	8b 40 24             	mov    0x24(%eax),%eax
c0102991:	83 ec 0c             	sub    $0xc,%esp
c0102994:	56                   	push   %esi
c0102995:	57                   	push   %edi
c0102996:	ff 75 e4             	push   -0x1c(%ebp)
c0102999:	ff 75 e0             	push   -0x20(%ebp)
c010299c:	ff 75 dc             	push   -0x24(%ebp)
c010299f:	ff 75 d8             	push   -0x28(%ebp)
c01029a2:	ff 75 d4             	push   -0x2c(%ebp)
c01029a5:	ff 75 d0             	push   -0x30(%ebp)
c01029a8:	53                   	push   %ebx
c01029a9:	51                   	push   %ecx
c01029aa:	52                   	push   %edx
c01029ab:	50                   	push   %eax
c01029ac:	68 88 84 10 c0       	push   $0xc0108488
c01029b1:	e8 a5 10 00 00       	call   c0103a5b <logf>
c01029b6:	83 c4 40             	add    $0x40,%esp
c01029b9:	90                   	nop
c01029ba:	8d 65 f4             	lea    -0xc(%ebp),%esp
c01029bd:	5b                   	pop    %ebx
c01029be:	5e                   	pop    %esi
c01029bf:	5f                   	pop    %edi
c01029c0:	5d                   	pop    %ebp
c01029c1:	c3                   	ret

c01029c2 <irq_handler>:
c01029c2:	55                   	push   %ebp
c01029c3:	89 e5                	mov    %esp,%ebp
c01029c5:	83 ec 18             	sub    $0x18,%esp
c01029c8:	8b 45 08             	mov    0x8(%ebp),%eax
c01029cb:	89 45 f4             	mov    %eax,-0xc(%ebp)
c01029ce:	8b 45 08             	mov    0x8(%ebp),%eax
c01029d1:	8b 40 2c             	mov    0x2c(%eax),%eax
c01029d4:	89 45 f0             	mov    %eax,-0x10(%ebp)
c01029d7:	8b 45 08             	mov    0x8(%ebp),%eax
c01029da:	8b 40 0c             	mov    0xc(%eax),%eax
c01029dd:	3d 00 00 00 c0       	cmp    $0xc0000000,%eax
c01029e2:	76 0b                	jbe    c01029ef <irq_handler+0x2d>
c01029e4:	8b 45 08             	mov    0x8(%ebp),%eax
c01029e7:	8b 40 0c             	mov    0xc(%eax),%eax
c01029ea:	a3 70 e0 10 c0       	mov    %eax,0xc010e070
c01029ef:	81 7d f0 80 00 00 00 	cmpl   $0x80,-0x10(%ebp)
c01029f6:	74 59                	je     c0102a51 <irq_handler+0x8f>
c01029f8:	81 7d f0 80 00 00 00 	cmpl   $0x80,-0x10(%ebp)
c01029ff:	7f 3b                	jg     c0102a3c <irq_handler+0x7a>
c0102a01:	83 7d f0 32          	cmpl   $0x32,-0x10(%ebp)
c0102a05:	74 2e                	je     c0102a35 <irq_handler+0x73>
c0102a07:	83 7d f0 32          	cmpl   $0x32,-0x10(%ebp)
c0102a0b:	7f 2f                	jg     c0102a3c <irq_handler+0x7a>
c0102a0d:	83 7d f0 30          	cmpl   $0x30,-0x10(%ebp)
c0102a11:	74 08                	je     c0102a1b <irq_handler+0x59>
c0102a13:	83 7d f0 31          	cmpl   $0x31,-0x10(%ebp)
c0102a17:	74 15                	je     c0102a2e <irq_handler+0x6c>
c0102a19:	eb 21                	jmp    c0102a3c <irq_handler+0x7a>
c0102a1b:	83 ec 0c             	sub    $0xc,%esp
c0102a1e:	ff 75 08             	push   0x8(%ebp)
c0102a21:	e8 3d 34 00 00       	call   c0105e63 <handle_schedule>
c0102a26:	83 c4 10             	add    $0x10,%esp
c0102a29:	89 45 08             	mov    %eax,0x8(%ebp)
c0102a2c:	eb 24                	jmp    c0102a52 <irq_handler+0x90>
c0102a2e:	e8 c5 1f 00 00       	call   c01049f8 <end_calibration>
c0102a33:	eb 1d                	jmp    c0102a52 <irq_handler+0x90>
c0102a35:	e8 5e 22 00 00       	call   c0104c98 <handle_keychange>
c0102a3a:	eb 16                	jmp    c0102a52 <irq_handler+0x90>
c0102a3c:	83 ec 08             	sub    $0x8,%esp
c0102a3f:	ff 75 f0             	push   -0x10(%ebp)
c0102a42:	68 ac 85 10 c0       	push   $0xc01085ac
c0102a47:	e8 0f 10 00 00       	call   c0103a5b <logf>
c0102a4c:	83 c4 10             	add    $0x10,%esp
c0102a4f:	eb 01                	jmp    c0102a52 <irq_handler+0x90>
c0102a51:	90                   	nop
c0102a52:	a1 20 10 11 c0       	mov    0xc0111020,%eax
c0102a57:	83 ec 0c             	sub    $0xc,%esp
c0102a5a:	50                   	push   %eax
c0102a5b:	e8 2e 1e 00 00       	call   c010488e <send_EOI>
c0102a60:	83 c4 10             	add    $0x10,%esp
c0102a63:	8b 45 08             	mov    0x8(%ebp),%eax
c0102a66:	c9                   	leave
c0102a67:	c3                   	ret

c0102a68 <isr_handler>:
c0102a68:	55                   	push   %ebp
c0102a69:	89 e5                	mov    %esp,%ebp
c0102a6b:	83 ec 08             	sub    $0x8,%esp
c0102a6e:	8b 45 34             	mov    0x34(%ebp),%eax
c0102a71:	83 f8 1f             	cmp    $0x1f,%eax
c0102a74:	77 13                	ja     c0102a89 <isr_handler+0x21>
c0102a76:	83 ec 0c             	sub    $0xc,%esp
c0102a79:	8d 45 08             	lea    0x8(%ebp),%eax
c0102a7c:	50                   	push   %eax
c0102a7d:	e8 ff fc ff ff       	call   c0102781 <exc_print>
c0102a82:	83 c4 10             	add    $0x10,%esp
c0102a85:	84 c0                	test   %al,%al
c0102a87:	74 14                	je     c0102a9d <isr_handler+0x35>
c0102a89:	83 ec 0c             	sub    $0xc,%esp
c0102a8c:	68 b8 85 10 c0       	push   $0xc01085b8
c0102a91:	e8 c5 0f 00 00       	call   c0103a5b <logf>
c0102a96:	83 c4 10             	add    $0x10,%esp
c0102a99:	fa                   	cli
c0102a9a:	f4                   	hlt
c0102a9b:	eb 01                	jmp    c0102a9e <isr_handler+0x36>
c0102a9d:	90                   	nop
c0102a9e:	c9                   	leave
c0102a9f:	c3                   	ret

c0102aa0 <memory_map>:
c0102aa0:	55                   	push   %ebp
c0102aa1:	89 e5                	mov    %esp,%ebp
c0102aa3:	83 ec 18             	sub    $0x18,%esp
c0102aa6:	8b 45 10             	mov    0x10(%ebp),%eax
c0102aa9:	c1 e8 16             	shr    $0x16,%eax
c0102aac:	89 45 f4             	mov    %eax,-0xc(%ebp)
c0102aaf:	8b 45 10             	mov    0x10(%ebp),%eax
c0102ab2:	c1 e8 0c             	shr    $0xc,%eax
c0102ab5:	25 ff 03 00 00       	and    $0x3ff,%eax
c0102aba:	89 45 f0             	mov    %eax,-0x10(%ebp)
c0102abd:	8b 45 f4             	mov    -0xc(%ebp),%eax
c0102ac0:	8d 14 85 00 00 00 00 	lea    0x0(,%eax,4),%edx
c0102ac7:	8b 45 08             	mov    0x8(%ebp),%eax
c0102aca:	01 d0                	add    %edx,%eax
c0102acc:	8b 00                	mov    (%eax),%eax
c0102ace:	83 e0 01             	and    $0x1,%eax
c0102ad1:	85 c0                	test   %eax,%eax
c0102ad3:	75 16                	jne    c0102aeb <memory_map+0x4b>
c0102ad5:	83 ec 04             	sub    $0x4,%esp
c0102ad8:	68 00 00 c0 ff       	push   $0xffc00000
c0102add:	ff 75 f4             	push   -0xc(%ebp)
c0102ae0:	ff 75 08             	push   0x8(%ebp)
c0102ae3:	e8 db 02 00 00       	call   c0102dc3 <create_new_pt>
c0102ae8:	83 c4 10             	add    $0x10,%esp
c0102aeb:	8b 45 f4             	mov    -0xc(%ebp),%eax
c0102aee:	05 00 fc 0f 00       	add    $0xffc00,%eax
c0102af3:	c1 e0 0c             	shl    $0xc,%eax
c0102af6:	89 45 ec             	mov    %eax,-0x14(%ebp)
c0102af9:	8b 45 0c             	mov    0xc(%ebp),%eax
c0102afc:	25 ff 03 00 00       	and    $0x3ff,%eax
c0102b01:	85 c0                	test   %eax,%eax
c0102b03:	74 12                	je     c0102b17 <memory_map+0x77>
c0102b05:	83 ec 0c             	sub    $0xc,%esp
c0102b08:	68 dc 85 10 c0       	push   $0xc01085dc
c0102b0d:	e8 df 10 00 00       	call   c0103bf1 <panic>
c0102b12:	83 c4 10             	add    $0x10,%esp
c0102b15:	eb 17                	jmp    c0102b2e <memory_map+0x8e>
c0102b17:	8b 45 0c             	mov    0xc(%ebp),%eax
c0102b1a:	8b 55 f0             	mov    -0x10(%ebp),%edx
c0102b1d:	8d 0c 95 00 00 00 00 	lea    0x0(,%edx,4),%ecx
c0102b24:	8b 55 ec             	mov    -0x14(%ebp),%edx
c0102b27:	01 ca                	add    %ecx,%edx
c0102b29:	0b 45 14             	or     0x14(%ebp),%eax
c0102b2c:	89 02                	mov    %eax,(%edx)
c0102b2e:	c9                   	leave
c0102b2f:	c3                   	ret

c0102b30 <memory_unmap>:
c0102b30:	55                   	push   %ebp
c0102b31:	89 e5                	mov    %esp,%ebp
c0102b33:	83 ec 18             	sub    $0x18,%esp
c0102b36:	8b 45 0c             	mov    0xc(%ebp),%eax
c0102b39:	c1 e8 16             	shr    $0x16,%eax
c0102b3c:	89 45 f4             	mov    %eax,-0xc(%ebp)
c0102b3f:	8b 45 0c             	mov    0xc(%ebp),%eax
c0102b42:	c1 e8 0c             	shr    $0xc,%eax
c0102b45:	25 ff 03 00 00       	and    $0x3ff,%eax
c0102b4a:	89 45 f0             	mov    %eax,-0x10(%ebp)
c0102b4d:	8b 45 f4             	mov    -0xc(%ebp),%eax
c0102b50:	c1 e0 0c             	shl    $0xc,%eax
c0102b53:	0d 00 00 c0 ff       	or     $0xffc00000,%eax
c0102b58:	89 45 ec             	mov    %eax,-0x14(%ebp)
c0102b5b:	8b 45 f4             	mov    -0xc(%ebp),%eax
c0102b5e:	8d 14 85 00 00 00 00 	lea    0x0(,%eax,4),%edx
c0102b65:	8b 45 08             	mov    0x8(%ebp),%eax
c0102b68:	01 d0                	add    %edx,%eax
c0102b6a:	8b 00                	mov    (%eax),%eax
c0102b6c:	85 c0                	test   %eax,%eax
c0102b6e:	74 6c                	je     c0102bdc <memory_unmap+0xac>
c0102b70:	8b 45 0c             	mov    0xc(%ebp),%eax
c0102b73:	25 ff 03 00 00       	and    $0x3ff,%eax
c0102b78:	85 c0                	test   %eax,%eax
c0102b7a:	74 15                	je     c0102b91 <memory_unmap+0x61>
c0102b7c:	83 ec 08             	sub    $0x8,%esp
c0102b7f:	ff 75 0c             	push   0xc(%ebp)
c0102b82:	68 00 86 10 c0       	push   $0xc0108600
c0102b87:	e8 cf 0e 00 00       	call   c0103a5b <logf>
c0102b8c:	83 c4 10             	add    $0x10,%esp
c0102b8f:	eb 4c                	jmp    c0102bdd <memory_unmap+0xad>
c0102b91:	8b 45 f0             	mov    -0x10(%ebp),%eax
c0102b94:	8d 14 85 00 00 00 00 	lea    0x0(,%eax,4),%edx
c0102b9b:	8b 45 ec             	mov    -0x14(%ebp),%eax
c0102b9e:	01 d0                	add    %edx,%eax
c0102ba0:	8b 00                	mov    (%eax),%eax
c0102ba2:	25 00 f0 ff ff       	and    $0xfffff000,%eax
c0102ba7:	89 45 e8             	mov    %eax,-0x18(%ebp)
c0102baa:	8b 45 e8             	mov    -0x18(%ebp),%eax
c0102bad:	83 ec 0c             	sub    $0xc,%esp
c0102bb0:	50                   	push   %eax
c0102bb1:	e8 e5 e6 ff ff       	call   c010129b <physical_to_frame>
c0102bb6:	83 c4 10             	add    $0x10,%esp
c0102bb9:	83 ec 0c             	sub    $0xc,%esp
c0102bbc:	50                   	push   %eax
c0102bbd:	e8 37 e6 ff ff       	call   c01011f9 <clear_frame>
c0102bc2:	83 c4 10             	add    $0x10,%esp
c0102bc5:	8b 45 f0             	mov    -0x10(%ebp),%eax
c0102bc8:	8d 14 85 00 00 00 00 	lea    0x0(,%eax,4),%edx
c0102bcf:	8b 45 ec             	mov    -0x14(%ebp),%eax
c0102bd2:	01 d0                	add    %edx,%eax
c0102bd4:	c7 00 00 00 00 00    	movl   $0x0,(%eax)
c0102bda:	eb 01                	jmp    c0102bdd <memory_unmap+0xad>
c0102bdc:	90                   	nop
c0102bdd:	c9                   	leave
c0102bde:	c3                   	ret

c0102bdf <pae_mmap>:
c0102bdf:	55                   	push   %ebp
c0102be0:	89 e5                	mov    %esp,%ebp
c0102be2:	53                   	push   %ebx
c0102be3:	83 ec 34             	sub    $0x34,%esp
c0102be6:	8b 45 0c             	mov    0xc(%ebp),%eax
c0102be9:	89 45 d0             	mov    %eax,-0x30(%ebp)
c0102bec:	8b 45 10             	mov    0x10(%ebp),%eax
c0102bef:	89 45 d4             	mov    %eax,-0x2c(%ebp)
c0102bf2:	8b 45 14             	mov    0x14(%ebp),%eax
c0102bf5:	c1 e8 1e             	shr    $0x1e,%eax
c0102bf8:	88 45 f7             	mov    %al,-0x9(%ebp)
c0102bfb:	8b 45 14             	mov    0x14(%ebp),%eax
c0102bfe:	c1 e8 15             	shr    $0x15,%eax
c0102c01:	25 ff 01 00 00       	and    $0x1ff,%eax
c0102c06:	89 45 f0             	mov    %eax,-0x10(%ebp)
c0102c09:	8b 45 14             	mov    0x14(%ebp),%eax
c0102c0c:	c1 e8 0c             	shr    $0xc,%eax
c0102c0f:	25 ff 01 00 00       	and    $0x1ff,%eax
c0102c14:	89 45 ec             	mov    %eax,-0x14(%ebp)
c0102c17:	0f b6 45 f7          	movzbl -0x9(%ebp),%eax
c0102c1b:	c1 e0 1e             	shl    $0x1e,%eax
c0102c1e:	05 00 00 e0 3f       	add    $0x3fe00000,%eax
c0102c23:	89 45 e8             	mov    %eax,-0x18(%ebp)
c0102c26:	8b 45 f0             	mov    -0x10(%ebp),%eax
c0102c29:	c1 e0 0c             	shl    $0xc,%eax
c0102c2c:	89 c2                	mov    %eax,%edx
c0102c2e:	8b 45 e8             	mov    -0x18(%ebp),%eax
c0102c31:	09 d0                	or     %edx,%eax
c0102c33:	89 45 e4             	mov    %eax,-0x1c(%ebp)
c0102c36:	8b 45 e8             	mov    -0x18(%ebp),%eax
c0102c39:	0d 00 f0 3f 00       	or     $0x3ff000,%eax
c0102c3e:	89 45 e0             	mov    %eax,-0x20(%ebp)
c0102c41:	8b 0d 08 10 11 c0    	mov    0xc0111008,%ecx
c0102c47:	8b 45 d0             	mov    -0x30(%ebp),%eax
c0102c4a:	8b 55 d4             	mov    -0x2c(%ebp),%edx
c0102c4d:	0f ad d0             	shrd   %cl,%edx,%eax
c0102c50:	d3 ea                	shr    %cl,%edx
c0102c52:	f6 c1 20             	test   $0x20,%cl
c0102c55:	74 04                	je     c0102c5b <pae_mmap+0x7c>
c0102c57:	89 d0                	mov    %edx,%eax
c0102c59:	31 d2                	xor    %edx,%edx
c0102c5b:	89 c1                	mov    %eax,%ecx
c0102c5d:	09 d1                	or     %edx,%ecx
c0102c5f:	74 1f                	je     c0102c80 <pae_mmap+0xa1>
c0102c61:	a1 08 10 11 c0       	mov    0xc0111008,%eax
c0102c66:	83 f8 28             	cmp    $0x28,%eax
c0102c69:	76 05                	jbe    c0102c70 <pae_mmap+0x91>
c0102c6b:	e8 99 0f 00 00       	call   c0103c09 <triple_fault>
c0102c70:	83 ec 0c             	sub    $0xc,%esp
c0102c73:	68 28 86 10 c0       	push   $0xc0108628
c0102c78:	e8 74 0f 00 00       	call   c0103bf1 <panic>
c0102c7d:	83 c4 10             	add    $0x10,%esp
c0102c80:	8b 45 d0             	mov    -0x30(%ebp),%eax
c0102c83:	8b 55 d4             	mov    -0x2c(%ebp),%edx
c0102c86:	25 ff 03 00 00       	and    $0x3ff,%eax
c0102c8b:	ba 00 00 00 00       	mov    $0x0,%edx
c0102c90:	89 c1                	mov    %eax,%ecx
c0102c92:	09 d1                	or     %edx,%ecx
c0102c94:	74 10                	je     c0102ca6 <pae_mmap+0xc7>
c0102c96:	83 ec 0c             	sub    $0xc,%esp
c0102c99:	68 50 86 10 c0       	push   $0xc0108650
c0102c9e:	e8 4e 0f 00 00       	call   c0103bf1 <panic>
c0102ca3:	83 c4 10             	add    $0x10,%esp
c0102ca6:	8b 45 f0             	mov    -0x10(%ebp),%eax
c0102ca9:	8d 14 c5 00 00 00 00 	lea    0x0(,%eax,8),%edx
c0102cb0:	8b 45 e0             	mov    -0x20(%ebp),%eax
c0102cb3:	01 d0                	add    %edx,%eax
c0102cb5:	8b 50 04             	mov    0x4(%eax),%edx
c0102cb8:	8b 00                	mov    (%eax),%eax
c0102cba:	83 e0 01             	and    $0x1,%eax
c0102cbd:	ba 00 00 00 00       	mov    $0x0,%edx
c0102cc2:	89 c1                	mov    %eax,%ecx
c0102cc4:	09 d1                	or     %edx,%ecx
c0102cc6:	75 17                	jne    c0102cdf <pae_mmap+0x100>
c0102cc8:	8b 55 e8             	mov    -0x18(%ebp),%edx
c0102ccb:	0f b6 45 f7          	movzbl -0x9(%ebp),%eax
c0102ccf:	52                   	push   %edx
c0102cd0:	ff 75 f0             	push   -0x10(%ebp)
c0102cd3:	50                   	push   %eax
c0102cd4:	ff 75 08             	push   0x8(%ebp)
c0102cd7:	e8 55 01 00 00       	call   c0102e31 <create_new_pae_pt>
c0102cdc:	83 c4 10             	add    $0x10,%esp
c0102cdf:	8b 45 ec             	mov    -0x14(%ebp),%eax
c0102ce2:	8d 14 c5 00 00 00 00 	lea    0x0(,%eax,8),%edx
c0102ce9:	8b 45 e4             	mov    -0x1c(%ebp),%eax
c0102cec:	01 d0                	add    %edx,%eax
c0102cee:	c7 00 00 00 00 00    	movl   $0x0,(%eax)
c0102cf4:	c7 40 04 00 00 00 00 	movl   $0x0,0x4(%eax)
c0102cfb:	8b 45 18             	mov    0x18(%ebp),%eax
c0102cfe:	ba 00 00 00 00       	mov    $0x0,%edx
c0102d03:	8b 4d ec             	mov    -0x14(%ebp),%ecx
c0102d06:	8d 1c cd 00 00 00 00 	lea    0x0(,%ecx,8),%ebx
c0102d0d:	8b 4d e4             	mov    -0x1c(%ebp),%ecx
c0102d10:	01 d9                	add    %ebx,%ecx
c0102d12:	0b 45 d0             	or     -0x30(%ebp),%eax
c0102d15:	0b 55 d4             	or     -0x2c(%ebp),%edx
c0102d18:	89 01                	mov    %eax,(%ecx)
c0102d1a:	89 51 04             	mov    %edx,0x4(%ecx)
c0102d1d:	90                   	nop
c0102d1e:	8b 5d fc             	mov    -0x4(%ebp),%ebx
c0102d21:	c9                   	leave
c0102d22:	c3                   	ret

c0102d23 <pae_unmap>:
c0102d23:	55                   	push   %ebp
c0102d24:	89 e5                	mov    %esp,%ebp
c0102d26:	83 ec 28             	sub    $0x28,%esp
c0102d29:	8b 45 08             	mov    0x8(%ebp),%eax
c0102d2c:	c1 e8 1e             	shr    $0x1e,%eax
c0102d2f:	88 45 f7             	mov    %al,-0x9(%ebp)
c0102d32:	8b 45 08             	mov    0x8(%ebp),%eax
c0102d35:	c1 e8 15             	shr    $0x15,%eax
c0102d38:	25 ff 01 00 00       	and    $0x1ff,%eax
c0102d3d:	89 45 f0             	mov    %eax,-0x10(%ebp)
c0102d40:	8b 45 08             	mov    0x8(%ebp),%eax
c0102d43:	c1 e8 0c             	shr    $0xc,%eax
c0102d46:	25 ff 01 00 00       	and    $0x1ff,%eax
c0102d4b:	89 45 ec             	mov    %eax,-0x14(%ebp)
c0102d4e:	0f b6 45 f7          	movzbl -0x9(%ebp),%eax
c0102d52:	c1 e0 1e             	shl    $0x1e,%eax
c0102d55:	05 00 00 e0 3f       	add    $0x3fe00000,%eax
c0102d5a:	89 45 e8             	mov    %eax,-0x18(%ebp)
c0102d5d:	8b 45 f0             	mov    -0x10(%ebp),%eax
c0102d60:	c1 e0 0c             	shl    $0xc,%eax
c0102d63:	89 c2                	mov    %eax,%edx
c0102d65:	8b 45 e8             	mov    -0x18(%ebp),%eax
c0102d68:	09 d0                	or     %edx,%eax
c0102d6a:	89 45 e4             	mov    %eax,-0x1c(%ebp)
c0102d6d:	8b 45 ec             	mov    -0x14(%ebp),%eax
c0102d70:	8d 14 c5 00 00 00 00 	lea    0x0(,%eax,8),%edx
c0102d77:	8b 45 e4             	mov    -0x1c(%ebp),%eax
c0102d7a:	01 d0                	add    %edx,%eax
c0102d7c:	8b 50 04             	mov    0x4(%eax),%edx
c0102d7f:	8b 00                	mov    (%eax),%eax
c0102d81:	25 00 f0 ff ff       	and    $0xfffff000,%eax
c0102d86:	89 45 e0             	mov    %eax,-0x20(%ebp)
c0102d89:	8b 45 e0             	mov    -0x20(%ebp),%eax
c0102d8c:	83 ec 0c             	sub    $0xc,%esp
c0102d8f:	50                   	push   %eax
c0102d90:	e8 06 e5 ff ff       	call   c010129b <physical_to_frame>
c0102d95:	83 c4 10             	add    $0x10,%esp
c0102d98:	83 ec 0c             	sub    $0xc,%esp
c0102d9b:	50                   	push   %eax
c0102d9c:	e8 58 e4 ff ff       	call   c01011f9 <clear_frame>
c0102da1:	83 c4 10             	add    $0x10,%esp
c0102da4:	8b 45 ec             	mov    -0x14(%ebp),%eax
c0102da7:	8d 14 c5 00 00 00 00 	lea    0x0(,%eax,8),%edx
c0102dae:	8b 45 e4             	mov    -0x1c(%ebp),%eax
c0102db1:	01 d0                	add    %edx,%eax
c0102db3:	c7 00 00 00 00 00    	movl   $0x0,(%eax)
c0102db9:	c7 40 04 00 00 00 00 	movl   $0x0,0x4(%eax)
c0102dc0:	90                   	nop
c0102dc1:	c9                   	leave
c0102dc2:	c3                   	ret

c0102dc3 <create_new_pt>:
c0102dc3:	55                   	push   %ebp
c0102dc4:	89 e5                	mov    %esp,%ebp
c0102dc6:	83 ec 18             	sub    $0x18,%esp
c0102dc9:	83 ec 0c             	sub    $0xc,%esp
c0102dcc:	68 77 86 10 c0       	push   $0xc0108677
c0102dd1:	e8 4b 0a 00 00       	call   c0103821 <log_to_serial>
c0102dd6:	83 c4 10             	add    $0x10,%esp
c0102dd9:	e8 cd e4 ff ff       	call   c01012ab <alloc_phys_page>
c0102dde:	89 45 f4             	mov    %eax,-0xc(%ebp)
c0102de1:	8b 55 f4             	mov    -0xc(%ebp),%edx
c0102de4:	8b 45 0c             	mov    0xc(%ebp),%eax
c0102de7:	8d 0c 85 00 00 00 00 	lea    0x0(,%eax,4),%ecx
c0102dee:	8b 45 08             	mov    0x8(%ebp),%eax
c0102df1:	01 c8                	add    %ecx,%eax
c0102df3:	83 ca 03             	or     $0x3,%edx
c0102df6:	89 10                	mov    %edx,(%eax)
c0102df8:	8b 45 0c             	mov    0xc(%ebp),%eax
c0102dfb:	c1 e0 0c             	shl    $0xc,%eax
c0102dfe:	0b 45 10             	or     0x10(%ebp),%eax
c0102e01:	89 45 f0             	mov    %eax,-0x10(%ebp)
c0102e04:	83 ec 04             	sub    $0x4,%esp
c0102e07:	68 00 04 00 00       	push   $0x400
c0102e0c:	6a 00                	push   $0x0
c0102e0e:	ff 75 f0             	push   -0x10(%ebp)
c0102e11:	e8 27 11 00 00       	call   c0103f3d <memset>
c0102e16:	83 c4 10             	add    $0x10,%esp
c0102e19:	83 ec 08             	sub    $0x8,%esp
c0102e1c:	ff 75 0c             	push   0xc(%ebp)
c0102e1f:	68 88 86 10 c0       	push   $0xc0108688
c0102e24:	e8 32 0c 00 00       	call   c0103a5b <logf>
c0102e29:	83 c4 10             	add    $0x10,%esp
c0102e2c:	8b 45 f0             	mov    -0x10(%ebp),%eax
c0102e2f:	c9                   	leave
c0102e30:	c3                   	ret

c0102e31 <create_new_pae_pt>:
c0102e31:	55                   	push   %ebp
c0102e32:	89 e5                	mov    %esp,%ebp
c0102e34:	83 ec 28             	sub    $0x28,%esp
c0102e37:	83 ec 0c             	sub    $0xc,%esp
c0102e3a:	68 a4 86 10 c0       	push   $0xc01086a4
c0102e3f:	e8 17 0c 00 00       	call   c0103a5b <logf>
c0102e44:	83 c4 10             	add    $0x10,%esp
c0102e47:	8b 45 0c             	mov    0xc(%ebp),%eax
c0102e4a:	8d 14 c5 00 00 00 00 	lea    0x0(,%eax,8),%edx
c0102e51:	8b 45 08             	mov    0x8(%ebp),%eax
c0102e54:	01 d0                	add    %edx,%eax
c0102e56:	8b 50 04             	mov    0x4(%eax),%edx
c0102e59:	8b 00                	mov    (%eax),%eax
c0102e5b:	83 e0 01             	and    $0x1,%eax
c0102e5e:	ba 00 00 00 00       	mov    $0x0,%edx
c0102e63:	89 c1                	mov    %eax,%ecx
c0102e65:	09 d1                	or     %edx,%ecx
c0102e67:	75 52                	jne    c0102ebb <create_new_pae_pt+0x8a>
c0102e69:	e8 3d e4 ff ff       	call   c01012ab <alloc_phys_page>
c0102e6e:	89 45 f0             	mov    %eax,-0x10(%ebp)
c0102e71:	89 55 f4             	mov    %edx,-0xc(%ebp)
c0102e74:	8b 45 0c             	mov    0xc(%ebp),%eax
c0102e77:	8d 14 c5 00 00 00 00 	lea    0x0(,%eax,8),%edx
c0102e7e:	8b 45 08             	mov    0x8(%ebp),%eax
c0102e81:	8d 0c 02             	lea    (%edx,%eax,1),%ecx
c0102e84:	8b 45 f0             	mov    -0x10(%ebp),%eax
c0102e87:	8b 55 f4             	mov    -0xc(%ebp),%edx
c0102e8a:	83 c8 01             	or     $0x1,%eax
c0102e8d:	89 01                	mov    %eax,(%ecx)
c0102e8f:	89 51 04             	mov    %edx,0x4(%ecx)
c0102e92:	6a 00                	push   $0x0
c0102e94:	6a 00                	push   $0x0
c0102e96:	6a 03                	push   $0x3
c0102e98:	68 00 04 00 00       	push   $0x400
c0102e9d:	e8 6f e7 ff ff       	call   c0101611 <pae_kalloc>
c0102ea2:	83 c4 10             	add    $0x10,%esp
c0102ea5:	89 45 ec             	mov    %eax,-0x14(%ebp)
c0102ea8:	83 ec 08             	sub    $0x8,%esp
c0102eab:	ff 75 ec             	push   -0x14(%ebp)
c0102eae:	68 c1 86 10 c0       	push   $0xc01086c1
c0102eb3:	e8 a3 0b 00 00       	call   c0103a5b <logf>
c0102eb8:	83 c4 10             	add    $0x10,%esp
c0102ebb:	8b 45 14             	mov    0x14(%ebp),%eax
c0102ebe:	0d 00 f0 1f 00       	or     $0x1ff000,%eax
c0102ec3:	89 45 e8             	mov    %eax,-0x18(%ebp)
c0102ec6:	e8 e0 e3 ff ff       	call   c01012ab <alloc_phys_page>
c0102ecb:	89 45 e0             	mov    %eax,-0x20(%ebp)
c0102ece:	89 55 e4             	mov    %edx,-0x1c(%ebp)
c0102ed1:	8b 45 10             	mov    0x10(%ebp),%eax
c0102ed4:	8d 14 c5 00 00 00 00 	lea    0x0(,%eax,8),%edx
c0102edb:	8b 45 e8             	mov    -0x18(%ebp),%eax
c0102ede:	8d 0c 02             	lea    (%edx,%eax,1),%ecx
c0102ee1:	8b 45 e0             	mov    -0x20(%ebp),%eax
c0102ee4:	8b 55 e4             	mov    -0x1c(%ebp),%edx
c0102ee7:	83 c8 03             	or     $0x3,%eax
c0102eea:	89 01                	mov    %eax,(%ecx)
c0102eec:	89 51 04             	mov    %edx,0x4(%ecx)
c0102eef:	8b 45 10             	mov    0x10(%ebp),%eax
c0102ef2:	c1 e0 0c             	shl    $0xc,%eax
c0102ef5:	0b 45 14             	or     0x14(%ebp),%eax
c0102ef8:	89 45 dc             	mov    %eax,-0x24(%ebp)
c0102efb:	83 ec 04             	sub    $0x4,%esp
c0102efe:	68 00 10 00 00       	push   $0x1000
c0102f03:	6a 00                	push   $0x0
c0102f05:	ff 75 dc             	push   -0x24(%ebp)
c0102f08:	e8 30 10 00 00       	call   c0103f3d <memset>
c0102f0d:	83 c4 10             	add    $0x10,%esp
c0102f10:	83 ec 0c             	sub    $0xc,%esp
c0102f13:	68 d2 86 10 c0       	push   $0xc01086d2
c0102f18:	e8 3e 0b 00 00       	call   c0103a5b <logf>
c0102f1d:	83 c4 10             	add    $0x10,%esp
c0102f20:	8b 45 dc             	mov    -0x24(%ebp),%eax
c0102f23:	c9                   	leave
c0102f24:	c3                   	ret

c0102f25 <copy_kernel_map>:
c0102f25:	55                   	push   %ebp
c0102f26:	89 e5                	mov    %esp,%ebp
c0102f28:	83 ec 08             	sub    $0x8,%esp
c0102f2b:	83 ec 04             	sub    $0x4,%esp
c0102f2e:	68 00 10 00 00       	push   $0x1000
c0102f33:	68 00 f0 10 c0       	push   $0xc010f000
c0102f38:	ff 75 08             	push   0x8(%ebp)
c0102f3b:	e8 aa 0f 00 00       	call   c0103eea <memcpy>
c0102f40:	83 c4 10             	add    $0x10,%esp
c0102f43:	90                   	nop
c0102f44:	c9                   	leave
c0102f45:	c3                   	ret

c0102f46 <copy_higher_half_kernel_pd>:
c0102f46:	55                   	push   %ebp
c0102f47:	89 e5                	mov    %esp,%ebp
c0102f49:	83 ec 08             	sub    $0x8,%esp
c0102f4c:	ba 00 fc 10 c0       	mov    $0xc010fc00,%edx
c0102f51:	8b 45 08             	mov    0x8(%ebp),%eax
c0102f54:	05 00 0c 00 00       	add    $0xc00,%eax
c0102f59:	83 ec 04             	sub    $0x4,%esp
c0102f5c:	68 00 04 00 00       	push   $0x400
c0102f61:	52                   	push   %edx
c0102f62:	50                   	push   %eax
c0102f63:	e8 82 0f 00 00       	call   c0103eea <memcpy>
c0102f68:	83 c4 10             	add    $0x10,%esp
c0102f6b:	90                   	nop
c0102f6c:	c9                   	leave
c0102f6d:	c3                   	ret

c0102f6e <copy_kernel_pd_index>:
c0102f6e:	55                   	push   %ebp
c0102f6f:	89 e5                	mov    %esp,%ebp
c0102f71:	83 ec 10             	sub    $0x10,%esp
c0102f74:	8b 45 08             	mov    0x8(%ebp),%eax
c0102f77:	89 45 fc             	mov    %eax,-0x4(%ebp)
c0102f7a:	8b 45 0c             	mov    0xc(%ebp),%eax
c0102f7d:	8d 14 85 00 00 00 00 	lea    0x0(,%eax,4),%edx
c0102f84:	8b 45 fc             	mov    -0x4(%ebp),%eax
c0102f87:	01 c2                	add    %eax,%edx
c0102f89:	8b 45 0c             	mov    0xc(%ebp),%eax
c0102f8c:	8b 04 85 00 f0 10 c0 	mov    -0x3fef1000(,%eax,4),%eax
c0102f93:	89 02                	mov    %eax,(%edx)
c0102f95:	90                   	nop
c0102f96:	c9                   	leave
c0102f97:	c3                   	ret

c0102f98 <newinit_pd>:
c0102f98:	55                   	push   %ebp
c0102f99:	89 e5                	mov    %esp,%ebp
c0102f9b:	83 ec 10             	sub    $0x10,%esp
c0102f9e:	c7 45 fc 00 00 00 00 	movl   $0x0,-0x4(%ebp)
c0102fa5:	eb 19                	jmp    c0102fc0 <newinit_pd+0x28>
c0102fa7:	8b 45 fc             	mov    -0x4(%ebp),%eax
c0102faa:	8d 14 85 00 00 00 00 	lea    0x0(,%eax,4),%edx
c0102fb1:	8b 45 08             	mov    0x8(%ebp),%eax
c0102fb4:	01 d0                	add    %edx,%eax
c0102fb6:	c7 00 02 00 00 00    	movl   $0x2,(%eax)
c0102fbc:	83 45 fc 01          	addl   $0x1,-0x4(%ebp)
c0102fc0:	81 7d fc ff 03 00 00 	cmpl   $0x3ff,-0x4(%ebp)
c0102fc7:	7e de                	jle    c0102fa7 <newinit_pd+0xf>
c0102fc9:	8b 55 08             	mov    0x8(%ebp),%edx
c0102fcc:	8b 45 08             	mov    0x8(%ebp),%eax
c0102fcf:	05 fc 0f 00 00       	add    $0xffc,%eax
c0102fd4:	83 ca 03             	or     $0x3,%edx
c0102fd7:	89 10                	mov    %edx,(%eax)
c0102fd9:	90                   	nop
c0102fda:	c9                   	leave
c0102fdb:	c3                   	ret

c0102fdc <init_kpt>:
c0102fdc:	55                   	push   %ebp
c0102fdd:	89 e5                	mov    %esp,%ebp
c0102fdf:	83 ec 18             	sub    $0x18,%esp
c0102fe2:	c7 45 f4 00 00 00 00 	movl   $0x0,-0xc(%ebp)
c0102fe9:	c7 45 f0 03 00 00 00 	movl   $0x3,-0x10(%ebp)
c0102ff0:	b8 dc 20 11 c0       	mov    $0xc01120dc,%eax
c0102ff5:	8d 90 00 0c f0 3f    	lea    0x3ff00c00(%eax),%edx
c0102ffb:	8b 45 0c             	mov    0xc(%ebp),%eax
c0102ffe:	01 d0                	add    %edx,%eax
c0103000:	c1 e8 0c             	shr    $0xc,%eax
c0103003:	89 45 e8             	mov    %eax,-0x18(%ebp)
c0103006:	83 ec 08             	sub    $0x8,%esp
c0103009:	ff 75 e8             	push   -0x18(%ebp)
c010300c:	68 de 86 10 c0       	push   $0xc01086de
c0103011:	e8 45 0a 00 00       	call   c0103a5b <logf>
c0103016:	83 c4 10             	add    $0x10,%esp
c0103019:	c7 45 ec 00 01 00 00 	movl   $0x100,-0x14(%ebp)
c0103020:	eb 53                	jmp    c0103075 <init_kpt+0x99>
c0103022:	8b 45 e8             	mov    -0x18(%ebp),%eax
c0103025:	05 04 01 00 00       	add    $0x104,%eax
c010302a:	3b 45 ec             	cmp    -0x14(%ebp),%eax
c010302d:	73 07                	jae    c0103036 <init_kpt+0x5a>
c010302f:	c7 45 f0 02 00 00 00 	movl   $0x2,-0x10(%ebp)
c0103036:	8b 45 ec             	mov    -0x14(%ebp),%eax
c0103039:	8d 14 85 00 00 00 00 	lea    0x0(,%eax,4),%edx
c0103040:	8b 45 08             	mov    0x8(%ebp),%eax
c0103043:	01 d0                	add    %edx,%eax
c0103045:	8b 00                	mov    (%eax),%eax
c0103047:	83 e0 03             	and    $0x3,%eax
c010304a:	85 c0                	test   %eax,%eax
c010304c:	75 1f                	jne    c010306d <init_kpt+0x91>
c010304e:	8b 45 f4             	mov    -0xc(%ebp),%eax
c0103051:	05 00 01 00 00       	add    $0x100,%eax
c0103056:	c1 e0 0c             	shl    $0xc,%eax
c0103059:	8b 55 ec             	mov    -0x14(%ebp),%edx
c010305c:	8d 0c 95 00 00 00 00 	lea    0x0(,%edx,4),%ecx
c0103063:	8b 55 08             	mov    0x8(%ebp),%edx
c0103066:	01 ca                	add    %ecx,%edx
c0103068:	0b 45 f0             	or     -0x10(%ebp),%eax
c010306b:	89 02                	mov    %eax,(%edx)
c010306d:	83 45 f4 01          	addl   $0x1,-0xc(%ebp)
c0103071:	83 45 ec 01          	addl   $0x1,-0x14(%ebp)
c0103075:	81 7d ec ff 03 00 00 	cmpl   $0x3ff,-0x14(%ebp)
c010307c:	76 a4                	jbe    c0103022 <init_kpt+0x46>
c010307e:	90                   	nop
c010307f:	90                   	nop
c0103080:	c9                   	leave
c0103081:	c3                   	ret

c0103082 <load_page_directory>:
c0103082:	55                   	push   %ebp
c0103083:	89 e5                	mov    %esp,%ebp
c0103085:	8b 45 08             	mov    0x8(%ebp),%eax
c0103088:	0f 22 d8             	mov    %eax,%cr3
c010308b:	90                   	nop
c010308c:	5d                   	pop    %ebp
c010308d:	c3                   	ret

c010308e <enable_paging_c>:
c010308e:	55                   	push   %ebp
c010308f:	89 e5                	mov    %esp,%ebp
c0103091:	83 ec 10             	sub    $0x10,%esp
c0103094:	0f 20 c0             	mov    %cr0,%eax
c0103097:	89 45 fc             	mov    %eax,-0x4(%ebp)
c010309a:	81 4d fc 00 00 00 80 	orl    $0x80000000,-0x4(%ebp)
c01030a1:	8b 45 fc             	mov    -0x4(%ebp),%eax
c01030a4:	0f 22 c0             	mov    %eax,%cr0
c01030a7:	90                   	nop
c01030a8:	c9                   	leave
c01030a9:	c3                   	ret

c01030aa <handle_exception>:
c01030aa:	55                   	push   %ebp
c01030ab:	89 e5                	mov    %esp,%ebp
c01030ad:	83 ec 18             	sub    $0x18,%esp
c01030b0:	8b 45 08             	mov    0x8(%ebp),%eax
c01030b3:	8b 40 30             	mov    0x30(%eax),%eax
c01030b6:	89 45 f4             	mov    %eax,-0xc(%ebp)
c01030b9:	8b 45 f4             	mov    -0xc(%ebp),%eax
c01030bc:	83 e0 01             	and    $0x1,%eax
c01030bf:	85 c0                	test   %eax,%eax
c01030c1:	74 10                	je     c01030d3 <handle_exception+0x29>
c01030c3:	83 ec 0c             	sub    $0xc,%esp
c01030c6:	68 e9 86 10 c0       	push   $0xc01086e9
c01030cb:	e8 51 07 00 00       	call   c0103821 <log_to_serial>
c01030d0:	83 c4 10             	add    $0x10,%esp
c01030d3:	8b 45 f4             	mov    -0xc(%ebp),%eax
c01030d6:	83 e0 02             	and    $0x2,%eax
c01030d9:	85 c0                	test   %eax,%eax
c01030db:	74 17                	je     c01030f4 <handle_exception+0x4a>
c01030dd:	8b 45 08             	mov    0x8(%ebp),%eax
c01030e0:	8b 40 04             	mov    0x4(%eax),%eax
c01030e3:	83 ec 08             	sub    $0x8,%esp
c01030e6:	50                   	push   %eax
c01030e7:	68 fe 86 10 c0       	push   $0xc01086fe
c01030ec:	e8 6a 09 00 00       	call   c0103a5b <logf>
c01030f1:	83 c4 10             	add    $0x10,%esp
c01030f4:	8b 45 f4             	mov    -0xc(%ebp),%eax
c01030f7:	83 e0 04             	and    $0x4,%eax
c01030fa:	85 c0                	test   %eax,%eax
c01030fc:	74 10                	je     c010310e <handle_exception+0x64>
c01030fe:	83 ec 0c             	sub    $0xc,%esp
c0103101:	68 14 87 10 c0       	push   $0xc0108714
c0103106:	e8 16 07 00 00       	call   c0103821 <log_to_serial>
c010310b:	83 c4 10             	add    $0x10,%esp
c010310e:	8b 45 f4             	mov    -0xc(%ebp),%eax
c0103111:	83 e0 08             	and    $0x8,%eax
c0103114:	85 c0                	test   %eax,%eax
c0103116:	74 10                	je     c0103128 <handle_exception+0x7e>
c0103118:	83 ec 0c             	sub    $0xc,%esp
c010311b:	68 37 87 10 c0       	push   $0xc0108737
c0103120:	e8 fc 06 00 00       	call   c0103821 <log_to_serial>
c0103125:	83 c4 10             	add    $0x10,%esp
c0103128:	8b 45 f4             	mov    -0xc(%ebp),%eax
c010312b:	83 e0 10             	and    $0x10,%eax
c010312e:	85 c0                	test   %eax,%eax
c0103130:	74 10                	je     c0103142 <handle_exception+0x98>
c0103132:	83 ec 0c             	sub    $0xc,%esp
c0103135:	68 47 87 10 c0       	push   $0xc0108747
c010313a:	e8 e2 06 00 00       	call   c0103821 <log_to_serial>
c010313f:	83 c4 10             	add    $0x10,%esp
c0103142:	8b 45 f4             	mov    -0xc(%ebp),%eax
c0103145:	83 e0 20             	and    $0x20,%eax
c0103148:	85 c0                	test   %eax,%eax
c010314a:	74 10                	je     c010315c <handle_exception+0xb2>
c010314c:	83 ec 0c             	sub    $0xc,%esp
c010314f:	68 5a 87 10 c0       	push   $0xc010875a
c0103154:	e8 c8 06 00 00       	call   c0103821 <log_to_serial>
c0103159:	83 c4 10             	add    $0x10,%esp
c010315c:	8b 45 f4             	mov    -0xc(%ebp),%eax
c010315f:	83 e0 40             	and    $0x40,%eax
c0103162:	85 c0                	test   %eax,%eax
c0103164:	74 10                	je     c0103176 <handle_exception+0xcc>
c0103166:	83 ec 0c             	sub    $0xc,%esp
c0103169:	68 6c 87 10 c0       	push   $0xc010876c
c010316e:	e8 ae 06 00 00       	call   c0103821 <log_to_serial>
c0103173:	83 c4 10             	add    $0x10,%esp
c0103176:	8b 45 f4             	mov    -0xc(%ebp),%eax
c0103179:	83 e0 fd             	and    $0xfffffffd,%eax
c010317c:	85 c0                	test   %eax,%eax
c010317e:	75 48                	jne    c01031c8 <handle_exception+0x11e>
c0103180:	8b 45 08             	mov    0x8(%ebp),%eax
c0103183:	8b 40 04             	mov    0x4(%eax),%eax
c0103186:	85 c0                	test   %eax,%eax
c0103188:	75 10                	jne    c010319a <handle_exception+0xf0>
c010318a:	83 ec 0c             	sub    $0xc,%esp
c010318d:	68 7a 87 10 c0       	push   $0xc010877a
c0103192:	e8 c4 08 00 00       	call   c0103a5b <logf>
c0103197:	83 c4 10             	add    $0x10,%esp
c010319a:	8b 45 08             	mov    0x8(%ebp),%eax
c010319d:	8b 40 04             	mov    0x4(%eax),%eax
c01031a0:	83 ec 08             	sub    $0x8,%esp
c01031a3:	50                   	push   %eax
c01031a4:	68 90 87 10 c0       	push   $0xc0108790
c01031a9:	e8 ad 08 00 00       	call   c0103a5b <logf>
c01031ae:	83 c4 10             	add    $0x10,%esp
c01031b1:	83 ec 0c             	sub    $0xc,%esp
c01031b4:	68 a2 87 10 c0       	push   $0xc01087a2
c01031b9:	e8 33 0a 00 00       	call   c0103bf1 <panic>
c01031be:	83 c4 10             	add    $0x10,%esp
c01031c1:	b8 00 00 00 00       	mov    $0x0,%eax
c01031c6:	eb 05                	jmp    c01031cd <handle_exception+0x123>
c01031c8:	b8 01 00 00 00       	mov    $0x1,%eax
c01031cd:	c9                   	leave
c01031ce:	c3                   	ret

c01031cf <transfer_pages_to_pae>:
c01031cf:	55                   	push   %ebp
c01031d0:	89 e5                	mov    %esp,%ebp
c01031d2:	53                   	push   %ebx
c01031d3:	83 ec 34             	sub    $0x34,%esp
c01031d6:	e8 d0 e0 ff ff       	call   c01012ab <alloc_phys_page>
c01031db:	89 45 e8             	mov    %eax,-0x18(%ebp)
c01031de:	8b 45 e8             	mov    -0x18(%ebp),%eax
c01031e1:	83 ec 04             	sub    $0x4,%esp
c01031e4:	50                   	push   %eax
c01031e5:	6a 03                	push   $0x3
c01031e7:	68 00 04 00 00       	push   $0x400
c01031ec:	e8 88 e3 ff ff       	call   c0101579 <page_kalloc>
c01031f1:	83 c4 10             	add    $0x10,%esp
c01031f4:	89 45 e4             	mov    %eax,-0x1c(%ebp)
c01031f7:	8b 45 08             	mov    0x8(%ebp),%eax
c01031fa:	8b 00                	mov    (%eax),%eax
c01031fc:	89 45 e0             	mov    %eax,-0x20(%ebp)
c01031ff:	c7 45 f4 00 03 00 00 	movl   $0x300,-0xc(%ebp)
c0103206:	e9 37 01 00 00       	jmp    c0103342 <transfer_pages_to_pae+0x173>
c010320b:	8b 45 f4             	mov    -0xc(%ebp),%eax
c010320e:	8d 14 85 00 00 00 00 	lea    0x0(,%eax,4),%edx
c0103215:	8b 45 e0             	mov    -0x20(%ebp),%eax
c0103218:	01 d0                	add    %edx,%eax
c010321a:	8b 00                	mov    (%eax),%eax
c010321c:	83 e0 01             	and    $0x1,%eax
c010321f:	85 c0                	test   %eax,%eax
c0103221:	0f 84 17 01 00 00    	je     c010333e <transfer_pages_to_pae+0x16f>
c0103227:	8b 45 f4             	mov    -0xc(%ebp),%eax
c010322a:	05 00 fc 0f 00       	add    $0xffc00,%eax
c010322f:	c1 e0 0c             	shl    $0xc,%eax
c0103232:	89 45 dc             	mov    %eax,-0x24(%ebp)
c0103235:	e8 71 e0 ff ff       	call   c01012ab <alloc_phys_page>
c010323a:	89 45 d8             	mov    %eax,-0x28(%ebp)
c010323d:	8b 45 d8             	mov    -0x28(%ebp),%eax
c0103240:	83 ec 04             	sub    $0x4,%esp
c0103243:	50                   	push   %eax
c0103244:	6a 03                	push   $0x3
c0103246:	68 00 04 00 00       	push   $0x400
c010324b:	e8 29 e3 ff ff       	call   c0101579 <page_kalloc>
c0103250:	83 c4 10             	add    $0x10,%esp
c0103253:	89 45 d4             	mov    %eax,-0x2c(%ebp)
c0103256:	c7 45 f0 00 00 00 00 	movl   $0x0,-0x10(%ebp)
c010325d:	eb 31                	jmp    c0103290 <transfer_pages_to_pae+0xc1>
c010325f:	8b 45 f0             	mov    -0x10(%ebp),%eax
c0103262:	8d 14 85 00 00 00 00 	lea    0x0(,%eax,4),%edx
c0103269:	8b 45 dc             	mov    -0x24(%ebp),%eax
c010326c:	01 d0                	add    %edx,%eax
c010326e:	8b 18                	mov    (%eax),%ebx
c0103270:	8b 45 f0             	mov    -0x10(%ebp),%eax
c0103273:	8d 14 c5 00 00 00 00 	lea    0x0(,%eax,8),%edx
c010327a:	8b 45 d4             	mov    -0x2c(%ebp),%eax
c010327d:	8d 0c 02             	lea    (%edx,%eax,1),%ecx
c0103280:	89 d8                	mov    %ebx,%eax
c0103282:	ba 00 00 00 00       	mov    $0x0,%edx
c0103287:	89 01                	mov    %eax,(%ecx)
c0103289:	89 51 04             	mov    %edx,0x4(%ecx)
c010328c:	83 45 f0 01          	addl   $0x1,-0x10(%ebp)
c0103290:	81 7d f0 ff 01 00 00 	cmpl   $0x1ff,-0x10(%ebp)
c0103297:	76 c6                	jbe    c010325f <transfer_pages_to_pae+0x90>
c0103299:	8b 45 d8             	mov    -0x28(%ebp),%eax
c010329c:	83 c8 03             	or     $0x3,%eax
c010329f:	8b 55 f4             	mov    -0xc(%ebp),%edx
c01032a2:	81 ea 00 03 00 00    	sub    $0x300,%edx
c01032a8:	89 d1                	mov    %edx,%ecx
c01032aa:	c1 e1 04             	shl    $0x4,%ecx
c01032ad:	8b 55 e4             	mov    -0x1c(%ebp),%edx
c01032b0:	01 d1                	add    %edx,%ecx
c01032b2:	99                   	cltd
c01032b3:	89 01                	mov    %eax,(%ecx)
c01032b5:	89 51 04             	mov    %edx,0x4(%ecx)
c01032b8:	e8 ee df ff ff       	call   c01012ab <alloc_phys_page>
c01032bd:	89 45 d8             	mov    %eax,-0x28(%ebp)
c01032c0:	8b 45 d8             	mov    -0x28(%ebp),%eax
c01032c3:	83 ec 04             	sub    $0x4,%esp
c01032c6:	50                   	push   %eax
c01032c7:	6a 03                	push   $0x3
c01032c9:	68 00 04 00 00       	push   $0x400
c01032ce:	e8 a6 e2 ff ff       	call   c0101579 <page_kalloc>
c01032d3:	83 c4 10             	add    $0x10,%esp
c01032d6:	89 45 d4             	mov    %eax,-0x2c(%ebp)
c01032d9:	c7 45 ec 00 00 00 00 	movl   $0x0,-0x14(%ebp)
c01032e0:	eb 36                	jmp    c0103318 <transfer_pages_to_pae+0x149>
c01032e2:	8b 45 ec             	mov    -0x14(%ebp),%eax
c01032e5:	05 00 02 00 00       	add    $0x200,%eax
c01032ea:	8d 14 85 00 00 00 00 	lea    0x0(,%eax,4),%edx
c01032f1:	8b 45 dc             	mov    -0x24(%ebp),%eax
c01032f4:	01 d0                	add    %edx,%eax
c01032f6:	8b 18                	mov    (%eax),%ebx
c01032f8:	8b 45 ec             	mov    -0x14(%ebp),%eax
c01032fb:	8d 14 c5 00 00 00 00 	lea    0x0(,%eax,8),%edx
c0103302:	8b 45 d4             	mov    -0x2c(%ebp),%eax
c0103305:	8d 0c 02             	lea    (%edx,%eax,1),%ecx
c0103308:	89 d8                	mov    %ebx,%eax
c010330a:	ba 00 00 00 00       	mov    $0x0,%edx
c010330f:	89 01                	mov    %eax,(%ecx)
c0103311:	89 51 04             	mov    %edx,0x4(%ecx)
c0103314:	83 45 ec 01          	addl   $0x1,-0x14(%ebp)
c0103318:	81 7d ec ff 01 00 00 	cmpl   $0x1ff,-0x14(%ebp)
c010331f:	76 c1                	jbe    c01032e2 <transfer_pages_to_pae+0x113>
c0103321:	8b 45 d8             	mov    -0x28(%ebp),%eax
c0103324:	8b 55 f4             	mov    -0xc(%ebp),%edx
c0103327:	81 ea 00 03 00 00    	sub    $0x300,%edx
c010332d:	c1 e2 04             	shl    $0x4,%edx
c0103330:	8d 4a 08             	lea    0x8(%edx),%ecx
c0103333:	8b 55 e4             	mov    -0x1c(%ebp),%edx
c0103336:	01 d1                	add    %edx,%ecx
c0103338:	99                   	cltd
c0103339:	89 01                	mov    %eax,(%ecx)
c010333b:	89 51 04             	mov    %edx,0x4(%ecx)
c010333e:	83 45 f4 01          	addl   $0x1,-0xc(%ebp)
c0103342:	81 7d f4 ff 03 00 00 	cmpl   $0x3ff,-0xc(%ebp)
c0103349:	0f 86 bc fe ff ff    	jbe    c010320b <transfer_pages_to_pae+0x3c>
c010334f:	8b 45 e8             	mov    -0x18(%ebp),%eax
c0103352:	83 c8 01             	or     $0x1,%eax
c0103355:	8b 55 e4             	mov    -0x1c(%ebp),%edx
c0103358:	8d 8a f8 0f 00 00    	lea    0xff8(%edx),%ecx
c010335e:	99                   	cltd
c010335f:	89 01                	mov    %eax,(%ecx)
c0103361:	89 51 04             	mov    %edx,0x4(%ecx)
c0103364:	8b 45 e8             	mov    -0x18(%ebp),%eax
c0103367:	8b 5d fc             	mov    -0x4(%ebp),%ebx
c010336a:	c9                   	leave
c010336b:	c3                   	ret

c010336c <init_pae>:
c010336c:	55                   	push   %ebp
c010336d:	89 e5                	mov    %esp,%ebp
c010336f:	53                   	push   %ebx
c0103370:	83 ec 44             	sub    $0x44,%esp
c0103373:	8d 45 cc             	lea    -0x34(%ebp),%eax
c0103376:	83 ec 08             	sub    $0x8,%esp
c0103379:	6a 01                	push   $0x1
c010337b:	50                   	push   %eax
c010337c:	e8 4e 12 00 00       	call   c01045cf <get_cpuid>
c0103381:	83 c4 0c             	add    $0xc,%esp
c0103384:	8b 45 cc             	mov    -0x34(%ebp),%eax
c0103387:	83 e0 40             	and    $0x40,%eax
c010338a:	85 c0                	test   %eax,%eax
c010338c:	74 12                	je     c01033a0 <init_pae+0x34>
c010338e:	83 ec 0c             	sub    $0xc,%esp
c0103391:	68 b5 87 10 c0       	push   $0xc01087b5
c0103396:	e8 c0 06 00 00       	call   c0103a5b <logf>
c010339b:	83 c4 10             	add    $0x10,%esp
c010339e:	eb 10                	jmp    c01033b0 <init_pae+0x44>
c01033a0:	83 ec 0c             	sub    $0xc,%esp
c01033a3:	68 c8 87 10 c0       	push   $0xc01087c8
c01033a8:	e8 44 08 00 00       	call   c0103bf1 <panic>
c01033ad:	83 c4 10             	add    $0x10,%esp
c01033b0:	8d 45 bc             	lea    -0x44(%ebp),%eax
c01033b3:	83 ec 08             	sub    $0x8,%esp
c01033b6:	68 08 00 00 80       	push   $0x80000008
c01033bb:	50                   	push   %eax
c01033bc:	e8 0e 12 00 00       	call   c01045cf <get_cpuid>
c01033c1:	83 c4 0c             	add    $0xc,%esp
c01033c4:	8b 45 bc             	mov    -0x44(%ebp),%eax
c01033c7:	88 45 f7             	mov    %al,-0x9(%ebp)
c01033ca:	0f b6 45 f7          	movzbl -0x9(%ebp),%eax
c01033ce:	a3 08 10 11 c0       	mov    %eax,0xc0111008
c01033d3:	a1 08 10 11 c0       	mov    0xc0111008,%eax
c01033d8:	83 ec 08             	sub    $0x8,%esp
c01033db:	50                   	push   %eax
c01033dc:	68 dd 87 10 c0       	push   $0xc01087dd
c01033e1:	e8 75 06 00 00       	call   c0103a5b <logf>
c01033e6:	83 c4 10             	add    $0x10,%esp
c01033e9:	e8 bd de ff ff       	call   c01012ab <alloc_phys_page>
c01033ee:	89 45 b8             	mov    %eax,-0x48(%ebp)
c01033f1:	8b 45 b8             	mov    -0x48(%ebp),%eax
c01033f4:	83 ec 04             	sub    $0x4,%esp
c01033f7:	50                   	push   %eax
c01033f8:	6a 03                	push   $0x3
c01033fa:	68 00 04 00 00       	push   $0x400
c01033ff:	e8 75 e1 ff ff       	call   c0101579 <page_kalloc>
c0103404:	83 c4 10             	add    $0x10,%esp
c0103407:	89 45 f0             	mov    %eax,-0x10(%ebp)
c010340a:	e8 9c de ff ff       	call   c01012ab <alloc_phys_page>
c010340f:	89 45 ec             	mov    %eax,-0x14(%ebp)
c0103412:	8b 45 ec             	mov    -0x14(%ebp),%eax
c0103415:	83 ec 04             	sub    $0x4,%esp
c0103418:	50                   	push   %eax
c0103419:	6a 03                	push   $0x3
c010341b:	68 00 04 00 00       	push   $0x400
c0103420:	e8 54 e1 ff ff       	call   c0101579 <page_kalloc>
c0103425:	83 c4 10             	add    $0x10,%esp
c0103428:	89 45 e8             	mov    %eax,-0x18(%ebp)
c010342b:	e8 7b de ff ff       	call   c01012ab <alloc_phys_page>
c0103430:	89 45 e4             	mov    %eax,-0x1c(%ebp)
c0103433:	8b 45 e4             	mov    -0x1c(%ebp),%eax
c0103436:	83 ec 04             	sub    $0x4,%esp
c0103439:	50                   	push   %eax
c010343a:	6a 03                	push   $0x3
c010343c:	68 00 04 00 00       	push   $0x400
c0103441:	e8 33 e1 ff ff       	call   c0101579 <page_kalloc>
c0103446:	83 c4 10             	add    $0x10,%esp
c0103449:	89 45 e0             	mov    %eax,-0x20(%ebp)
c010344c:	8b 45 ec             	mov    -0x14(%ebp),%eax
c010344f:	83 c8 01             	or     $0x1,%eax
c0103452:	ba 00 00 00 00       	mov    $0x0,%edx
c0103457:	8b 4d f0             	mov    -0x10(%ebp),%ecx
c010345a:	89 01                	mov    %eax,(%ecx)
c010345c:	89 51 04             	mov    %edx,0x4(%ecx)
c010345f:	83 ec 0c             	sub    $0xc,%esp
c0103462:	ff 75 08             	push   0x8(%ebp)
c0103465:	e8 65 fd ff ff       	call   c01031cf <transfer_pages_to_pae>
c010346a:	83 c4 10             	add    $0x10,%esp
c010346d:	83 c8 01             	or     $0x1,%eax
c0103470:	89 c2                	mov    %eax,%edx
c0103472:	8b 45 f0             	mov    -0x10(%ebp),%eax
c0103475:	8d 48 18             	lea    0x18(%eax),%ecx
c0103478:	89 d0                	mov    %edx,%eax
c010347a:	ba 00 00 00 00       	mov    $0x0,%edx
c010347f:	89 01                	mov    %eax,(%ecx)
c0103481:	89 51 04             	mov    %edx,0x4(%ecx)
c0103484:	c7 45 dc 00 00 00 00 	movl   $0x0,-0x24(%ebp)
c010348b:	fa                   	cli
c010348c:	eb 02                	jmp    c0103490 <eip_get2>

c010348e <eip_get1>:
c010348e:	eb 05                	jmp    c0103495 <eip_get_fin>

c0103490 <eip_get2>:
c0103490:	e8 f9 ff ff ff       	call   c010348e <eip_get1>

c0103495 <eip_get_fin>:
c0103495:	58                   	pop    %eax
c0103496:	89 c0                	mov    %eax,%eax
c0103498:	89 45 dc             	mov    %eax,-0x24(%ebp)
c010349b:	81 45 dc 00 00 00 40 	addl   $0x40000000,-0x24(%ebp)
c01034a2:	81 65 dc 00 fc ff ff 	andl   $0xfffffc00,-0x24(%ebp)
c01034a9:	8b 4d dc             	mov    -0x24(%ebp),%ecx
c01034ac:	8b 55 dc             	mov    -0x24(%ebp),%edx
c01034af:	8b 45 08             	mov    0x8(%ebp),%eax
c01034b2:	8b 00                	mov    (%eax),%eax
c01034b4:	6a 03                	push   $0x3
c01034b6:	51                   	push   %ecx
c01034b7:	52                   	push   %edx
c01034b8:	50                   	push   %eax
c01034b9:	e8 e2 f5 ff ff       	call   c0102aa0 <memory_map>
c01034be:	83 c4 10             	add    $0x10,%esp
c01034c1:	8b 45 dc             	mov    -0x24(%ebp),%eax
c01034c4:	05 ff 0f 00 00       	add    $0xfff,%eax
c01034c9:	25 00 f0 ff ff       	and    $0xfffff000,%eax
c01034ce:	89 c1                	mov    %eax,%ecx
c01034d0:	8b 45 dc             	mov    -0x24(%ebp),%eax
c01034d3:	05 ff 0f 00 00       	add    $0xfff,%eax
c01034d8:	25 00 f0 ff ff       	and    $0xfffff000,%eax
c01034dd:	89 c2                	mov    %eax,%edx
c01034df:	8b 45 08             	mov    0x8(%ebp),%eax
c01034e2:	8b 00                	mov    (%eax),%eax
c01034e4:	6a 03                	push   $0x3
c01034e6:	51                   	push   %ecx
c01034e7:	52                   	push   %edx
c01034e8:	50                   	push   %eax
c01034e9:	e8 b2 f5 ff ff       	call   c0102aa0 <memory_map>
c01034ee:	83 c4 10             	add    $0x10,%esp
c01034f1:	8b 45 dc             	mov    -0x24(%ebp),%eax
c01034f4:	83 c8 03             	or     $0x3,%eax
c01034f7:	89 c3                	mov    %eax,%ebx
c01034f9:	8b 45 dc             	mov    -0x24(%ebp),%eax
c01034fc:	c1 e8 0c             	shr    $0xc,%eax
c01034ff:	25 ff 01 00 00       	and    $0x1ff,%eax
c0103504:	8d 14 c5 00 00 00 00 	lea    0x0(,%eax,8),%edx
c010350b:	8b 45 e0             	mov    -0x20(%ebp),%eax
c010350e:	8d 0c 02             	lea    (%edx,%eax,1),%ecx
c0103511:	89 d8                	mov    %ebx,%eax
c0103513:	ba 00 00 00 00       	mov    $0x0,%edx
c0103518:	89 01                	mov    %eax,(%ecx)
c010351a:	89 51 04             	mov    %edx,0x4(%ecx)
c010351d:	8b 45 dc             	mov    -0x24(%ebp),%eax
c0103520:	05 ff 0f 00 00       	add    $0xfff,%eax
c0103525:	25 00 f0 ff ff       	and    $0xfffff000,%eax
c010352a:	83 ec 08             	sub    $0x8,%esp
c010352d:	50                   	push   %eax
c010352e:	68 fa 87 10 c0       	push   $0xc01087fa
c0103533:	e8 23 05 00 00       	call   c0103a5b <logf>
c0103538:	83 c4 10             	add    $0x10,%esp
c010353b:	8b 45 dc             	mov    -0x24(%ebp),%eax
c010353e:	05 ff 0f 00 00       	add    $0xfff,%eax
c0103543:	ba 00 00 00 00       	mov    $0x0,%edx
c0103548:	25 00 f0 ff ff       	and    $0xfffff000,%eax
c010354d:	ba 00 00 00 00       	mov    $0x0,%edx
c0103552:	8b 4d dc             	mov    -0x24(%ebp),%ecx
c0103555:	81 c1 ff 0f 00 00    	add    $0xfff,%ecx
c010355b:	c1 e9 0c             	shr    $0xc,%ecx
c010355e:	81 e1 ff 01 00 00    	and    $0x1ff,%ecx
c0103564:	8d 1c cd 00 00 00 00 	lea    0x0(,%ecx,8),%ebx
c010356b:	8b 4d e0             	mov    -0x20(%ebp),%ecx
c010356e:	01 d9                	add    %ebx,%ecx
c0103570:	83 c8 03             	or     $0x3,%eax
c0103573:	89 01                	mov    %eax,(%ecx)
c0103575:	89 51 04             	mov    %edx,0x4(%ecx)
c0103578:	8b 45 e4             	mov    -0x1c(%ebp),%eax
c010357b:	83 c8 03             	or     $0x3,%eax
c010357e:	8b 55 dc             	mov    -0x24(%ebp),%edx
c0103581:	c1 ea 15             	shr    $0x15,%edx
c0103584:	81 e2 ff 01 00 00    	and    $0x1ff,%edx
c010358a:	8d 0c d5 00 00 00 00 	lea    0x0(,%edx,8),%ecx
c0103591:	8b 55 e8             	mov    -0x18(%ebp),%edx
c0103594:	01 d1                	add    %edx,%ecx
c0103596:	99                   	cltd
c0103597:	89 01                	mov    %eax,(%ecx)
c0103599:	89 51 04             	mov    %edx,0x4(%ecx)
c010359c:	8b 45 ec             	mov    -0x14(%ebp),%eax
c010359f:	83 c8 01             	or     $0x1,%eax
c01035a2:	8b 55 e8             	mov    -0x18(%ebp),%edx
c01035a5:	8d 8a f8 0f 00 00    	lea    0xff8(%edx),%ecx
c01035ab:	99                   	cltd
c01035ac:	89 01                	mov    %eax,(%ecx)
c01035ae:	89 51 04             	mov    %edx,0x4(%ecx)
c01035b1:	8b 45 b8             	mov    -0x48(%ebp),%eax
c01035b4:	83 ec 08             	sub    $0x8,%esp
c01035b7:	50                   	push   %eax
c01035b8:	68 0d 88 10 c0       	push   $0xc010880d
c01035bd:	e8 99 04 00 00       	call   c0103a5b <logf>
c01035c2:	83 c4 10             	add    $0x10,%esp
c01035c5:	b8 d4 35 10 c0       	mov    $0xc01035d4,%eax
c01035ca:	8b 4d b8             	mov    -0x48(%ebp),%ecx
c01035cd:	2d 00 00 00 c0       	sub    $0xc0000000,%eax
c01035d2:	ff e0                	jmp    *%eax

c01035d4 <disable_paging>:
c01035d4:	b8 01 00 00 00       	mov    $0x1,%eax
c01035d9:	0f 22 c0             	mov    %eax,%cr0
c01035dc:	0f 22 d9             	mov    %ecx,%cr3
c01035df:	0f 20 e0             	mov    %cr4,%eax
c01035e2:	83 c8 20             	or     $0x20,%eax
c01035e5:	0f 22 e0             	mov    %eax,%cr4
c01035e8:	0f 20 c0             	mov    %cr0,%eax
c01035eb:	0d 00 00 00 80       	or     $0x80000000,%eax
c01035f0:	0f 22 c0             	mov    %eax,%cr0
c01035f3:	8d 05 fb 35 10 c0    	lea    0xc01035fb,%eax
c01035f9:	ff e0                	jmp    *%eax

c01035fb <reset_eip>:
c01035fb:	fb                   	sti
c01035fc:	83 ec 08             	sub    $0x8,%esp
c01035ff:	ff 75 dc             	push   -0x24(%ebp)
c0103602:	68 2a 88 10 c0       	push   $0xc010882a
c0103607:	e8 4f 04 00 00       	call   c0103a5b <logf>
c010360c:	83 c4 10             	add    $0x10,%esp
c010360f:	83 ec 08             	sub    $0x8,%esp
c0103612:	ff 75 f0             	push   -0x10(%ebp)
c0103615:	68 35 88 10 c0       	push   $0xc0108835
c010361a:	e8 3c 04 00 00       	call   c0103a5b <logf>
c010361f:	83 c4 10             	add    $0x10,%esp
c0103622:	8b 45 08             	mov    0x8(%ebp),%eax
c0103625:	8b 55 f0             	mov    -0x10(%ebp),%edx
c0103628:	89 50 04             	mov    %edx,0x4(%eax)
c010362b:	90                   	nop
c010362c:	8b 5d fc             	mov    -0x4(%ebp),%ebx
c010362f:	c9                   	leave
c0103630:	c3                   	ret

c0103631 <pg_init>:
c0103631:	55                   	push   %ebp
c0103632:	89 e5                	mov    %esp,%ebp
c0103634:	83 ec 08             	sub    $0x8,%esp
c0103637:	68 00 f0 10 c0       	push   $0xc010f000
c010363c:	e8 57 f9 ff ff       	call   c0102f98 <newinit_pd>
c0103641:	83 c4 04             	add    $0x4,%esp
c0103644:	8b 45 0c             	mov    0xc(%ebp),%eax
c0103647:	25 00 fc ff ff       	and    $0xfffffc00,%eax
c010364c:	89 c2                	mov    %eax,%edx
c010364e:	8b 45 0c             	mov    0xc(%ebp),%eax
c0103651:	05 00 00 00 40       	add    $0x40000000,%eax
c0103656:	25 00 fc ff ff       	and    $0xfffffc00,%eax
c010365b:	6a 03                	push   $0x3
c010365d:	52                   	push   %edx
c010365e:	50                   	push   %eax
c010365f:	ff 75 08             	push   0x8(%ebp)
c0103662:	e8 39 f4 ff ff       	call   c0102aa0 <memory_map>
c0103667:	83 c4 10             	add    $0x10,%esp
c010366a:	83 ec 04             	sub    $0x4,%esp
c010366d:	68 00 04 00 00       	push   $0x400
c0103672:	6a 00                	push   $0x0
c0103674:	68 00 f0 10 c0       	push   $0xc010f000
c0103679:	e8 bf 08 00 00       	call   c0103f3d <memset>
c010367e:	83 c4 10             	add    $0x10,%esp
c0103681:	83 ec 04             	sub    $0x4,%esp
c0103684:	68 00 10 00 00       	push   $0x1000
c0103689:	ff 75 08             	push   0x8(%ebp)
c010368c:	68 00 00 11 c0       	push   $0xc0110000
c0103691:	e8 54 08 00 00       	call   c0103eea <memcpy>
c0103696:	83 c4 10             	add    $0x10,%esp
c0103699:	83 ec 08             	sub    $0x8,%esp
c010369c:	ff 75 0c             	push   0xc(%ebp)
c010369f:	68 49 88 10 c0       	push   $0xc0108849
c01036a4:	e8 b2 03 00 00       	call   c0103a5b <logf>
c01036a9:	83 c4 10             	add    $0x10,%esp
c01036ac:	8b 45 0c             	mov    0xc(%ebp),%eax
c01036af:	8b 00                	mov    (%eax),%eax
c01036b1:	83 ec 08             	sub    $0x8,%esp
c01036b4:	50                   	push   %eax
c01036b5:	68 00 00 11 c0       	push   $0xc0110000
c01036ba:	e8 1d f9 ff ff       	call   c0102fdc <init_kpt>
c01036bf:	83 c4 10             	add    $0x10,%esp
c01036c2:	b8 00 00 11 c0       	mov    $0xc0110000,%eax
c01036c7:	05 00 00 00 40       	add    $0x40000000,%eax
c01036cc:	83 c8 03             	or     $0x3,%eax
c01036cf:	a3 00 fc 10 c0       	mov    %eax,0xc010fc00
c01036d4:	b8 00 f0 10 c0       	mov    $0xc010f000,%eax
c01036d9:	05 00 00 00 40       	add    $0x40000000,%eax
c01036de:	83 c8 03             	or     $0x3,%eax
c01036e1:	a3 fc ff 10 c0       	mov    %eax,0xc010fffc
c01036e6:	8b 45 0c             	mov    0xc(%ebp),%eax
c01036e9:	25 00 fc ff ff       	and    $0xfffffc00,%eax
c01036ee:	89 c2                	mov    %eax,%edx
c01036f0:	8b 45 0c             	mov    0xc(%ebp),%eax
c01036f3:	05 00 00 00 40       	add    $0x40000000,%eax
c01036f8:	25 00 fc ff ff       	and    $0xfffffc00,%eax
c01036fd:	6a 03                	push   $0x3
c01036ff:	52                   	push   %edx
c0103700:	50                   	push   %eax
c0103701:	68 00 f0 10 c0       	push   $0xc010f000
c0103706:	e8 95 f3 ff ff       	call   c0102aa0 <memory_map>
c010370b:	83 c4 10             	add    $0x10,%esp
c010370e:	b8 00 f0 10 c0       	mov    $0xc010f000,%eax
c0103713:	05 00 00 00 40       	add    $0x40000000,%eax
c0103718:	83 ec 0c             	sub    $0xc,%esp
c010371b:	50                   	push   %eax
c010371c:	e8 61 f9 ff ff       	call   c0103082 <load_page_directory>
c0103721:	83 c4 10             	add    $0x10,%esp
c0103724:	e8 65 f9 ff ff       	call   c010308e <enable_paging_c>
c0103729:	b8 00 f0 10 c0       	mov    $0xc010f000,%eax
c010372e:	c9                   	leave
c010372f:	c3                   	ret

c0103730 <inportb>:
c0103730:	55                   	push   %ebp
c0103731:	89 e5                	mov    %esp,%ebp
c0103733:	83 ec 10             	sub    $0x10,%esp
c0103736:	c6 45 ff 00          	movb   $0x0,-0x1(%ebp)
c010373a:	8b 45 08             	mov    0x8(%ebp),%eax
c010373d:	89 c2                	mov    %eax,%edx
c010373f:	ec                   	in     (%dx),%al
c0103740:	88 45 ff             	mov    %al,-0x1(%ebp)
c0103743:	0f b6 45 ff          	movzbl -0x1(%ebp),%eax
c0103747:	c9                   	leave
c0103748:	c3                   	ret

c0103749 <outportb>:
c0103749:	55                   	push   %ebp
c010374a:	89 e5                	mov    %esp,%ebp
c010374c:	83 ec 04             	sub    $0x4,%esp
c010374f:	8b 45 0c             	mov    0xc(%ebp),%eax
c0103752:	88 45 fc             	mov    %al,-0x4(%ebp)
c0103755:	0f b6 45 fc          	movzbl -0x4(%ebp),%eax
c0103759:	8b 55 08             	mov    0x8(%ebp),%edx
c010375c:	ee                   	out    %al,(%dx)
c010375d:	90                   	nop
c010375e:	c9                   	leave
c010375f:	c3                   	ret

c0103760 <init_serial>:
c0103760:	55                   	push   %ebp
c0103761:	89 e5                	mov    %esp,%ebp
c0103763:	6a 00                	push   $0x0
c0103765:	68 f9 03 00 00       	push   $0x3f9
c010376a:	e8 da ff ff ff       	call   c0103749 <outportb>
c010376f:	83 c4 08             	add    $0x8,%esp
c0103772:	68 80 00 00 00       	push   $0x80
c0103777:	68 fb 03 00 00       	push   $0x3fb
c010377c:	e8 c8 ff ff ff       	call   c0103749 <outportb>
c0103781:	83 c4 08             	add    $0x8,%esp
c0103784:	6a 03                	push   $0x3
c0103786:	68 f8 03 00 00       	push   $0x3f8
c010378b:	e8 b9 ff ff ff       	call   c0103749 <outportb>
c0103790:	83 c4 08             	add    $0x8,%esp
c0103793:	6a 00                	push   $0x0
c0103795:	68 f9 03 00 00       	push   $0x3f9
c010379a:	e8 aa ff ff ff       	call   c0103749 <outportb>
c010379f:	83 c4 08             	add    $0x8,%esp
c01037a2:	6a 03                	push   $0x3
c01037a4:	68 fb 03 00 00       	push   $0x3fb
c01037a9:	e8 9b ff ff ff       	call   c0103749 <outportb>
c01037ae:	83 c4 08             	add    $0x8,%esp
c01037b1:	68 c7 00 00 00       	push   $0xc7
c01037b6:	68 fa 03 00 00       	push   $0x3fa
c01037bb:	e8 89 ff ff ff       	call   c0103749 <outportb>
c01037c0:	83 c4 08             	add    $0x8,%esp
c01037c3:	6a 0b                	push   $0xb
c01037c5:	68 fc 03 00 00       	push   $0x3fc
c01037ca:	e8 7a ff ff ff       	call   c0103749 <outportb>
c01037cf:	83 c4 08             	add    $0x8,%esp
c01037d2:	6a 1e                	push   $0x1e
c01037d4:	68 fc 03 00 00       	push   $0x3fc
c01037d9:	e8 6b ff ff ff       	call   c0103749 <outportb>
c01037de:	83 c4 08             	add    $0x8,%esp
c01037e1:	68 ae 00 00 00       	push   $0xae
c01037e6:	68 f8 03 00 00       	push   $0x3f8
c01037eb:	e8 59 ff ff ff       	call   c0103749 <outportb>
c01037f0:	83 c4 08             	add    $0x8,%esp
c01037f3:	68 f8 03 00 00       	push   $0x3f8
c01037f8:	e8 33 ff ff ff       	call   c0103730 <inportb>
c01037fd:	83 c4 04             	add    $0x4,%esp
c0103800:	3c ae                	cmp    $0xae,%al
c0103802:	74 07                	je     c010380b <init_serial+0xab>
c0103804:	b8 01 00 00 00       	mov    $0x1,%eax
c0103809:	eb 14                	jmp    c010381f <init_serial+0xbf>
c010380b:	6a 0f                	push   $0xf
c010380d:	68 fc 03 00 00       	push   $0x3fc
c0103812:	e8 32 ff ff ff       	call   c0103749 <outportb>
c0103817:	83 c4 08             	add    $0x8,%esp
c010381a:	b8 00 00 00 00       	mov    $0x0,%eax
c010381f:	c9                   	leave
c0103820:	c3                   	ret

c0103821 <log_to_serial>:
c0103821:	55                   	push   %ebp
c0103822:	89 e5                	mov    %esp,%ebp
c0103824:	83 ec 10             	sub    $0x10,%esp
c0103827:	8b 45 08             	mov    0x8(%ebp),%eax
c010382a:	0f b6 00             	movzbl (%eax),%eax
c010382d:	88 45 ff             	mov    %al,-0x1(%ebp)
c0103830:	eb 22                	jmp    c0103854 <log_to_serial+0x33>
c0103832:	0f b6 45 ff          	movzbl -0x1(%ebp),%eax
c0103836:	0f b6 c0             	movzbl %al,%eax
c0103839:	50                   	push   %eax
c010383a:	68 f8 03 00 00       	push   $0x3f8
c010383f:	e8 05 ff ff ff       	call   c0103749 <outportb>
c0103844:	83 c4 08             	add    $0x8,%esp
c0103847:	83 45 08 01          	addl   $0x1,0x8(%ebp)
c010384b:	8b 45 08             	mov    0x8(%ebp),%eax
c010384e:	0f b6 00             	movzbl (%eax),%eax
c0103851:	88 45 ff             	mov    %al,-0x1(%ebp)
c0103854:	80 7d ff 00          	cmpb   $0x0,-0x1(%ebp)
c0103858:	75 d8                	jne    c0103832 <log_to_serial+0x11>
c010385a:	90                   	nop
c010385b:	90                   	nop
c010385c:	c9                   	leave
c010385d:	c3                   	ret

c010385e <log_integer_to_serial>:
c010385e:	55                   	push   %ebp
c010385f:	89 e5                	mov    %esp,%ebp
c0103861:	83 ec 68             	sub    $0x68,%esp
c0103864:	8b 45 08             	mov    0x8(%ebp),%eax
c0103867:	89 45 98             	mov    %eax,-0x68(%ebp)
c010386a:	8b 45 0c             	mov    0xc(%ebp),%eax
c010386d:	89 45 9c             	mov    %eax,-0x64(%ebp)
c0103870:	c7 45 fc 00 00 00 00 	movl   $0x0,-0x4(%ebp)
c0103877:	ba 09 00 00 00       	mov    $0x9,%edx
c010387c:	b8 00 00 00 00       	mov    $0x0,%eax
c0103881:	3b 55 98             	cmp    -0x68(%ebp),%edx
c0103884:	1b 45 9c             	sbb    -0x64(%ebp),%eax
c0103887:	72 1e                	jb     c01038a7 <log_integer_to_serial+0x49>
c0103889:	8b 45 98             	mov    -0x68(%ebp),%eax
c010388c:	83 c0 30             	add    $0x30,%eax
c010388f:	88 45 af             	mov    %al,-0x51(%ebp)
c0103892:	c6 45 b0 00          	movb   $0x0,-0x50(%ebp)
c0103896:	8d 45 af             	lea    -0x51(%ebp),%eax
c0103899:	50                   	push   %eax
c010389a:	e8 82 ff ff ff       	call   c0103821 <log_to_serial>
c010389f:	83 c4 04             	add    $0x4,%esp
c01038a2:	e9 bb 00 00 00       	jmp    c0103962 <log_integer_to_serial+0x104>
c01038a7:	8b 45 98             	mov    -0x68(%ebp),%eax
c01038aa:	89 45 f8             	mov    %eax,-0x8(%ebp)
c01038ad:	eb 43                	jmp    c01038f2 <log_integer_to_serial+0x94>
c01038af:	8b 4d f8             	mov    -0x8(%ebp),%ecx
c01038b2:	ba cd cc cc cc       	mov    $0xcccccccd,%edx
c01038b7:	89 c8                	mov    %ecx,%eax
c01038b9:	f7 e2                	mul    %edx
c01038bb:	c1 ea 03             	shr    $0x3,%edx
c01038be:	89 d0                	mov    %edx,%eax
c01038c0:	c1 e0 02             	shl    $0x2,%eax
c01038c3:	01 d0                	add    %edx,%eax
c01038c5:	01 c0                	add    %eax,%eax
c01038c7:	29 c1                	sub    %eax,%ecx
c01038c9:	89 ca                	mov    %ecx,%edx
c01038cb:	89 d0                	mov    %edx,%eax
c01038cd:	83 c0 30             	add    $0x30,%eax
c01038d0:	89 c1                	mov    %eax,%ecx
c01038d2:	8d 55 af             	lea    -0x51(%ebp),%edx
c01038d5:	8b 45 fc             	mov    -0x4(%ebp),%eax
c01038d8:	01 d0                	add    %edx,%eax
c01038da:	88 08                	mov    %cl,(%eax)
c01038dc:	83 45 fc 01          	addl   $0x1,-0x4(%ebp)
c01038e0:	8b 45 f8             	mov    -0x8(%ebp),%eax
c01038e3:	ba cd cc cc cc       	mov    $0xcccccccd,%edx
c01038e8:	f7 e2                	mul    %edx
c01038ea:	89 d0                	mov    %edx,%eax
c01038ec:	c1 e8 03             	shr    $0x3,%eax
c01038ef:	89 45 f8             	mov    %eax,-0x8(%ebp)
c01038f2:	83 7d f8 00          	cmpl   $0x0,-0x8(%ebp)
c01038f6:	75 b7                	jne    c01038af <log_integer_to_serial+0x51>
c01038f8:	c7 45 f4 00 00 00 00 	movl   $0x0,-0xc(%ebp)
c01038ff:	8b 45 fc             	mov    -0x4(%ebp),%eax
c0103902:	83 e8 01             	sub    $0x1,%eax
c0103905:	89 45 f0             	mov    %eax,-0x10(%ebp)
c0103908:	eb 39                	jmp    c0103943 <log_integer_to_serial+0xe5>
c010390a:	8d 55 af             	lea    -0x51(%ebp),%edx
c010390d:	8b 45 f4             	mov    -0xc(%ebp),%eax
c0103910:	01 d0                	add    %edx,%eax
c0103912:	0f b6 00             	movzbl (%eax),%eax
c0103915:	88 45 ef             	mov    %al,-0x11(%ebp)
c0103918:	8d 55 af             	lea    -0x51(%ebp),%edx
c010391b:	8b 45 f0             	mov    -0x10(%ebp),%eax
c010391e:	01 d0                	add    %edx,%eax
c0103920:	0f b6 00             	movzbl (%eax),%eax
c0103923:	8d 4d af             	lea    -0x51(%ebp),%ecx
c0103926:	8b 55 f4             	mov    -0xc(%ebp),%edx
c0103929:	01 ca                	add    %ecx,%edx
c010392b:	88 02                	mov    %al,(%edx)
c010392d:	8d 55 af             	lea    -0x51(%ebp),%edx
c0103930:	8b 45 f0             	mov    -0x10(%ebp),%eax
c0103933:	01 c2                	add    %eax,%edx
c0103935:	0f b6 45 ef          	movzbl -0x11(%ebp),%eax
c0103939:	88 02                	mov    %al,(%edx)
c010393b:	83 45 f4 01          	addl   $0x1,-0xc(%ebp)
c010393f:	83 6d f0 01          	subl   $0x1,-0x10(%ebp)
c0103943:	8b 45 f4             	mov    -0xc(%ebp),%eax
c0103946:	39 45 f0             	cmp    %eax,-0x10(%ebp)
c0103949:	73 bf                	jae    c010390a <log_integer_to_serial+0xac>
c010394b:	8d 55 af             	lea    -0x51(%ebp),%edx
c010394e:	8b 45 fc             	mov    -0x4(%ebp),%eax
c0103951:	01 d0                	add    %edx,%eax
c0103953:	c6 00 00             	movb   $0x0,(%eax)
c0103956:	8d 45 af             	lea    -0x51(%ebp),%eax
c0103959:	50                   	push   %eax
c010395a:	e8 c2 fe ff ff       	call   c0103821 <log_to_serial>
c010395f:	83 c4 04             	add    $0x4,%esp
c0103962:	c9                   	leave
c0103963:	c3                   	ret

c0103964 <print_hex>:
c0103964:	55                   	push   %ebp
c0103965:	89 e5                	mov    %esp,%ebp
c0103967:	83 ec 68             	sub    $0x68,%esp
c010396a:	8b 45 08             	mov    0x8(%ebp),%eax
c010396d:	89 45 98             	mov    %eax,-0x68(%ebp)
c0103970:	8b 45 0c             	mov    0xc(%ebp),%eax
c0103973:	89 45 9c             	mov    %eax,-0x64(%ebp)
c0103976:	8b 45 98             	mov    -0x68(%ebp),%eax
c0103979:	0b 45 9c             	or     -0x64(%ebp),%eax
c010397c:	75 12                	jne    c0103990 <print_hex+0x2c>
c010397e:	68 64 88 10 c0       	push   $0xc0108864
c0103983:	e8 99 fe ff ff       	call   c0103821 <log_to_serial>
c0103988:	83 c4 04             	add    $0x4,%esp
c010398b:	e9 c9 00 00 00       	jmp    c0103a59 <print_hex+0xf5>
c0103990:	c6 45 a8 30          	movb   $0x30,-0x58(%ebp)
c0103994:	c6 45 a9 78          	movb   $0x78,-0x57(%ebp)
c0103998:	c7 45 fc 02 00 00 00 	movl   $0x2,-0x4(%ebp)
c010399f:	8b 45 98             	mov    -0x68(%ebp),%eax
c01039a2:	89 45 f8             	mov    %eax,-0x8(%ebp)
c01039a5:	eb 42                	jmp    c01039e9 <print_hex+0x85>
c01039a7:	8b 45 f8             	mov    -0x8(%ebp),%eax
c01039aa:	83 e0 0f             	and    $0xf,%eax
c01039ad:	89 45 e8             	mov    %eax,-0x18(%ebp)
c01039b0:	83 7d e8 09          	cmpl   $0x9,-0x18(%ebp)
c01039b4:	77 14                	ja     c01039ca <print_hex+0x66>
c01039b6:	8b 45 e8             	mov    -0x18(%ebp),%eax
c01039b9:	83 c0 30             	add    $0x30,%eax
c01039bc:	89 c1                	mov    %eax,%ecx
c01039be:	8d 55 a8             	lea    -0x58(%ebp),%edx
c01039c1:	8b 45 fc             	mov    -0x4(%ebp),%eax
c01039c4:	01 d0                	add    %edx,%eax
c01039c6:	88 08                	mov    %cl,(%eax)
c01039c8:	eb 12                	jmp    c01039dc <print_hex+0x78>
c01039ca:	8b 45 e8             	mov    -0x18(%ebp),%eax
c01039cd:	83 c0 57             	add    $0x57,%eax
c01039d0:	89 c1                	mov    %eax,%ecx
c01039d2:	8d 55 a8             	lea    -0x58(%ebp),%edx
c01039d5:	8b 45 fc             	mov    -0x4(%ebp),%eax
c01039d8:	01 d0                	add    %edx,%eax
c01039da:	88 08                	mov    %cl,(%eax)
c01039dc:	83 45 fc 01          	addl   $0x1,-0x4(%ebp)
c01039e0:	8b 45 f8             	mov    -0x8(%ebp),%eax
c01039e3:	c1 e8 04             	shr    $0x4,%eax
c01039e6:	89 45 f8             	mov    %eax,-0x8(%ebp)
c01039e9:	83 7d f8 00          	cmpl   $0x0,-0x8(%ebp)
c01039ed:	75 b8                	jne    c01039a7 <print_hex+0x43>
c01039ef:	c7 45 f4 02 00 00 00 	movl   $0x2,-0xc(%ebp)
c01039f6:	8b 45 fc             	mov    -0x4(%ebp),%eax
c01039f9:	83 e8 01             	sub    $0x1,%eax
c01039fc:	89 45 f0             	mov    %eax,-0x10(%ebp)
c01039ff:	eb 39                	jmp    c0103a3a <print_hex+0xd6>
c0103a01:	8d 55 a8             	lea    -0x58(%ebp),%edx
c0103a04:	8b 45 f0             	mov    -0x10(%ebp),%eax
c0103a07:	01 d0                	add    %edx,%eax
c0103a09:	0f b6 00             	movzbl (%eax),%eax
c0103a0c:	88 45 ef             	mov    %al,-0x11(%ebp)
c0103a0f:	8d 55 a8             	lea    -0x58(%ebp),%edx
c0103a12:	8b 45 f4             	mov    -0xc(%ebp),%eax
c0103a15:	01 d0                	add    %edx,%eax
c0103a17:	0f b6 00             	movzbl (%eax),%eax
c0103a1a:	8d 4d a8             	lea    -0x58(%ebp),%ecx
c0103a1d:	8b 55 f0             	mov    -0x10(%ebp),%edx
c0103a20:	01 ca                	add    %ecx,%edx
c0103a22:	88 02                	mov    %al,(%edx)
c0103a24:	8d 55 a8             	lea    -0x58(%ebp),%edx
c0103a27:	8b 45 f4             	mov    -0xc(%ebp),%eax
c0103a2a:	01 c2                	add    %eax,%edx
c0103a2c:	0f b6 45 ef          	movzbl -0x11(%ebp),%eax
c0103a30:	88 02                	mov    %al,(%edx)
c0103a32:	83 45 f4 01          	addl   $0x1,-0xc(%ebp)
c0103a36:	83 6d f0 01          	subl   $0x1,-0x10(%ebp)
c0103a3a:	8b 45 f4             	mov    -0xc(%ebp),%eax
c0103a3d:	39 45 f0             	cmp    %eax,-0x10(%ebp)
c0103a40:	73 bf                	jae    c0103a01 <print_hex+0x9d>
c0103a42:	8d 55 a8             	lea    -0x58(%ebp),%edx
c0103a45:	8b 45 fc             	mov    -0x4(%ebp),%eax
c0103a48:	01 d0                	add    %edx,%eax
c0103a4a:	c6 00 00             	movb   $0x0,(%eax)
c0103a4d:	8d 45 a8             	lea    -0x58(%ebp),%eax
c0103a50:	50                   	push   %eax
c0103a51:	e8 cb fd ff ff       	call   c0103821 <log_to_serial>
c0103a56:	83 c4 04             	add    $0x4,%esp
c0103a59:	c9                   	leave
c0103a5a:	c3                   	ret

c0103a5b <logf>:
c0103a5b:	55                   	push   %ebp
c0103a5c:	89 e5                	mov    %esp,%ebp
c0103a5e:	83 ec 10             	sub    $0x10,%esp
c0103a61:	8d 45 0c             	lea    0xc(%ebp),%eax
c0103a64:	89 45 f8             	mov    %eax,-0x8(%ebp)
c0103a67:	e9 73 01 00 00       	jmp    c0103bdf <logf+0x184>
c0103a6c:	8b 45 08             	mov    0x8(%ebp),%eax
c0103a6f:	0f b6 00             	movzbl (%eax),%eax
c0103a72:	3c 25                	cmp    $0x25,%al
c0103a74:	0f 85 45 01 00 00    	jne    c0103bbf <logf+0x164>
c0103a7a:	8b 45 08             	mov    0x8(%ebp),%eax
c0103a7d:	83 c0 01             	add    $0x1,%eax
c0103a80:	89 45 08             	mov    %eax,0x8(%ebp)
c0103a83:	8b 45 08             	mov    0x8(%ebp),%eax
c0103a86:	0f b6 00             	movzbl (%eax),%eax
c0103a89:	0f be c0             	movsbl %al,%eax
c0103a8c:	83 f8 25             	cmp    $0x25,%eax
c0103a8f:	74 6c                	je     c0103afd <logf+0xa2>
c0103a91:	83 f8 25             	cmp    $0x25,%eax
c0103a94:	0f 8c e2 00 00 00    	jl     c0103b7c <logf+0x121>
c0103a9a:	83 f8 78             	cmp    $0x78,%eax
c0103a9d:	0f 8f d9 00 00 00    	jg     c0103b7c <logf+0x121>
c0103aa3:	83 f8 63             	cmp    $0x63,%eax
c0103aa6:	0f 8c d0 00 00 00    	jl     c0103b7c <logf+0x121>
c0103aac:	83 e8 63             	sub    $0x63,%eax
c0103aaf:	83 f8 15             	cmp    $0x15,%eax
c0103ab2:	0f 87 c4 00 00 00    	ja     c0103b7c <logf+0x121>
c0103ab8:	8b 04 85 7c 88 10 c0 	mov    -0x3fef7784(,%eax,4),%eax
c0103abf:	ff e0                	jmp    *%eax
c0103ac1:	8b 45 f8             	mov    -0x8(%ebp),%eax
c0103ac4:	8d 50 08             	lea    0x8(%eax),%edx
c0103ac7:	89 55 f8             	mov    %edx,-0x8(%ebp)
c0103aca:	8b 50 04             	mov    0x4(%eax),%edx
c0103acd:	8b 00                	mov    (%eax),%eax
c0103acf:	52                   	push   %edx
c0103ad0:	50                   	push   %eax
c0103ad1:	e8 8e fe ff ff       	call   c0103964 <print_hex>
c0103ad6:	83 c4 08             	add    $0x8,%esp
c0103ad9:	e9 d6 00 00 00       	jmp    c0103bb4 <logf+0x159>
c0103ade:	8b 45 f8             	mov    -0x8(%ebp),%eax
c0103ae1:	8d 50 04             	lea    0x4(%eax),%edx
c0103ae4:	89 55 f8             	mov    %edx,-0x8(%ebp)
c0103ae7:	8b 00                	mov    (%eax),%eax
c0103ae9:	ba 00 00 00 00       	mov    $0x0,%edx
c0103aee:	52                   	push   %edx
c0103aef:	50                   	push   %eax
c0103af0:	e8 6f fe ff ff       	call   c0103964 <print_hex>
c0103af5:	83 c4 08             	add    $0x8,%esp
c0103af8:	e9 b7 00 00 00       	jmp    c0103bb4 <logf+0x159>
c0103afd:	8b 45 08             	mov    0x8(%ebp),%eax
c0103b00:	0f b6 00             	movzbl (%eax),%eax
c0103b03:	0f b6 c0             	movzbl %al,%eax
c0103b06:	50                   	push   %eax
c0103b07:	68 f8 03 00 00       	push   $0x3f8
c0103b0c:	e8 38 fc ff ff       	call   c0103749 <outportb>
c0103b11:	83 c4 08             	add    $0x8,%esp
c0103b14:	e9 9b 00 00 00       	jmp    c0103bb4 <logf+0x159>
c0103b19:	83 45 08 02          	addl   $0x2,0x8(%ebp)
c0103b1d:	e9 92 00 00 00       	jmp    c0103bb4 <logf+0x159>
c0103b22:	8b 45 f8             	mov    -0x8(%ebp),%eax
c0103b25:	8d 50 04             	lea    0x4(%eax),%edx
c0103b28:	89 55 f8             	mov    %edx,-0x8(%ebp)
c0103b2b:	8b 00                	mov    (%eax),%eax
c0103b2d:	ba 00 00 00 00       	mov    $0x0,%edx
c0103b32:	52                   	push   %edx
c0103b33:	50                   	push   %eax
c0103b34:	e8 25 fd ff ff       	call   c010385e <log_integer_to_serial>
c0103b39:	83 c4 08             	add    $0x8,%esp
c0103b3c:	eb 76                	jmp    c0103bb4 <logf+0x159>
c0103b3e:	8b 45 f8             	mov    -0x8(%ebp),%eax
c0103b41:	8d 50 04             	lea    0x4(%eax),%edx
c0103b44:	89 55 f8             	mov    %edx,-0x8(%ebp)
c0103b47:	8b 00                	mov    (%eax),%eax
c0103b49:	83 ec 04             	sub    $0x4,%esp
c0103b4c:	50                   	push   %eax
c0103b4d:	e8 cf fc ff ff       	call   c0103821 <log_to_serial>
c0103b52:	83 c4 08             	add    $0x8,%esp
c0103b55:	eb 5d                	jmp    c0103bb4 <logf+0x159>
c0103b57:	8b 45 f8             	mov    -0x8(%ebp),%eax
c0103b5a:	8d 50 04             	lea    0x4(%eax),%edx
c0103b5d:	89 55 f8             	mov    %edx,-0x8(%ebp)
c0103b60:	8b 00                	mov    (%eax),%eax
c0103b62:	88 45 ff             	mov    %al,-0x1(%ebp)
c0103b65:	0f b6 45 ff          	movzbl -0x1(%ebp),%eax
c0103b69:	0f b6 c0             	movzbl %al,%eax
c0103b6c:	50                   	push   %eax
c0103b6d:	68 f8 03 00 00       	push   $0x3f8
c0103b72:	e8 d2 fb ff ff       	call   c0103749 <outportb>
c0103b77:	83 c4 08             	add    $0x8,%esp
c0103b7a:	eb 38                	jmp    c0103bb4 <logf+0x159>
c0103b7c:	83 ec 04             	sub    $0x4,%esp
c0103b7f:	68 68 88 10 c0       	push   $0xc0108868
c0103b84:	e8 98 fc ff ff       	call   c0103821 <log_to_serial>
c0103b89:	83 c4 08             	add    $0x8,%esp
c0103b8c:	8b 45 08             	mov    0x8(%ebp),%eax
c0103b8f:	0f b6 00             	movzbl (%eax),%eax
c0103b92:	0f b6 c0             	movzbl %al,%eax
c0103b95:	50                   	push   %eax
c0103b96:	68 f8 03 00 00       	push   $0x3f8
c0103b9b:	e8 a9 fb ff ff       	call   c0103749 <outportb>
c0103ba0:	83 c4 08             	add    $0x8,%esp
c0103ba3:	83 ec 04             	sub    $0x4,%esp
c0103ba6:	68 79 88 10 c0       	push   $0xc0108879
c0103bab:	e8 71 fc ff ff       	call   c0103821 <log_to_serial>
c0103bb0:	83 c4 08             	add    $0x8,%esp
c0103bb3:	90                   	nop
c0103bb4:	8b 45 08             	mov    0x8(%ebp),%eax
c0103bb7:	83 c0 01             	add    $0x1,%eax
c0103bba:	89 45 08             	mov    %eax,0x8(%ebp)
c0103bbd:	eb 20                	jmp    c0103bdf <logf+0x184>
c0103bbf:	8b 45 08             	mov    0x8(%ebp),%eax
c0103bc2:	0f b6 00             	movzbl (%eax),%eax
c0103bc5:	0f b6 c0             	movzbl %al,%eax
c0103bc8:	50                   	push   %eax
c0103bc9:	68 f8 03 00 00       	push   $0x3f8
c0103bce:	e8 76 fb ff ff       	call   c0103749 <outportb>
c0103bd3:	83 c4 08             	add    $0x8,%esp
c0103bd6:	8b 45 08             	mov    0x8(%ebp),%eax
c0103bd9:	83 c0 01             	add    $0x1,%eax
c0103bdc:	89 45 08             	mov    %eax,0x8(%ebp)
c0103bdf:	8b 45 08             	mov    0x8(%ebp),%eax
c0103be2:	0f b6 00             	movzbl (%eax),%eax
c0103be5:	84 c0                	test   %al,%al
c0103be7:	0f 85 7f fe ff ff    	jne    c0103a6c <logf+0x11>
c0103bed:	90                   	nop
c0103bee:	90                   	nop
c0103bef:	c9                   	leave
c0103bf0:	c3                   	ret

c0103bf1 <panic>:
c0103bf1:	55                   	push   %ebp
c0103bf2:	89 e5                	mov    %esp,%ebp
c0103bf4:	ff 75 08             	push   0x8(%ebp)
c0103bf7:	68 d4 88 10 c0       	push   $0xc01088d4
c0103bfc:	e8 5a fe ff ff       	call   c0103a5b <logf>
c0103c01:	83 c4 08             	add    $0x8,%esp
c0103c04:	fa                   	cli
c0103c05:	f4                   	hlt
c0103c06:	90                   	nop
c0103c07:	c9                   	leave
c0103c08:	c3                   	ret

c0103c09 <triple_fault>:
c0103c09:	55                   	push   %ebp
c0103c0a:	89 e5                	mov    %esp,%ebp
c0103c0c:	6a 00                	push   $0x0
c0103c0e:	66 6a 00             	pushw  $0x0
c0103c11:	0f 01 1c 24          	lidtl  (%esp)
c0103c15:	cd 04                	int    $0x4
c0103c17:	90                   	nop
c0103c18:	5d                   	pop    %ebp
c0103c19:	c3                   	ret

c0103c1a <test_test>:
c0103c1a:	55                   	push   %ebp
c0103c1b:	89 e5                	mov    %esp,%ebp
c0103c1d:	f4                   	hlt
c0103c1e:	90                   	nop
c0103c1f:	5d                   	pop    %ebp
c0103c20:	c3                   	ret

c0103c21 <test_func>:
c0103c21:	55                   	push   %ebp
c0103c22:	89 e5                	mov    %esp,%ebp
c0103c24:	83 ec 18             	sub    $0x18,%esp
c0103c27:	68 4e 6a 10 c0       	push   $0xc0106a4e
c0103c2c:	68 f4 88 10 c0       	push   $0xc01088f4
c0103c31:	e8 25 fe ff ff       	call   c0103a5b <logf>
c0103c36:	83 c4 08             	add    $0x8,%esp
c0103c39:	c7 45 f4 0a 00 00 00 	movl   $0xa,-0xc(%ebp)
c0103c40:	83 ec 0c             	sub    $0xc,%esp
c0103c43:	68 0a 89 10 c0       	push   $0xc010890a
c0103c48:	e8 01 2e 00 00       	call   c0106a4e <printf>
c0103c4d:	83 c4 10             	add    $0x10,%esp
c0103c50:	e8 c5 ff ff ff       	call   c0103c1a <test_test>
c0103c55:	e8 3f 1f 00 00       	call   c0105b99 <kill_current_process>
c0103c5a:	90                   	nop
c0103c5b:	c9                   	leave
c0103c5c:	c3                   	ret

c0103c5d <kernel_main>:
c0103c5d:	55                   	push   %ebp
c0103c5e:	89 e5                	mov    %esp,%ebp
c0103c60:	83 ec 28             	sub    $0x28,%esp
c0103c63:	8b 45 0c             	mov    0xc(%ebp),%eax
c0103c66:	83 e0 07             	and    $0x7,%eax
c0103c69:	85 c0                	test   %eax,%eax
c0103c6b:	74 12                	je     c0103c7f <kernel_main+0x22>
c0103c6d:	68 1e 89 10 c0       	push   $0xc010891e
c0103c72:	e8 aa fb ff ff       	call   c0103821 <log_to_serial>
c0103c77:	83 c4 04             	add    $0x4,%esp
c0103c7a:	e9 00 02 00 00       	jmp    c0103e7f <kernel_main+0x222>
c0103c7f:	8b 45 0c             	mov    0xc(%ebp),%eax
c0103c82:	2d 00 00 00 40       	sub    $0x40000000,%eax
c0103c87:	89 45 f4             	mov    %eax,-0xc(%ebp)
c0103c8a:	b8 dc 20 11 c0       	mov    $0xc01120dc,%eax
c0103c8f:	ba 00 00 10 00       	mov    $0x100000,%edx
c0103c94:	29 d0                	sub    %edx,%eax
c0103c96:	05 00 00 00 40       	add    $0x40000000,%eax
c0103c9b:	89 45 f0             	mov    %eax,-0x10(%ebp)
c0103c9e:	e8 b2 0d 00 00       	call   c0104a55 <disable_pic>
c0103ca3:	83 ec 08             	sub    $0x8,%esp
c0103ca6:	ff 75 f4             	push   -0xc(%ebp)
c0103ca9:	ff 75 08             	push   0x8(%ebp)
c0103cac:	e8 80 f9 ff ff       	call   c0103631 <pg_init>
c0103cb1:	83 c4 10             	add    $0x10,%esp
c0103cb4:	89 45 ec             	mov    %eax,-0x14(%ebp)
c0103cb7:	e8 5a e5 ff ff       	call   c0102216 <gdt_install>
c0103cbc:	e8 55 e6 ff ff       	call   c0102316 <init_idt>
c0103cc1:	8b 45 f4             	mov    -0xc(%ebp),%eax
c0103cc4:	25 00 fc ff ff       	and    $0xfffffc00,%eax
c0103cc9:	89 c2                	mov    %eax,%edx
c0103ccb:	8b 45 f4             	mov    -0xc(%ebp),%eax
c0103cce:	05 00 00 00 40       	add    $0x40000000,%eax
c0103cd3:	25 00 fc ff ff       	and    $0xfffffc00,%eax
c0103cd8:	6a 03                	push   $0x3
c0103cda:	52                   	push   %edx
c0103cdb:	50                   	push   %eax
c0103cdc:	ff 75 ec             	push   -0x14(%ebp)
c0103cdf:	e8 bc ed ff ff       	call   c0102aa0 <memory_map>
c0103ce4:	83 c4 10             	add    $0x10,%esp
c0103ce7:	8b 45 f4             	mov    -0xc(%ebp),%eax
c0103cea:	8b 10                	mov    (%eax),%edx
c0103cec:	8b 45 0c             	mov    0xc(%ebp),%eax
c0103cef:	01 d0                	add    %edx,%eax
c0103cf1:	83 ec 0c             	sub    $0xc,%esp
c0103cf4:	50                   	push   %eax
c0103cf5:	e8 7f d6 ff ff       	call   c0101379 <kinit>
c0103cfa:	83 c4 10             	add    $0x10,%esp
c0103cfd:	89 45 e8             	mov    %eax,-0x18(%ebp)
c0103d00:	6a 00                	push   $0x0
c0103d02:	68 00 00 e0 ff       	push   $0xffe00000
c0103d07:	68 00 00 00 cc       	push   $0xcc000000
c0103d0c:	ff 75 ec             	push   -0x14(%ebp)
c0103d0f:	e8 5c d7 ff ff       	call   c0101470 <create_vmm>
c0103d14:	83 c4 10             	add    $0x10,%esp
c0103d17:	89 45 e4             	mov    %eax,-0x1c(%ebp)
c0103d1a:	8b 45 e4             	mov    -0x1c(%ebp),%eax
c0103d1d:	83 ec 0c             	sub    $0xc,%esp
c0103d20:	50                   	push   %eax
c0103d21:	e8 48 da ff ff       	call   c010176e <set_kernel_vmm>
c0103d26:	83 c4 10             	add    $0x10,%esp
c0103d29:	8b 45 e4             	mov    -0x1c(%ebp),%eax
c0103d2c:	83 ec 0c             	sub    $0xc,%esp
c0103d2f:	50                   	push   %eax
c0103d30:	e8 47 da ff ff       	call   c010177c <set_current_vmm>
c0103d35:	83 c4 10             	add    $0x10,%esp
c0103d38:	0f b6 05 8c a1 10 c0 	movzbl 0xc010a18c,%eax
c0103d3f:	0f be c0             	movsbl %al,%eax
c0103d42:	83 ec 08             	sub    $0x8,%esp
c0103d45:	50                   	push   %eax
c0103d46:	68 25 89 10 c0       	push   $0xc0108925
c0103d4b:	e8 0b fd ff ff       	call   c0103a5b <logf>
c0103d50:	83 c4 10             	add    $0x10,%esp
c0103d53:	8b 45 0c             	mov    0xc(%ebp),%eax
c0103d56:	8d 90 00 00 00 c0    	lea    -0x40000000(%eax),%edx
c0103d5c:	8d 45 d8             	lea    -0x28(%ebp),%eax
c0103d5f:	83 ec 04             	sub    $0x4,%esp
c0103d62:	52                   	push   %edx
c0103d63:	ff 75 ec             	push   -0x14(%ebp)
c0103d66:	50                   	push   %eax
c0103d67:	e8 c1 e2 ff ff       	call   c010202d <init_multiboot>
c0103d6c:	83 c4 0c             	add    $0xc,%esp
c0103d6f:	e8 95 d5 ff ff       	call   c0101309 <transfer_dynamic>
c0103d74:	83 ec 08             	sub    $0x8,%esp
c0103d77:	ff 75 ec             	push   -0x14(%ebp)
c0103d7a:	8d 45 e4             	lea    -0x1c(%ebp),%eax
c0103d7d:	50                   	push   %eax
c0103d7e:	e8 2e d9 ff ff       	call   c01016b1 <vmm_transfer_dynamic>
c0103d83:	83 c4 10             	add    $0x10,%esp
c0103d86:	8b 45 e4             	mov    -0x1c(%ebp),%eax
c0103d89:	83 ec 0c             	sub    $0xc,%esp
c0103d8c:	50                   	push   %eax
c0103d8d:	e8 dc d9 ff ff       	call   c010176e <set_kernel_vmm>
c0103d92:	83 c4 10             	add    $0x10,%esp
c0103d95:	8b 45 e4             	mov    -0x1c(%ebp),%eax
c0103d98:	83 ec 0c             	sub    $0xc,%esp
c0103d9b:	50                   	push   %eax
c0103d9c:	e8 db d9 ff ff       	call   c010177c <set_current_vmm>
c0103da1:	83 c4 10             	add    $0x10,%esp
c0103da4:	8b 45 e4             	mov    -0x1c(%ebp),%eax
c0103da7:	83 ec 0c             	sub    $0xc,%esp
c0103daa:	50                   	push   %eax
c0103dab:	e8 fb 0a 00 00       	call   c01048ab <init_apic>
c0103db0:	83 c4 10             	add    $0x10,%esp
c0103db3:	e8 7a 02 00 00       	call   c0104032 <init_heap>
c0103db8:	8b 45 e4             	mov    -0x1c(%ebp),%eax
c0103dbb:	83 ec 0c             	sub    $0xc,%esp
c0103dbe:	50                   	push   %eax
c0103dbf:	e8 a8 f5 ff ff       	call   c010336c <init_pae>
c0103dc4:	83 c4 10             	add    $0x10,%esp
c0103dc7:	e8 ac de ff ff       	call   c0101c78 <init_framebuffer>
c0103dcc:	83 ec 04             	sub    $0x4,%esp
c0103dcf:	6a ff                	push   $0xffffffff
c0103dd1:	6a 64                	push   $0x64
c0103dd3:	6a 64                	push   $0x64
c0103dd5:	e8 85 17 00 00       	call   c010555f <put_pixel>
c0103dda:	83 c4 10             	add    $0x10,%esp
c0103ddd:	e8 25 17 00 00       	call   c0105507 <init_font>
c0103de2:	ff 75 f0             	push   -0x10(%ebp)
c0103de5:	68 dc 20 11 c0       	push   $0xc01120dc
c0103dea:	68 00 00 10 00       	push   $0x100000
c0103def:	68 34 89 10 c0       	push   $0xc0108934
c0103df4:	e8 62 fc ff ff       	call   c0103a5b <logf>
c0103df9:	83 c4 10             	add    $0x10,%esp
c0103dfc:	e8 3c 31 00 00       	call   c0106f3d <init_terminal>
c0103e01:	e8 e8 12 00 00       	call   c01050ee <init_keyboard>
c0103e06:	83 ec 0c             	sub    $0xc,%esp
c0103e09:	68 6c 89 10 c0       	push   $0xc010896c
c0103e0e:	e8 3b 2c 00 00       	call   c0106a4e <printf>
c0103e13:	83 c4 10             	add    $0x10,%esp
c0103e16:	83 ec 0c             	sub    $0xc,%esp
c0103e19:	68 94 89 10 c0       	push   $0xc0108994
c0103e1e:	e8 2b 2c 00 00       	call   c0106a4e <printf>
c0103e23:	83 c4 10             	add    $0x10,%esp
c0103e26:	83 ec 0c             	sub    $0xc,%esp
c0103e29:	68 c8 89 10 c0       	push   $0xc01089c8
c0103e2e:	e8 1b 2c 00 00       	call   c0106a4e <printf>
c0103e33:	83 c4 10             	add    $0x10,%esp
c0103e36:	83 ec 0c             	sub    $0xc,%esp
c0103e39:	68 eb 89 10 c0       	push   $0xc01089eb
c0103e3e:	e8 0b 2c 00 00       	call   c0106a4e <printf>
c0103e43:	83 c4 10             	add    $0x10,%esp
c0103e46:	83 ec 0c             	sub    $0xc,%esp
c0103e49:	6a 00                	push   $0x0
c0103e4b:	e8 0e 0a 00 00       	call   c010485e <set_initial_lapic_timer_count>
c0103e50:	83 c4 10             	add    $0x10,%esp
c0103e53:	e8 81 19 00 00       	call   c01057d9 <init_scheduler>
c0103e58:	e8 a9 30 00 00       	call   c0106f06 <start_terminal>
c0103e5d:	83 ec 0c             	sub    $0xc,%esp
c0103e60:	68 00 f0 0f 00       	push   $0xff000
c0103e65:	e8 f4 09 00 00       	call   c010485e <set_initial_lapic_timer_count>
c0103e6a:	83 c4 10             	add    $0x10,%esp
c0103e6d:	cd 30                	int    $0x30
c0103e6f:	83 ec 0c             	sub    $0xc,%esp
c0103e72:	68 01 8a 10 c0       	push   $0xc0108a01
c0103e77:	e8 a5 f9 ff ff       	call   c0103821 <log_to_serial>
c0103e7c:	83 c4 10             	add    $0x10,%esp
c0103e7f:	c9                   	leave
c0103e80:	c3                   	ret

c0103e81 <memcmp>:
c0103e81:	55                   	push   %ebp
c0103e82:	89 e5                	mov    %esp,%ebp
c0103e84:	83 ec 10             	sub    $0x10,%esp
c0103e87:	8b 45 08             	mov    0x8(%ebp),%eax
c0103e8a:	3b 45 0c             	cmp    0xc(%ebp),%eax
c0103e8d:	75 07                	jne    c0103e96 <memcmp+0x15>
c0103e8f:	b8 00 00 00 00       	mov    $0x0,%eax
c0103e94:	eb 52                	jmp    c0103ee8 <memcmp+0x67>
c0103e96:	c7 45 fc 00 00 00 00 	movl   $0x0,-0x4(%ebp)
c0103e9d:	eb 0c                	jmp    c0103eab <memcmp+0x2a>
c0103e9f:	83 45 fc 01          	addl   $0x1,-0x4(%ebp)
c0103ea3:	83 45 08 01          	addl   $0x1,0x8(%ebp)
c0103ea7:	83 45 0c 01          	addl   $0x1,0xc(%ebp)
c0103eab:	8b 45 fc             	mov    -0x4(%ebp),%eax
c0103eae:	3b 45 10             	cmp    0x10(%ebp),%eax
c0103eb1:	73 10                	jae    c0103ec3 <memcmp+0x42>
c0103eb3:	8b 45 08             	mov    0x8(%ebp),%eax
c0103eb6:	0f b6 10             	movzbl (%eax),%edx
c0103eb9:	8b 45 0c             	mov    0xc(%ebp),%eax
c0103ebc:	0f b6 00             	movzbl (%eax),%eax
c0103ebf:	38 c2                	cmp    %al,%dl
c0103ec1:	74 dc                	je     c0103e9f <memcmp+0x1e>
c0103ec3:	8b 45 fc             	mov    -0x4(%ebp),%eax
c0103ec6:	3b 45 10             	cmp    0x10(%ebp),%eax
c0103ec9:	74 18                	je     c0103ee3 <memcmp+0x62>
c0103ecb:	8b 45 08             	mov    0x8(%ebp),%eax
c0103ece:	0f b6 00             	movzbl (%eax),%eax
c0103ed1:	0f b6 c8             	movzbl %al,%ecx
c0103ed4:	8b 45 0c             	mov    0xc(%ebp),%eax
c0103ed7:	0f b6 00             	movzbl (%eax),%eax
c0103eda:	0f b6 d0             	movzbl %al,%edx
c0103edd:	89 c8                	mov    %ecx,%eax
c0103edf:	29 d0                	sub    %edx,%eax
c0103ee1:	eb 05                	jmp    c0103ee8 <memcmp+0x67>
c0103ee3:	b8 00 00 00 00       	mov    $0x0,%eax
c0103ee8:	c9                   	leave
c0103ee9:	c3                   	ret

c0103eea <memcpy>:
c0103eea:	55                   	push   %ebp
c0103eeb:	89 e5                	mov    %esp,%ebp
c0103eed:	83 ec 10             	sub    $0x10,%esp
c0103ef0:	8b 45 08             	mov    0x8(%ebp),%eax
c0103ef3:	89 45 fc             	mov    %eax,-0x4(%ebp)
c0103ef6:	8b 45 0c             	mov    0xc(%ebp),%eax
c0103ef9:	89 45 f8             	mov    %eax,-0x8(%ebp)
c0103efc:	eb 17                	jmp    c0103f15 <memcpy+0x2b>
c0103efe:	8b 55 f8             	mov    -0x8(%ebp),%edx
c0103f01:	8d 42 01             	lea    0x1(%edx),%eax
c0103f04:	89 45 f8             	mov    %eax,-0x8(%ebp)
c0103f07:	8b 45 fc             	mov    -0x4(%ebp),%eax
c0103f0a:	8d 48 01             	lea    0x1(%eax),%ecx
c0103f0d:	89 4d fc             	mov    %ecx,-0x4(%ebp)
c0103f10:	0f b6 12             	movzbl (%edx),%edx
c0103f13:	88 10                	mov    %dl,(%eax)
c0103f15:	8b 45 10             	mov    0x10(%ebp),%eax
c0103f18:	8d 50 ff             	lea    -0x1(%eax),%edx
c0103f1b:	89 55 10             	mov    %edx,0x10(%ebp)
c0103f1e:	85 c0                	test   %eax,%eax
c0103f20:	75 dc                	jne    c0103efe <memcpy+0x14>
c0103f22:	8b 45 08             	mov    0x8(%ebp),%eax
c0103f25:	c9                   	leave
c0103f26:	c3                   	ret

c0103f27 <memmove>:
c0103f27:	55                   	push   %ebp
c0103f28:	89 e5                	mov    %esp,%ebp
c0103f2a:	ff 75 10             	push   0x10(%ebp)
c0103f2d:	ff 75 0c             	push   0xc(%ebp)
c0103f30:	ff 75 08             	push   0x8(%ebp)
c0103f33:	e8 b2 ff ff ff       	call   c0103eea <memcpy>
c0103f38:	83 c4 0c             	add    $0xc,%esp
c0103f3b:	c9                   	leave
c0103f3c:	c3                   	ret

c0103f3d <memset>:
c0103f3d:	55                   	push   %ebp
c0103f3e:	89 e5                	mov    %esp,%ebp
c0103f40:	83 ec 10             	sub    $0x10,%esp
c0103f43:	8b 45 08             	mov    0x8(%ebp),%eax
c0103f46:	89 45 fc             	mov    %eax,-0x4(%ebp)
c0103f49:	eb 12                	jmp    c0103f5d <memset+0x20>
c0103f4b:	8b 45 0c             	mov    0xc(%ebp),%eax
c0103f4e:	89 c2                	mov    %eax,%edx
c0103f50:	8b 45 fc             	mov    -0x4(%ebp),%eax
c0103f53:	88 10                	mov    %dl,(%eax)
c0103f55:	83 45 fc 01          	addl   $0x1,-0x4(%ebp)
c0103f59:	83 6d 10 01          	subl   $0x1,0x10(%ebp)
c0103f5d:	83 7d 10 00          	cmpl   $0x0,0x10(%ebp)
c0103f61:	75 e8                	jne    c0103f4b <memset+0xe>
c0103f63:	8b 45 08             	mov    0x8(%ebp),%eax
c0103f66:	c9                   	leave
c0103f67:	c3                   	ret

c0103f68 <strlen>:
c0103f68:	55                   	push   %ebp
c0103f69:	89 e5                	mov    %esp,%ebp
c0103f6b:	83 ec 10             	sub    $0x10,%esp
c0103f6e:	8b 45 08             	mov    0x8(%ebp),%eax
c0103f71:	89 45 fc             	mov    %eax,-0x4(%ebp)
c0103f74:	eb 04                	jmp    c0103f7a <strlen+0x12>
c0103f76:	83 45 fc 01          	addl   $0x1,-0x4(%ebp)
c0103f7a:	8b 45 fc             	mov    -0x4(%ebp),%eax
c0103f7d:	0f b6 00             	movzbl (%eax),%eax
c0103f80:	84 c0                	test   %al,%al
c0103f82:	75 f2                	jne    c0103f76 <strlen+0xe>
c0103f84:	8b 45 fc             	mov    -0x4(%ebp),%eax
c0103f87:	2b 45 08             	sub    0x8(%ebp),%eax
c0103f8a:	c9                   	leave
c0103f8b:	c3                   	ret

c0103f8c <strcmp>:
c0103f8c:	55                   	push   %ebp
c0103f8d:	89 e5                	mov    %esp,%ebp
c0103f8f:	83 ec 10             	sub    $0x10,%esp
c0103f92:	c7 45 fc 00 00 00 00 	movl   $0x0,-0x4(%ebp)
c0103f99:	eb 25                	jmp    c0103fc0 <strcmp+0x34>
c0103f9b:	8b 55 fc             	mov    -0x4(%ebp),%edx
c0103f9e:	8b 45 08             	mov    0x8(%ebp),%eax
c0103fa1:	01 d0                	add    %edx,%eax
c0103fa3:	0f b6 10             	movzbl (%eax),%edx
c0103fa6:	8b 4d fc             	mov    -0x4(%ebp),%ecx
c0103fa9:	8b 45 0c             	mov    0xc(%ebp),%eax
c0103fac:	01 c8                	add    %ecx,%eax
c0103fae:	0f b6 00             	movzbl (%eax),%eax
c0103fb1:	38 c2                	cmp    %al,%dl
c0103fb3:	74 07                	je     c0103fbc <strcmp+0x30>
c0103fb5:	b8 00 00 00 00       	mov    $0x0,%eax
c0103fba:	eb 11                	jmp    c0103fcd <strcmp+0x41>
c0103fbc:	83 45 fc 01          	addl   $0x1,-0x4(%ebp)
c0103fc0:	8b 45 fc             	mov    -0x4(%ebp),%eax
c0103fc3:	3b 45 10             	cmp    0x10(%ebp),%eax
c0103fc6:	72 d3                	jb     c0103f9b <strcmp+0xf>
c0103fc8:	b8 01 00 00 00       	mov    $0x1,%eax
c0103fcd:	c9                   	leave
c0103fce:	c3                   	ret

c0103fcf <strncpy>:
c0103fcf:	55                   	push   %ebp
c0103fd0:	89 e5                	mov    %esp,%ebp
c0103fd2:	83 ec 10             	sub    $0x10,%esp
c0103fd5:	c7 45 fc 00 00 00 00 	movl   $0x0,-0x4(%ebp)
c0103fdc:	eb 28                	jmp    c0104006 <strncpy+0x37>
c0103fde:	8b 55 08             	mov    0x8(%ebp),%edx
c0103fe1:	8b 45 10             	mov    0x10(%ebp),%eax
c0103fe4:	01 d0                	add    %edx,%eax
c0103fe6:	8b 4d 0c             	mov    0xc(%ebp),%ecx
c0103fe9:	8b 55 10             	mov    0x10(%ebp),%edx
c0103fec:	01 ca                	add    %ecx,%edx
c0103fee:	0f b6 00             	movzbl (%eax),%eax
c0103ff1:	88 02                	mov    %al,(%edx)
c0103ff3:	8b 55 0c             	mov    0xc(%ebp),%edx
c0103ff6:	8b 45 10             	mov    0x10(%ebp),%eax
c0103ff9:	01 d0                	add    %edx,%eax
c0103ffb:	0f b6 00             	movzbl (%eax),%eax
c0103ffe:	84 c0                	test   %al,%al
c0104000:	74 0e                	je     c0104010 <strncpy+0x41>
c0104002:	83 45 fc 01          	addl   $0x1,-0x4(%ebp)
c0104006:	8b 45 fc             	mov    -0x4(%ebp),%eax
c0104009:	3b 45 10             	cmp    0x10(%ebp),%eax
c010400c:	72 d0                	jb     c0103fde <strncpy+0xf>
c010400e:	eb 01                	jmp    c0104011 <strncpy+0x42>
c0104010:	90                   	nop
c0104011:	90                   	nop
c0104012:	c9                   	leave
c0104013:	c3                   	ret

c0104014 <get_iflag>:
c0104014:	55                   	push   %ebp
c0104015:	89 e5                	mov    %esp,%ebp
c0104017:	83 ec 10             	sub    $0x10,%esp
c010401a:	c7 45 fc 00 00 00 00 	movl   $0x0,-0x4(%ebp)
c0104021:	9c                   	pushf
c0104022:	8b 04 24             	mov    (%esp),%eax
c0104025:	89 45 fc             	mov    %eax,-0x4(%ebp)
c0104028:	8b 45 fc             	mov    -0x4(%ebp),%eax
c010402b:	25 00 02 00 00       	and    $0x200,%eax
c0104030:	c9                   	leave
c0104031:	c3                   	ret

c0104032 <init_heap>:
c0104032:	55                   	push   %ebp
c0104033:	89 e5                	mov    %esp,%ebp
c0104035:	83 ec 08             	sub    $0x8,%esp
c0104038:	83 ec 04             	sub    $0x4,%esp
c010403b:	6a 00                	push   $0x0
c010403d:	6a 03                	push   $0x3
c010403f:	68 00 a0 00 00       	push   $0xa000
c0104044:	e8 30 d5 ff ff       	call   c0101579 <page_kalloc>
c0104049:	83 c4 10             	add    $0x10,%esp
c010404c:	a3 18 10 11 c0       	mov    %eax,0xc0111018
c0104051:	a1 18 10 11 c0       	mov    0xc0111018,%eax
c0104056:	83 ec 04             	sub    $0x4,%esp
c0104059:	68 00 a0 00 00       	push   $0xa000
c010405e:	6a 00                	push   $0x0
c0104060:	50                   	push   %eax
c0104061:	e8 d7 fe ff ff       	call   c0103f3d <memset>
c0104066:	83 c4 10             	add    $0x10,%esp
c0104069:	a1 18 10 11 c0       	mov    0xc0111018,%eax
c010406e:	a3 1c 10 11 c0       	mov    %eax,0xc011101c
c0104073:	83 ec 0c             	sub    $0xc,%esp
c0104076:	68 18 8a 10 c0       	push   $0xc0108a18
c010407b:	e8 db f9 ff ff       	call   c0103a5b <logf>
c0104080:	83 c4 10             	add    $0x10,%esp
c0104083:	90                   	nop
c0104084:	c9                   	leave
c0104085:	c3                   	ret

c0104086 <malloc>:
c0104086:	55                   	push   %ebp
c0104087:	89 e5                	mov    %esp,%ebp
c0104089:	90                   	nop
c010408a:	5d                   	pop    %ebp
c010408b:	c3                   	ret

c010408c <free>:
c010408c:	55                   	push   %ebp
c010408d:	89 e5                	mov    %esp,%ebp
c010408f:	90                   	nop
c0104090:	5d                   	pop    %ebp
c0104091:	c3                   	ret

c0104092 <kalloc>:
c0104092:	55                   	push   %ebp
c0104093:	89 e5                	mov    %esp,%ebp
c0104095:	83 ec 28             	sub    $0x28,%esp
c0104098:	c6 45 f7 00          	movb   $0x0,-0x9(%ebp)
c010409c:	e8 73 ff ff ff       	call   c0104014 <get_iflag>
c01040a1:	85 c0                	test   %eax,%eax
c01040a3:	74 05                	je     c01040aa <kalloc+0x18>
c01040a5:	80 4d f7 01          	orb    $0x1,-0x9(%ebp)
c01040a9:	fa                   	cli
c01040aa:	8b 45 08             	mov    0x8(%ebp),%eax
c01040ad:	83 c0 1f             	add    $0x1f,%eax
c01040b0:	83 e0 e0             	and    $0xffffffe0,%eax
c01040b3:	89 45 08             	mov    %eax,0x8(%ebp)
c01040b6:	83 ec 08             	sub    $0x8,%esp
c01040b9:	ff 75 08             	push   0x8(%ebp)
c01040bc:	68 2a 8a 10 c0       	push   $0xc0108a2a
c01040c1:	e8 95 f9 ff ff       	call   c0103a5b <logf>
c01040c6:	83 c4 10             	add    $0x10,%esp
c01040c9:	a1 18 10 11 c0       	mov    0xc0111018,%eax
c01040ce:	89 45 f0             	mov    %eax,-0x10(%ebp)
c01040d1:	c7 45 ec 00 00 00 00 	movl   $0x0,-0x14(%ebp)
c01040d8:	e9 cd 00 00 00       	jmp    c01041aa <kalloc+0x118>
c01040dd:	8b 45 f0             	mov    -0x10(%ebp),%eax
c01040e0:	8b 00                	mov    (%eax),%eax
c01040e2:	3b 45 08             	cmp    0x8(%ebp),%eax
c01040e5:	0f 82 ae 00 00 00    	jb     c0104199 <kalloc+0x107>
c01040eb:	8b 45 f0             	mov    -0x10(%ebp),%eax
c01040ee:	0f b6 40 04          	movzbl 0x4(%eax),%eax
c01040f2:	84 c0                	test   %al,%al
c01040f4:	0f 85 9f 00 00 00    	jne    c0104199 <kalloc+0x107>
c01040fa:	8b 45 f0             	mov    -0x10(%ebp),%eax
c01040fd:	8b 00                	mov    (%eax),%eax
c01040ff:	2b 45 08             	sub    0x8(%ebp),%eax
c0104102:	83 f8 2f             	cmp    $0x2f,%eax
c0104105:	76 5e                	jbe    c0104165 <kalloc+0xd3>
c0104107:	8b 45 f0             	mov    -0x10(%ebp),%eax
c010410a:	8b 00                	mov    (%eax),%eax
c010410c:	8d 50 10             	lea    0x10(%eax),%edx
c010410f:	8b 45 f0             	mov    -0x10(%ebp),%eax
c0104112:	01 d0                	add    %edx,%eax
c0104114:	89 45 e4             	mov    %eax,-0x1c(%ebp)
c0104117:	8b 45 e4             	mov    -0x1c(%ebp),%eax
c010411a:	c6 40 04 00          	movb   $0x0,0x4(%eax)
c010411e:	8b 45 f0             	mov    -0x10(%ebp),%eax
c0104121:	8b 00                	mov    (%eax),%eax
c0104123:	2b 45 08             	sub    0x8(%ebp),%eax
c0104126:	8d 50 f0             	lea    -0x10(%eax),%edx
c0104129:	8b 45 e4             	mov    -0x1c(%ebp),%eax
c010412c:	89 10                	mov    %edx,(%eax)
c010412e:	8b 45 f0             	mov    -0x10(%ebp),%eax
c0104131:	8b 50 0c             	mov    0xc(%eax),%edx
c0104134:	8b 45 e4             	mov    -0x1c(%ebp),%eax
c0104137:	89 50 0c             	mov    %edx,0xc(%eax)
c010413a:	8b 45 f0             	mov    -0x10(%ebp),%eax
c010413d:	8b 50 08             	mov    0x8(%eax),%edx
c0104140:	8b 45 e4             	mov    -0x1c(%ebp),%eax
c0104143:	89 50 08             	mov    %edx,0x8(%eax)
c0104146:	8b 45 f0             	mov    -0x10(%ebp),%eax
c0104149:	8b 55 e4             	mov    -0x1c(%ebp),%edx
c010414c:	89 50 0c             	mov    %edx,0xc(%eax)
c010414f:	83 ec 04             	sub    $0x4,%esp
c0104152:	ff 75 08             	push   0x8(%ebp)
c0104155:	ff 75 e4             	push   -0x1c(%ebp)
c0104158:	68 48 8a 10 c0       	push   $0xc0108a48
c010415d:	e8 f9 f8 ff ff       	call   c0103a5b <logf>
c0104162:	83 c4 10             	add    $0x10,%esp
c0104165:	8b 45 f0             	mov    -0x10(%ebp),%eax
c0104168:	c6 40 04 01          	movb   $0x1,0x4(%eax)
c010416c:	8b 45 f0             	mov    -0x10(%ebp),%eax
c010416f:	8b 55 ec             	mov    -0x14(%ebp),%edx
c0104172:	89 50 08             	mov    %edx,0x8(%eax)
c0104175:	8b 45 f0             	mov    -0x10(%ebp),%eax
c0104178:	8b 00                	mov    (%eax),%eax
c010417a:	83 ec 04             	sub    $0x4,%esp
c010417d:	50                   	push   %eax
c010417e:	ff 75 f0             	push   -0x10(%ebp)
c0104181:	68 6c 8a 10 c0       	push   $0xc0108a6c
c0104186:	e8 d0 f8 ff ff       	call   c0103a5b <logf>
c010418b:	83 c4 10             	add    $0x10,%esp
c010418e:	8b 45 f0             	mov    -0x10(%ebp),%eax
c0104191:	83 c0 10             	add    $0x10,%eax
c0104194:	e9 8c 00 00 00       	jmp    c0104225 <kalloc+0x193>
c0104199:	8b 45 f0             	mov    -0x10(%ebp),%eax
c010419c:	89 45 ec             	mov    %eax,-0x14(%ebp)
c010419f:	8b 45 f0             	mov    -0x10(%ebp),%eax
c01041a2:	8b 00                	mov    (%eax),%eax
c01041a4:	83 c0 10             	add    $0x10,%eax
c01041a7:	01 45 f0             	add    %eax,-0x10(%ebp)
c01041aa:	a1 1c 10 11 c0       	mov    0xc011101c,%eax
c01041af:	39 45 f0             	cmp    %eax,-0x10(%ebp)
c01041b2:	0f 82 25 ff ff ff    	jb     c01040dd <kalloc+0x4b>
c01041b8:	a1 1c 10 11 c0       	mov    0xc011101c,%eax
c01041bd:	89 45 f0             	mov    %eax,-0x10(%ebp)
c01041c0:	8b 45 f0             	mov    -0x10(%ebp),%eax
c01041c3:	8b 55 ec             	mov    -0x14(%ebp),%edx
c01041c6:	89 50 08             	mov    %edx,0x8(%eax)
c01041c9:	83 7d ec 00          	cmpl   $0x0,-0x14(%ebp)
c01041cd:	74 09                	je     c01041d8 <kalloc+0x146>
c01041cf:	8b 45 ec             	mov    -0x14(%ebp),%eax
c01041d2:	8b 55 f0             	mov    -0x10(%ebp),%edx
c01041d5:	89 50 0c             	mov    %edx,0xc(%eax)
c01041d8:	8b 45 f0             	mov    -0x10(%ebp),%eax
c01041db:	8b 55 08             	mov    0x8(%ebp),%edx
c01041de:	89 10                	mov    %edx,(%eax)
c01041e0:	8b 45 f0             	mov    -0x10(%ebp),%eax
c01041e3:	c6 40 04 01          	movb   $0x1,0x4(%eax)
c01041e7:	8b 45 f0             	mov    -0x10(%ebp),%eax
c01041ea:	83 c0 10             	add    $0x10,%eax
c01041ed:	89 45 e8             	mov    %eax,-0x18(%ebp)
c01041f0:	8b 45 f0             	mov    -0x10(%ebp),%eax
c01041f3:	8b 00                	mov    (%eax),%eax
c01041f5:	8d 50 10             	lea    0x10(%eax),%edx
c01041f8:	8b 45 f0             	mov    -0x10(%ebp),%eax
c01041fb:	01 d0                	add    %edx,%eax
c01041fd:	a3 1c 10 11 c0       	mov    %eax,0xc011101c
c0104202:	8b 45 f0             	mov    -0x10(%ebp),%eax
c0104205:	8b 00                	mov    (%eax),%eax
c0104207:	83 ec 04             	sub    $0x4,%esp
c010420a:	50                   	push   %eax
c010420b:	ff 75 e8             	push   -0x18(%ebp)
c010420e:	68 6c 8a 10 c0       	push   $0xc0108a6c
c0104213:	e8 43 f8 ff ff       	call   c0103a5b <logf>
c0104218:	83 c4 10             	add    $0x10,%esp
c010421b:	80 7d f7 00          	cmpb   $0x0,-0x9(%ebp)
c010421f:	74 01                	je     c0104222 <kalloc+0x190>
c0104221:	fb                   	sti
c0104222:	8b 45 e8             	mov    -0x18(%ebp),%eax
c0104225:	c9                   	leave
c0104226:	c3                   	ret

c0104227 <kfree>:
c0104227:	55                   	push   %ebp
c0104228:	89 e5                	mov    %esp,%ebp
c010422a:	83 ec 18             	sub    $0x18,%esp
c010422d:	8b 45 08             	mov    0x8(%ebp),%eax
c0104230:	83 e8 10             	sub    $0x10,%eax
c0104233:	89 45 f4             	mov    %eax,-0xc(%ebp)
c0104236:	8b 45 f4             	mov    -0xc(%ebp),%eax
c0104239:	c6 40 04 00          	movb   $0x0,0x4(%eax)
c010423d:	8b 45 f4             	mov    -0xc(%ebp),%eax
c0104240:	8b 40 0c             	mov    0xc(%eax),%eax
c0104243:	89 45 f0             	mov    %eax,-0x10(%ebp)
c0104246:	8b 45 f4             	mov    -0xc(%ebp),%eax
c0104249:	8b 40 08             	mov    0x8(%eax),%eax
c010424c:	89 45 ec             	mov    %eax,-0x14(%ebp)
c010424f:	83 7d f0 00          	cmpl   $0x0,-0x10(%ebp)
c0104253:	74 4d                	je     c01042a2 <kfree+0x7b>
c0104255:	8b 45 f0             	mov    -0x10(%ebp),%eax
c0104258:	0f b6 40 04          	movzbl 0x4(%eax),%eax
c010425c:	84 c0                	test   %al,%al
c010425e:	75 42                	jne    c01042a2 <kfree+0x7b>
c0104260:	8b 45 f4             	mov    -0xc(%ebp),%eax
c0104263:	8b 10                	mov    (%eax),%edx
c0104265:	8b 45 f0             	mov    -0x10(%ebp),%eax
c0104268:	8b 00                	mov    (%eax),%eax
c010426a:	01 d0                	add    %edx,%eax
c010426c:	8d 50 10             	lea    0x10(%eax),%edx
c010426f:	8b 45 f4             	mov    -0xc(%ebp),%eax
c0104272:	89 10                	mov    %edx,(%eax)
c0104274:	8b 45 f0             	mov    -0x10(%ebp),%eax
c0104277:	c7 00 00 00 00 00    	movl   $0x0,(%eax)
c010427d:	8b 45 f0             	mov    -0x10(%ebp),%eax
c0104280:	8b 50 0c             	mov    0xc(%eax),%edx
c0104283:	8b 45 f4             	mov    -0xc(%ebp),%eax
c0104286:	89 50 0c             	mov    %edx,0xc(%eax)
c0104289:	8b 45 f4             	mov    -0xc(%ebp),%eax
c010428c:	8b 00                	mov    (%eax),%eax
c010428e:	50                   	push   %eax
c010428f:	ff 75 f0             	push   -0x10(%ebp)
c0104292:	ff 75 f4             	push   -0xc(%ebp)
c0104295:	68 94 8a 10 c0       	push   $0xc0108a94
c010429a:	e8 bc f7 ff ff       	call   c0103a5b <logf>
c010429f:	83 c4 10             	add    $0x10,%esp
c01042a2:	83 7d ec 00          	cmpl   $0x0,-0x14(%ebp)
c01042a6:	74 77                	je     c010431f <kfree+0xf8>
c01042a8:	8b 45 ec             	mov    -0x14(%ebp),%eax
c01042ab:	0f b6 40 04          	movzbl 0x4(%eax),%eax
c01042af:	84 c0                	test   %al,%al
c01042b1:	75 6c                	jne    c010431f <kfree+0xf8>
c01042b3:	8b 45 ec             	mov    -0x14(%ebp),%eax
c01042b6:	8b 10                	mov    (%eax),%edx
c01042b8:	8b 45 f4             	mov    -0xc(%ebp),%eax
c01042bb:	8b 00                	mov    (%eax),%eax
c01042bd:	01 d0                	add    %edx,%eax
c01042bf:	8d 50 10             	lea    0x10(%eax),%edx
c01042c2:	8b 45 ec             	mov    -0x14(%ebp),%eax
c01042c5:	89 10                	mov    %edx,(%eax)
c01042c7:	8b 45 f4             	mov    -0xc(%ebp),%eax
c01042ca:	c7 00 00 00 00 00    	movl   $0x0,(%eax)
c01042d0:	8b 45 f4             	mov    -0xc(%ebp),%eax
c01042d3:	c7 40 08 00 00 00 00 	movl   $0x0,0x8(%eax)
c01042da:	8b 45 f4             	mov    -0xc(%ebp),%eax
c01042dd:	8b 50 0c             	mov    0xc(%eax),%edx
c01042e0:	8b 45 ec             	mov    -0x14(%ebp),%eax
c01042e3:	89 50 0c             	mov    %edx,0xc(%eax)
c01042e6:	8b 45 f4             	mov    -0xc(%ebp),%eax
c01042e9:	8b 40 0c             	mov    0xc(%eax),%eax
c01042ec:	85 c0                	test   %eax,%eax
c01042ee:	74 16                	je     c0104306 <kfree+0xdf>
c01042f0:	8b 45 f4             	mov    -0xc(%ebp),%eax
c01042f3:	8b 40 0c             	mov    0xc(%eax),%eax
c01042f6:	8b 55 ec             	mov    -0x14(%ebp),%edx
c01042f9:	89 50 08             	mov    %edx,0x8(%eax)
c01042fc:	8b 45 f4             	mov    -0xc(%ebp),%eax
c01042ff:	c7 40 0c 00 00 00 00 	movl   $0x0,0xc(%eax)
c0104306:	8b 45 ec             	mov    -0x14(%ebp),%eax
c0104309:	8b 00                	mov    (%eax),%eax
c010430b:	50                   	push   %eax
c010430c:	ff 75 f4             	push   -0xc(%ebp)
c010430f:	ff 75 ec             	push   -0x14(%ebp)
c0104312:	68 94 8a 10 c0       	push   $0xc0108a94
c0104317:	e8 3f f7 ff ff       	call   c0103a5b <logf>
c010431c:	83 c4 10             	add    $0x10,%esp
c010431f:	90                   	nop
c0104320:	c9                   	leave
c0104321:	c3                   	ret

c0104322 <isr_frame_as>:
c0104322:	55                   	push   %ebp
c0104323:	50                   	push   %eax
c0104324:	53                   	push   %ebx
c0104325:	51                   	push   %ecx
c0104326:	52                   	push   %edx
c0104327:	56                   	push   %esi
c0104328:	57                   	push   %edi
c0104329:	55                   	push   %ebp
c010432a:	0f 20 c0             	mov    %cr0,%eax
c010432d:	50                   	push   %eax
c010432e:	0f 20 d0             	mov    %cr2,%eax
c0104331:	50                   	push   %eax
c0104332:	0f 20 d8             	mov    %cr3,%eax
c0104335:	50                   	push   %eax
c0104336:	e8 2d e7 ff ff       	call   c0102a68 <isr_handler>
c010433b:	58                   	pop    %eax
c010433c:	0f 22 d8             	mov    %eax,%cr3
c010433f:	58                   	pop    %eax
c0104340:	0f 22 d0             	mov    %eax,%cr2
c0104343:	58                   	pop    %eax
c0104344:	0f 22 c0             	mov    %eax,%cr0
c0104347:	5d                   	pop    %ebp
c0104348:	5f                   	pop    %edi
c0104349:	5e                   	pop    %esi
c010434a:	5a                   	pop    %edx
c010434b:	59                   	pop    %ecx
c010434c:	5b                   	pop    %ebx
c010434d:	58                   	pop    %eax
c010434e:	5d                   	pop    %ebp
c010434f:	83 c4 08             	add    $0x8,%esp
c0104352:	fb                   	sti
c0104353:	cf                   	iret

c0104354 <irq_frame>:
c0104354:	55                   	push   %ebp
c0104355:	50                   	push   %eax
c0104356:	53                   	push   %ebx
c0104357:	51                   	push   %ecx
c0104358:	52                   	push   %edx
c0104359:	56                   	push   %esi
c010435a:	57                   	push   %edi
c010435b:	89 e0                	mov    %esp,%eax
c010435d:	83 c0 30             	add    $0x30,%eax
c0104360:	50                   	push   %eax
c0104361:	0f 20 c0             	mov    %cr0,%eax
c0104364:	50                   	push   %eax
c0104365:	0f 20 d0             	mov    %cr2,%eax
c0104368:	50                   	push   %eax
c0104369:	0f 20 d8             	mov    %cr3,%eax
c010436c:	50                   	push   %eax
c010436d:	54                   	push   %esp
c010436e:	e8 4f e6 ff ff       	call   c01029c2 <irq_handler>
c0104373:	8b 18                	mov    (%eax),%ebx
c0104375:	8b 60 0c             	mov    0xc(%eax),%esp
c0104378:	0f 20 d9             	mov    %cr3,%ecx
c010437b:	0f 22 d9             	mov    %ecx,%cr3
c010437e:	ff 70 3c             	push   0x3c(%eax)
c0104381:	ff 70 38             	push   0x38(%eax)
c0104384:	ff 70 34             	push   0x34(%eax)
c0104387:	ff 70 24             	push   0x24(%eax)
c010438a:	8b 58 04             	mov    0x4(%eax),%ebx
c010438d:	0f 22 d3             	mov    %ebx,%cr2
c0104390:	8b 58 08             	mov    0x8(%eax),%ebx
c0104393:	0f 22 c3             	mov    %ebx,%cr0
c0104396:	8b 78 10             	mov    0x10(%eax),%edi
c0104399:	8b 70 14             	mov    0x14(%eax),%esi
c010439c:	8b 50 18             	mov    0x18(%eax),%edx
c010439f:	8b 48 1c             	mov    0x1c(%eax),%ecx
c01043a2:	8b 58 20             	mov    0x20(%eax),%ebx
c01043a5:	8b 68 28             	mov    0x28(%eax),%ebp
c01043a8:	58                   	pop    %eax
c01043a9:	cf                   	iret

c01043aa <process_switch_frame>:
c01043aa:	ff 70 0c             	push   0xc(%eax)
c01043ad:	ff 70 08             	push   0x8(%eax)
c01043b0:	ff 70 04             	push   0x4(%eax)
c01043b3:	6a 00                	push   $0x0
c01043b5:	6a 30                	push   $0x30
c01043b7:	55                   	push   %ebp
c01043b8:	ff 30                	push   (%eax)
c01043ba:	53                   	push   %ebx
c01043bb:	51                   	push   %ecx
c01043bc:	52                   	push   %edx
c01043bd:	56                   	push   %esi
c01043be:	57                   	push   %edi
c01043bf:	83 c0 10             	add    $0x10,%eax
c01043c2:	50                   	push   %eax
c01043c3:	0f 20 c0             	mov    %cr0,%eax
c01043c6:	50                   	push   %eax
c01043c7:	0f 20 d0             	mov    %cr2,%eax
c01043ca:	50                   	push   %eax
c01043cb:	0f 20 d8             	mov    %cr3,%eax
c01043ce:	50                   	push   %eax
c01043cf:	54                   	push   %esp
c01043d0:	e8 ed e5 ff ff       	call   c01029c2 <irq_handler>
c01043d5:	8b 60 0c             	mov    0xc(%eax),%esp
c01043d8:	0f 20 d9             	mov    %cr3,%ecx
c01043db:	0f 22 d9             	mov    %ecx,%cr3
c01043de:	ff 70 3c             	push   0x3c(%eax)
c01043e1:	ff 70 38             	push   0x38(%eax)
c01043e4:	ff 70 34             	push   0x34(%eax)
c01043e7:	ff 70 24             	push   0x24(%eax)
c01043ea:	8b 58 04             	mov    0x4(%eax),%ebx
c01043ed:	0f 22 d3             	mov    %ebx,%cr2
c01043f0:	8b 58 08             	mov    0x8(%eax),%ebx
c01043f3:	0f 22 c3             	mov    %ebx,%cr0
c01043f6:	8b 78 10             	mov    0x10(%eax),%edi
c01043f9:	8b 70 14             	mov    0x14(%eax),%esi
c01043fc:	8b 50 18             	mov    0x18(%eax),%edx
c01043ff:	8b 48 1c             	mov    0x1c(%eax),%ecx
c0104402:	8b 58 20             	mov    0x20(%eax),%ebx
c0104405:	8b 68 28             	mov    0x28(%eax),%ebp
c0104408:	58                   	pop    %eax
c0104409:	cf                   	iret

c010440a <irq_stub_128>:
c010440a:	fa                   	cli
c010440b:	89 25 74 e0 10 c0    	mov    %esp,0xc010e074
c0104411:	8b 25 70 e0 10 c0    	mov    0xc010e070,%esp
c0104417:	6a 04                	push   $0x4
c0104419:	e8 0a e3 ff ff       	call   c0102728 <kernel_stack_fn>
c010441e:	83 c4 04             	add    $0x4,%esp
c0104421:	89 25 70 e0 10 c0    	mov    %esp,0xc010e070
c0104427:	8b 25 74 e0 10 c0    	mov    0xc010e074,%esp
c010442d:	89 e0                	mov    %esp,%eax
c010442f:	cf                   	iret

c0104430 <irq_stub_48>:
c0104430:	fa                   	cli
c0104431:	50                   	push   %eax
c0104432:	89 e0                	mov    %esp,%eax
c0104434:	bc dc 20 11 c0       	mov    $0xc01120dc,%esp
c0104439:	e9 6c ff ff ff       	jmp    c01043aa <process_switch_frame>

c010443e <isr_stub_0>:
c010443e:	fa                   	cli
c010443f:	6a 00                	push   $0x0
c0104441:	6a 00                	push   $0x0
c0104443:	e9 da fe ff ff       	jmp    c0104322 <isr_frame_as>

c0104448 <isr_stub_1>:
c0104448:	fa                   	cli
c0104449:	6a 00                	push   $0x0
c010444b:	6a 01                	push   $0x1
c010444d:	e9 d0 fe ff ff       	jmp    c0104322 <isr_frame_as>

c0104452 <isr_stub_2>:
c0104452:	fa                   	cli
c0104453:	6a 00                	push   $0x0
c0104455:	6a 02                	push   $0x2
c0104457:	e9 c6 fe ff ff       	jmp    c0104322 <isr_frame_as>

c010445c <isr_stub_3>:
c010445c:	fa                   	cli
c010445d:	6a 00                	push   $0x0
c010445f:	6a 03                	push   $0x3
c0104461:	e9 bc fe ff ff       	jmp    c0104322 <isr_frame_as>

c0104466 <isr_stub_4>:
c0104466:	fa                   	cli
c0104467:	6a 00                	push   $0x0
c0104469:	6a 04                	push   $0x4
c010446b:	e9 b2 fe ff ff       	jmp    c0104322 <isr_frame_as>

c0104470 <isr_stub_5>:
c0104470:	fa                   	cli
c0104471:	6a 00                	push   $0x0
c0104473:	6a 05                	push   $0x5
c0104475:	e9 a8 fe ff ff       	jmp    c0104322 <isr_frame_as>

c010447a <isr_stub_6>:
c010447a:	fa                   	cli
c010447b:	6a 00                	push   $0x0
c010447d:	6a 06                	push   $0x6
c010447f:	e9 9e fe ff ff       	jmp    c0104322 <isr_frame_as>

c0104484 <isr_stub_7>:
c0104484:	fa                   	cli
c0104485:	6a 00                	push   $0x0
c0104487:	6a 07                	push   $0x7
c0104489:	e9 94 fe ff ff       	jmp    c0104322 <isr_frame_as>

c010448e <isr_stub_8>:
c010448e:	fa                   	cli
c010448f:	6a 08                	push   $0x8
c0104491:	e9 8c fe ff ff       	jmp    c0104322 <isr_frame_as>

c0104496 <isr_stub_9>:
c0104496:	fa                   	cli
c0104497:	6a 00                	push   $0x0
c0104499:	6a 09                	push   $0x9
c010449b:	e9 82 fe ff ff       	jmp    c0104322 <isr_frame_as>

c01044a0 <isr_stub_10>:
c01044a0:	fa                   	cli
c01044a1:	6a 0a                	push   $0xa
c01044a3:	e9 7a fe ff ff       	jmp    c0104322 <isr_frame_as>

c01044a8 <isr_stub_11>:
c01044a8:	fa                   	cli
c01044a9:	6a 0b                	push   $0xb
c01044ab:	e9 72 fe ff ff       	jmp    c0104322 <isr_frame_as>

c01044b0 <isr_stub_12>:
c01044b0:	fa                   	cli
c01044b1:	6a 0c                	push   $0xc
c01044b3:	e9 6a fe ff ff       	jmp    c0104322 <isr_frame_as>

c01044b8 <isr_stub_13>:
c01044b8:	fa                   	cli
c01044b9:	6a 0d                	push   $0xd
c01044bb:	e9 62 fe ff ff       	jmp    c0104322 <isr_frame_as>

c01044c0 <isr_stub_14>:
c01044c0:	fa                   	cli
c01044c1:	6a 0e                	push   $0xe
c01044c3:	e9 5a fe ff ff       	jmp    c0104322 <isr_frame_as>

c01044c8 <isr_stub_15>:
c01044c8:	fa                   	cli
c01044c9:	6a 00                	push   $0x0
c01044cb:	6a 0f                	push   $0xf
c01044cd:	e9 50 fe ff ff       	jmp    c0104322 <isr_frame_as>

c01044d2 <isr_stub_16>:
c01044d2:	fa                   	cli
c01044d3:	6a 00                	push   $0x0
c01044d5:	6a 10                	push   $0x10
c01044d7:	e9 46 fe ff ff       	jmp    c0104322 <isr_frame_as>

c01044dc <isr_stub_17>:
c01044dc:	fa                   	cli
c01044dd:	6a 11                	push   $0x11
c01044df:	e9 3e fe ff ff       	jmp    c0104322 <isr_frame_as>

c01044e4 <isr_stub_18>:
c01044e4:	fa                   	cli
c01044e5:	6a 00                	push   $0x0
c01044e7:	6a 12                	push   $0x12
c01044e9:	e9 34 fe ff ff       	jmp    c0104322 <isr_frame_as>

c01044ee <isr_stub_19>:
c01044ee:	fa                   	cli
c01044ef:	6a 00                	push   $0x0
c01044f1:	6a 13                	push   $0x13
c01044f3:	e9 2a fe ff ff       	jmp    c0104322 <isr_frame_as>

c01044f8 <isr_stub_20>:
c01044f8:	fa                   	cli
c01044f9:	6a 00                	push   $0x0
c01044fb:	6a 14                	push   $0x14
c01044fd:	e9 20 fe ff ff       	jmp    c0104322 <isr_frame_as>

c0104502 <isr_stub_21>:
c0104502:	fa                   	cli
c0104503:	6a 00                	push   $0x0
c0104505:	6a 15                	push   $0x15
c0104507:	e9 16 fe ff ff       	jmp    c0104322 <isr_frame_as>

c010450c <isr_stub_22>:
c010450c:	fa                   	cli
c010450d:	6a 00                	push   $0x0
c010450f:	6a 16                	push   $0x16
c0104511:	e9 0c fe ff ff       	jmp    c0104322 <isr_frame_as>

c0104516 <isr_stub_23>:
c0104516:	fa                   	cli
c0104517:	6a 00                	push   $0x0
c0104519:	6a 17                	push   $0x17
c010451b:	e9 02 fe ff ff       	jmp    c0104322 <isr_frame_as>

c0104520 <isr_stub_24>:
c0104520:	fa                   	cli
c0104521:	6a 00                	push   $0x0
c0104523:	6a 18                	push   $0x18
c0104525:	e9 f8 fd ff ff       	jmp    c0104322 <isr_frame_as>

c010452a <isr_stub_25>:
c010452a:	fa                   	cli
c010452b:	6a 00                	push   $0x0
c010452d:	6a 19                	push   $0x19
c010452f:	e9 ee fd ff ff       	jmp    c0104322 <isr_frame_as>

c0104534 <isr_stub_26>:
c0104534:	fa                   	cli
c0104535:	6a 00                	push   $0x0
c0104537:	6a 1a                	push   $0x1a
c0104539:	e9 e4 fd ff ff       	jmp    c0104322 <isr_frame_as>

c010453e <isr_stub_27>:
c010453e:	fa                   	cli
c010453f:	6a 00                	push   $0x0
c0104541:	6a 1b                	push   $0x1b
c0104543:	e9 da fd ff ff       	jmp    c0104322 <isr_frame_as>

c0104548 <isr_stub_28>:
c0104548:	fa                   	cli
c0104549:	6a 00                	push   $0x0
c010454b:	6a 1c                	push   $0x1c
c010454d:	e9 d0 fd ff ff       	jmp    c0104322 <isr_frame_as>

c0104552 <isr_stub_29>:
c0104552:	fa                   	cli
c0104553:	6a 00                	push   $0x0
c0104555:	6a 1d                	push   $0x1d
c0104557:	e9 c6 fd ff ff       	jmp    c0104322 <isr_frame_as>

c010455c <isr_stub_30>:
c010455c:	fa                   	cli
c010455d:	6a 1e                	push   $0x1e
c010455f:	e9 be fd ff ff       	jmp    c0104322 <isr_frame_as>

c0104564 <isr_stub_31>:
c0104564:	fa                   	cli
c0104565:	6a 00                	push   $0x0
c0104567:	6a 1f                	push   $0x1f
c0104569:	e9 b4 fd ff ff       	jmp    c0104322 <isr_frame_as>

c010456e <irq_stub_49>:
c010456e:	fa                   	cli
c010456f:	6a 0a                	push   $0xa
c0104571:	6a 31                	push   $0x31
c0104573:	e9 dc fd ff ff       	jmp    c0104354 <irq_frame>

c0104578 <irq_stub_50>:
c0104578:	fa                   	cli
c0104579:	6a 0a                	push   $0xa
c010457b:	6a 32                	push   $0x32
c010457d:	e9 d2 fd ff ff       	jmp    c0104354 <irq_frame>

c0104582 <io_wait>:
c0104582:	55                   	push   %ebp
c0104583:	89 e5                	mov    %esp,%ebp
c0104585:	83 ec 08             	sub    $0x8,%esp
c0104588:	83 ec 08             	sub    $0x8,%esp
c010458b:	6a 00                	push   $0x0
c010458d:	68 80 00 00 00       	push   $0x80
c0104592:	e8 b2 f1 ff ff       	call   c0103749 <outportb>
c0104597:	83 c4 10             	add    $0x10,%esp
c010459a:	90                   	nop
c010459b:	c9                   	leave
c010459c:	c3                   	ret

c010459d <get_apic_addr>:
c010459d:	55                   	push   %ebp
c010459e:	89 e5                	mov    %esp,%ebp
c01045a0:	83 ec 10             	sub    $0x10,%esp
c01045a3:	c7 45 fc 1b 00 00 00 	movl   $0x1b,-0x4(%ebp)
c01045aa:	c7 45 f8 00 00 00 00 	movl   $0x0,-0x8(%ebp)
c01045b1:	c7 45 f4 00 00 00 00 	movl   $0x0,-0xc(%ebp)
c01045b8:	8b 45 fc             	mov    -0x4(%ebp),%eax
c01045bb:	89 c1                	mov    %eax,%ecx
c01045bd:	0f 32                	rdmsr
c01045bf:	89 45 f8             	mov    %eax,-0x8(%ebp)
c01045c2:	89 55 f4             	mov    %edx,-0xc(%ebp)
c01045c5:	8b 45 f8             	mov    -0x8(%ebp),%eax
c01045c8:	25 00 f0 ff ff       	and    $0xfffff000,%eax
c01045cd:	c9                   	leave
c01045ce:	c3                   	ret

c01045cf <get_cpuid>:
c01045cf:	55                   	push   %ebp
c01045d0:	89 e5                	mov    %esp,%ebp
c01045d2:	53                   	push   %ebx
c01045d3:	83 ec 24             	sub    $0x24,%esp
c01045d6:	c7 45 f4 00 00 00 00 	movl   $0x0,-0xc(%ebp)
c01045dd:	c7 45 f0 00 00 00 00 	movl   $0x0,-0x10(%ebp)
c01045e4:	c7 45 ec 00 00 00 00 	movl   $0x0,-0x14(%ebp)
c01045eb:	c7 45 e8 00 00 00 00 	movl   $0x0,-0x18(%ebp)
c01045f2:	8b 45 0c             	mov    0xc(%ebp),%eax
c01045f5:	89 c0                	mov    %eax,%eax
c01045f7:	0f a2                	cpuid
c01045f9:	89 45 f4             	mov    %eax,-0xc(%ebp)
c01045fc:	89 5d f0             	mov    %ebx,-0x10(%ebp)
c01045ff:	89 4d ec             	mov    %ecx,-0x14(%ebp)
c0104602:	89 55 e8             	mov    %edx,-0x18(%ebp)
c0104605:	8b 45 f4             	mov    -0xc(%ebp),%eax
c0104608:	89 45 d8             	mov    %eax,-0x28(%ebp)
c010460b:	8b 45 f0             	mov    -0x10(%ebp),%eax
c010460e:	89 45 dc             	mov    %eax,-0x24(%ebp)
c0104611:	8b 45 ec             	mov    -0x14(%ebp),%eax
c0104614:	89 45 e0             	mov    %eax,-0x20(%ebp)
c0104617:	8b 45 e8             	mov    -0x18(%ebp),%eax
c010461a:	89 45 e4             	mov    %eax,-0x1c(%ebp)
c010461d:	8b 5d e8             	mov    -0x18(%ebp),%ebx
c0104620:	8b 4d ec             	mov    -0x14(%ebp),%ecx
c0104623:	8b 55 f0             	mov    -0x10(%ebp),%edx
c0104626:	8b 45 f4             	mov    -0xc(%ebp),%eax
c0104629:	83 ec 08             	sub    $0x8,%esp
c010462c:	53                   	push   %ebx
c010462d:	51                   	push   %ecx
c010462e:	52                   	push   %edx
c010462f:	50                   	push   %eax
c0104630:	ff 75 0c             	push   0xc(%ebp)
c0104633:	68 d0 8a 10 c0       	push   $0xc0108ad0
c0104638:	e8 1e f4 ff ff       	call   c0103a5b <logf>
c010463d:	83 c4 20             	add    $0x20,%esp
c0104640:	8b 45 08             	mov    0x8(%ebp),%eax
c0104643:	8b 55 d8             	mov    -0x28(%ebp),%edx
c0104646:	89 10                	mov    %edx,(%eax)
c0104648:	8b 55 dc             	mov    -0x24(%ebp),%edx
c010464b:	89 50 04             	mov    %edx,0x4(%eax)
c010464e:	8b 55 e0             	mov    -0x20(%ebp),%edx
c0104651:	89 50 08             	mov    %edx,0x8(%eax)
c0104654:	8b 55 e4             	mov    -0x1c(%ebp),%edx
c0104657:	89 50 0c             	mov    %edx,0xc(%eax)
c010465a:	8b 45 08             	mov    0x8(%ebp),%eax
c010465d:	8b 5d fc             	mov    -0x4(%ebp),%ebx
c0104660:	c9                   	leave
c0104661:	c2 04 00             	ret    $0x4

c0104664 <read_ioapic_register>:
c0104664:	55                   	push   %ebp
c0104665:	89 e5                	mov    %esp,%ebp
c0104667:	83 ec 10             	sub    $0x10,%esp
c010466a:	a1 24 10 11 c0       	mov    0xc0111024,%eax
c010466f:	8b 55 08             	mov    0x8(%ebp),%edx
c0104672:	89 10                	mov    %edx,(%eax)
c0104674:	a1 24 10 11 c0       	mov    0xc0111024,%eax
c0104679:	83 c0 10             	add    $0x10,%eax
c010467c:	89 45 fc             	mov    %eax,-0x4(%ebp)
c010467f:	8b 45 fc             	mov    -0x4(%ebp),%eax
c0104682:	8b 00                	mov    (%eax),%eax
c0104684:	c9                   	leave
c0104685:	c3                   	ret

c0104686 <write_ioapic_register>:
c0104686:	55                   	push   %ebp
c0104687:	89 e5                	mov    %esp,%ebp
c0104689:	83 ec 10             	sub    $0x10,%esp
c010468c:	a1 24 10 11 c0       	mov    0xc0111024,%eax
c0104691:	8b 55 08             	mov    0x8(%ebp),%edx
c0104694:	89 10                	mov    %edx,(%eax)
c0104696:	a1 24 10 11 c0       	mov    0xc0111024,%eax
c010469b:	83 c0 10             	add    $0x10,%eax
c010469e:	89 45 fc             	mov    %eax,-0x4(%ebp)
c01046a1:	8b 45 fc             	mov    -0x4(%ebp),%eax
c01046a4:	8b 55 0c             	mov    0xc(%ebp),%edx
c01046a7:	89 10                	mov    %edx,(%eax)
c01046a9:	90                   	nop
c01046aa:	c9                   	leave
c01046ab:	c3                   	ret

c01046ac <ioapic_pit_irq>:
c01046ac:	55                   	push   %ebp
c01046ad:	89 e5                	mov    %esp,%ebp
c01046af:	83 ec 18             	sub    $0x18,%esp
c01046b2:	c6 45 f7 01          	movb   $0x1,-0x9(%ebp)
c01046b6:	c7 45 f0 00 00 00 00 	movl   $0x0,-0x10(%ebp)
c01046bd:	0f b6 45 f7          	movzbl -0x9(%ebp),%eax
c01046c1:	83 ec 08             	sub    $0x8,%esp
c01046c4:	50                   	push   %eax
c01046c5:	6a 02                	push   $0x2
c01046c7:	e8 06 d7 ff ff       	call   c0101dd2 <parse_MADT>
c01046cc:	83 c4 10             	add    $0x10,%esp
c01046cf:	89 45 f0             	mov    %eax,-0x10(%ebp)
c01046d2:	eb 29                	jmp    c01046fd <ioapic_pit_irq+0x51>
c01046d4:	8b 45 f0             	mov    -0x10(%ebp),%eax
c01046d7:	0f b6 00             	movzbl (%eax),%eax
c01046da:	84 c0                	test   %al,%al
c01046dc:	74 27                	je     c0104705 <ioapic_pit_irq+0x59>
c01046de:	0f b6 45 f7          	movzbl -0x9(%ebp),%eax
c01046e2:	83 ec 08             	sub    $0x8,%esp
c01046e5:	50                   	push   %eax
c01046e6:	6a 02                	push   $0x2
c01046e8:	e8 e5 d6 ff ff       	call   c0101dd2 <parse_MADT>
c01046ed:	83 c4 10             	add    $0x10,%esp
c01046f0:	89 45 f0             	mov    %eax,-0x10(%ebp)
c01046f3:	0f b6 45 f7          	movzbl -0x9(%ebp),%eax
c01046f7:	83 c0 01             	add    $0x1,%eax
c01046fa:	88 45 f7             	mov    %al,-0x9(%ebp)
c01046fd:	83 7d f0 00          	cmpl   $0x0,-0x10(%ebp)
c0104701:	75 d1                	jne    c01046d4 <ioapic_pit_irq+0x28>
c0104703:	eb 01                	jmp    c0104706 <ioapic_pit_irq+0x5a>
c0104705:	90                   	nop
c0104706:	8b 45 f0             	mov    -0x10(%ebp),%eax
c0104709:	8b 40 02             	mov    0x2(%eax),%eax
c010470c:	c9                   	leave
c010470d:	c3                   	ret

c010470e <init_ioapic>:
c010470e:	55                   	push   %ebp
c010470f:	89 e5                	mov    %esp,%ebp
c0104711:	83 ec 18             	sub    $0x18,%esp
c0104714:	83 ec 08             	sub    $0x8,%esp
c0104717:	6a 01                	push   $0x1
c0104719:	6a 01                	push   $0x1
c010471b:	e8 b2 d6 ff ff       	call   c0101dd2 <parse_MADT>
c0104720:	83 c4 10             	add    $0x10,%esp
c0104723:	89 45 f4             	mov    %eax,-0xc(%ebp)
c0104726:	8b 45 f4             	mov    -0xc(%ebp),%eax
c0104729:	8b 40 02             	mov    0x2(%eax),%eax
c010472c:	83 ec 04             	sub    $0x4,%esp
c010472f:	50                   	push   %eax
c0104730:	68 13 01 00 00       	push   $0x113
c0104735:	68 00 04 00 00       	push   $0x400
c010473a:	e8 3a ce ff ff       	call   c0101579 <page_kalloc>
c010473f:	83 c4 10             	add    $0x10,%esp
c0104742:	a3 24 10 11 c0       	mov    %eax,0xc0111024
c0104747:	e8 60 ff ff ff       	call   c01046ac <ioapic_pit_irq>
c010474c:	83 c0 08             	add    $0x8,%eax
c010474f:	01 c0                	add    %eax,%eax
c0104751:	88 45 f3             	mov    %al,-0xd(%ebp)
c0104754:	0f b6 45 f3          	movzbl -0xd(%ebp),%eax
c0104758:	83 ec 08             	sub    $0x8,%esp
c010475b:	6a 31                	push   $0x31
c010475d:	50                   	push   %eax
c010475e:	e8 23 ff ff ff       	call   c0104686 <write_ioapic_register>
c0104763:	83 c4 10             	add    $0x10,%esp
c0104766:	0f b6 45 f3          	movzbl -0xd(%ebp),%eax
c010476a:	83 c0 01             	add    $0x1,%eax
c010476d:	83 ec 08             	sub    $0x8,%esp
c0104770:	6a 00                	push   $0x0
c0104772:	50                   	push   %eax
c0104773:	e8 0e ff ff ff       	call   c0104686 <write_ioapic_register>
c0104778:	83 c4 10             	add    $0x10,%esp
c010477b:	83 ec 08             	sub    $0x8,%esp
c010477e:	6a 03                	push   $0x3
c0104780:	6a 02                	push   $0x2
c0104782:	e8 4b d6 ff ff       	call   c0101dd2 <parse_MADT>
c0104787:	83 c4 10             	add    $0x10,%esp
c010478a:	89 45 ec             	mov    %eax,-0x14(%ebp)
c010478d:	83 7d ec 00          	cmpl   $0x0,-0x14(%ebp)
c0104791:	74 28                	je     c01047bb <init_ioapic+0xad>
c0104793:	8b 45 ec             	mov    -0x14(%ebp),%eax
c0104796:	8b 50 04             	mov    0x4(%eax),%edx
c0104799:	8b 00                	mov    (%eax),%eax
c010479b:	a3 0c a0 10 c0       	mov    %eax,0xc010a00c
c01047a0:	89 15 10 a0 10 c0    	mov    %edx,0xc010a010
c01047a6:	83 ec 08             	sub    $0x8,%esp
c01047a9:	68 0c a0 10 c0       	push   $0xc010a00c
c01047ae:	68 ff 8a 10 c0       	push   $0xc0108aff
c01047b3:	e8 a3 f2 ff ff       	call   c0103a5b <logf>
c01047b8:	83 c4 10             	add    $0x10,%esp
c01047bb:	90                   	nop
c01047bc:	c9                   	leave
c01047bd:	c3                   	ret

c01047be <print_test_try>:
c01047be:	55                   	push   %ebp
c01047bf:	89 e5                	mov    %esp,%ebp
c01047c1:	53                   	push   %ebx
c01047c2:	83 ec 04             	sub    $0x4,%esp
c01047c5:	0f b7 05 12 a0 10 c0 	movzwl 0xc010a012,%eax
c01047cc:	0f b7 d8             	movzwl %ax,%ebx
c01047cf:	8b 0d 0e a0 10 c0    	mov    0xc010a00e,%ecx
c01047d5:	0f b6 05 0d a0 10 c0 	movzbl 0xc010a00d,%eax
c01047dc:	0f b6 d0             	movzbl %al,%edx
c01047df:	0f b6 05 0c a0 10 c0 	movzbl 0xc010a00c,%eax
c01047e6:	0f b6 c0             	movzbl %al,%eax
c01047e9:	83 ec 0c             	sub    $0xc,%esp
c01047ec:	53                   	push   %ebx
c01047ed:	51                   	push   %ecx
c01047ee:	52                   	push   %edx
c01047ef:	50                   	push   %eax
c01047f0:	68 10 8b 10 c0       	push   $0xc0108b10
c01047f5:	e8 54 22 00 00       	call   c0106a4e <printf>
c01047fa:	83 c4 20             	add    $0x20,%esp
c01047fd:	90                   	nop
c01047fe:	8b 5d fc             	mov    -0x4(%ebp),%ebx
c0104801:	c9                   	leave
c0104802:	c3                   	ret

c0104803 <lapic_write_reg>:
c0104803:	55                   	push   %ebp
c0104804:	89 e5                	mov    %esp,%ebp
c0104806:	83 ec 10             	sub    $0x10,%esp
c0104809:	a1 20 10 11 c0       	mov    0xc0111020,%eax
c010480e:	89 c2                	mov    %eax,%edx
c0104810:	8b 45 08             	mov    0x8(%ebp),%eax
c0104813:	01 d0                	add    %edx,%eax
c0104815:	89 45 fc             	mov    %eax,-0x4(%ebp)
c0104818:	8b 45 fc             	mov    -0x4(%ebp),%eax
c010481b:	8b 55 0c             	mov    0xc(%ebp),%edx
c010481e:	89 10                	mov    %edx,(%eax)
c0104820:	90                   	nop
c0104821:	c9                   	leave
c0104822:	c3                   	ret

c0104823 <lapic_read_reg>:
c0104823:	55                   	push   %ebp
c0104824:	89 e5                	mov    %esp,%ebp
c0104826:	83 ec 10             	sub    $0x10,%esp
c0104829:	a1 20 10 11 c0       	mov    0xc0111020,%eax
c010482e:	89 c2                	mov    %eax,%edx
c0104830:	8b 45 08             	mov    0x8(%ebp),%eax
c0104833:	01 d0                	add    %edx,%eax
c0104835:	89 45 fc             	mov    %eax,-0x4(%ebp)
c0104838:	8b 45 fc             	mov    -0x4(%ebp),%eax
c010483b:	8b 00                	mov    (%eax),%eax
c010483d:	c9                   	leave
c010483e:	c3                   	ret

c010483f <lapic_timer_init>:
c010483f:	55                   	push   %ebp
c0104840:	89 e5                	mov    %esp,%ebp
c0104842:	83 ec 10             	sub    $0x10,%esp
c0104845:	a1 20 10 11 c0       	mov    0xc0111020,%eax
c010484a:	05 20 03 00 00       	add    $0x320,%eax
c010484f:	89 45 fc             	mov    %eax,-0x4(%ebp)
c0104852:	8b 45 fc             	mov    -0x4(%ebp),%eax
c0104855:	c7 00 30 00 01 00    	movl   $0x10030,(%eax)
c010485b:	90                   	nop
c010485c:	c9                   	leave
c010485d:	c3                   	ret

c010485e <set_initial_lapic_timer_count>:
c010485e:	55                   	push   %ebp
c010485f:	89 e5                	mov    %esp,%ebp
c0104861:	83 ec 10             	sub    $0x10,%esp
c0104864:	a1 20 10 11 c0       	mov    0xc0111020,%eax
c0104869:	05 80 03 00 00       	add    $0x380,%eax
c010486e:	89 45 fc             	mov    %eax,-0x4(%ebp)
c0104871:	8b 45 fc             	mov    -0x4(%ebp),%eax
c0104874:	8b 55 08             	mov    0x8(%ebp),%edx
c0104877:	89 10                	mov    %edx,(%eax)
c0104879:	90                   	nop
c010487a:	c9                   	leave
c010487b:	c3                   	ret

c010487c <get_lapic_timer_count>:
c010487c:	55                   	push   %ebp
c010487d:	89 e5                	mov    %esp,%ebp
c010487f:	68 90 03 00 00       	push   $0x390
c0104884:	e8 9a ff ff ff       	call   c0104823 <lapic_read_reg>
c0104889:	83 c4 04             	add    $0x4,%esp
c010488c:	c9                   	leave
c010488d:	c3                   	ret

c010488e <send_EOI>:
c010488e:	55                   	push   %ebp
c010488f:	89 e5                	mov    %esp,%ebp
c0104891:	83 ec 10             	sub    $0x10,%esp
c0104894:	8b 45 08             	mov    0x8(%ebp),%eax
c0104897:	05 b0 00 00 00       	add    $0xb0,%eax
c010489c:	89 45 fc             	mov    %eax,-0x4(%ebp)
c010489f:	8b 45 fc             	mov    -0x4(%ebp),%eax
c01048a2:	c7 00 00 00 00 00    	movl   $0x0,(%eax)
c01048a8:	90                   	nop
c01048a9:	c9                   	leave
c01048aa:	c3                   	ret

c01048ab <init_apic>:
c01048ab:	55                   	push   %ebp
c01048ac:	89 e5                	mov    %esp,%ebp
c01048ae:	83 ec 18             	sub    $0x18,%esp
c01048b1:	83 ec 0c             	sub    $0xc,%esp
c01048b4:	68 38 8b 10 c0       	push   $0xc0108b38
c01048b9:	e8 9d f1 ff ff       	call   c0103a5b <logf>
c01048be:	83 c4 10             	add    $0x10,%esp
c01048c1:	e8 d7 fc ff ff       	call   c010459d <get_apic_addr>
c01048c6:	83 ec 04             	sub    $0x4,%esp
c01048c9:	50                   	push   %eax
c01048ca:	6a 03                	push   $0x3
c01048cc:	68 00 10 00 00       	push   $0x1000
c01048d1:	e8 a3 cc ff ff       	call   c0101579 <page_kalloc>
c01048d6:	83 c4 10             	add    $0x10,%esp
c01048d9:	a3 20 10 11 c0       	mov    %eax,0xc0111020
c01048de:	a1 20 10 11 c0       	mov    0xc0111020,%eax
c01048e3:	05 f0 00 00 00       	add    $0xf0,%eax
c01048e8:	89 45 f4             	mov    %eax,-0xc(%ebp)
c01048eb:	8b 45 f4             	mov    -0xc(%ebp),%eax
c01048ee:	8b 00                	mov    (%eax),%eax
c01048f0:	0d ff 01 00 00       	or     $0x1ff,%eax
c01048f5:	89 c2                	mov    %eax,%edx
c01048f7:	8b 45 f4             	mov    -0xc(%ebp),%eax
c01048fa:	89 10                	mov    %edx,(%eax)
c01048fc:	c7 45 f0 00 00 00 00 	movl   $0x0,-0x10(%ebp)
c0104903:	83 ec 0c             	sub    $0xc,%esp
c0104906:	6a 20                	push   $0x20
c0104908:	e8 16 ff ff ff       	call   c0104823 <lapic_read_reg>
c010490d:	83 c4 10             	add    $0x10,%esp
c0104910:	89 45 f0             	mov    %eax,-0x10(%ebp)
c0104913:	83 ec 08             	sub    $0x8,%esp
c0104916:	ff 75 f0             	push   -0x10(%ebp)
c0104919:	68 60 8b 10 c0       	push   $0xc0108b60
c010491e:	e8 38 f1 ff ff       	call   c0103a5b <logf>
c0104923:	83 c4 10             	add    $0x10,%esp
c0104926:	e8 14 ff ff ff       	call   c010483f <lapic_timer_init>
c010492b:	e8 de fd ff ff       	call   c010470e <init_ioapic>
c0104930:	e8 03 00 00 00       	call   c0104938 <calibrate_timer>
c0104935:	90                   	nop
c0104936:	c9                   	leave
c0104937:	c3                   	ret

c0104938 <calibrate_timer>:
c0104938:	55                   	push   %ebp
c0104939:	89 e5                	mov    %esp,%ebp
c010493b:	83 ec 18             	sub    $0x18,%esp
c010493e:	c7 45 f4 00 00 00 00 	movl   $0x0,-0xc(%ebp)
c0104945:	68 00 00 01 00       	push   $0x10000
c010494a:	68 20 03 00 00       	push   $0x320
c010494f:	e8 af fe ff ff       	call   c0104803 <lapic_write_reg>
c0104954:	83 c4 08             	add    $0x8,%esp
c0104957:	c7 45 f0 00 00 00 00 	movl   $0x0,-0x10(%ebp)
c010495e:	eb 50                	jmp    c01049b0 <calibrate_timer+0x78>
c0104960:	c7 05 2c 10 11 c0 01 	movl   $0x1,0xc011102c
c0104967:	00 00 00 
c010496a:	83 ec 0c             	sub    $0xc,%esp
c010496d:	68 c2 2e 00 00       	push   $0x2ec2
c0104972:	e8 91 00 00 00       	call   c0104a08 <set_pit_one_shot>
c0104977:	83 c4 10             	add    $0x10,%esp
c010497a:	83 ec 0c             	sub    $0xc,%esp
c010497d:	6a ff                	push   $0xffffffff
c010497f:	e8 da fe ff ff       	call   c010485e <set_initial_lapic_timer_count>
c0104984:	83 c4 10             	add    $0x10,%esp
c0104987:	90                   	nop
c0104988:	a1 2c 10 11 c0       	mov    0xc011102c,%eax
c010498d:	85 c0                	test   %eax,%eax
c010498f:	75 f7                	jne    c0104988 <calibrate_timer+0x50>
c0104991:	83 ec 0c             	sub    $0xc,%esp
c0104994:	68 90 03 00 00       	push   $0x390
c0104999:	e8 85 fe ff ff       	call   c0104823 <lapic_read_reg>
c010499e:	83 c4 10             	add    $0x10,%esp
c01049a1:	f7 d0                	not    %eax
c01049a3:	89 45 ec             	mov    %eax,-0x14(%ebp)
c01049a6:	8b 45 ec             	mov    -0x14(%ebp),%eax
c01049a9:	01 45 f4             	add    %eax,-0xc(%ebp)
c01049ac:	83 45 f0 01          	addl   $0x1,-0x10(%ebp)
c01049b0:	83 7d f0 09          	cmpl   $0x9,-0x10(%ebp)
c01049b4:	7e aa                	jle    c0104960 <calibrate_timer+0x28>
c01049b6:	8b 45 f4             	mov    -0xc(%ebp),%eax
c01049b9:	ba 1f 85 eb 51       	mov    $0x51eb851f,%edx
c01049be:	f7 e2                	mul    %edx
c01049c0:	89 d0                	mov    %edx,%eax
c01049c2:	c1 e8 05             	shr    $0x5,%eax
c01049c5:	a3 28 10 11 c0       	mov    %eax,0xc0111028
c01049ca:	a1 28 10 11 c0       	mov    0xc0111028,%eax
c01049cf:	83 ec 08             	sub    $0x8,%esp
c01049d2:	50                   	push   %eax
c01049d3:	68 74 8b 10 c0       	push   $0xc0108b74
c01049d8:	e8 7e f0 ff ff       	call   c0103a5b <logf>
c01049dd:	83 c4 10             	add    $0x10,%esp
c01049e0:	83 ec 08             	sub    $0x8,%esp
c01049e3:	68 30 00 02 00       	push   $0x20030
c01049e8:	68 20 03 00 00       	push   $0x320
c01049ed:	e8 11 fe ff ff       	call   c0104803 <lapic_write_reg>
c01049f2:	83 c4 10             	add    $0x10,%esp
c01049f5:	90                   	nop
c01049f6:	c9                   	leave
c01049f7:	c3                   	ret

c01049f8 <end_calibration>:
c01049f8:	55                   	push   %ebp
c01049f9:	89 e5                	mov    %esp,%ebp
c01049fb:	c7 05 2c 10 11 c0 00 	movl   $0x0,0xc011102c
c0104a02:	00 00 00 
c0104a05:	90                   	nop
c0104a06:	5d                   	pop    %ebp
c0104a07:	c3                   	ret

c0104a08 <set_pit_one_shot>:
c0104a08:	55                   	push   %ebp
c0104a09:	89 e5                	mov    %esp,%ebp
c0104a0b:	83 ec 18             	sub    $0x18,%esp
c0104a0e:	8b 45 08             	mov    0x8(%ebp),%eax
c0104a11:	66 89 45 f4          	mov    %ax,-0xc(%ebp)
c0104a15:	83 ec 08             	sub    $0x8,%esp
c0104a18:	6a 30                	push   $0x30
c0104a1a:	6a 43                	push   $0x43
c0104a1c:	e8 28 ed ff ff       	call   c0103749 <outportb>
c0104a21:	83 c4 10             	add    $0x10,%esp
c0104a24:	0f b7 45 f4          	movzwl -0xc(%ebp),%eax
c0104a28:	0f b6 c0             	movzbl %al,%eax
c0104a2b:	83 ec 08             	sub    $0x8,%esp
c0104a2e:	50                   	push   %eax
c0104a2f:	6a 40                	push   $0x40
c0104a31:	e8 13 ed ff ff       	call   c0103749 <outportb>
c0104a36:	83 c4 10             	add    $0x10,%esp
c0104a39:	0f b7 45 f4          	movzwl -0xc(%ebp),%eax
c0104a3d:	66 c1 e8 08          	shr    $0x8,%ax
c0104a41:	0f b6 c0             	movzbl %al,%eax
c0104a44:	83 ec 08             	sub    $0x8,%esp
c0104a47:	50                   	push   %eax
c0104a48:	6a 40                	push   $0x40
c0104a4a:	e8 fa ec ff ff       	call   c0103749 <outportb>
c0104a4f:	83 c4 10             	add    $0x10,%esp
c0104a52:	90                   	nop
c0104a53:	c9                   	leave
c0104a54:	c3                   	ret

c0104a55 <disable_pic>:
c0104a55:	55                   	push   %ebp
c0104a56:	89 e5                	mov    %esp,%ebp
c0104a58:	83 ec 08             	sub    $0x8,%esp
c0104a5b:	83 ec 08             	sub    $0x8,%esp
c0104a5e:	6a 11                	push   $0x11
c0104a60:	6a 20                	push   $0x20
c0104a62:	e8 e2 ec ff ff       	call   c0103749 <outportb>
c0104a67:	83 c4 10             	add    $0x10,%esp
c0104a6a:	e8 13 fb ff ff       	call   c0104582 <io_wait>
c0104a6f:	83 ec 08             	sub    $0x8,%esp
c0104a72:	6a 11                	push   $0x11
c0104a74:	68 a0 00 00 00       	push   $0xa0
c0104a79:	e8 cb ec ff ff       	call   c0103749 <outportb>
c0104a7e:	83 c4 10             	add    $0x10,%esp
c0104a81:	e8 fc fa ff ff       	call   c0104582 <io_wait>
c0104a86:	83 ec 08             	sub    $0x8,%esp
c0104a89:	6a 20                	push   $0x20
c0104a8b:	6a 21                	push   $0x21
c0104a8d:	e8 b7 ec ff ff       	call   c0103749 <outportb>
c0104a92:	83 c4 10             	add    $0x10,%esp
c0104a95:	e8 e8 fa ff ff       	call   c0104582 <io_wait>
c0104a9a:	83 ec 08             	sub    $0x8,%esp
c0104a9d:	6a 28                	push   $0x28
c0104a9f:	68 a1 00 00 00       	push   $0xa1
c0104aa4:	e8 a0 ec ff ff       	call   c0103749 <outportb>
c0104aa9:	83 c4 10             	add    $0x10,%esp
c0104aac:	e8 d1 fa ff ff       	call   c0104582 <io_wait>
c0104ab1:	83 ec 08             	sub    $0x8,%esp
c0104ab4:	6a 02                	push   $0x2
c0104ab6:	6a 21                	push   $0x21
c0104ab8:	e8 8c ec ff ff       	call   c0103749 <outportb>
c0104abd:	83 c4 10             	add    $0x10,%esp
c0104ac0:	e8 bd fa ff ff       	call   c0104582 <io_wait>
c0104ac5:	83 ec 08             	sub    $0x8,%esp
c0104ac8:	6a 04                	push   $0x4
c0104aca:	68 a1 00 00 00       	push   $0xa1
c0104acf:	e8 75 ec ff ff       	call   c0103749 <outportb>
c0104ad4:	83 c4 10             	add    $0x10,%esp
c0104ad7:	e8 a6 fa ff ff       	call   c0104582 <io_wait>
c0104adc:	83 ec 08             	sub    $0x8,%esp
c0104adf:	6a 01                	push   $0x1
c0104ae1:	6a 21                	push   $0x21
c0104ae3:	e8 61 ec ff ff       	call   c0103749 <outportb>
c0104ae8:	83 c4 10             	add    $0x10,%esp
c0104aeb:	e8 92 fa ff ff       	call   c0104582 <io_wait>
c0104af0:	83 ec 08             	sub    $0x8,%esp
c0104af3:	6a 01                	push   $0x1
c0104af5:	68 a1 00 00 00       	push   $0xa1
c0104afa:	e8 4a ec ff ff       	call   c0103749 <outportb>
c0104aff:	83 c4 10             	add    $0x10,%esp
c0104b02:	e8 7b fa ff ff       	call   c0104582 <io_wait>
c0104b07:	83 ec 08             	sub    $0x8,%esp
c0104b0a:	68 ff 00 00 00       	push   $0xff
c0104b0f:	6a 21                	push   $0x21
c0104b11:	e8 33 ec ff ff       	call   c0103749 <outportb>
c0104b16:	83 c4 10             	add    $0x10,%esp
c0104b19:	e8 64 fa ff ff       	call   c0104582 <io_wait>
c0104b1e:	83 ec 08             	sub    $0x8,%esp
c0104b21:	68 ff 00 00 00       	push   $0xff
c0104b26:	68 a1 00 00 00       	push   $0xa1
c0104b2b:	e8 19 ec ff ff       	call   c0103749 <outportb>
c0104b30:	83 c4 10             	add    $0x10,%esp
c0104b33:	90                   	nop
c0104b34:	c9                   	leave
c0104b35:	c3                   	ret

c0104b36 <polled_sleep>:
c0104b36:	55                   	push   %ebp
c0104b37:	89 e5                	mov    %esp,%ebp
c0104b39:	83 ec 28             	sub    $0x28,%esp
c0104b3c:	e8 3b fd ff ff       	call   c010487c <get_lapic_timer_count>
c0104b41:	89 45 f4             	mov    %eax,-0xc(%ebp)
c0104b44:	c7 45 f0 00 00 00 00 	movl   $0x0,-0x10(%ebp)
c0104b4b:	a1 28 10 11 c0       	mov    0xc0111028,%eax
c0104b50:	8b 55 08             	mov    0x8(%ebp),%edx
c0104b53:	0f af c2             	imul   %edx,%eax
c0104b56:	89 45 ec             	mov    %eax,-0x14(%ebp)
c0104b59:	c7 45 e8 00 00 00 00 	movl   $0x0,-0x18(%ebp)
c0104b60:	c7 45 e4 00 00 00 00 	movl   $0x0,-0x1c(%ebp)
c0104b67:	83 ec 0c             	sub    $0xc,%esp
c0104b6a:	ff 75 ec             	push   -0x14(%ebp)
c0104b6d:	e8 1e 00 00 00       	call   c0104b90 <arm_interrupt_timer>
c0104b72:	83 c4 10             	add    $0x10,%esp
c0104b75:	90                   	nop
c0104b76:	e8 08 00 00 00       	call   c0104b83 <poll_timer>
c0104b7b:	85 c0                	test   %eax,%eax
c0104b7d:	75 f7                	jne    c0104b76 <polled_sleep+0x40>
c0104b7f:	90                   	nop
c0104b80:	90                   	nop
c0104b81:	c9                   	leave
c0104b82:	c3                   	ret

c0104b83 <poll_timer>:
c0104b83:	55                   	push   %ebp
c0104b84:	89 e5                	mov    %esp,%ebp
c0104b86:	83 ec 08             	sub    $0x8,%esp
c0104b89:	e8 ee fc ff ff       	call   c010487c <get_lapic_timer_count>
c0104b8e:	c9                   	leave
c0104b8f:	c3                   	ret

c0104b90 <arm_interrupt_timer>:
c0104b90:	55                   	push   %ebp
c0104b91:	89 e5                	mov    %esp,%ebp
c0104b93:	83 ec 08             	sub    $0x8,%esp
c0104b96:	83 ec 0c             	sub    $0xc,%esp
c0104b99:	68 20 03 00 00       	push   $0x320
c0104b9e:	e8 80 fc ff ff       	call   c0104823 <lapic_read_reg>
c0104ba3:	83 c4 10             	add    $0x10,%esp
c0104ba6:	0f b6 c0             	movzbl %al,%eax
c0104ba9:	83 ec 08             	sub    $0x8,%esp
c0104bac:	50                   	push   %eax
c0104bad:	68 20 03 00 00       	push   $0x320
c0104bb2:	e8 4c fc ff ff       	call   c0104803 <lapic_write_reg>
c0104bb7:	83 c4 10             	add    $0x10,%esp
c0104bba:	83 ec 0c             	sub    $0xc,%esp
c0104bbd:	ff 75 08             	push   0x8(%ebp)
c0104bc0:	e8 99 fc ff ff       	call   c010485e <set_initial_lapic_timer_count>
c0104bc5:	83 c4 10             	add    $0x10,%esp
c0104bc8:	90                   	nop
c0104bc9:	c9                   	leave
c0104bca:	c3                   	ret

c0104bcb <io_wait>:
c0104bcb:	55                   	push   %ebp
c0104bcc:	89 e5                	mov    %esp,%ebp
c0104bce:	83 ec 08             	sub    $0x8,%esp
c0104bd1:	83 ec 08             	sub    $0x8,%esp
c0104bd4:	6a 00                	push   $0x0
c0104bd6:	68 80 00 00 00       	push   $0x80
c0104bdb:	e8 69 eb ff ff       	call   c0103749 <outportb>
c0104be0:	83 c4 10             	add    $0x10,%esp
c0104be3:	90                   	nop
c0104be4:	c9                   	leave
c0104be5:	c3                   	ret

c0104be6 <handle_masks>:
c0104be6:	55                   	push   %ebp
c0104be7:	89 e5                	mov    %esp,%ebp
c0104be9:	83 7d 08 08          	cmpl   $0x8,0x8(%ebp)
c0104bed:	74 1b                	je     c0104c0a <handle_masks+0x24>
c0104bef:	83 7d 08 08          	cmpl   $0x8,0x8(%ebp)
c0104bf3:	0f 87 98 00 00 00    	ja     c0104c91 <handle_masks+0xab>
c0104bf9:	83 7d 08 06          	cmpl   $0x6,0x8(%ebp)
c0104bfd:	74 65                	je     c0104c64 <handle_masks+0x7e>
c0104bff:	83 7d 08 07          	cmpl   $0x7,0x8(%ebp)
c0104c03:	74 32                	je     c0104c37 <handle_masks+0x51>
c0104c05:	e9 87 00 00 00       	jmp    c0104c91 <handle_masks+0xab>
c0104c0a:	0f b6 05 88 10 11 c0 	movzbl 0xc0111088,%eax
c0104c11:	0f b6 c0             	movzbl %al,%eax
c0104c14:	0f b6 94 00 61 10 11 	movzbl -0x3feeef9f(%eax,%eax,1),%edx
c0104c1b:	c0 
c0104c1c:	0f b6 05 88 10 11 c0 	movzbl 0xc0111088,%eax
c0104c23:	0f b6 c0             	movzbl %al,%eax
c0104c26:	83 ca 02             	or     $0x2,%edx
c0104c29:	88 94 00 61 10 11 c0 	mov    %dl,-0x3feeef9f(%eax,%eax,1)
c0104c30:	b8 01 00 00 00       	mov    $0x1,%eax
c0104c35:	eb 5f                	jmp    c0104c96 <handle_masks+0xb0>
c0104c37:	0f b6 05 88 10 11 c0 	movzbl 0xc0111088,%eax
c0104c3e:	0f b6 c0             	movzbl %al,%eax
c0104c41:	0f b6 94 00 61 10 11 	movzbl -0x3feeef9f(%eax,%eax,1),%edx
c0104c48:	c0 
c0104c49:	0f b6 05 88 10 11 c0 	movzbl 0xc0111088,%eax
c0104c50:	0f b6 c0             	movzbl %al,%eax
c0104c53:	83 ca 01             	or     $0x1,%edx
c0104c56:	88 94 00 61 10 11 c0 	mov    %dl,-0x3feeef9f(%eax,%eax,1)
c0104c5d:	b8 01 00 00 00       	mov    $0x1,%eax
c0104c62:	eb 32                	jmp    c0104c96 <handle_masks+0xb0>
c0104c64:	0f b6 05 88 10 11 c0 	movzbl 0xc0111088,%eax
c0104c6b:	0f b6 c0             	movzbl %al,%eax
c0104c6e:	0f b6 94 00 61 10 11 	movzbl -0x3feeef9f(%eax,%eax,1),%edx
c0104c75:	c0 
c0104c76:	0f b6 05 88 10 11 c0 	movzbl 0xc0111088,%eax
c0104c7d:	0f b6 c0             	movzbl %al,%eax
c0104c80:	83 ca 04             	or     $0x4,%edx
c0104c83:	88 94 00 61 10 11 c0 	mov    %dl,-0x3feeef9f(%eax,%eax,1)
c0104c8a:	b8 01 00 00 00       	mov    $0x1,%eax
c0104c8f:	eb 05                	jmp    c0104c96 <handle_masks+0xb0>
c0104c91:	b8 00 00 00 00       	mov    $0x0,%eax
c0104c96:	5d                   	pop    %ebp
c0104c97:	c3                   	ret

c0104c98 <handle_keychange>:
c0104c98:	55                   	push   %ebp
c0104c99:	89 e5                	mov    %esp,%ebp
c0104c9b:	83 ec 18             	sub    $0x18,%esp
c0104c9e:	a1 44 10 11 c0       	mov    0xc0111044,%eax
c0104ca3:	83 ec 04             	sub    $0x4,%esp
c0104ca6:	6a 04                	push   $0x4
c0104ca8:	6a 00                	push   $0x0
c0104caa:	50                   	push   %eax
c0104cab:	e8 8d f2 ff ff       	call   c0103f3d <memset>
c0104cb0:	83 c4 10             	add    $0x10,%esp
c0104cb3:	c7 45 f4 00 00 00 00 	movl   $0x0,-0xc(%ebp)
c0104cba:	eb 2b                	jmp    c0104ce7 <handle_keychange+0x4f>
c0104cbc:	83 ec 0c             	sub    $0xc,%esp
c0104cbf:	6a 60                	push   $0x60
c0104cc1:	e8 6a ea ff ff       	call   c0103730 <inportb>
c0104cc6:	83 c4 10             	add    $0x10,%esp
c0104cc9:	88 45 f3             	mov    %al,-0xd(%ebp)
c0104ccc:	8b 15 44 10 11 c0    	mov    0xc0111044,%edx
c0104cd2:	8b 45 f4             	mov    -0xc(%ebp),%eax
c0104cd5:	01 c2                	add    %eax,%edx
c0104cd7:	0f b6 45 f3          	movzbl -0xd(%ebp),%eax
c0104cdb:	88 02                	mov    %al,(%edx)
c0104cdd:	80 7d f3 e0          	cmpb   $0xe0,-0xd(%ebp)
c0104ce1:	75 0c                	jne    c0104cef <handle_keychange+0x57>
c0104ce3:	83 45 f4 01          	addl   $0x1,-0xc(%ebp)
c0104ce7:	83 7d f4 03          	cmpl   $0x3,-0xc(%ebp)
c0104ceb:	7e cf                	jle    c0104cbc <handle_keychange+0x24>
c0104ced:	eb 01                	jmp    c0104cf0 <handle_keychange+0x58>
c0104cef:	90                   	nop
c0104cf0:	0f b6 05 88 10 11 c0 	movzbl 0xc0111088,%eax
c0104cf7:	0f b6 c0             	movzbl %al,%eax
c0104cfa:	8d 48 01             	lea    0x1(%eax),%ecx
c0104cfd:	ba 67 66 66 66       	mov    $0x66666667,%edx
c0104d02:	89 c8                	mov    %ecx,%eax
c0104d04:	f7 ea                	imul   %edx
c0104d06:	c1 fa 03             	sar    $0x3,%edx
c0104d09:	89 c8                	mov    %ecx,%eax
c0104d0b:	c1 f8 1f             	sar    $0x1f,%eax
c0104d0e:	29 c2                	sub    %eax,%edx
c0104d10:	89 d0                	mov    %edx,%eax
c0104d12:	c1 e0 02             	shl    $0x2,%eax
c0104d15:	01 d0                	add    %edx,%eax
c0104d17:	c1 e0 02             	shl    $0x2,%eax
c0104d1a:	29 c1                	sub    %eax,%ecx
c0104d1c:	89 ca                	mov    %ecx,%edx
c0104d1e:	89 d0                	mov    %edx,%eax
c0104d20:	a2 88 10 11 c0       	mov    %al,0xc0111088
c0104d25:	0f b6 05 88 10 11 c0 	movzbl 0xc0111088,%eax
c0104d2c:	0f b6 c0             	movzbl %al,%eax
c0104d2f:	c6 84 00 61 10 11 c0 	movb   $0x0,-0x3feeef9f(%eax,%eax,1)
c0104d36:	00 
c0104d37:	8b 15 44 10 11 c0    	mov    0xc0111044,%edx
c0104d3d:	8b 45 f4             	mov    -0xc(%ebp),%eax
c0104d40:	01 d0                	add    %edx,%eax
c0104d42:	0f b6 00             	movzbl (%eax),%eax
c0104d45:	0f b6 c0             	movzbl %al,%eax
c0104d48:	83 e0 7f             	and    $0x7f,%eax
c0104d4b:	8b 14 85 20 a0 10 c0 	mov    -0x3fef5fe0(,%eax,4),%edx
c0104d52:	0f b6 05 88 10 11 c0 	movzbl 0xc0111088,%eax
c0104d59:	0f b6 c0             	movzbl %al,%eax
c0104d5c:	88 94 00 60 10 11 c0 	mov    %dl,-0x3feeefa0(%eax,%eax,1)
c0104d63:	8b 15 44 10 11 c0    	mov    0xc0111044,%edx
c0104d69:	8b 45 f4             	mov    -0xc(%ebp),%eax
c0104d6c:	01 d0                	add    %edx,%eax
c0104d6e:	0f b6 00             	movzbl (%eax),%eax
c0104d71:	3c 80                	cmp    $0x80,%al
c0104d73:	76 26                	jbe    c0104d9b <handle_keychange+0x103>
c0104d75:	0f b6 05 88 10 11 c0 	movzbl 0xc0111088,%eax
c0104d7c:	0f b6 c0             	movzbl %al,%eax
c0104d7f:	0f b6 94 00 61 10 11 	movzbl -0x3feeef9f(%eax,%eax,1),%edx
c0104d86:	c0 
c0104d87:	0f b6 05 88 10 11 c0 	movzbl 0xc0111088,%eax
c0104d8e:	0f b6 c0             	movzbl %al,%eax
c0104d91:	83 ca 08             	or     $0x8,%edx
c0104d94:	88 94 00 61 10 11 c0 	mov    %dl,-0x3feeef9f(%eax,%eax,1)
c0104d9b:	8b 15 44 10 11 c0    	mov    0xc0111044,%edx
c0104da1:	8b 45 f4             	mov    -0xc(%ebp),%eax
c0104da4:	01 d0                	add    %edx,%eax
c0104da6:	0f b6 00             	movzbl (%eax),%eax
c0104da9:	0f b6 c0             	movzbl %al,%eax
c0104dac:	83 e0 7f             	and    $0x7f,%eax
c0104daf:	8b 04 85 20 a0 10 c0 	mov    -0x3fef5fe0(,%eax,4),%eax
c0104db6:	83 f8 06             	cmp    $0x6,%eax
c0104db9:	75 3c                	jne    c0104df7 <handle_keychange+0x15f>
c0104dbb:	0f b6 05 88 10 11 c0 	movzbl 0xc0111088,%eax
c0104dc2:	0f b6 c0             	movzbl %al,%eax
c0104dc5:	0f b6 84 00 61 10 11 	movzbl -0x3feeef9f(%eax,%eax,1),%eax
c0104dcc:	c0 
c0104dcd:	0f b6 c0             	movzbl %al,%eax
c0104dd0:	83 e0 08             	and    $0x8,%eax
c0104dd3:	85 c0                	test   %eax,%eax
c0104dd5:	74 11                	je     c0104de8 <handle_keychange+0x150>
c0104dd7:	0f b6 05 89 10 11 c0 	movzbl 0xc0111089,%eax
c0104dde:	83 e0 fb             	and    $0xfffffffb,%eax
c0104de1:	a2 89 10 11 c0       	mov    %al,0xc0111089
c0104de6:	eb 0f                	jmp    c0104df7 <handle_keychange+0x15f>
c0104de8:	0f b6 05 89 10 11 c0 	movzbl 0xc0111089,%eax
c0104def:	83 c8 04             	or     $0x4,%eax
c0104df2:	a2 89 10 11 c0       	mov    %al,0xc0111089
c0104df7:	0f b6 05 88 10 11 c0 	movzbl 0xc0111088,%eax
c0104dfe:	0f b6 c0             	movzbl %al,%eax
c0104e01:	0f b6 8c 00 61 10 11 	movzbl -0x3feeef9f(%eax,%eax,1),%ecx
c0104e08:	c0 
c0104e09:	0f b6 15 89 10 11 c0 	movzbl 0xc0111089,%edx
c0104e10:	0f b6 05 88 10 11 c0 	movzbl 0xc0111088,%eax
c0104e17:	0f b6 c0             	movzbl %al,%eax
c0104e1a:	09 ca                	or     %ecx,%edx
c0104e1c:	88 94 00 61 10 11 c0 	mov    %dl,-0x3feeef9f(%eax,%eax,1)
c0104e23:	90                   	nop
c0104e24:	c9                   	leave
c0104e25:	c3                   	ret

c0104e26 <init_ps2_controller>:
c0104e26:	55                   	push   %ebp
c0104e27:	89 e5                	mov    %esp,%ebp
c0104e29:	83 ec 18             	sub    $0x18,%esp
c0104e2c:	c6 45 f7 00          	movb   $0x0,-0x9(%ebp)
c0104e30:	83 ec 08             	sub    $0x8,%esp
c0104e33:	68 ad 00 00 00       	push   $0xad
c0104e38:	6a 64                	push   $0x64
c0104e3a:	e8 0a e9 ff ff       	call   c0103749 <outportb>
c0104e3f:	83 c4 10             	add    $0x10,%esp
c0104e42:	83 ec 08             	sub    $0x8,%esp
c0104e45:	68 a7 00 00 00       	push   $0xa7
c0104e4a:	6a 64                	push   $0x64
c0104e4c:	e8 f8 e8 ff ff       	call   c0103749 <outportb>
c0104e51:	83 c4 10             	add    $0x10,%esp
c0104e54:	e8 72 fd ff ff       	call   c0104bcb <io_wait>
c0104e59:	83 ec 0c             	sub    $0xc,%esp
c0104e5c:	6a 60                	push   $0x60
c0104e5e:	e8 cd e8 ff ff       	call   c0103730 <inportb>
c0104e63:	83 c4 10             	add    $0x10,%esp
c0104e66:	e8 60 fd ff ff       	call   c0104bcb <io_wait>
c0104e6b:	83 ec 0c             	sub    $0xc,%esp
c0104e6e:	6a 64                	push   $0x64
c0104e70:	e8 bb e8 ff ff       	call   c0103730 <inportb>
c0104e75:	83 c4 10             	add    $0x10,%esp
c0104e78:	0f b6 c0             	movzbl %al,%eax
c0104e7b:	89 45 f0             	mov    %eax,-0x10(%ebp)
c0104e7e:	83 ec 08             	sub    $0x8,%esp
c0104e81:	ff 75 f0             	push   -0x10(%ebp)
c0104e84:	68 9c 8b 10 c0       	push   $0xc0108b9c
c0104e89:	e8 c0 1b 00 00       	call   c0106a4e <printf>
c0104e8e:	83 c4 10             	add    $0x10,%esp
c0104e91:	83 ec 08             	sub    $0x8,%esp
c0104e94:	6a 20                	push   $0x20
c0104e96:	6a 64                	push   $0x64
c0104e98:	e8 ac e8 ff ff       	call   c0103749 <outportb>
c0104e9d:	83 c4 10             	add    $0x10,%esp
c0104ea0:	e8 26 fd ff ff       	call   c0104bcb <io_wait>
c0104ea5:	83 ec 0c             	sub    $0xc,%esp
c0104ea8:	6a 60                	push   $0x60
c0104eaa:	e8 81 e8 ff ff       	call   c0103730 <inportb>
c0104eaf:	83 c4 10             	add    $0x10,%esp
c0104eb2:	0f b6 c0             	movzbl %al,%eax
c0104eb5:	89 45 ec             	mov    %eax,-0x14(%ebp)
c0104eb8:	e8 0e fd ff ff       	call   c0104bcb <io_wait>
c0104ebd:	81 65 ec ae 00 00 00 	andl   $0xae,-0x14(%ebp)
c0104ec4:	8b 45 ec             	mov    -0x14(%ebp),%eax
c0104ec7:	0f b6 c0             	movzbl %al,%eax
c0104eca:	83 ec 08             	sub    $0x8,%esp
c0104ecd:	50                   	push   %eax
c0104ece:	6a 60                	push   $0x60
c0104ed0:	e8 33 08 00 00       	call   c0105708 <ps2_send_dbyte>
c0104ed5:	83 c4 10             	add    $0x10,%esp
c0104ed8:	83 ec 0c             	sub    $0xc,%esp
c0104edb:	6a 20                	push   $0x20
c0104edd:	e8 89 08 00 00       	call   c010576b <ps2_send_command>
c0104ee2:	83 c4 10             	add    $0x10,%esp
c0104ee5:	83 ec 08             	sub    $0x8,%esp
c0104ee8:	68 aa 00 00 00       	push   $0xaa
c0104eed:	6a 64                	push   $0x64
c0104eef:	e8 55 e8 ff ff       	call   c0103749 <outportb>
c0104ef4:	83 c4 10             	add    $0x10,%esp
c0104ef7:	83 ec 0c             	sub    $0xc,%esp
c0104efa:	68 a8 00 00 00       	push   $0xa8
c0104eff:	e8 67 08 00 00       	call   c010576b <ps2_send_command>
c0104f04:	83 c4 10             	add    $0x10,%esp
c0104f07:	83 ec 0c             	sub    $0xc,%esp
c0104f0a:	6a 20                	push   $0x20
c0104f0c:	e8 5a 08 00 00       	call   c010576b <ps2_send_command>
c0104f11:	83 c4 10             	add    $0x10,%esp
c0104f14:	e8 8a 07 00 00       	call   c01056a3 <ps2_get_responce>
c0104f19:	88 45 f6             	mov    %al,-0xa(%ebp)
c0104f1c:	0f b6 45 f6          	movzbl -0xa(%ebp),%eax
c0104f20:	83 e0 20             	and    $0x20,%eax
c0104f23:	85 c0                	test   %eax,%eax
c0104f25:	75 3c                	jne    c0104f63 <init_ps2_controller+0x13d>
c0104f27:	83 ec 0c             	sub    $0xc,%esp
c0104f2a:	68 a7 00 00 00       	push   $0xa7
c0104f2f:	e8 37 08 00 00       	call   c010576b <ps2_send_command>
c0104f34:	83 c4 10             	add    $0x10,%esp
c0104f37:	80 65 f6 dd          	andb   $0xdd,-0xa(%ebp)
c0104f3b:	0f b6 45 f6          	movzbl -0xa(%ebp),%eax
c0104f3f:	83 ec 08             	sub    $0x8,%esp
c0104f42:	50                   	push   %eax
c0104f43:	6a 60                	push   $0x60
c0104f45:	e8 be 07 00 00       	call   c0105708 <ps2_send_dbyte>
c0104f4a:	83 c4 10             	add    $0x10,%esp
c0104f4d:	83 ec 0c             	sub    $0xc,%esp
c0104f50:	68 ac 8b 10 c0       	push   $0xc0108bac
c0104f55:	e8 f4 1a 00 00       	call   c0106a4e <printf>
c0104f5a:	83 c4 10             	add    $0x10,%esp
c0104f5d:	c6 45 f7 01          	movb   $0x1,-0x9(%ebp)
c0104f61:	eb 10                	jmp    c0104f73 <init_ps2_controller+0x14d>
c0104f63:	83 ec 0c             	sub    $0xc,%esp
c0104f66:	68 cb 8b 10 c0       	push   $0xc0108bcb
c0104f6b:	e8 de 1a 00 00       	call   c0106a4e <printf>
c0104f70:	83 c4 10             	add    $0x10,%esp
c0104f73:	c6 45 f5 00          	movb   $0x0,-0xb(%ebp)
c0104f77:	83 ec 0c             	sub    $0xc,%esp
c0104f7a:	68 ab 00 00 00       	push   $0xab
c0104f7f:	e8 e7 07 00 00       	call   c010576b <ps2_send_command>
c0104f84:	83 c4 10             	add    $0x10,%esp
c0104f87:	e8 17 07 00 00       	call   c01056a3 <ps2_get_responce>
c0104f8c:	88 45 eb             	mov    %al,-0x15(%ebp)
c0104f8f:	80 7d eb 00          	cmpb   $0x0,-0x15(%ebp)
c0104f93:	74 0a                	je     c0104f9f <init_ps2_controller+0x179>
c0104f95:	0f b6 45 f5          	movzbl -0xb(%ebp),%eax
c0104f99:	83 c0 01             	add    $0x1,%eax
c0104f9c:	88 45 f5             	mov    %al,-0xb(%ebp)
c0104f9f:	80 7d f7 00          	cmpb   $0x0,-0x9(%ebp)
c0104fa3:	74 23                	je     c0104fc8 <init_ps2_controller+0x1a2>
c0104fa5:	83 ec 0c             	sub    $0xc,%esp
c0104fa8:	68 a9 00 00 00       	push   $0xa9
c0104fad:	e8 b9 07 00 00       	call   c010576b <ps2_send_command>
c0104fb2:	83 c4 10             	add    $0x10,%esp
c0104fb5:	e8 e9 06 00 00       	call   c01056a3 <ps2_get_responce>
c0104fba:	84 c0                	test   %al,%al
c0104fbc:	75 0a                	jne    c0104fc8 <init_ps2_controller+0x1a2>
c0104fbe:	0f b6 45 f5          	movzbl -0xb(%ebp),%eax
c0104fc2:	83 c0 01             	add    $0x1,%eax
c0104fc5:	88 45 f5             	mov    %al,-0xb(%ebp)
c0104fc8:	80 7d f5 00          	cmpb   $0x0,-0xb(%ebp)
c0104fcc:	75 15                	jne    c0104fe3 <init_ps2_controller+0x1bd>
c0104fce:	83 ec 0c             	sub    $0xc,%esp
c0104fd1:	68 df 8b 10 c0       	push   $0xc0108bdf
c0104fd6:	e8 73 1a 00 00       	call   c0106a4e <printf>
c0104fdb:	83 c4 10             	add    $0x10,%esp
c0104fde:	e9 09 01 00 00       	jmp    c01050ec <init_ps2_controller+0x2c6>
c0104fe3:	83 ec 0c             	sub    $0xc,%esp
c0104fe6:	68 ae 00 00 00       	push   $0xae
c0104feb:	e8 7b 07 00 00       	call   c010576b <ps2_send_command>
c0104ff0:	83 c4 10             	add    $0x10,%esp
c0104ff3:	80 7d f7 00          	cmpb   $0x0,-0x9(%ebp)
c0104ff7:	74 14                	je     c010500d <init_ps2_controller+0x1e7>
c0104ff9:	83 ec 0c             	sub    $0xc,%esp
c0104ffc:	68 a8 00 00 00       	push   $0xa8
c0105001:	e8 65 07 00 00       	call   c010576b <ps2_send_command>
c0105006:	83 c4 10             	add    $0x10,%esp
c0105009:	80 4d f6 02          	orb    $0x2,-0xa(%ebp)
c010500d:	80 4d f6 01          	orb    $0x1,-0xa(%ebp)
c0105011:	0f b6 45 f6          	movzbl -0xa(%ebp),%eax
c0105015:	83 ec 08             	sub    $0x8,%esp
c0105018:	50                   	push   %eax
c0105019:	6a 60                	push   $0x60
c010501b:	e8 e8 06 00 00       	call   c0105708 <ps2_send_dbyte>
c0105020:	83 c4 10             	add    $0x10,%esp
c0105023:	83 ec 0c             	sub    $0xc,%esp
c0105026:	68 ff 00 00 00       	push   $0xff
c010502b:	e8 a7 05 00 00       	call   c01055d7 <ps2_send_byte_port1>
c0105030:	83 c4 10             	add    $0x10,%esp
c0105033:	83 ec 0c             	sub    $0xc,%esp
c0105036:	68 ff 00 00 00       	push   $0xff
c010503b:	e8 97 05 00 00       	call   c01055d7 <ps2_send_byte_port1>
c0105040:	83 c4 10             	add    $0x10,%esp
c0105043:	83 ec 0c             	sub    $0xc,%esp
c0105046:	68 00 7d 00 00       	push   $0x7d00
c010504b:	e8 78 06 00 00       	call   c01056c8 <ps2_get_responce_to>
c0105050:	83 c4 10             	add    $0x10,%esp
c0105053:	88 45 ea             	mov    %al,-0x16(%ebp)
c0105056:	80 7d ea 00          	cmpb   $0x0,-0x16(%ebp)
c010505a:	74 16                	je     c0105072 <init_ps2_controller+0x24c>
c010505c:	80 7d ea fc          	cmpb   $0xfc,-0x16(%ebp)
c0105060:	74 10                	je     c0105072 <init_ps2_controller+0x24c>
c0105062:	83 ec 0c             	sub    $0xc,%esp
c0105065:	6a 60                	push   $0x60
c0105067:	e8 c4 e6 ff ff       	call   c0103730 <inportb>
c010506c:	83 c4 10             	add    $0x10,%esp
c010506f:	88 45 ea             	mov    %al,-0x16(%ebp)
c0105072:	80 7d f7 00          	cmpb   $0x0,-0x9(%ebp)
c0105076:	74 74                	je     c01050ec <init_ps2_controller+0x2c6>
c0105078:	83 ec 0c             	sub    $0xc,%esp
c010507b:	68 ff 00 00 00       	push   $0xff
c0105080:	e8 af 05 00 00       	call   c0105634 <ps2_send_byte_port2>
c0105085:	83 c4 10             	add    $0x10,%esp
c0105088:	83 ec 0c             	sub    $0xc,%esp
c010508b:	68 ff 00 00 00       	push   $0xff
c0105090:	e8 9f 05 00 00       	call   c0105634 <ps2_send_byte_port2>
c0105095:	83 c4 10             	add    $0x10,%esp
c0105098:	83 ec 0c             	sub    $0xc,%esp
c010509b:	68 00 d4 30 00       	push   $0x30d400
c01050a0:	e8 23 06 00 00       	call   c01056c8 <ps2_get_responce_to>
c01050a5:	83 c4 10             	add    $0x10,%esp
c01050a8:	88 45 ea             	mov    %al,-0x16(%ebp)
c01050ab:	80 7d ea 00          	cmpb   $0x0,-0x16(%ebp)
c01050af:	74 3b                	je     c01050ec <init_ps2_controller+0x2c6>
c01050b1:	80 7d ea fc          	cmpb   $0xfc,-0x16(%ebp)
c01050b5:	74 35                	je     c01050ec <init_ps2_controller+0x2c6>
c01050b7:	83 ec 0c             	sub    $0xc,%esp
c01050ba:	6a 20                	push   $0x20
c01050bc:	e8 07 06 00 00       	call   c01056c8 <ps2_get_responce_to>
c01050c1:	83 c4 10             	add    $0x10,%esp
c01050c4:	88 45 ea             	mov    %al,-0x16(%ebp)
c01050c7:	83 ec 0c             	sub    $0xc,%esp
c01050ca:	6a 20                	push   $0x20
c01050cc:	e8 f7 05 00 00       	call   c01056c8 <ps2_get_responce_to>
c01050d1:	83 c4 10             	add    $0x10,%esp
c01050d4:	88 45 ea             	mov    %al,-0x16(%ebp)
c01050d7:	0f b6 45 ea          	movzbl -0x16(%ebp),%eax
c01050db:	83 ec 08             	sub    $0x8,%esp
c01050de:	50                   	push   %eax
c01050df:	68 f4 8b 10 c0       	push   $0xc0108bf4
c01050e4:	e8 65 19 00 00       	call   c0106a4e <printf>
c01050e9:	83 c4 10             	add    $0x10,%esp
c01050ec:	c9                   	leave
c01050ed:	c3                   	ret

c01050ee <init_keyboard>:
c01050ee:	55                   	push   %ebp
c01050ef:	89 e5                	mov    %esp,%ebp
c01050f1:	83 ec 18             	sub    $0x18,%esp
c01050f4:	e8 2d fd ff ff       	call   c0104e26 <init_ps2_controller>
c01050f9:	83 ec 08             	sub    $0x8,%esp
c01050fc:	6a 20                	push   $0x20
c01050fe:	6a 64                	push   $0x64
c0105100:	e8 44 e6 ff ff       	call   c0103749 <outportb>
c0105105:	83 c4 10             	add    $0x10,%esp
c0105108:	83 ec 0c             	sub    $0xc,%esp
c010510b:	6a 60                	push   $0x60
c010510d:	e8 1e e6 ff ff       	call   c0103730 <inportb>
c0105112:	83 c4 10             	add    $0x10,%esp
c0105115:	88 45 f7             	mov    %al,-0x9(%ebp)
c0105118:	e8 ae fa ff ff       	call   c0104bcb <io_wait>
c010511d:	0f b6 45 f7          	movzbl -0x9(%ebp),%eax
c0105121:	83 ec 08             	sub    $0x8,%esp
c0105124:	50                   	push   %eax
c0105125:	68 0d 8c 10 c0       	push   $0xc0108c0d
c010512a:	e8 2c e9 ff ff       	call   c0103a5b <logf>
c010512f:	83 c4 10             	add    $0x10,%esp
c0105132:	83 ec 08             	sub    $0x8,%esp
c0105135:	68 f0 00 00 00       	push   $0xf0
c010513a:	6a 60                	push   $0x60
c010513c:	e8 08 e6 ff ff       	call   c0103749 <outportb>
c0105141:	83 c4 10             	add    $0x10,%esp
c0105144:	e8 82 fa ff ff       	call   c0104bcb <io_wait>
c0105149:	83 ec 08             	sub    $0x8,%esp
c010514c:	6a 02                	push   $0x2
c010514e:	6a 60                	push   $0x60
c0105150:	e8 f4 e5 ff ff       	call   c0103749 <outportb>
c0105155:	83 c4 10             	add    $0x10,%esp
c0105158:	e8 6e fa ff ff       	call   c0104bcb <io_wait>
c010515d:	83 ec 0c             	sub    $0xc,%esp
c0105160:	6a 60                	push   $0x60
c0105162:	e8 c9 e5 ff ff       	call   c0103730 <inportb>
c0105167:	83 c4 10             	add    $0x10,%esp
c010516a:	88 45 f6             	mov    %al,-0xa(%ebp)
c010516d:	e8 59 fa ff ff       	call   c0104bcb <io_wait>
c0105172:	83 ec 0c             	sub    $0xc,%esp
c0105175:	6a 60                	push   $0x60
c0105177:	e8 b4 e5 ff ff       	call   c0103730 <inportb>
c010517c:	83 c4 10             	add    $0x10,%esp
c010517f:	88 45 f5             	mov    %al,-0xb(%ebp)
c0105182:	0f b6 55 f5          	movzbl -0xb(%ebp),%edx
c0105186:	0f b6 45 f6          	movzbl -0xa(%ebp),%eax
c010518a:	83 ec 04             	sub    $0x4,%esp
c010518d:	52                   	push   %edx
c010518e:	50                   	push   %eax
c010518f:	68 1c 8c 10 c0       	push   $0xc0108c1c
c0105194:	e8 b5 18 00 00       	call   c0106a4e <printf>
c0105199:	83 c4 10             	add    $0x10,%esp
c010519c:	0f b6 45 f7          	movzbl -0x9(%ebp),%eax
c01051a0:	c0 e8 06             	shr    $0x6,%al
c01051a3:	84 c0                	test   %al,%al
c01051a5:	75 18                	jne    c01051bf <init_keyboard+0xd1>
c01051a7:	80 7d f5 43          	cmpb   $0x43,-0xb(%ebp)
c01051ab:	74 12                	je     c01051bf <init_keyboard+0xd1>
c01051ad:	83 ec 0c             	sub    $0xc,%esp
c01051b0:	68 40 8c 10 c0       	push   $0xc0108c40
c01051b5:	e8 37 ea ff ff       	call   c0103bf1 <panic>
c01051ba:	83 c4 10             	add    $0x10,%esp
c01051bd:	eb 10                	jmp    c01051cf <init_keyboard+0xe1>
c01051bf:	83 ec 0c             	sub    $0xc,%esp
c01051c2:	68 68 8c 10 c0       	push   $0xc0108c68
c01051c7:	e8 8f e8 ff ff       	call   c0103a5b <logf>
c01051cc:	83 c4 10             	add    $0x10,%esp
c01051cf:	83 ec 0c             	sub    $0xc,%esp
c01051d2:	6a 04                	push   $0x4
c01051d4:	e8 b9 ee ff ff       	call   c0104092 <kalloc>
c01051d9:	83 c4 10             	add    $0x10,%esp
c01051dc:	a3 44 10 11 c0       	mov    %eax,0xc0111044
c01051e1:	c6 45 f4 12          	movb   $0x12,-0xc(%ebp)
c01051e5:	c7 45 f0 32 00 00 00 	movl   $0x32,-0x10(%ebp)
c01051ec:	0f b6 45 f4          	movzbl -0xc(%ebp),%eax
c01051f0:	83 ec 08             	sub    $0x8,%esp
c01051f3:	ff 75 f0             	push   -0x10(%ebp)
c01051f6:	50                   	push   %eax
c01051f7:	e8 8a f4 ff ff       	call   c0104686 <write_ioapic_register>
c01051fc:	83 c4 10             	add    $0x10,%esp
c01051ff:	0f b6 45 f4          	movzbl -0xc(%ebp),%eax
c0105203:	83 c0 01             	add    $0x1,%eax
c0105206:	83 ec 08             	sub    $0x8,%esp
c0105209:	6a 00                	push   $0x0
c010520b:	50                   	push   %eax
c010520c:	e8 75 f4 ff ff       	call   c0104686 <write_ioapic_register>
c0105211:	83 c4 10             	add    $0x10,%esp
c0105214:	83 ec 08             	sub    $0x8,%esp
c0105217:	6a 20                	push   $0x20
c0105219:	6a 64                	push   $0x64
c010521b:	e8 29 e5 ff ff       	call   c0103749 <outportb>
c0105220:	83 c4 10             	add    $0x10,%esp
c0105223:	83 ec 0c             	sub    $0xc,%esp
c0105226:	6a 60                	push   $0x60
c0105228:	e8 03 e5 ff ff       	call   c0103730 <inportb>
c010522d:	83 c4 10             	add    $0x10,%esp
c0105230:	88 45 ef             	mov    %al,-0x11(%ebp)
c0105233:	80 4d ef 01          	orb    $0x1,-0x11(%ebp)
c0105237:	83 ec 08             	sub    $0x8,%esp
c010523a:	6a 60                	push   $0x60
c010523c:	6a 64                	push   $0x64
c010523e:	e8 06 e5 ff ff       	call   c0103749 <outportb>
c0105243:	83 c4 10             	add    $0x10,%esp
c0105246:	0f b6 45 ef          	movzbl -0x11(%ebp),%eax
c010524a:	83 ec 08             	sub    $0x8,%esp
c010524d:	50                   	push   %eax
c010524e:	6a 60                	push   $0x60
c0105250:	e8 f4 e4 ff ff       	call   c0103749 <outportb>
c0105255:	83 c4 10             	add    $0x10,%esp
c0105258:	83 ec 0c             	sub    $0xc,%esp
c010525b:	6a 60                	push   $0x60
c010525d:	e8 ce e4 ff ff       	call   c0103730 <inportb>
c0105262:	83 c4 10             	add    $0x10,%esp
c0105265:	88 45 ef             	mov    %al,-0x11(%ebp)
c0105268:	83 ec 0c             	sub    $0xc,%esp
c010526b:	68 8c 8c 10 c0       	push   $0xc0108c8c
c0105270:	e8 d9 17 00 00       	call   c0106a4e <printf>
c0105275:	83 c4 10             	add    $0x10,%esp
c0105278:	90                   	nop
c0105279:	c9                   	leave
c010527a:	c3                   	ret

c010527b <fb_set_width>:
c010527b:	55                   	push   %ebp
c010527c:	89 e5                	mov    %esp,%ebp
c010527e:	83 ec 04             	sub    $0x4,%esp
c0105281:	8b 45 08             	mov    0x8(%ebp),%eax
c0105284:	66 89 45 fc          	mov    %ax,-0x4(%ebp)
c0105288:	0f b7 45 fc          	movzwl -0x4(%ebp),%eax
c010528c:	66 a3 98 10 11 c0    	mov    %ax,0xc0111098
c0105292:	90                   	nop
c0105293:	c9                   	leave
c0105294:	c3                   	ret

c0105295 <fb_set_bpp>:
c0105295:	55                   	push   %ebp
c0105296:	89 e5                	mov    %esp,%ebp
c0105298:	83 ec 04             	sub    $0x4,%esp
c010529b:	8b 45 08             	mov    0x8(%ebp),%eax
c010529e:	88 45 fc             	mov    %al,-0x4(%ebp)
c01052a1:	0f b6 45 fc          	movzbl -0x4(%ebp),%eax
c01052a5:	a2 9c 10 11 c0       	mov    %al,0xc011109c
c01052aa:	90                   	nop
c01052ab:	c9                   	leave
c01052ac:	c3                   	ret

c01052ad <fb_set_height>:
c01052ad:	55                   	push   %ebp
c01052ae:	89 e5                	mov    %esp,%ebp
c01052b0:	83 ec 04             	sub    $0x4,%esp
c01052b3:	8b 45 08             	mov    0x8(%ebp),%eax
c01052b6:	66 89 45 fc          	mov    %ax,-0x4(%ebp)
c01052ba:	0f b7 45 fc          	movzwl -0x4(%ebp),%eax
c01052be:	66 a3 9a 10 11 c0    	mov    %ax,0xc011109a
c01052c4:	90                   	nop
c01052c5:	c9                   	leave
c01052c6:	c3                   	ret

c01052c7 <fb_put_glyph>:
c01052c7:	55                   	push   %ebp
c01052c8:	89 e5                	mov    %esp,%ebp
c01052ca:	56                   	push   %esi
c01052cb:	53                   	push   %ebx
c01052cc:	83 ec 30             	sub    $0x30,%esp
c01052cf:	8b 5d 08             	mov    0x8(%ebp),%ebx
c01052d2:	8b 4d 0c             	mov    0xc(%ebp),%ecx
c01052d5:	8b 55 10             	mov    0x10(%ebp),%edx
c01052d8:	8b 45 1c             	mov    0x1c(%ebp),%eax
c01052db:	88 5d d4             	mov    %bl,-0x2c(%ebp)
c01052de:	66 89 4d d0          	mov    %cx,-0x30(%ebp)
c01052e2:	66 89 55 cc          	mov    %dx,-0x34(%ebp)
c01052e6:	66 89 45 c8          	mov    %ax,-0x38(%ebp)
c01052ea:	0f be 45 d4          	movsbl -0x2c(%ebp),%eax
c01052ee:	83 ec 0c             	sub    $0xc,%esp
c01052f1:	50                   	push   %eax
c01052f2:	e8 29 01 00 00       	call   c0105420 <get_glyph>
c01052f7:	83 c4 10             	add    $0x10,%esp
c01052fa:	89 45 f4             	mov    %eax,-0xc(%ebp)
c01052fd:	8b 45 14             	mov    0x14(%ebp),%eax
c0105300:	c1 e8 18             	shr    $0x18,%eax
c0105303:	88 45 e7             	mov    %al,-0x19(%ebp)
c0105306:	8b 45 14             	mov    0x14(%ebp),%eax
c0105309:	c1 e8 10             	shr    $0x10,%eax
c010530c:	88 45 e6             	mov    %al,-0x1a(%ebp)
c010530f:	8b 45 14             	mov    0x14(%ebp),%eax
c0105312:	c1 e8 08             	shr    $0x8,%eax
c0105315:	88 45 e5             	mov    %al,-0x1b(%ebp)
c0105318:	8b 45 18             	mov    0x18(%ebp),%eax
c010531b:	c1 e8 18             	shr    $0x18,%eax
c010531e:	88 45 e4             	mov    %al,-0x1c(%ebp)
c0105321:	8b 45 18             	mov    0x18(%ebp),%eax
c0105324:	c1 e8 10             	shr    $0x10,%eax
c0105327:	88 45 e3             	mov    %al,-0x1d(%ebp)
c010532a:	8b 45 18             	mov    0x18(%ebp),%eax
c010532d:	c1 e8 08             	shr    $0x8,%eax
c0105330:	88 45 e2             	mov    %al,-0x1e(%ebp)
c0105333:	c7 45 f0 00 00 00 00 	movl   $0x0,-0x10(%ebp)
c010533a:	e9 c3 00 00 00       	jmp    c0105402 <fb_put_glyph+0x13b>
c010533f:	0f b7 55 cc          	movzwl -0x34(%ebp),%edx
c0105343:	0f b7 45 d0          	movzwl -0x30(%ebp),%eax
c0105347:	83 ec 08             	sub    $0x8,%esp
c010534a:	52                   	push   %edx
c010534b:	50                   	push   %eax
c010534c:	e8 b9 c8 ff ff       	call   c0101c0a <get_pixel_addr>
c0105351:	83 c4 10             	add    $0x10,%esp
c0105354:	89 45 ec             	mov    %eax,-0x14(%ebp)
c0105357:	c7 45 e8 07 00 00 00 	movl   $0x7,-0x18(%ebp)
c010535e:	e9 85 00 00 00       	jmp    c01053e8 <fb_put_glyph+0x121>
c0105363:	8b 45 f4             	mov    -0xc(%ebp),%eax
c0105366:	0f b6 00             	movzbl (%eax),%eax
c0105369:	0f b6 d0             	movzbl %al,%edx
c010536c:	8b 45 e8             	mov    -0x18(%ebp),%eax
c010536f:	89 c1                	mov    %eax,%ecx
c0105371:	d3 fa                	sar    %cl,%edx
c0105373:	89 d0                	mov    %edx,%eax
c0105375:	83 e0 01             	and    $0x1,%eax
c0105378:	85 c0                	test   %eax,%eax
c010537a:	74 2b                	je     c01053a7 <fb_put_glyph+0xe0>
c010537c:	0f b6 75 e5          	movzbl -0x1b(%ebp),%esi
c0105380:	0f b6 5d e6          	movzbl -0x1a(%ebp),%ebx
c0105384:	0f b6 4d e7          	movzbl -0x19(%ebp),%ecx
c0105388:	0f b7 55 c8          	movzwl -0x38(%ebp),%edx
c010538c:	0f b7 45 c8          	movzwl -0x38(%ebp),%eax
c0105390:	83 ec 04             	sub    $0x4,%esp
c0105393:	6a 00                	push   $0x0
c0105395:	56                   	push   %esi
c0105396:	53                   	push   %ebx
c0105397:	51                   	push   %ecx
c0105398:	52                   	push   %edx
c0105399:	50                   	push   %eax
c010539a:	ff 75 ec             	push   -0x14(%ebp)
c010539d:	e8 a4 00 00 00       	call   c0105446 <fill_square>
c01053a2:	83 c4 20             	add    $0x20,%esp
c01053a5:	eb 29                	jmp    c01053d0 <fb_put_glyph+0x109>
c01053a7:	0f b6 75 e2          	movzbl -0x1e(%ebp),%esi
c01053ab:	0f b6 5d e3          	movzbl -0x1d(%ebp),%ebx
c01053af:	0f b6 4d e4          	movzbl -0x1c(%ebp),%ecx
c01053b3:	0f b7 55 c8          	movzwl -0x38(%ebp),%edx
c01053b7:	0f b7 45 c8          	movzwl -0x38(%ebp),%eax
c01053bb:	83 ec 04             	sub    $0x4,%esp
c01053be:	6a 00                	push   $0x0
c01053c0:	56                   	push   %esi
c01053c1:	53                   	push   %ebx
c01053c2:	51                   	push   %ecx
c01053c3:	52                   	push   %edx
c01053c4:	50                   	push   %eax
c01053c5:	ff 75 ec             	push   -0x14(%ebp)
c01053c8:	e8 79 00 00 00       	call   c0105446 <fill_square>
c01053cd:	83 c4 20             	add    $0x20,%esp
c01053d0:	0f b7 55 c8          	movzwl -0x38(%ebp),%edx
c01053d4:	0f b6 05 9c 10 11 c0 	movzbl 0xc011109c,%eax
c01053db:	0f b6 c0             	movzbl %al,%eax
c01053de:	0f af c2             	imul   %edx,%eax
c01053e1:	01 45 ec             	add    %eax,-0x14(%ebp)
c01053e4:	83 6d e8 01          	subl   $0x1,-0x18(%ebp)
c01053e8:	83 7d e8 00          	cmpl   $0x0,-0x18(%ebp)
c01053ec:	0f 89 71 ff ff ff    	jns    c0105363 <fb_put_glyph+0x9c>
c01053f2:	0f b7 45 c8          	movzwl -0x38(%ebp),%eax
c01053f6:	66 01 45 cc          	add    %ax,-0x34(%ebp)
c01053fa:	83 45 f4 01          	addl   $0x1,-0xc(%ebp)
c01053fe:	83 45 f0 01          	addl   $0x1,-0x10(%ebp)
c0105402:	a1 90 10 11 c0       	mov    0xc0111090,%eax
c0105407:	0f b6 40 03          	movzbl 0x3(%eax),%eax
c010540b:	0f b6 c0             	movzbl %al,%eax
c010540e:	39 45 f0             	cmp    %eax,-0x10(%ebp)
c0105411:	0f 8c 28 ff ff ff    	jl     c010533f <fb_put_glyph+0x78>
c0105417:	90                   	nop
c0105418:	90                   	nop
c0105419:	8d 65 f8             	lea    -0x8(%ebp),%esp
c010541c:	5b                   	pop    %ebx
c010541d:	5e                   	pop    %esi
c010541e:	5d                   	pop    %ebp
c010541f:	c3                   	ret

c0105420 <get_glyph>:
c0105420:	55                   	push   %ebp
c0105421:	89 e5                	mov    %esp,%ebp
c0105423:	83 ec 10             	sub    $0x10,%esp
c0105426:	a1 90 10 11 c0       	mov    0xc0111090,%eax
c010542b:	0f b6 40 03          	movzbl 0x3(%eax),%eax
c010542f:	0f b6 c0             	movzbl %al,%eax
c0105432:	0f af 45 08          	imul   0x8(%ebp),%eax
c0105436:	83 c0 04             	add    $0x4,%eax
c0105439:	05 8c a1 10 c0       	add    $0xc010a18c,%eax
c010543e:	89 45 fc             	mov    %eax,-0x4(%ebp)
c0105441:	8b 45 fc             	mov    -0x4(%ebp),%eax
c0105444:	c9                   	leave
c0105445:	c3                   	ret

c0105446 <fill_square>:
c0105446:	55                   	push   %ebp
c0105447:	89 e5                	mov    %esp,%ebp
c0105449:	57                   	push   %edi
c010544a:	56                   	push   %esi
c010544b:	53                   	push   %ebx
c010544c:	83 ec 28             	sub    $0x28,%esp
c010544f:	8b 7d 0c             	mov    0xc(%ebp),%edi
c0105452:	8b 75 10             	mov    0x10(%ebp),%esi
c0105455:	8b 5d 14             	mov    0x14(%ebp),%ebx
c0105458:	8b 4d 18             	mov    0x18(%ebp),%ecx
c010545b:	8b 55 1c             	mov    0x1c(%ebp),%edx
c010545e:	8b 45 20             	mov    0x20(%ebp),%eax
c0105461:	66 89 7d e0          	mov    %di,-0x20(%ebp)
c0105465:	66 89 75 dc          	mov    %si,-0x24(%ebp)
c0105469:	88 5d d8             	mov    %bl,-0x28(%ebp)
c010546c:	88 4d d4             	mov    %cl,-0x2c(%ebp)
c010546f:	88 55 d0             	mov    %dl,-0x30(%ebp)
c0105472:	88 45 cc             	mov    %al,-0x34(%ebp)
c0105475:	8b 45 08             	mov    0x8(%ebp),%eax
c0105478:	89 45 f0             	mov    %eax,-0x10(%ebp)
c010547b:	0f b6 05 9c 10 11 c0 	movzbl 0xc011109c,%eax
c0105482:	88 45 e7             	mov    %al,-0x19(%ebp)
c0105485:	c7 45 ec 00 00 00 00 	movl   $0x0,-0x14(%ebp)
c010548c:	eb 66                	jmp    c01054f4 <fill_square+0xae>
c010548e:	c7 45 e8 00 00 00 00 	movl   $0x0,-0x18(%ebp)
c0105495:	eb 45                	jmp    c01054dc <fill_square+0x96>
c0105497:	0f b6 45 e7          	movzbl -0x19(%ebp),%eax
c010549b:	0f af 45 e8          	imul   -0x18(%ebp),%eax
c010549f:	89 c2                	mov    %eax,%edx
c01054a1:	8b 45 f0             	mov    -0x10(%ebp),%eax
c01054a4:	01 c2                	add    %eax,%edx
c01054a6:	0f b6 45 d0          	movzbl -0x30(%ebp),%eax
c01054aa:	88 02                	mov    %al,(%edx)
c01054ac:	0f b6 45 e7          	movzbl -0x19(%ebp),%eax
c01054b0:	0f af 45 e8          	imul   -0x18(%ebp),%eax
c01054b4:	8d 50 01             	lea    0x1(%eax),%edx
c01054b7:	8b 45 f0             	mov    -0x10(%ebp),%eax
c01054ba:	01 c2                	add    %eax,%edx
c01054bc:	0f b6 45 d4          	movzbl -0x2c(%ebp),%eax
c01054c0:	88 02                	mov    %al,(%edx)
c01054c2:	0f b6 45 e7          	movzbl -0x19(%ebp),%eax
c01054c6:	0f af 45 e8          	imul   -0x18(%ebp),%eax
c01054ca:	8d 50 02             	lea    0x2(%eax),%edx
c01054cd:	8b 45 f0             	mov    -0x10(%ebp),%eax
c01054d0:	01 c2                	add    %eax,%edx
c01054d2:	0f b6 45 d8          	movzbl -0x28(%ebp),%eax
c01054d6:	88 02                	mov    %al,(%edx)
c01054d8:	83 45 e8 01          	addl   $0x1,-0x18(%ebp)
c01054dc:	0f b7 45 e0          	movzwl -0x20(%ebp),%eax
c01054e0:	39 45 e8             	cmp    %eax,-0x18(%ebp)
c01054e3:	7c b2                	jl     c0105497 <fill_square+0x51>
c01054e5:	a1 20 e0 10 c0       	mov    0xc010e020,%eax
c01054ea:	8b 40 10             	mov    0x10(%eax),%eax
c01054ed:	01 45 f0             	add    %eax,-0x10(%ebp)
c01054f0:	83 45 ec 01          	addl   $0x1,-0x14(%ebp)
c01054f4:	0f b7 45 dc          	movzwl -0x24(%ebp),%eax
c01054f8:	39 45 ec             	cmp    %eax,-0x14(%ebp)
c01054fb:	7c 91                	jl     c010548e <fill_square+0x48>
c01054fd:	90                   	nop
c01054fe:	90                   	nop
c01054ff:	83 c4 28             	add    $0x28,%esp
c0105502:	5b                   	pop    %ebx
c0105503:	5e                   	pop    %esi
c0105504:	5f                   	pop    %edi
c0105505:	5d                   	pop    %ebp
c0105506:	c3                   	ret

c0105507 <init_font>:
c0105507:	55                   	push   %ebp
c0105508:	89 e5                	mov    %esp,%ebp
c010550a:	83 ec 08             	sub    $0x8,%esp
c010550d:	c7 05 90 10 11 c0 8c 	movl   $0xc010a18c,0xc0111090
c0105514:	a1 10 c0 
c0105517:	a1 90 10 11 c0       	mov    0xc0111090,%eax
c010551c:	0f b6 00             	movzbl (%eax),%eax
c010551f:	3c 36                	cmp    $0x36,%al
c0105521:	75 39                	jne    c010555c <init_font+0x55>
c0105523:	a1 90 10 11 c0       	mov    0xc0111090,%eax
c0105528:	0f b6 40 01          	movzbl 0x1(%eax),%eax
c010552c:	3c 04                	cmp    $0x4,%al
c010552e:	75 2c                	jne    c010555c <init_font+0x55>
c0105530:	a1 90 10 11 c0       	mov    0xc0111090,%eax
c0105535:	0f b6 40 03          	movzbl 0x3(%eax),%eax
c0105539:	0f b6 d0             	movzbl %al,%edx
c010553c:	a1 90 10 11 c0       	mov    0xc0111090,%eax
c0105541:	0f b6 40 02          	movzbl 0x2(%eax),%eax
c0105545:	0f b6 c0             	movzbl %al,%eax
c0105548:	83 ec 04             	sub    $0x4,%esp
c010554b:	52                   	push   %edx
c010554c:	50                   	push   %eax
c010554d:	68 ac 8c 10 c0       	push   $0xc0108cac
c0105552:	e8 04 e5 ff ff       	call   c0103a5b <logf>
c0105557:	83 c4 10             	add    $0x10,%esp
c010555a:	eb 01                	jmp    c010555d <init_font+0x56>
c010555c:	90                   	nop
c010555d:	c9                   	leave
c010555e:	c3                   	ret

c010555f <put_pixel>:
c010555f:	55                   	push   %ebp
c0105560:	89 e5                	mov    %esp,%ebp
c0105562:	83 ec 18             	sub    $0x18,%esp
c0105565:	83 ec 08             	sub    $0x8,%esp
c0105568:	ff 75 0c             	push   0xc(%ebp)
c010556b:	ff 75 08             	push   0x8(%ebp)
c010556e:	e8 97 c6 ff ff       	call   c0101c0a <get_pixel_addr>
c0105573:	83 c4 10             	add    $0x10,%esp
c0105576:	89 45 f4             	mov    %eax,-0xc(%ebp)
c0105579:	83 ec 08             	sub    $0x8,%esp
c010557c:	ff 75 f4             	push   -0xc(%ebp)
c010557f:	68 ca 8c 10 c0       	push   $0xc0108cca
c0105584:	e8 d2 e4 ff ff       	call   c0103a5b <logf>
c0105589:	83 c4 10             	add    $0x10,%esp
c010558c:	8b 45 f4             	mov    -0xc(%ebp),%eax
c010558f:	c6 00 00             	movb   $0x0,(%eax)
c0105592:	8b 45 10             	mov    0x10(%ebp),%eax
c0105595:	c1 e8 10             	shr    $0x10,%eax
c0105598:	89 c2                	mov    %eax,%edx
c010559a:	8b 45 f4             	mov    -0xc(%ebp),%eax
c010559d:	83 c0 01             	add    $0x1,%eax
c01055a0:	83 e2 16             	and    $0x16,%edx
c01055a3:	88 10                	mov    %dl,(%eax)
c01055a5:	8b 45 10             	mov    0x10(%ebp),%eax
c01055a8:	c1 e8 08             	shr    $0x8,%eax
c01055ab:	89 c2                	mov    %eax,%edx
c01055ad:	8b 45 f4             	mov    -0xc(%ebp),%eax
c01055b0:	83 c0 01             	add    $0x1,%eax
c01055b3:	83 e2 16             	and    $0x16,%edx
c01055b6:	88 10                	mov    %dl,(%eax)
c01055b8:	90                   	nop
c01055b9:	c9                   	leave
c01055ba:	c3                   	ret

c01055bb <check_status>:
c01055bb:	55                   	push   %ebp
c01055bc:	89 e5                	mov    %esp,%ebp
c01055be:	83 ec 18             	sub    $0x18,%esp
c01055c1:	83 ec 0c             	sub    $0xc,%esp
c01055c4:	6a 64                	push   $0x64
c01055c6:	e8 65 e1 ff ff       	call   c0103730 <inportb>
c01055cb:	83 c4 10             	add    $0x10,%esp
c01055ce:	88 45 f7             	mov    %al,-0x9(%ebp)
c01055d1:	0f b6 45 f7          	movzbl -0x9(%ebp),%eax
c01055d5:	c9                   	leave
c01055d6:	c3                   	ret

c01055d7 <ps2_send_byte_port1>:
c01055d7:	55                   	push   %ebp
c01055d8:	89 e5                	mov    %esp,%ebp
c01055da:	83 ec 28             	sub    $0x28,%esp
c01055dd:	8b 45 08             	mov    0x8(%ebp),%eax
c01055e0:	88 45 e4             	mov    %al,-0x1c(%ebp)
c01055e3:	c7 45 f4 00 00 00 00 	movl   $0x0,-0xc(%ebp)
c01055ea:	c7 45 f0 80 0c 00 00 	movl   $0xc80,-0x10(%ebp)
c01055f1:	eb 1e                	jmp    c0105611 <ps2_send_byte_port1+0x3a>
c01055f3:	8b 45 f4             	mov    -0xc(%ebp),%eax
c01055f6:	3b 45 f0             	cmp    -0x10(%ebp),%eax
c01055f9:	75 12                	jne    c010560d <ps2_send_byte_port1+0x36>
c01055fb:	83 ec 0c             	sub    $0xc,%esp
c01055fe:	68 e0 8c 10 c0       	push   $0xc0108ce0
c0105603:	e8 53 e4 ff ff       	call   c0103a5b <logf>
c0105608:	83 c4 10             	add    $0x10,%esp
c010560b:	eb 25                	jmp    c0105632 <ps2_send_byte_port1+0x5b>
c010560d:	83 45 f4 01          	addl   $0x1,-0xc(%ebp)
c0105611:	e8 a5 ff ff ff       	call   c01055bb <check_status>
c0105616:	0f b6 c0             	movzbl %al,%eax
c0105619:	83 e0 02             	and    $0x2,%eax
c010561c:	85 c0                	test   %eax,%eax
c010561e:	75 d3                	jne    c01055f3 <ps2_send_byte_port1+0x1c>
c0105620:	0f b6 45 e4          	movzbl -0x1c(%ebp),%eax
c0105624:	83 ec 08             	sub    $0x8,%esp
c0105627:	50                   	push   %eax
c0105628:	6a 60                	push   $0x60
c010562a:	e8 1a e1 ff ff       	call   c0103749 <outportb>
c010562f:	83 c4 10             	add    $0x10,%esp
c0105632:	c9                   	leave
c0105633:	c3                   	ret

c0105634 <ps2_send_byte_port2>:
c0105634:	55                   	push   %ebp
c0105635:	89 e5                	mov    %esp,%ebp
c0105637:	83 ec 28             	sub    $0x28,%esp
c010563a:	8b 45 08             	mov    0x8(%ebp),%eax
c010563d:	88 45 e4             	mov    %al,-0x1c(%ebp)
c0105640:	c7 45 f4 00 00 00 00 	movl   $0x0,-0xc(%ebp)
c0105647:	c7 45 f0 80 0c 00 00 	movl   $0xc80,-0x10(%ebp)
c010564e:	83 ec 08             	sub    $0x8,%esp
c0105651:	68 d4 00 00 00       	push   $0xd4
c0105656:	6a 64                	push   $0x64
c0105658:	e8 ec e0 ff ff       	call   c0103749 <outportb>
c010565d:	83 c4 10             	add    $0x10,%esp
c0105660:	eb 1e                	jmp    c0105680 <ps2_send_byte_port2+0x4c>
c0105662:	8b 45 f4             	mov    -0xc(%ebp),%eax
c0105665:	3b 45 f0             	cmp    -0x10(%ebp),%eax
c0105668:	75 12                	jne    c010567c <ps2_send_byte_port2+0x48>
c010566a:	83 ec 0c             	sub    $0xc,%esp
c010566d:	68 e0 8c 10 c0       	push   $0xc0108ce0
c0105672:	e8 e4 e3 ff ff       	call   c0103a5b <logf>
c0105677:	83 c4 10             	add    $0x10,%esp
c010567a:	eb 25                	jmp    c01056a1 <ps2_send_byte_port2+0x6d>
c010567c:	83 45 f4 01          	addl   $0x1,-0xc(%ebp)
c0105680:	e8 36 ff ff ff       	call   c01055bb <check_status>
c0105685:	0f b6 c0             	movzbl %al,%eax
c0105688:	83 e0 02             	and    $0x2,%eax
c010568b:	85 c0                	test   %eax,%eax
c010568d:	75 d3                	jne    c0105662 <ps2_send_byte_port2+0x2e>
c010568f:	0f b6 45 e4          	movzbl -0x1c(%ebp),%eax
c0105693:	83 ec 08             	sub    $0x8,%esp
c0105696:	50                   	push   %eax
c0105697:	6a 60                	push   $0x60
c0105699:	e8 ab e0 ff ff       	call   c0103749 <outportb>
c010569e:	83 c4 10             	add    $0x10,%esp
c01056a1:	c9                   	leave
c01056a2:	c3                   	ret

c01056a3 <ps2_get_responce>:
c01056a3:	55                   	push   %ebp
c01056a4:	89 e5                	mov    %esp,%ebp
c01056a6:	83 ec 08             	sub    $0x8,%esp
c01056a9:	90                   	nop
c01056aa:	e8 0c ff ff ff       	call   c01055bb <check_status>
c01056af:	0f b6 c0             	movzbl %al,%eax
c01056b2:	83 e0 01             	and    $0x1,%eax
c01056b5:	85 c0                	test   %eax,%eax
c01056b7:	74 f1                	je     c01056aa <ps2_get_responce+0x7>
c01056b9:	83 ec 0c             	sub    $0xc,%esp
c01056bc:	6a 60                	push   $0x60
c01056be:	e8 6d e0 ff ff       	call   c0103730 <inportb>
c01056c3:	83 c4 10             	add    $0x10,%esp
c01056c6:	c9                   	leave
c01056c7:	c3                   	ret

c01056c8 <ps2_get_responce_to>:
c01056c8:	55                   	push   %ebp
c01056c9:	89 e5                	mov    %esp,%ebp
c01056cb:	83 ec 18             	sub    $0x18,%esp
c01056ce:	c7 45 f4 00 00 00 00 	movl   $0x0,-0xc(%ebp)
c01056d5:	eb 13                	jmp    c01056ea <ps2_get_responce_to+0x22>
c01056d7:	8b 45 f4             	mov    -0xc(%ebp),%eax
c01056da:	3b 45 08             	cmp    0x8(%ebp),%eax
c01056dd:	72 07                	jb     c01056e6 <ps2_get_responce_to+0x1e>
c01056df:	b8 00 00 00 00       	mov    $0x0,%eax
c01056e4:	eb 20                	jmp    c0105706 <ps2_get_responce_to+0x3e>
c01056e6:	83 45 f4 01          	addl   $0x1,-0xc(%ebp)
c01056ea:	e8 cc fe ff ff       	call   c01055bb <check_status>
c01056ef:	0f b6 c0             	movzbl %al,%eax
c01056f2:	83 e0 01             	and    $0x1,%eax
c01056f5:	85 c0                	test   %eax,%eax
c01056f7:	74 de                	je     c01056d7 <ps2_get_responce_to+0xf>
c01056f9:	83 ec 0c             	sub    $0xc,%esp
c01056fc:	6a 60                	push   $0x60
c01056fe:	e8 2d e0 ff ff       	call   c0103730 <inportb>
c0105703:	83 c4 10             	add    $0x10,%esp
c0105706:	c9                   	leave
c0105707:	c3                   	ret

c0105708 <ps2_send_dbyte>:
c0105708:	55                   	push   %ebp
c0105709:	89 e5                	mov    %esp,%ebp
c010570b:	83 ec 18             	sub    $0x18,%esp
c010570e:	8b 55 08             	mov    0x8(%ebp),%edx
c0105711:	8b 45 0c             	mov    0xc(%ebp),%eax
c0105714:	88 55 f4             	mov    %dl,-0xc(%ebp)
c0105717:	88 45 f0             	mov    %al,-0x10(%ebp)
c010571a:	0f b6 45 f4          	movzbl -0xc(%ebp),%eax
c010571e:	83 ec 08             	sub    $0x8,%esp
c0105721:	50                   	push   %eax
c0105722:	6a 64                	push   $0x64
c0105724:	e8 20 e0 ff ff       	call   c0103749 <outportb>
c0105729:	83 c4 10             	add    $0x10,%esp
c010572c:	eb 19                	jmp    c0105747 <ps2_send_dbyte+0x3f>
c010572e:	e8 88 fe ff ff       	call   c01055bb <check_status>
c0105733:	0f b6 c0             	movzbl %al,%eax
c0105736:	83 ec 08             	sub    $0x8,%esp
c0105739:	50                   	push   %eax
c010573a:	68 f7 8c 10 c0       	push   $0xc0108cf7
c010573f:	e8 17 e3 ff ff       	call   c0103a5b <logf>
c0105744:	83 c4 10             	add    $0x10,%esp
c0105747:	e8 6f fe ff ff       	call   c01055bb <check_status>
c010574c:	0f b6 c0             	movzbl %al,%eax
c010574f:	83 e0 02             	and    $0x2,%eax
c0105752:	85 c0                	test   %eax,%eax
c0105754:	75 d8                	jne    c010572e <ps2_send_dbyte+0x26>
c0105756:	0f b6 45 f0          	movzbl -0x10(%ebp),%eax
c010575a:	83 ec 08             	sub    $0x8,%esp
c010575d:	50                   	push   %eax
c010575e:	6a 64                	push   $0x64
c0105760:	e8 e4 df ff ff       	call   c0103749 <outportb>
c0105765:	83 c4 10             	add    $0x10,%esp
c0105768:	90                   	nop
c0105769:	c9                   	leave
c010576a:	c3                   	ret

c010576b <ps2_send_command>:
c010576b:	55                   	push   %ebp
c010576c:	89 e5                	mov    %esp,%ebp
c010576e:	83 ec 18             	sub    $0x18,%esp
c0105771:	8b 45 08             	mov    0x8(%ebp),%eax
c0105774:	88 45 f4             	mov    %al,-0xc(%ebp)
c0105777:	90                   	nop
c0105778:	e8 3e fe ff ff       	call   c01055bb <check_status>
c010577d:	0f b6 c0             	movzbl %al,%eax
c0105780:	83 e0 02             	and    $0x2,%eax
c0105783:	85 c0                	test   %eax,%eax
c0105785:	75 f1                	jne    c0105778 <ps2_send_command+0xd>
c0105787:	0f b6 45 f4          	movzbl -0xc(%ebp),%eax
c010578b:	83 ec 08             	sub    $0x8,%esp
c010578e:	50                   	push   %eax
c010578f:	6a 64                	push   $0x64
c0105791:	e8 b3 df ff ff       	call   c0103749 <outportb>
c0105796:	83 c4 10             	add    $0x10,%esp
c0105799:	90                   	nop
c010579a:	c9                   	leave
c010579b:	c3                   	ret

c010579c <run_idle>:
c010579c:	55                   	push   %ebp
c010579d:	89 e5                	mov    %esp,%ebp
c010579f:	f4                   	hlt
c01057a0:	eb fd                	jmp    c010579f <run_idle+0x3>

c01057a2 <set_current_process_idle>:
c01057a2:	55                   	push   %ebp
c01057a3:	89 e5                	mov    %esp,%ebp
c01057a5:	a1 a4 10 11 c0       	mov    0xc01110a4,%eax
c01057aa:	c7 40 04 02 00 00 00 	movl   $0x2,0x4(%eax)
c01057b1:	f4                   	hlt
c01057b2:	90                   	nop
c01057b3:	5d                   	pop    %ebp
c01057b4:	c3                   	ret

c01057b5 <init_idle_process>:
c01057b5:	55                   	push   %ebp
c01057b6:	89 e5                	mov    %esp,%ebp
c01057b8:	83 ec 08             	sub    $0x8,%esp
c01057bb:	6a 02                	push   $0x2
c01057bd:	6a 00                	push   $0x0
c01057bf:	68 9c 57 10 c0       	push   $0xc010579c
c01057c4:	68 04 8d 10 c0       	push   $0xc0108d04
c01057c9:	e8 02 04 00 00       	call   c0105bd0 <create_process>
c01057ce:	83 c4 10             	add    $0x10,%esp
c01057d1:	a3 a8 10 11 c0       	mov    %eax,0xc01110a8
c01057d6:	90                   	nop
c01057d7:	c9                   	leave
c01057d8:	c3                   	ret

c01057d9 <init_scheduler>:
c01057d9:	55                   	push   %ebp
c01057da:	89 e5                	mov    %esp,%ebp
c01057dc:	83 ec 08             	sub    $0x8,%esp
c01057df:	c7 05 a0 10 11 c0 00 	movl   $0x0,0xc01110a0
c01057e6:	00 00 00 
c01057e9:	c7 05 a4 10 11 c0 00 	movl   $0x0,0xc01110a4
c01057f0:	00 00 00 
c01057f3:	e8 bd ff ff ff       	call   c01057b5 <init_idle_process>
c01057f8:	c7 05 ac 10 11 c0 01 	movl   $0x1,0xc01110ac
c01057ff:	00 00 00 
c0105802:	90                   	nop
c0105803:	c9                   	leave
c0105804:	c3                   	ret

c0105805 <add_process>:
c0105805:	55                   	push   %ebp
c0105806:	89 e5                	mov    %esp,%ebp
c0105808:	83 ec 18             	sub    $0x18,%esp
c010580b:	8b 45 08             	mov    0x8(%ebp),%eax
c010580e:	8b 40 50             	mov    0x50(%eax),%eax
c0105811:	83 ec 04             	sub    $0x4,%esp
c0105814:	50                   	push   %eax
c0105815:	ff 75 08             	push   0x8(%ebp)
c0105818:	68 0c 8d 10 c0       	push   $0xc0108d0c
c010581d:	e8 39 e2 ff ff       	call   c0103a5b <logf>
c0105822:	83 c4 10             	add    $0x10,%esp
c0105825:	a1 a0 10 11 c0       	mov    0xc01110a0,%eax
c010582a:	89 45 f4             	mov    %eax,-0xc(%ebp)
c010582d:	83 ec 0c             	sub    $0xc,%esp
c0105830:	68 39 8d 10 c0       	push   $0xc0108d39
c0105835:	e8 21 e2 ff ff       	call   c0103a5b <logf>
c010583a:	83 c4 10             	add    $0x10,%esp
c010583d:	8b 45 08             	mov    0x8(%ebp),%eax
c0105840:	8b 00                	mov    (%eax),%eax
c0105842:	83 ec 08             	sub    $0x8,%esp
c0105845:	50                   	push   %eax
c0105846:	68 48 8d 10 c0       	push   $0xc0108d48
c010584b:	e8 0b e2 ff ff       	call   c0103a5b <logf>
c0105850:	83 c4 10             	add    $0x10,%esp
c0105853:	8b 45 08             	mov    0x8(%ebp),%eax
c0105856:	8b 40 08             	mov    0x8(%eax),%eax
c0105859:	83 ec 08             	sub    $0x8,%esp
c010585c:	50                   	push   %eax
c010585d:	68 70 8d 10 c0       	push   $0xc0108d70
c0105862:	e8 f4 e1 ff ff       	call   c0103a5b <logf>
c0105867:	83 c4 10             	add    $0x10,%esp
c010586a:	83 7d f4 00          	cmpl   $0x0,-0xc(%ebp)
c010586e:	75 13                	jne    c0105883 <add_process+0x7e>
c0105870:	8b 45 08             	mov    0x8(%ebp),%eax
c0105873:	a3 a0 10 11 c0       	mov    %eax,0xc01110a0
c0105878:	eb 1c                	jmp    c0105896 <add_process+0x91>
c010587a:	8b 45 f4             	mov    -0xc(%ebp),%eax
c010587d:	8b 40 50             	mov    0x50(%eax),%eax
c0105880:	89 45 f4             	mov    %eax,-0xc(%ebp)
c0105883:	8b 45 f4             	mov    -0xc(%ebp),%eax
c0105886:	8b 40 50             	mov    0x50(%eax),%eax
c0105889:	85 c0                	test   %eax,%eax
c010588b:	75 ed                	jne    c010587a <add_process+0x75>
c010588d:	8b 45 f4             	mov    -0xc(%ebp),%eax
c0105890:	8b 55 08             	mov    0x8(%ebp),%edx
c0105893:	89 50 50             	mov    %edx,0x50(%eax)
c0105896:	c9                   	leave
c0105897:	c3                   	ret

c0105898 <delete_process>:
c0105898:	55                   	push   %ebp
c0105899:	89 e5                	mov    %esp,%ebp
c010589b:	83 ec 18             	sub    $0x18,%esp
c010589e:	83 ec 0c             	sub    $0xc,%esp
c01058a1:	68 93 8d 10 c0       	push   $0xc0108d93
c01058a6:	e8 b0 e1 ff ff       	call   c0103a5b <logf>
c01058ab:	83 c4 10             	add    $0x10,%esp
c01058ae:	a1 a0 10 11 c0       	mov    0xc01110a0,%eax
c01058b3:	39 45 08             	cmp    %eax,0x8(%ebp)
c01058b6:	75 26                	jne    c01058de <delete_process+0x46>
c01058b8:	a1 a0 10 11 c0       	mov    0xc01110a0,%eax
c01058bd:	8b 40 50             	mov    0x50(%eax),%eax
c01058c0:	89 45 f0             	mov    %eax,-0x10(%ebp)
c01058c3:	8b 45 f0             	mov    -0x10(%ebp),%eax
c01058c6:	a3 a0 10 11 c0       	mov    %eax,0xc01110a0
c01058cb:	83 ec 0c             	sub    $0xc,%esp
c01058ce:	ff 75 08             	push   0x8(%ebp)
c01058d1:	e8 51 e9 ff ff       	call   c0104227 <kfree>
c01058d6:	83 c4 10             	add    $0x10,%esp
c01058d9:	e9 84 00 00 00       	jmp    c0105962 <delete_process+0xca>
c01058de:	a1 a0 10 11 c0       	mov    0xc01110a0,%eax
c01058e3:	89 45 f4             	mov    %eax,-0xc(%ebp)
c01058e6:	eb 14                	jmp    c01058fc <delete_process+0x64>
c01058e8:	8b 45 f4             	mov    -0xc(%ebp),%eax
c01058eb:	8b 40 50             	mov    0x50(%eax),%eax
c01058ee:	39 45 08             	cmp    %eax,0x8(%ebp)
c01058f1:	74 15                	je     c0105908 <delete_process+0x70>
c01058f3:	8b 45 f4             	mov    -0xc(%ebp),%eax
c01058f6:	8b 40 50             	mov    0x50(%eax),%eax
c01058f9:	89 45 f4             	mov    %eax,-0xc(%ebp)
c01058fc:	8b 45 f4             	mov    -0xc(%ebp),%eax
c01058ff:	8b 40 50             	mov    0x50(%eax),%eax
c0105902:	85 c0                	test   %eax,%eax
c0105904:	75 e2                	jne    c01058e8 <delete_process+0x50>
c0105906:	eb 01                	jmp    c0105909 <delete_process+0x71>
c0105908:	90                   	nop
c0105909:	8b 45 08             	mov    0x8(%ebp),%eax
c010590c:	8b 50 50             	mov    0x50(%eax),%edx
c010590f:	8b 45 f4             	mov    -0xc(%ebp),%eax
c0105912:	89 50 50             	mov    %edx,0x50(%eax)
c0105915:	8b 45 08             	mov    0x8(%ebp),%eax
c0105918:	8b 00                	mov    (%eax),%eax
c010591a:	83 ec 08             	sub    $0x8,%esp
c010591d:	50                   	push   %eax
c010591e:	68 9b 8d 10 c0       	push   $0xc0108d9b
c0105923:	e8 33 e1 ff ff       	call   c0103a5b <logf>
c0105928:	83 c4 10             	add    $0x10,%esp
c010592b:	8b 45 08             	mov    0x8(%ebp),%eax
c010592e:	8b 40 08             	mov    0x8(%eax),%eax
c0105931:	83 ec 08             	sub    $0x8,%esp
c0105934:	50                   	push   %eax
c0105935:	68 b0 8d 10 c0       	push   $0xc0108db0
c010593a:	e8 1c e1 ff ff       	call   c0103a5b <logf>
c010593f:	83 c4 10             	add    $0x10,%esp
c0105942:	8b 45 08             	mov    0x8(%ebp),%eax
c0105945:	8b 40 08             	mov    0x8(%eax),%eax
c0105948:	83 ec 0c             	sub    $0xc,%esp
c010594b:	50                   	push   %eax
c010594c:	e8 d6 e8 ff ff       	call   c0104227 <kfree>
c0105951:	83 c4 10             	add    $0x10,%esp
c0105954:	83 ec 0c             	sub    $0xc,%esp
c0105957:	ff 75 08             	push   0x8(%ebp)
c010595a:	e8 c8 e8 ff ff       	call   c0104227 <kfree>
c010595f:	83 c4 10             	add    $0x10,%esp
c0105962:	c9                   	leave
c0105963:	c3                   	ret

c0105964 <get_process_head>:
c0105964:	55                   	push   %ebp
c0105965:	89 e5                	mov    %esp,%ebp
c0105967:	a1 a0 10 11 c0       	mov    0xc01110a0,%eax
c010596c:	5d                   	pop    %ebp
c010596d:	c3                   	ret

c010596e <create_new_pdptes>:
c010596e:	55                   	push   %ebp
c010596f:	89 e5                	mov    %esp,%ebp
c0105971:	83 ec 48             	sub    $0x48,%esp
c0105974:	e8 32 b9 ff ff       	call   c01012ab <alloc_phys_page>
c0105979:	89 45 f0             	mov    %eax,-0x10(%ebp)
c010597c:	89 55 f4             	mov    %edx,-0xc(%ebp)
c010597f:	e8 27 b9 ff ff       	call   c01012ab <alloc_phys_page>
c0105984:	89 45 e8             	mov    %eax,-0x18(%ebp)
c0105987:	89 55 ec             	mov    %edx,-0x14(%ebp)
c010598a:	e8 1c b9 ff ff       	call   c01012ab <alloc_phys_page>
c010598f:	89 45 e0             	mov    %eax,-0x20(%ebp)
c0105992:	89 55 e4             	mov    %edx,-0x1c(%ebp)
c0105995:	e8 11 b9 ff ff       	call   c01012ab <alloc_phys_page>
c010599a:	89 45 d8             	mov    %eax,-0x28(%ebp)
c010599d:	89 55 dc             	mov    %edx,-0x24(%ebp)
c01059a0:	ff 75 dc             	push   -0x24(%ebp)
c01059a3:	ff 75 d8             	push   -0x28(%ebp)
c01059a6:	6a 03                	push   $0x3
c01059a8:	68 00 10 00 00       	push   $0x1000
c01059ad:	e8 5f bc ff ff       	call   c0101611 <pae_kalloc>
c01059b2:	83 c4 10             	add    $0x10,%esp
c01059b5:	89 45 d4             	mov    %eax,-0x2c(%ebp)
c01059b8:	ff 75 d4             	push   -0x2c(%ebp)
c01059bb:	68 00 00 00 c0       	push   $0xc0000000
c01059c0:	68 00 00 01 00       	push   $0x10000
c01059c5:	6a 00                	push   $0x0
c01059c7:	e8 a4 ba ff ff       	call   c0101470 <create_vmm>
c01059cc:	83 c4 10             	add    $0x10,%esp
c01059cf:	89 45 d0             	mov    %eax,-0x30(%ebp)
c01059d2:	8b 45 08             	mov    0x8(%ebp),%eax
c01059d5:	8b 55 d0             	mov    -0x30(%ebp),%edx
c01059d8:	89 50 0c             	mov    %edx,0xc(%eax)
c01059db:	8b 45 d0             	mov    -0x30(%ebp),%eax
c01059de:	8b 40 04             	mov    0x4(%eax),%eax
c01059e1:	ff 75 f4             	push   -0xc(%ebp)
c01059e4:	ff 75 f0             	push   -0x10(%ebp)
c01059e7:	50                   	push   %eax
c01059e8:	68 d0 8d 10 c0       	push   $0xc0108dd0
c01059ed:	e8 69 e0 ff ff       	call   c0103a5b <logf>
c01059f2:	83 c4 10             	add    $0x10,%esp
c01059f5:	c7 45 cc 00 00 00 ff 	movl   $0xff000000,-0x34(%ebp)
c01059fc:	8b 45 08             	mov    0x8(%ebp),%eax
c01059ff:	8b 40 0c             	mov    0xc(%eax),%eax
c0105a02:	8b 40 04             	mov    0x4(%eax),%eax
c0105a05:	83 ec 0c             	sub    $0xc,%esp
c0105a08:	6a 03                	push   $0x3
c0105a0a:	68 00 00 00 ff       	push   $0xff000000
c0105a0f:	ff 75 f4             	push   -0xc(%ebp)
c0105a12:	ff 75 f0             	push   -0x10(%ebp)
c0105a15:	50                   	push   %eax
c0105a16:	e8 c4 d1 ff ff       	call   c0102bdf <pae_mmap>
c0105a1b:	83 c4 20             	add    $0x20,%esp
c0105a1e:	0f 20 d8             	mov    %cr3,%eax
c0105a21:	0f 22 d8             	mov    %eax,%cr3
c0105a24:	83 ec 04             	sub    $0x4,%esp
c0105a27:	68 00 10 00 00       	push   $0x1000
c0105a2c:	6a 00                	push   $0x0
c0105a2e:	ff 75 cc             	push   -0x34(%ebp)
c0105a31:	e8 07 e5 ff ff       	call   c0103f3d <memset>
c0105a36:	83 c4 10             	add    $0x10,%esp
c0105a39:	8b 45 cc             	mov    -0x34(%ebp),%eax
c0105a3c:	8d 88 f8 0f 00 00    	lea    0xff8(%eax),%ecx
c0105a42:	8b 45 f0             	mov    -0x10(%ebp),%eax
c0105a45:	8b 55 f4             	mov    -0xc(%ebp),%edx
c0105a48:	83 c8 01             	or     $0x1,%eax
c0105a4b:	89 01                	mov    %eax,(%ecx)
c0105a4d:	89 51 04             	mov    %edx,0x4(%ecx)
c0105a50:	8b 45 08             	mov    0x8(%ebp),%eax
c0105a53:	8b 40 0c             	mov    0xc(%eax),%eax
c0105a56:	8b 40 04             	mov    0x4(%eax),%eax
c0105a59:	83 ec 0c             	sub    $0xc,%esp
c0105a5c:	6a 03                	push   $0x3
c0105a5e:	68 00 00 00 ff       	push   $0xff000000
c0105a63:	ff 75 ec             	push   -0x14(%ebp)
c0105a66:	ff 75 e8             	push   -0x18(%ebp)
c0105a69:	50                   	push   %eax
c0105a6a:	e8 70 d1 ff ff       	call   c0102bdf <pae_mmap>
c0105a6f:	83 c4 20             	add    $0x20,%esp
c0105a72:	0f 20 d8             	mov    %cr3,%eax
c0105a75:	0f 22 d8             	mov    %eax,%cr3
c0105a78:	83 ec 04             	sub    $0x4,%esp
c0105a7b:	68 00 10 00 00       	push   $0x1000
c0105a80:	6a 00                	push   $0x0
c0105a82:	ff 75 cc             	push   -0x34(%ebp)
c0105a85:	e8 b3 e4 ff ff       	call   c0103f3d <memset>
c0105a8a:	83 c4 10             	add    $0x10,%esp
c0105a8d:	8b 45 cc             	mov    -0x34(%ebp),%eax
c0105a90:	8d 88 f8 0f 00 00    	lea    0xff8(%eax),%ecx
c0105a96:	8b 45 e8             	mov    -0x18(%ebp),%eax
c0105a99:	8b 55 ec             	mov    -0x14(%ebp),%edx
c0105a9c:	83 c8 01             	or     $0x1,%eax
c0105a9f:	89 01                	mov    %eax,(%ecx)
c0105aa1:	89 51 04             	mov    %edx,0x4(%ecx)
c0105aa4:	8b 45 08             	mov    0x8(%ebp),%eax
c0105aa7:	8b 40 0c             	mov    0xc(%eax),%eax
c0105aaa:	8b 40 04             	mov    0x4(%eax),%eax
c0105aad:	83 ec 0c             	sub    $0xc,%esp
c0105ab0:	6a 03                	push   $0x3
c0105ab2:	68 00 00 00 ff       	push   $0xff000000
c0105ab7:	ff 75 e4             	push   -0x1c(%ebp)
c0105aba:	ff 75 e0             	push   -0x20(%ebp)
c0105abd:	50                   	push   %eax
c0105abe:	e8 1c d1 ff ff       	call   c0102bdf <pae_mmap>
c0105ac3:	83 c4 20             	add    $0x20,%esp
c0105ac6:	0f 20 d8             	mov    %cr3,%eax
c0105ac9:	0f 22 d8             	mov    %eax,%cr3
c0105acc:	8b 45 cc             	mov    -0x34(%ebp),%eax
c0105acf:	8d 88 f8 0f 00 00    	lea    0xff8(%eax),%ecx
c0105ad5:	8b 45 e0             	mov    -0x20(%ebp),%eax
c0105ad8:	8b 55 e4             	mov    -0x1c(%ebp),%edx
c0105adb:	83 c8 01             	or     $0x1,%eax
c0105ade:	89 01                	mov    %eax,(%ecx)
c0105ae0:	89 51 04             	mov    %edx,0x4(%ecx)
c0105ae3:	83 ec 0c             	sub    $0xc,%esp
c0105ae6:	ff 75 cc             	push   -0x34(%ebp)
c0105ae9:	e8 35 d2 ff ff       	call   c0102d23 <pae_unmap>
c0105aee:	83 c4 10             	add    $0x10,%esp
c0105af1:	8b 4d d0             	mov    -0x30(%ebp),%ecx
c0105af4:	8b 45 f0             	mov    -0x10(%ebp),%eax
c0105af7:	8b 55 f4             	mov    -0xc(%ebp),%edx
c0105afa:	89 41 08             	mov    %eax,0x8(%ecx)
c0105afd:	89 51 0c             	mov    %edx,0xc(%ecx)
c0105b00:	8b 4d d0             	mov    -0x30(%ebp),%ecx
c0105b03:	8b 45 e8             	mov    -0x18(%ebp),%eax
c0105b06:	8b 55 ec             	mov    -0x14(%ebp),%edx
c0105b09:	89 41 10             	mov    %eax,0x10(%ecx)
c0105b0c:	89 51 14             	mov    %edx,0x14(%ecx)
c0105b0f:	8b 4d d0             	mov    -0x30(%ebp),%ecx
c0105b12:	8b 45 e0             	mov    -0x20(%ebp),%eax
c0105b15:	8b 55 e4             	mov    -0x1c(%ebp),%edx
c0105b18:	89 41 18             	mov    %eax,0x18(%ecx)
c0105b1b:	89 51 1c             	mov    %edx,0x1c(%ecx)
c0105b1e:	83 ec 0c             	sub    $0xc,%esp
c0105b21:	ff 75 d0             	push   -0x30(%ebp)
c0105b24:	e8 53 bc ff ff       	call   c010177c <set_current_vmm>
c0105b29:	83 c4 10             	add    $0x10,%esp
c0105b2c:	8b 45 d8             	mov    -0x28(%ebp),%eax
c0105b2f:	ba 00 00 00 00       	mov    $0x0,%edx
c0105b34:	52                   	push   %edx
c0105b35:	50                   	push   %eax
c0105b36:	6a 03                	push   $0x3
c0105b38:	68 00 10 00 00       	push   $0x1000
c0105b3d:	e8 1f bb ff ff       	call   c0101661 <pae_alloc>
c0105b42:	83 c4 10             	add    $0x10,%esp
c0105b45:	89 45 c8             	mov    %eax,-0x38(%ebp)
c0105b48:	8b 45 d0             	mov    -0x30(%ebp),%eax
c0105b4b:	8b 40 20             	mov    0x20(%eax),%eax
c0105b4e:	89 c2                	mov    %eax,%edx
c0105b50:	8b 45 d0             	mov    -0x30(%ebp),%eax
c0105b53:	8b 40 24             	mov    0x24(%eax),%eax
c0105b56:	29 c2                	sub    %eax,%edx
c0105b58:	89 55 c4             	mov    %edx,-0x3c(%ebp)
c0105b5b:	8b 45 c8             	mov    -0x38(%ebp),%eax
c0105b5e:	8d 50 30             	lea    0x30(%eax),%edx
c0105b61:	8b 45 d0             	mov    -0x30(%ebp),%eax
c0105b64:	89 50 24             	mov    %edx,0x24(%eax)
c0105b67:	8b 45 d0             	mov    -0x30(%ebp),%eax
c0105b6a:	8b 50 24             	mov    0x24(%eax),%edx
c0105b6d:	8b 45 c4             	mov    -0x3c(%ebp),%eax
c0105b70:	01 d0                	add    %edx,%eax
c0105b72:	89 c2                	mov    %eax,%edx
c0105b74:	8b 45 d0             	mov    -0x30(%ebp),%eax
c0105b77:	89 50 20             	mov    %edx,0x20(%eax)
c0105b7a:	83 ec 0c             	sub    $0xc,%esp
c0105b7d:	ff 75 d0             	push   -0x30(%ebp)
c0105b80:	e8 44 c0 ff ff       	call   c0101bc9 <alloc_stack>
c0105b85:	83 c4 10             	add    $0x10,%esp
c0105b88:	89 c2                	mov    %eax,%edx
c0105b8a:	8b 45 08             	mov    0x8(%ebp),%eax
c0105b8d:	8b 40 08             	mov    0x8(%eax),%eax
c0105b90:	83 ea 64             	sub    $0x64,%edx
c0105b93:	89 50 0c             	mov    %edx,0xc(%eax)
c0105b96:	90                   	nop
c0105b97:	c9                   	leave
c0105b98:	c3                   	ret

c0105b99 <kill_current_process>:
c0105b99:	55                   	push   %ebp
c0105b9a:	89 e5                	mov    %esp,%ebp
c0105b9c:	83 ec 08             	sub    $0x8,%esp
c0105b9f:	a1 a4 10 11 c0       	mov    0xc01110a4,%eax
c0105ba4:	c7 40 04 03 00 00 00 	movl   $0x3,0x4(%eax)
c0105bab:	a1 a4 10 11 c0       	mov    0xc01110a4,%eax
c0105bb0:	83 ec 08             	sub    $0x8,%esp
c0105bb3:	50                   	push   %eax
c0105bb4:	68 e8 8d 10 c0       	push   $0xc0108de8
c0105bb9:	e8 9d de ff ff       	call   c0103a5b <logf>
c0105bbe:	83 c4 10             	add    $0x10,%esp
c0105bc1:	a1 a4 10 11 c0       	mov    0xc01110a4,%eax
c0105bc6:	c7 40 50 00 00 00 00 	movl   $0x0,0x50(%eax)
c0105bcd:	f4                   	hlt
c0105bce:	eb fd                	jmp    c0105bcd <kill_current_process+0x34>

c0105bd0 <create_process>:
c0105bd0:	55                   	push   %ebp
c0105bd1:	89 e5                	mov    %esp,%ebp
c0105bd3:	83 ec 18             	sub    $0x18,%esp
c0105bd6:	a1 0c e0 10 c0       	mov    0xc010e00c,%eax
c0105bdb:	89 45 f4             	mov    %eax,-0xc(%ebp)
c0105bde:	83 ec 0c             	sub    $0xc,%esp
c0105be1:	6a 54                	push   $0x54
c0105be3:	e8 aa e4 ff ff       	call   c0104092 <kalloc>
c0105be8:	83 c4 10             	add    $0x10,%esp
c0105beb:	89 45 f0             	mov    %eax,-0x10(%ebp)
c0105bee:	83 ec 0c             	sub    $0xc,%esp
c0105bf1:	68 03 8e 10 c0       	push   $0xc0108e03
c0105bf6:	e8 60 de ff ff       	call   c0103a5b <logf>
c0105bfb:	83 c4 10             	add    $0x10,%esp
c0105bfe:	83 ec 08             	sub    $0x8,%esp
c0105c01:	ff 75 f0             	push   -0x10(%ebp)
c0105c04:	68 08 8e 10 c0       	push   $0xc0108e08
c0105c09:	e8 4d de ff ff       	call   c0103a5b <logf>
c0105c0e:	83 c4 10             	add    $0x10,%esp
c0105c11:	83 ec 04             	sub    $0x4,%esp
c0105c14:	6a 04                	push   $0x4
c0105c16:	6a 00                	push   $0x0
c0105c18:	ff 75 f0             	push   -0x10(%ebp)
c0105c1b:	e8 1d e3 ff ff       	call   c0103f3d <memset>
c0105c20:	83 c4 10             	add    $0x10,%esp
c0105c23:	83 ec 08             	sub    $0x8,%esp
c0105c26:	ff 75 08             	push   0x8(%ebp)
c0105c29:	68 20 8e 10 c0       	push   $0xc0108e20
c0105c2e:	e8 28 de ff ff       	call   c0103a5b <logf>
c0105c33:	83 c4 10             	add    $0x10,%esp
c0105c36:	8b 45 f0             	mov    -0x10(%ebp),%eax
c0105c39:	83 c0 10             	add    $0x10,%eax
c0105c3c:	83 ec 04             	sub    $0x4,%esp
c0105c3f:	6a 40                	push   $0x40
c0105c41:	ff 75 08             	push   0x8(%ebp)
c0105c44:	50                   	push   %eax
c0105c45:	e8 85 e3 ff ff       	call   c0103fcf <strncpy>
c0105c4a:	83 c4 10             	add    $0x10,%esp
c0105c4d:	a1 b0 10 11 c0       	mov    0xc01110b0,%eax
c0105c52:	8d 50 01             	lea    0x1(%eax),%edx
c0105c55:	89 15 b0 10 11 c0    	mov    %edx,0xc01110b0
c0105c5b:	8b 55 f0             	mov    -0x10(%ebp),%edx
c0105c5e:	89 02                	mov    %eax,(%edx)
c0105c60:	8b 45 f0             	mov    -0x10(%ebp),%eax
c0105c63:	8b 00                	mov    (%eax),%eax
c0105c65:	83 ec 08             	sub    $0x8,%esp
c0105c68:	50                   	push   %eax
c0105c69:	68 32 8e 10 c0       	push   $0xc0108e32
c0105c6e:	e8 e8 dd ff ff       	call   c0103a5b <logf>
c0105c73:	83 c4 10             	add    $0x10,%esp
c0105c76:	8b 45 f0             	mov    -0x10(%ebp),%eax
c0105c79:	c7 40 04 00 00 00 00 	movl   $0x0,0x4(%eax)
c0105c80:	83 ec 0c             	sub    $0xc,%esp
c0105c83:	6a 40                	push   $0x40
c0105c85:	e8 08 e4 ff ff       	call   c0104092 <kalloc>
c0105c8a:	83 c4 10             	add    $0x10,%esp
c0105c8d:	8b 55 f0             	mov    -0x10(%ebp),%edx
c0105c90:	89 42 08             	mov    %eax,0x8(%edx)
c0105c93:	8b 45 f0             	mov    -0x10(%ebp),%eax
c0105c96:	8b 40 08             	mov    0x8(%eax),%eax
c0105c99:	83 ec 04             	sub    $0x4,%esp
c0105c9c:	6a 40                	push   $0x40
c0105c9e:	6a 00                	push   $0x0
c0105ca0:	50                   	push   %eax
c0105ca1:	e8 97 e2 ff ff       	call   c0103f3d <memset>
c0105ca6:	83 c4 10             	add    $0x10,%esp
c0105ca9:	83 ec 0c             	sub    $0xc,%esp
c0105cac:	ff 75 f0             	push   -0x10(%ebp)
c0105caf:	e8 ba fc ff ff       	call   c010596e <create_new_pdptes>
c0105cb4:	83 c4 10             	add    $0x10,%esp
c0105cb7:	8b 45 f0             	mov    -0x10(%ebp),%eax
c0105cba:	8b 40 08             	mov    0x8(%eax),%eax
c0105cbd:	c7 40 3c 02 02 20 00 	movl   $0x200202,0x3c(%eax)
c0105cc4:	8b 45 f0             	mov    -0x10(%ebp),%eax
c0105cc7:	8b 40 08             	mov    0x8(%eax),%eax
c0105cca:	c7 40 38 08 00 00 00 	movl   $0x8,0x38(%eax)
c0105cd1:	8b 45 f0             	mov    -0x10(%ebp),%eax
c0105cd4:	8b 40 08             	mov    0x8(%eax),%eax
c0105cd7:	8b 55 0c             	mov    0xc(%ebp),%edx
c0105cda:	89 50 34             	mov    %edx,0x34(%eax)
c0105cdd:	8b 45 f0             	mov    -0x10(%ebp),%eax
c0105ce0:	c7 40 50 00 00 00 00 	movl   $0x0,0x50(%eax)
c0105ce7:	c7 45 ec 00 00 00 00 	movl   $0x0,-0x14(%ebp)
c0105cee:	c7 45 e8 00 00 00 00 	movl   $0x0,-0x18(%ebp)
c0105cf5:	0f 20 c2             	mov    %cr0,%edx
c0105cf8:	0f 20 d8             	mov    %cr3,%eax
c0105cfb:	89 55 ec             	mov    %edx,-0x14(%ebp)
c0105cfe:	89 45 e8             	mov    %eax,-0x18(%ebp)
c0105d01:	8b 45 f0             	mov    -0x10(%ebp),%eax
c0105d04:	8b 40 08             	mov    0x8(%eax),%eax
c0105d07:	8b 55 ec             	mov    -0x14(%ebp),%edx
c0105d0a:	89 50 08             	mov    %edx,0x8(%eax)
c0105d0d:	8b 45 f0             	mov    -0x10(%ebp),%eax
c0105d10:	8b 40 08             	mov    0x8(%eax),%eax
c0105d13:	c7 40 04 00 00 00 00 	movl   $0x0,0x4(%eax)
c0105d1a:	8b 45 f0             	mov    -0x10(%ebp),%eax
c0105d1d:	8b 40 08             	mov    0x8(%eax),%eax
c0105d20:	8b 55 e8             	mov    -0x18(%ebp),%edx
c0105d23:	89 10                	mov    %edx,(%eax)
c0105d25:	8b 45 f0             	mov    -0x10(%ebp),%eax
c0105d28:	8b 40 08             	mov    0x8(%eax),%eax
c0105d2b:	c7 40 20 ef be 00 00 	movl   $0xbeef,0x20(%eax)
c0105d32:	83 7d 14 02          	cmpl   $0x2,0x14(%ebp)
c0105d36:	74 0e                	je     c0105d46 <create_process+0x176>
c0105d38:	83 ec 0c             	sub    $0xc,%esp
c0105d3b:	ff 75 f0             	push   -0x10(%ebp)
c0105d3e:	e8 c2 fa ff ff       	call   c0105805 <add_process>
c0105d43:	83 c4 10             	add    $0x10,%esp
c0105d46:	8b 45 f0             	mov    -0x10(%ebp),%eax
c0105d49:	8b 40 08             	mov    0x8(%eax),%eax
c0105d4c:	83 ec 08             	sub    $0x8,%esp
c0105d4f:	50                   	push   %eax
c0105d50:	68 43 8e 10 c0       	push   $0xc0108e43
c0105d55:	e8 01 dd ff ff       	call   c0103a5b <logf>
c0105d5a:	83 c4 10             	add    $0x10,%esp
c0105d5d:	83 7d f4 00          	cmpl   $0x0,-0xc(%ebp)
c0105d61:	74 0e                	je     c0105d71 <create_process+0x1a1>
c0105d63:	83 ec 0c             	sub    $0xc,%esp
c0105d66:	ff 75 f4             	push   -0xc(%ebp)
c0105d69:	e8 0e ba ff ff       	call   c010177c <set_current_vmm>
c0105d6e:	83 c4 10             	add    $0x10,%esp
c0105d71:	83 ec 0c             	sub    $0xc,%esp
c0105d74:	68 61 8e 10 c0       	push   $0xc0108e61
c0105d79:	e8 dd dc ff ff       	call   c0103a5b <logf>
c0105d7e:	83 c4 10             	add    $0x10,%esp
c0105d81:	8b 45 f0             	mov    -0x10(%ebp),%eax
c0105d84:	c9                   	leave
c0105d85:	c3                   	ret

c0105d86 <schedule>:
c0105d86:	55                   	push   %ebp
c0105d87:	89 e5                	mov    %esp,%ebp
c0105d89:	83 ec 08             	sub    $0x8,%esp
c0105d8c:	a1 a4 10 11 c0       	mov    0xc01110a4,%eax
c0105d91:	85 c0                	test   %eax,%eax
c0105d93:	74 70                	je     c0105e05 <schedule+0x7f>
c0105d95:	a1 a4 10 11 c0       	mov    0xc01110a4,%eax
c0105d9a:	8b 40 08             	mov    0x8(%eax),%eax
c0105d9d:	83 ec 04             	sub    $0x4,%esp
c0105da0:	6a 40                	push   $0x40
c0105da2:	ff 75 08             	push   0x8(%ebp)
c0105da5:	50                   	push   %eax
c0105da6:	e8 3f e1 ff ff       	call   c0103eea <memcpy>
c0105dab:	83 c4 10             	add    $0x10,%esp
c0105dae:	eb 55                	jmp    c0105e05 <schedule+0x7f>
c0105db0:	a1 a4 10 11 c0       	mov    0xc01110a4,%eax
c0105db5:	8b 40 04             	mov    0x4(%eax),%eax
c0105db8:	85 c0                	test   %eax,%eax
c0105dba:	74 54                	je     c0105e10 <schedule+0x8a>
c0105dbc:	a1 a4 10 11 c0       	mov    0xc01110a4,%eax
c0105dc1:	8b 40 04             	mov    0x4(%eax),%eax
c0105dc4:	83 f8 03             	cmp    $0x3,%eax
c0105dc7:	75 23                	jne    c0105dec <schedule+0x66>
c0105dc9:	a1 a4 10 11 c0       	mov    0xc01110a4,%eax
c0105dce:	83 ec 0c             	sub    $0xc,%esp
c0105dd1:	50                   	push   %eax
c0105dd2:	e8 c1 fa ff ff       	call   c0105898 <delete_process>
c0105dd7:	83 c4 10             	add    $0x10,%esp
c0105dda:	83 ec 0c             	sub    $0xc,%esp
c0105ddd:	68 7c 8e 10 c0       	push   $0xc0108e7c
c0105de2:	e8 74 dc ff ff       	call   c0103a5b <logf>
c0105de7:	83 c4 10             	add    $0x10,%esp
c0105dea:	eb 0c                	jmp    c0105df8 <schedule+0x72>
c0105dec:	a1 a4 10 11 c0       	mov    0xc01110a4,%eax
c0105df1:	c7 40 04 00 00 00 00 	movl   $0x0,0x4(%eax)
c0105df8:	a1 a4 10 11 c0       	mov    0xc01110a4,%eax
c0105dfd:	8b 40 50             	mov    0x50(%eax),%eax
c0105e00:	a3 a4 10 11 c0       	mov    %eax,0xc01110a4
c0105e05:	a1 a4 10 11 c0       	mov    0xc01110a4,%eax
c0105e0a:	85 c0                	test   %eax,%eax
c0105e0c:	75 a2                	jne    c0105db0 <schedule+0x2a>
c0105e0e:	eb 01                	jmp    c0105e11 <schedule+0x8b>
c0105e10:	90                   	nop
c0105e11:	a1 a4 10 11 c0       	mov    0xc01110a4,%eax
c0105e16:	85 c0                	test   %eax,%eax
c0105e18:	75 1f                	jne    c0105e39 <schedule+0xb3>
c0105e1a:	a1 a0 10 11 c0       	mov    0xc01110a0,%eax
c0105e1f:	85 c0                	test   %eax,%eax
c0105e21:	74 0c                	je     c0105e2f <schedule+0xa9>
c0105e23:	a1 a0 10 11 c0       	mov    0xc01110a0,%eax
c0105e28:	a3 a4 10 11 c0       	mov    %eax,0xc01110a4
c0105e2d:	eb 0a                	jmp    c0105e39 <schedule+0xb3>
c0105e2f:	a1 a8 10 11 c0       	mov    0xc01110a8,%eax
c0105e34:	a3 a4 10 11 c0       	mov    %eax,0xc01110a4
c0105e39:	a1 a4 10 11 c0       	mov    0xc01110a4,%eax
c0105e3e:	c7 40 04 01 00 00 00 	movl   $0x1,0x4(%eax)
c0105e45:	a1 a4 10 11 c0       	mov    0xc01110a4,%eax
c0105e4a:	8b 40 0c             	mov    0xc(%eax),%eax
c0105e4d:	83 ec 0c             	sub    $0xc,%esp
c0105e50:	50                   	push   %eax
c0105e51:	e8 26 b9 ff ff       	call   c010177c <set_current_vmm>
c0105e56:	83 c4 10             	add    $0x10,%esp
c0105e59:	a1 a4 10 11 c0       	mov    0xc01110a4,%eax
c0105e5e:	8b 40 08             	mov    0x8(%eax),%eax
c0105e61:	c9                   	leave
c0105e62:	c3                   	ret

c0105e63 <handle_schedule>:
c0105e63:	55                   	push   %ebp
c0105e64:	89 e5                	mov    %esp,%ebp
c0105e66:	83 ec 18             	sub    $0x18,%esp
c0105e69:	a1 ac 10 11 c0       	mov    0xc01110ac,%eax
c0105e6e:	85 c0                	test   %eax,%eax
c0105e70:	75 15                	jne    c0105e87 <handle_schedule+0x24>
c0105e72:	83 ec 0c             	sub    $0xc,%esp
c0105e75:	68 8a 8e 10 c0       	push   $0xc0108e8a
c0105e7a:	e8 dc db ff ff       	call   c0103a5b <logf>
c0105e7f:	83 c4 10             	add    $0x10,%esp
c0105e82:	8b 45 08             	mov    0x8(%ebp),%eax
c0105e85:	eb 14                	jmp    c0105e9b <handle_schedule+0x38>
c0105e87:	83 ec 0c             	sub    $0xc,%esp
c0105e8a:	ff 75 08             	push   0x8(%ebp)
c0105e8d:	e8 f4 fe ff ff       	call   c0105d86 <schedule>
c0105e92:	83 c4 10             	add    $0x10,%esp
c0105e95:	89 45 f4             	mov    %eax,-0xc(%ebp)
c0105e98:	8b 45 f4             	mov    -0xc(%ebp),%eax
c0105e9b:	c9                   	leave
c0105e9c:	c3                   	ret

c0105e9d <keycode_to_keysym>:
c0105e9d:	55                   	push   %ebp
c0105e9e:	89 e5                	mov    %esp,%ebp
c0105ea0:	83 ec 10             	sub    $0x10,%esp
c0105ea3:	0f b6 45 09          	movzbl 0x9(%ebp),%eax
c0105ea7:	83 e0 04             	and    $0x4,%eax
c0105eaa:	88 45 ff             	mov    %al,-0x1(%ebp)
c0105ead:	0f b6 45 08          	movzbl 0x8(%ebp),%eax
c0105eb1:	0f b6 c0             	movzbl %al,%eax
c0105eb4:	83 f8 45             	cmp    $0x45,%eax
c0105eb7:	0f 87 cd 04 00 00    	ja     c010638a <keycode_to_keysym+0x4ed>
c0105ebd:	8b 04 85 a0 8e 10 c0 	mov    -0x3fef7160(,%eax,4),%eax
c0105ec4:	ff e0                	jmp    *%eax
c0105ec6:	80 7d ff 00          	cmpb   $0x0,-0x1(%ebp)
c0105eca:	74 0a                	je     c0105ed6 <keycode_to_keysym+0x39>
c0105ecc:	b8 41 00 00 00       	mov    $0x41,%eax
c0105ed1:	e9 b9 04 00 00       	jmp    c010638f <keycode_to_keysym+0x4f2>
c0105ed6:	b8 61 00 00 00       	mov    $0x61,%eax
c0105edb:	e9 af 04 00 00       	jmp    c010638f <keycode_to_keysym+0x4f2>
c0105ee0:	80 7d ff 00          	cmpb   $0x0,-0x1(%ebp)
c0105ee4:	74 0a                	je     c0105ef0 <keycode_to_keysym+0x53>
c0105ee6:	b8 42 00 00 00       	mov    $0x42,%eax
c0105eeb:	e9 9f 04 00 00       	jmp    c010638f <keycode_to_keysym+0x4f2>
c0105ef0:	b8 62 00 00 00       	mov    $0x62,%eax
c0105ef5:	e9 95 04 00 00       	jmp    c010638f <keycode_to_keysym+0x4f2>
c0105efa:	80 7d ff 00          	cmpb   $0x0,-0x1(%ebp)
c0105efe:	74 0a                	je     c0105f0a <keycode_to_keysym+0x6d>
c0105f00:	b8 43 00 00 00       	mov    $0x43,%eax
c0105f05:	e9 85 04 00 00       	jmp    c010638f <keycode_to_keysym+0x4f2>
c0105f0a:	b8 63 00 00 00       	mov    $0x63,%eax
c0105f0f:	e9 7b 04 00 00       	jmp    c010638f <keycode_to_keysym+0x4f2>
c0105f14:	80 7d ff 00          	cmpb   $0x0,-0x1(%ebp)
c0105f18:	74 0a                	je     c0105f24 <keycode_to_keysym+0x87>
c0105f1a:	b8 44 00 00 00       	mov    $0x44,%eax
c0105f1f:	e9 6b 04 00 00       	jmp    c010638f <keycode_to_keysym+0x4f2>
c0105f24:	b8 64 00 00 00       	mov    $0x64,%eax
c0105f29:	e9 61 04 00 00       	jmp    c010638f <keycode_to_keysym+0x4f2>
c0105f2e:	80 7d ff 00          	cmpb   $0x0,-0x1(%ebp)
c0105f32:	74 0a                	je     c0105f3e <keycode_to_keysym+0xa1>
c0105f34:	b8 45 00 00 00       	mov    $0x45,%eax
c0105f39:	e9 51 04 00 00       	jmp    c010638f <keycode_to_keysym+0x4f2>
c0105f3e:	b8 65 00 00 00       	mov    $0x65,%eax
c0105f43:	e9 47 04 00 00       	jmp    c010638f <keycode_to_keysym+0x4f2>
c0105f48:	80 7d ff 00          	cmpb   $0x0,-0x1(%ebp)
c0105f4c:	74 0a                	je     c0105f58 <keycode_to_keysym+0xbb>
c0105f4e:	b8 46 00 00 00       	mov    $0x46,%eax
c0105f53:	e9 37 04 00 00       	jmp    c010638f <keycode_to_keysym+0x4f2>
c0105f58:	b8 66 00 00 00       	mov    $0x66,%eax
c0105f5d:	e9 2d 04 00 00       	jmp    c010638f <keycode_to_keysym+0x4f2>
c0105f62:	80 7d ff 00          	cmpb   $0x0,-0x1(%ebp)
c0105f66:	74 0a                	je     c0105f72 <keycode_to_keysym+0xd5>
c0105f68:	b8 47 00 00 00       	mov    $0x47,%eax
c0105f6d:	e9 1d 04 00 00       	jmp    c010638f <keycode_to_keysym+0x4f2>
c0105f72:	b8 67 00 00 00       	mov    $0x67,%eax
c0105f77:	e9 13 04 00 00       	jmp    c010638f <keycode_to_keysym+0x4f2>
c0105f7c:	80 7d ff 00          	cmpb   $0x0,-0x1(%ebp)
c0105f80:	74 0a                	je     c0105f8c <keycode_to_keysym+0xef>
c0105f82:	b8 48 00 00 00       	mov    $0x48,%eax
c0105f87:	e9 03 04 00 00       	jmp    c010638f <keycode_to_keysym+0x4f2>
c0105f8c:	b8 68 00 00 00       	mov    $0x68,%eax
c0105f91:	e9 f9 03 00 00       	jmp    c010638f <keycode_to_keysym+0x4f2>
c0105f96:	80 7d ff 00          	cmpb   $0x0,-0x1(%ebp)
c0105f9a:	74 0a                	je     c0105fa6 <keycode_to_keysym+0x109>
c0105f9c:	b8 49 00 00 00       	mov    $0x49,%eax
c0105fa1:	e9 e9 03 00 00       	jmp    c010638f <keycode_to_keysym+0x4f2>
c0105fa6:	b8 69 00 00 00       	mov    $0x69,%eax
c0105fab:	e9 df 03 00 00       	jmp    c010638f <keycode_to_keysym+0x4f2>
c0105fb0:	80 7d ff 00          	cmpb   $0x0,-0x1(%ebp)
c0105fb4:	74 0a                	je     c0105fc0 <keycode_to_keysym+0x123>
c0105fb6:	b8 4a 00 00 00       	mov    $0x4a,%eax
c0105fbb:	e9 cf 03 00 00       	jmp    c010638f <keycode_to_keysym+0x4f2>
c0105fc0:	b8 6a 00 00 00       	mov    $0x6a,%eax
c0105fc5:	e9 c5 03 00 00       	jmp    c010638f <keycode_to_keysym+0x4f2>
c0105fca:	80 7d ff 00          	cmpb   $0x0,-0x1(%ebp)
c0105fce:	74 0a                	je     c0105fda <keycode_to_keysym+0x13d>
c0105fd0:	b8 4b 00 00 00       	mov    $0x4b,%eax
c0105fd5:	e9 b5 03 00 00       	jmp    c010638f <keycode_to_keysym+0x4f2>
c0105fda:	b8 6b 00 00 00       	mov    $0x6b,%eax
c0105fdf:	e9 ab 03 00 00       	jmp    c010638f <keycode_to_keysym+0x4f2>
c0105fe4:	80 7d ff 00          	cmpb   $0x0,-0x1(%ebp)
c0105fe8:	74 0a                	je     c0105ff4 <keycode_to_keysym+0x157>
c0105fea:	b8 4c 00 00 00       	mov    $0x4c,%eax
c0105fef:	e9 9b 03 00 00       	jmp    c010638f <keycode_to_keysym+0x4f2>
c0105ff4:	b8 6c 00 00 00       	mov    $0x6c,%eax
c0105ff9:	e9 91 03 00 00       	jmp    c010638f <keycode_to_keysym+0x4f2>
c0105ffe:	80 7d ff 00          	cmpb   $0x0,-0x1(%ebp)
c0106002:	74 0a                	je     c010600e <keycode_to_keysym+0x171>
c0106004:	b8 4d 00 00 00       	mov    $0x4d,%eax
c0106009:	e9 81 03 00 00       	jmp    c010638f <keycode_to_keysym+0x4f2>
c010600e:	b8 6d 00 00 00       	mov    $0x6d,%eax
c0106013:	e9 77 03 00 00       	jmp    c010638f <keycode_to_keysym+0x4f2>
c0106018:	80 7d ff 00          	cmpb   $0x0,-0x1(%ebp)
c010601c:	74 0a                	je     c0106028 <keycode_to_keysym+0x18b>
c010601e:	b8 4e 00 00 00       	mov    $0x4e,%eax
c0106023:	e9 67 03 00 00       	jmp    c010638f <keycode_to_keysym+0x4f2>
c0106028:	b8 6e 00 00 00       	mov    $0x6e,%eax
c010602d:	e9 5d 03 00 00       	jmp    c010638f <keycode_to_keysym+0x4f2>
c0106032:	80 7d ff 00          	cmpb   $0x0,-0x1(%ebp)
c0106036:	74 0a                	je     c0106042 <keycode_to_keysym+0x1a5>
c0106038:	b8 4f 00 00 00       	mov    $0x4f,%eax
c010603d:	e9 4d 03 00 00       	jmp    c010638f <keycode_to_keysym+0x4f2>
c0106042:	b8 6f 00 00 00       	mov    $0x6f,%eax
c0106047:	e9 43 03 00 00       	jmp    c010638f <keycode_to_keysym+0x4f2>
c010604c:	80 7d ff 00          	cmpb   $0x0,-0x1(%ebp)
c0106050:	74 0a                	je     c010605c <keycode_to_keysym+0x1bf>
c0106052:	b8 50 00 00 00       	mov    $0x50,%eax
c0106057:	e9 33 03 00 00       	jmp    c010638f <keycode_to_keysym+0x4f2>
c010605c:	b8 70 00 00 00       	mov    $0x70,%eax
c0106061:	e9 29 03 00 00       	jmp    c010638f <keycode_to_keysym+0x4f2>
c0106066:	80 7d ff 00          	cmpb   $0x0,-0x1(%ebp)
c010606a:	74 0a                	je     c0106076 <keycode_to_keysym+0x1d9>
c010606c:	b8 51 00 00 00       	mov    $0x51,%eax
c0106071:	e9 19 03 00 00       	jmp    c010638f <keycode_to_keysym+0x4f2>
c0106076:	b8 71 00 00 00       	mov    $0x71,%eax
c010607b:	e9 0f 03 00 00       	jmp    c010638f <keycode_to_keysym+0x4f2>
c0106080:	80 7d ff 00          	cmpb   $0x0,-0x1(%ebp)
c0106084:	74 0a                	je     c0106090 <keycode_to_keysym+0x1f3>
c0106086:	b8 52 00 00 00       	mov    $0x52,%eax
c010608b:	e9 ff 02 00 00       	jmp    c010638f <keycode_to_keysym+0x4f2>
c0106090:	b8 72 00 00 00       	mov    $0x72,%eax
c0106095:	e9 f5 02 00 00       	jmp    c010638f <keycode_to_keysym+0x4f2>
c010609a:	80 7d ff 00          	cmpb   $0x0,-0x1(%ebp)
c010609e:	74 0a                	je     c01060aa <keycode_to_keysym+0x20d>
c01060a0:	b8 53 00 00 00       	mov    $0x53,%eax
c01060a5:	e9 e5 02 00 00       	jmp    c010638f <keycode_to_keysym+0x4f2>
c01060aa:	b8 73 00 00 00       	mov    $0x73,%eax
c01060af:	e9 db 02 00 00       	jmp    c010638f <keycode_to_keysym+0x4f2>
c01060b4:	80 7d ff 00          	cmpb   $0x0,-0x1(%ebp)
c01060b8:	74 0a                	je     c01060c4 <keycode_to_keysym+0x227>
c01060ba:	b8 54 00 00 00       	mov    $0x54,%eax
c01060bf:	e9 cb 02 00 00       	jmp    c010638f <keycode_to_keysym+0x4f2>
c01060c4:	b8 74 00 00 00       	mov    $0x74,%eax
c01060c9:	e9 c1 02 00 00       	jmp    c010638f <keycode_to_keysym+0x4f2>
c01060ce:	80 7d ff 00          	cmpb   $0x0,-0x1(%ebp)
c01060d2:	74 0a                	je     c01060de <keycode_to_keysym+0x241>
c01060d4:	b8 55 00 00 00       	mov    $0x55,%eax
c01060d9:	e9 b1 02 00 00       	jmp    c010638f <keycode_to_keysym+0x4f2>
c01060de:	b8 75 00 00 00       	mov    $0x75,%eax
c01060e3:	e9 a7 02 00 00       	jmp    c010638f <keycode_to_keysym+0x4f2>
c01060e8:	80 7d ff 00          	cmpb   $0x0,-0x1(%ebp)
c01060ec:	74 0a                	je     c01060f8 <keycode_to_keysym+0x25b>
c01060ee:	b8 56 00 00 00       	mov    $0x56,%eax
c01060f3:	e9 97 02 00 00       	jmp    c010638f <keycode_to_keysym+0x4f2>
c01060f8:	b8 76 00 00 00       	mov    $0x76,%eax
c01060fd:	e9 8d 02 00 00       	jmp    c010638f <keycode_to_keysym+0x4f2>
c0106102:	80 7d ff 00          	cmpb   $0x0,-0x1(%ebp)
c0106106:	74 0a                	je     c0106112 <keycode_to_keysym+0x275>
c0106108:	b8 57 00 00 00       	mov    $0x57,%eax
c010610d:	e9 7d 02 00 00       	jmp    c010638f <keycode_to_keysym+0x4f2>
c0106112:	b8 77 00 00 00       	mov    $0x77,%eax
c0106117:	e9 73 02 00 00       	jmp    c010638f <keycode_to_keysym+0x4f2>
c010611c:	80 7d ff 00          	cmpb   $0x0,-0x1(%ebp)
c0106120:	74 0a                	je     c010612c <keycode_to_keysym+0x28f>
c0106122:	b8 58 00 00 00       	mov    $0x58,%eax
c0106127:	e9 63 02 00 00       	jmp    c010638f <keycode_to_keysym+0x4f2>
c010612c:	b8 78 00 00 00       	mov    $0x78,%eax
c0106131:	e9 59 02 00 00       	jmp    c010638f <keycode_to_keysym+0x4f2>
c0106136:	80 7d ff 00          	cmpb   $0x0,-0x1(%ebp)
c010613a:	74 0a                	je     c0106146 <keycode_to_keysym+0x2a9>
c010613c:	b8 59 00 00 00       	mov    $0x59,%eax
c0106141:	e9 49 02 00 00       	jmp    c010638f <keycode_to_keysym+0x4f2>
c0106146:	b8 79 00 00 00       	mov    $0x79,%eax
c010614b:	e9 3f 02 00 00       	jmp    c010638f <keycode_to_keysym+0x4f2>
c0106150:	80 7d ff 00          	cmpb   $0x0,-0x1(%ebp)
c0106154:	74 0a                	je     c0106160 <keycode_to_keysym+0x2c3>
c0106156:	b8 5a 00 00 00       	mov    $0x5a,%eax
c010615b:	e9 2f 02 00 00       	jmp    c010638f <keycode_to_keysym+0x4f2>
c0106160:	b8 7a 00 00 00       	mov    $0x7a,%eax
c0106165:	e9 25 02 00 00       	jmp    c010638f <keycode_to_keysym+0x4f2>
c010616a:	80 7d ff 00          	cmpb   $0x0,-0x1(%ebp)
c010616e:	74 0a                	je     c010617a <keycode_to_keysym+0x2dd>
c0106170:	b8 21 00 00 00       	mov    $0x21,%eax
c0106175:	e9 15 02 00 00       	jmp    c010638f <keycode_to_keysym+0x4f2>
c010617a:	b8 31 00 00 00       	mov    $0x31,%eax
c010617f:	e9 0b 02 00 00       	jmp    c010638f <keycode_to_keysym+0x4f2>
c0106184:	80 7d ff 00          	cmpb   $0x0,-0x1(%ebp)
c0106188:	74 0a                	je     c0106194 <keycode_to_keysym+0x2f7>
c010618a:	b8 40 00 00 00       	mov    $0x40,%eax
c010618f:	e9 fb 01 00 00       	jmp    c010638f <keycode_to_keysym+0x4f2>
c0106194:	b8 32 00 00 00       	mov    $0x32,%eax
c0106199:	e9 f1 01 00 00       	jmp    c010638f <keycode_to_keysym+0x4f2>
c010619e:	80 7d ff 00          	cmpb   $0x0,-0x1(%ebp)
c01061a2:	74 0a                	je     c01061ae <keycode_to_keysym+0x311>
c01061a4:	b8 23 00 00 00       	mov    $0x23,%eax
c01061a9:	e9 e1 01 00 00       	jmp    c010638f <keycode_to_keysym+0x4f2>
c01061ae:	b8 33 00 00 00       	mov    $0x33,%eax
c01061b3:	e9 d7 01 00 00       	jmp    c010638f <keycode_to_keysym+0x4f2>
c01061b8:	80 7d ff 00          	cmpb   $0x0,-0x1(%ebp)
c01061bc:	74 0a                	je     c01061c8 <keycode_to_keysym+0x32b>
c01061be:	b8 24 00 00 00       	mov    $0x24,%eax
c01061c3:	e9 c7 01 00 00       	jmp    c010638f <keycode_to_keysym+0x4f2>
c01061c8:	b8 34 00 00 00       	mov    $0x34,%eax
c01061cd:	e9 bd 01 00 00       	jmp    c010638f <keycode_to_keysym+0x4f2>
c01061d2:	80 7d ff 00          	cmpb   $0x0,-0x1(%ebp)
c01061d6:	74 0a                	je     c01061e2 <keycode_to_keysym+0x345>
c01061d8:	b8 25 00 00 00       	mov    $0x25,%eax
c01061dd:	e9 ad 01 00 00       	jmp    c010638f <keycode_to_keysym+0x4f2>
c01061e2:	b8 35 00 00 00       	mov    $0x35,%eax
c01061e7:	e9 a3 01 00 00       	jmp    c010638f <keycode_to_keysym+0x4f2>
c01061ec:	80 7d ff 00          	cmpb   $0x0,-0x1(%ebp)
c01061f0:	74 0a                	je     c01061fc <keycode_to_keysym+0x35f>
c01061f2:	b8 5e 00 00 00       	mov    $0x5e,%eax
c01061f7:	e9 93 01 00 00       	jmp    c010638f <keycode_to_keysym+0x4f2>
c01061fc:	b8 36 00 00 00       	mov    $0x36,%eax
c0106201:	e9 89 01 00 00       	jmp    c010638f <keycode_to_keysym+0x4f2>
c0106206:	80 7d ff 00          	cmpb   $0x0,-0x1(%ebp)
c010620a:	74 0a                	je     c0106216 <keycode_to_keysym+0x379>
c010620c:	b8 26 00 00 00       	mov    $0x26,%eax
c0106211:	e9 79 01 00 00       	jmp    c010638f <keycode_to_keysym+0x4f2>
c0106216:	b8 37 00 00 00       	mov    $0x37,%eax
c010621b:	e9 6f 01 00 00       	jmp    c010638f <keycode_to_keysym+0x4f2>
c0106220:	80 7d ff 00          	cmpb   $0x0,-0x1(%ebp)
c0106224:	74 0a                	je     c0106230 <keycode_to_keysym+0x393>
c0106226:	b8 2a 00 00 00       	mov    $0x2a,%eax
c010622b:	e9 5f 01 00 00       	jmp    c010638f <keycode_to_keysym+0x4f2>
c0106230:	b8 38 00 00 00       	mov    $0x38,%eax
c0106235:	e9 55 01 00 00       	jmp    c010638f <keycode_to_keysym+0x4f2>
c010623a:	80 7d ff 00          	cmpb   $0x0,-0x1(%ebp)
c010623e:	74 0a                	je     c010624a <keycode_to_keysym+0x3ad>
c0106240:	b8 28 00 00 00       	mov    $0x28,%eax
c0106245:	e9 45 01 00 00       	jmp    c010638f <keycode_to_keysym+0x4f2>
c010624a:	b8 39 00 00 00       	mov    $0x39,%eax
c010624f:	e9 3b 01 00 00       	jmp    c010638f <keycode_to_keysym+0x4f2>
c0106254:	80 7d ff 00          	cmpb   $0x0,-0x1(%ebp)
c0106258:	74 0a                	je     c0106264 <keycode_to_keysym+0x3c7>
c010625a:	b8 29 00 00 00       	mov    $0x29,%eax
c010625f:	e9 2b 01 00 00       	jmp    c010638f <keycode_to_keysym+0x4f2>
c0106264:	b8 30 00 00 00       	mov    $0x30,%eax
c0106269:	e9 21 01 00 00       	jmp    c010638f <keycode_to_keysym+0x4f2>
c010626e:	80 7d ff 00          	cmpb   $0x0,-0x1(%ebp)
c0106272:	74 0a                	je     c010627e <keycode_to_keysym+0x3e1>
c0106274:	b8 7b 00 00 00       	mov    $0x7b,%eax
c0106279:	e9 11 01 00 00       	jmp    c010638f <keycode_to_keysym+0x4f2>
c010627e:	b8 5b 00 00 00       	mov    $0x5b,%eax
c0106283:	e9 07 01 00 00       	jmp    c010638f <keycode_to_keysym+0x4f2>
c0106288:	80 7d ff 00          	cmpb   $0x0,-0x1(%ebp)
c010628c:	74 0a                	je     c0106298 <keycode_to_keysym+0x3fb>
c010628e:	b8 7d 00 00 00       	mov    $0x7d,%eax
c0106293:	e9 f7 00 00 00       	jmp    c010638f <keycode_to_keysym+0x4f2>
c0106298:	b8 5d 00 00 00       	mov    $0x5d,%eax
c010629d:	e9 ed 00 00 00       	jmp    c010638f <keycode_to_keysym+0x4f2>
c01062a2:	80 7d ff 00          	cmpb   $0x0,-0x1(%ebp)
c01062a6:	74 0a                	je     c01062b2 <keycode_to_keysym+0x415>
c01062a8:	b8 3f 00 00 00       	mov    $0x3f,%eax
c01062ad:	e9 dd 00 00 00       	jmp    c010638f <keycode_to_keysym+0x4f2>
c01062b2:	b8 2f 00 00 00       	mov    $0x2f,%eax
c01062b7:	e9 d3 00 00 00       	jmp    c010638f <keycode_to_keysym+0x4f2>
c01062bc:	80 7d ff 00          	cmpb   $0x0,-0x1(%ebp)
c01062c0:	74 0a                	je     c01062cc <keycode_to_keysym+0x42f>
c01062c2:	b8 7c 00 00 00       	mov    $0x7c,%eax
c01062c7:	e9 c3 00 00 00       	jmp    c010638f <keycode_to_keysym+0x4f2>
c01062cc:	b8 5c 00 00 00       	mov    $0x5c,%eax
c01062d1:	e9 b9 00 00 00       	jmp    c010638f <keycode_to_keysym+0x4f2>
c01062d6:	80 7d ff 00          	cmpb   $0x0,-0x1(%ebp)
c01062da:	74 0a                	je     c01062e6 <keycode_to_keysym+0x449>
c01062dc:	b8 22 00 00 00       	mov    $0x22,%eax
c01062e1:	e9 a9 00 00 00       	jmp    c010638f <keycode_to_keysym+0x4f2>
c01062e6:	b8 27 00 00 00       	mov    $0x27,%eax
c01062eb:	e9 9f 00 00 00       	jmp    c010638f <keycode_to_keysym+0x4f2>
c01062f0:	80 7d ff 00          	cmpb   $0x0,-0x1(%ebp)
c01062f4:	74 0a                	je     c0106300 <keycode_to_keysym+0x463>
c01062f6:	b8 3a 00 00 00       	mov    $0x3a,%eax
c01062fb:	e9 8f 00 00 00       	jmp    c010638f <keycode_to_keysym+0x4f2>
c0106300:	b8 3b 00 00 00       	mov    $0x3b,%eax
c0106305:	e9 85 00 00 00       	jmp    c010638f <keycode_to_keysym+0x4f2>
c010630a:	80 7d ff 00          	cmpb   $0x0,-0x1(%ebp)
c010630e:	74 07                	je     c0106317 <keycode_to_keysym+0x47a>
c0106310:	b8 3e 00 00 00       	mov    $0x3e,%eax
c0106315:	eb 78                	jmp    c010638f <keycode_to_keysym+0x4f2>
c0106317:	b8 2e 00 00 00       	mov    $0x2e,%eax
c010631c:	eb 71                	jmp    c010638f <keycode_to_keysym+0x4f2>
c010631e:	80 7d ff 00          	cmpb   $0x0,-0x1(%ebp)
c0106322:	74 07                	je     c010632b <keycode_to_keysym+0x48e>
c0106324:	b8 3c 00 00 00       	mov    $0x3c,%eax
c0106329:	eb 64                	jmp    c010638f <keycode_to_keysym+0x4f2>
c010632b:	b8 2c 00 00 00       	mov    $0x2c,%eax
c0106330:	eb 5d                	jmp    c010638f <keycode_to_keysym+0x4f2>
c0106332:	80 7d ff 00          	cmpb   $0x0,-0x1(%ebp)
c0106336:	74 07                	je     c010633f <keycode_to_keysym+0x4a2>
c0106338:	b8 2b 00 00 00       	mov    $0x2b,%eax
c010633d:	eb 50                	jmp    c010638f <keycode_to_keysym+0x4f2>
c010633f:	b8 3d 00 00 00       	mov    $0x3d,%eax
c0106344:	eb 49                	jmp    c010638f <keycode_to_keysym+0x4f2>
c0106346:	80 7d ff 00          	cmpb   $0x0,-0x1(%ebp)
c010634a:	74 07                	je     c0106353 <keycode_to_keysym+0x4b6>
c010634c:	b8 5f 00 00 00       	mov    $0x5f,%eax
c0106351:	eb 3c                	jmp    c010638f <keycode_to_keysym+0x4f2>
c0106353:	b8 2d 00 00 00       	mov    $0x2d,%eax
c0106358:	eb 35                	jmp    c010638f <keycode_to_keysym+0x4f2>
c010635a:	80 7d ff 00          	cmpb   $0x0,-0x1(%ebp)
c010635e:	74 07                	je     c0106367 <keycode_to_keysym+0x4ca>
c0106360:	b8 7e 00 00 00       	mov    $0x7e,%eax
c0106365:	eb 28                	jmp    c010638f <keycode_to_keysym+0x4f2>
c0106367:	b8 60 00 00 00       	mov    $0x60,%eax
c010636c:	eb 21                	jmp    c010638f <keycode_to_keysym+0x4f2>
c010636e:	b8 20 00 00 00       	mov    $0x20,%eax
c0106373:	eb 1a                	jmp    c010638f <keycode_to_keysym+0x4f2>
c0106375:	b8 09 00 00 00       	mov    $0x9,%eax
c010637a:	eb 13                	jmp    c010638f <keycode_to_keysym+0x4f2>
c010637c:	b8 08 00 00 00       	mov    $0x8,%eax
c0106381:	eb 0c                	jmp    c010638f <keycode_to_keysym+0x4f2>
c0106383:	b8 0a 00 00 00       	mov    $0xa,%eax
c0106388:	eb 05                	jmp    c010638f <keycode_to_keysym+0x4f2>
c010638a:	b8 00 00 00 00       	mov    $0x0,%eax
c010638f:	c9                   	leave
c0106390:	c3                   	ret

c0106391 <scroll_text_buffer_down>:
c0106391:	55                   	push   %ebp
c0106392:	89 e5                	mov    %esp,%ebp
c0106394:	83 ec 18             	sub    $0x18,%esp
c0106397:	c7 45 f4 00 00 00 00 	movl   $0x0,-0xc(%ebp)
c010639e:	c7 45 f0 00 00 00 00 	movl   $0x0,-0x10(%ebp)
c01063a5:	eb 21                	jmp    c01063c8 <scroll_text_buffer_down+0x37>
c01063a7:	8b 15 c0 10 11 c0    	mov    0xc01110c0,%edx
c01063ad:	8b 45 f0             	mov    -0x10(%ebp),%eax
c01063b0:	01 d0                	add    %edx,%eax
c01063b2:	0f b6 00             	movzbl (%eax),%eax
c01063b5:	3c 0a                	cmp    $0xa,%al
c01063b7:	75 0b                	jne    c01063c4 <scroll_text_buffer_down+0x33>
c01063b9:	8b 45 f0             	mov    -0x10(%ebp),%eax
c01063bc:	83 c0 01             	add    $0x1,%eax
c01063bf:	89 45 f4             	mov    %eax,-0xc(%ebp)
c01063c2:	eb 0e                	jmp    c01063d2 <scroll_text_buffer_down+0x41>
c01063c4:	83 45 f0 01          	addl   $0x1,-0x10(%ebp)
c01063c8:	a1 d0 10 11 c0       	mov    0xc01110d0,%eax
c01063cd:	39 45 f0             	cmp    %eax,-0x10(%ebp)
c01063d0:	7c d5                	jl     c01063a7 <scroll_text_buffer_down+0x16>
c01063d2:	83 ec 08             	sub    $0x8,%esp
c01063d5:	ff 75 f4             	push   -0xc(%ebp)
c01063d8:	68 b8 8f 10 c0       	push   $0xc0108fb8
c01063dd:	e8 79 d6 ff ff       	call   c0103a5b <logf>
c01063e2:	83 c4 10             	add    $0x10,%esp
c01063e5:	c7 45 ec 00 00 00 00 	movl   $0x0,-0x14(%ebp)
c01063ec:	eb 39                	jmp    c0106427 <scroll_text_buffer_down+0x96>
c01063ee:	a1 c0 10 11 c0       	mov    0xc01110c0,%eax
c01063f3:	8b 4d ec             	mov    -0x14(%ebp),%ecx
c01063f6:	8b 55 f4             	mov    -0xc(%ebp),%edx
c01063f9:	01 ca                	add    %ecx,%edx
c01063fb:	01 d0                	add    %edx,%eax
c01063fd:	0f b6 00             	movzbl (%eax),%eax
c0106400:	84 c0                	test   %al,%al
c0106402:	74 40                	je     c0106444 <scroll_text_buffer_down+0xb3>
c0106404:	a1 c0 10 11 c0       	mov    0xc01110c0,%eax
c0106409:	8b 4d ec             	mov    -0x14(%ebp),%ecx
c010640c:	8b 55 f4             	mov    -0xc(%ebp),%edx
c010640f:	01 ca                	add    %ecx,%edx
c0106411:	01 d0                	add    %edx,%eax
c0106413:	8b 0d c0 10 11 c0    	mov    0xc01110c0,%ecx
c0106419:	8b 55 ec             	mov    -0x14(%ebp),%edx
c010641c:	01 ca                	add    %ecx,%edx
c010641e:	0f b6 00             	movzbl (%eax),%eax
c0106421:	88 02                	mov    %al,(%edx)
c0106423:	83 45 ec 01          	addl   $0x1,-0x14(%ebp)
c0106427:	8b 55 ec             	mov    -0x14(%ebp),%edx
c010642a:	8b 45 f4             	mov    -0xc(%ebp),%eax
c010642d:	8d 0c 02             	lea    (%edx,%eax,1),%ecx
c0106430:	8b 15 d0 10 11 c0    	mov    0xc01110d0,%edx
c0106436:	a1 d4 10 11 c0       	mov    0xc01110d4,%eax
c010643b:	0f af c2             	imul   %edx,%eax
c010643e:	39 c1                	cmp    %eax,%ecx
c0106440:	7c ac                	jl     c01063ee <scroll_text_buffer_down+0x5d>
c0106442:	eb 01                	jmp    c0106445 <scroll_text_buffer_down+0xb4>
c0106444:	90                   	nop
c0106445:	83 ec 08             	sub    $0x8,%esp
c0106448:	ff 75 ec             	push   -0x14(%ebp)
c010644b:	68 cb 8f 10 c0       	push   $0xc0108fcb
c0106450:	e8 06 d6 ff ff       	call   c0103a5b <logf>
c0106455:	83 c4 10             	add    $0x10,%esp
c0106458:	c7 45 e8 00 00 00 00 	movl   $0x0,-0x18(%ebp)
c010645f:	eb 16                	jmp    c0106477 <scroll_text_buffer_down+0xe6>
c0106461:	a1 c0 10 11 c0       	mov    0xc01110c0,%eax
c0106466:	8b 4d ec             	mov    -0x14(%ebp),%ecx
c0106469:	8b 55 e8             	mov    -0x18(%ebp),%edx
c010646c:	01 ca                	add    %ecx,%edx
c010646e:	01 d0                	add    %edx,%eax
c0106470:	c6 00 00             	movb   $0x0,(%eax)
c0106473:	83 45 e8 01          	addl   $0x1,-0x18(%ebp)
c0106477:	a1 c0 10 11 c0       	mov    0xc01110c0,%eax
c010647c:	8b 4d ec             	mov    -0x14(%ebp),%ecx
c010647f:	8b 55 e8             	mov    -0x18(%ebp),%edx
c0106482:	01 ca                	add    %ecx,%edx
c0106484:	01 d0                	add    %edx,%eax
c0106486:	0f b6 00             	movzbl (%eax),%eax
c0106489:	84 c0                	test   %al,%al
c010648b:	75 d4                	jne    c0106461 <scroll_text_buffer_down+0xd0>
c010648d:	0f b7 05 ca 10 11 c0 	movzwl 0xc01110ca,%eax
c0106494:	83 e8 01             	sub    $0x1,%eax
c0106497:	66 a3 ca 10 11 c0    	mov    %ax,0xc01110ca
c010649d:	0f b7 05 c8 10 11 c0 	movzwl 0xc01110c8,%eax
c01064a4:	8b 55 f4             	mov    -0xc(%ebp),%edx
c01064a7:	29 d0                	sub    %edx,%eax
c01064a9:	66 a3 c8 10 11 c0    	mov    %ax,0xc01110c8
c01064af:	90                   	nop
c01064b0:	c9                   	leave
c01064b1:	c3                   	ret

c01064b2 <is_term_ready>:
c01064b2:	55                   	push   %ebp
c01064b3:	89 e5                	mov    %esp,%ebp
c01064b5:	0f b6 05 cc 10 11 c0 	movzbl 0xc01110cc,%eax
c01064bc:	5d                   	pop    %ebp
c01064bd:	c3                   	ret

c01064be <write_text_buffer>:
c01064be:	55                   	push   %ebp
c01064bf:	89 e5                	mov    %esp,%ebp
c01064c1:	83 ec 18             	sub    $0x18,%esp
c01064c4:	8b 15 d0 10 11 c0    	mov    0xc01110d0,%edx
c01064ca:	a1 d4 10 11 c0       	mov    0xc01110d4,%eax
c01064cf:	0f af c2             	imul   %edx,%eax
c01064d2:	89 45 f4             	mov    %eax,-0xc(%ebp)
c01064d5:	eb 60                	jmp    c0106537 <write_text_buffer+0x79>
c01064d7:	8b 45 08             	mov    0x8(%ebp),%eax
c01064da:	0f b6 00             	movzbl (%eax),%eax
c01064dd:	3c 0a                	cmp    $0xa,%al
c01064df:	75 10                	jne    c01064f1 <write_text_buffer+0x33>
c01064e1:	0f b7 05 ca 10 11 c0 	movzwl 0xc01110ca,%eax
c01064e8:	83 c0 01             	add    $0x1,%eax
c01064eb:	66 a3 ca 10 11 c0    	mov    %ax,0xc01110ca
c01064f1:	0f b7 05 ca 10 11 c0 	movzwl 0xc01110ca,%eax
c01064f8:	0f b7 d0             	movzwl %ax,%edx
c01064fb:	a1 d4 10 11 c0       	mov    0xc01110d4,%eax
c0106500:	39 c2                	cmp    %eax,%edx
c0106502:	7e 05                	jle    c0106509 <write_text_buffer+0x4b>
c0106504:	e8 88 fe ff ff       	call   c0106391 <scroll_text_buffer_down>
c0106509:	8b 15 c0 10 11 c0    	mov    0xc01110c0,%edx
c010650f:	0f b7 05 c8 10 11 c0 	movzwl 0xc01110c8,%eax
c0106516:	0f b7 c0             	movzwl %ax,%eax
c0106519:	01 c2                	add    %eax,%edx
c010651b:	8b 45 08             	mov    0x8(%ebp),%eax
c010651e:	0f b6 00             	movzbl (%eax),%eax
c0106521:	88 02                	mov    %al,(%edx)
c0106523:	83 45 08 01          	addl   $0x1,0x8(%ebp)
c0106527:	0f b7 05 c8 10 11 c0 	movzwl 0xc01110c8,%eax
c010652e:	83 c0 01             	add    $0x1,%eax
c0106531:	66 a3 c8 10 11 c0    	mov    %ax,0xc01110c8
c0106537:	8b 45 08             	mov    0x8(%ebp),%eax
c010653a:	0f b6 00             	movzbl (%eax),%eax
c010653d:	84 c0                	test   %al,%al
c010653f:	75 96                	jne    c01064d7 <write_text_buffer+0x19>
c0106541:	90                   	nop
c0106542:	90                   	nop
c0106543:	c9                   	leave
c0106544:	c3                   	ret

c0106545 <write_char_text_buffer>:
c0106545:	55                   	push   %ebp
c0106546:	89 e5                	mov    %esp,%ebp
c0106548:	83 ec 28             	sub    $0x28,%esp
c010654b:	8b 45 08             	mov    0x8(%ebp),%eax
c010654e:	88 45 e4             	mov    %al,-0x1c(%ebp)
c0106551:	8b 15 d0 10 11 c0    	mov    0xc01110d0,%edx
c0106557:	a1 d4 10 11 c0       	mov    0xc01110d4,%eax
c010655c:	0f af c2             	imul   %edx,%eax
c010655f:	89 45 f4             	mov    %eax,-0xc(%ebp)
c0106562:	80 7d e4 0a          	cmpb   $0xa,-0x1c(%ebp)
c0106566:	75 10                	jne    c0106578 <write_char_text_buffer+0x33>
c0106568:	0f b7 05 ca 10 11 c0 	movzwl 0xc01110ca,%eax
c010656f:	83 c0 01             	add    $0x1,%eax
c0106572:	66 a3 ca 10 11 c0    	mov    %ax,0xc01110ca
c0106578:	0f b7 05 ca 10 11 c0 	movzwl 0xc01110ca,%eax
c010657f:	0f b7 d0             	movzwl %ax,%edx
c0106582:	a1 d4 10 11 c0       	mov    0xc01110d4,%eax
c0106587:	39 c2                	cmp    %eax,%edx
c0106589:	7c 05                	jl     c0106590 <write_char_text_buffer+0x4b>
c010658b:	e8 01 fe ff ff       	call   c0106391 <scroll_text_buffer_down>
c0106590:	8b 15 c0 10 11 c0    	mov    0xc01110c0,%edx
c0106596:	0f b7 05 c8 10 11 c0 	movzwl 0xc01110c8,%eax
c010659d:	0f b7 c0             	movzwl %ax,%eax
c01065a0:	01 c2                	add    %eax,%edx
c01065a2:	0f b6 45 e4          	movzbl -0x1c(%ebp),%eax
c01065a6:	88 02                	mov    %al,(%edx)
c01065a8:	0f b7 05 c8 10 11 c0 	movzwl 0xc01110c8,%eax
c01065af:	83 c0 01             	add    $0x1,%eax
c01065b2:	66 a3 c8 10 11 c0    	mov    %ax,0xc01110c8
c01065b8:	90                   	nop
c01065b9:	c9                   	leave
c01065ba:	c3                   	ret

c01065bb <single_shtoi>:
c01065bb:	55                   	push   %ebp
c01065bc:	89 e5                	mov    %esp,%ebp
c01065be:	83 ec 04             	sub    $0x4,%esp
c01065c1:	8b 45 08             	mov    0x8(%ebp),%eax
c01065c4:	88 45 fc             	mov    %al,-0x4(%ebp)
c01065c7:	80 7d fc 2f          	cmpb   $0x2f,-0x4(%ebp)
c01065cb:	7e 0f                	jle    c01065dc <single_shtoi+0x21>
c01065cd:	80 7d fc 39          	cmpb   $0x39,-0x4(%ebp)
c01065d1:	7f 09                	jg     c01065dc <single_shtoi+0x21>
c01065d3:	0f be 45 fc          	movsbl -0x4(%ebp),%eax
c01065d7:	83 e8 30             	sub    $0x30,%eax
c01065da:	eb 1a                	jmp    c01065f6 <single_shtoi+0x3b>
c01065dc:	80 7d fc 60          	cmpb   $0x60,-0x4(%ebp)
c01065e0:	7e 0f                	jle    c01065f1 <single_shtoi+0x36>
c01065e2:	80 7d fc 66          	cmpb   $0x66,-0x4(%ebp)
c01065e6:	7f 09                	jg     c01065f1 <single_shtoi+0x36>
c01065e8:	0f be 45 fc          	movsbl -0x4(%ebp),%eax
c01065ec:	83 e8 57             	sub    $0x57,%eax
c01065ef:	eb 05                	jmp    c01065f6 <single_shtoi+0x3b>
c01065f1:	b8 ff ff ff ff       	mov    $0xffffffff,%eax
c01065f6:	c9                   	leave
c01065f7:	c3                   	ret

c01065f8 <parse_color>:
c01065f8:	55                   	push   %ebp
c01065f9:	89 e5                	mov    %esp,%ebp
c01065fb:	57                   	push   %edi
c01065fc:	83 ec 50             	sub    $0x50,%esp
c01065ff:	8d 55 b4             	lea    -0x4c(%ebp),%edx
c0106602:	b8 00 00 00 00       	mov    $0x0,%eax
c0106607:	b9 10 00 00 00       	mov    $0x10,%ecx
c010660c:	89 d7                	mov    %edx,%edi
c010660e:	f3 ab                	rep stos %eax,%es:(%edi)
c0106610:	c7 45 b8 00 ff ff ff 	movl   $0xffffff00,-0x48(%ebp)
c0106617:	c7 45 bc 00 00 00 ff 	movl   $0xff000000,-0x44(%ebp)
c010661e:	c7 45 c0 00 00 ff 00 	movl   $0xff0000,-0x40(%ebp)
c0106625:	c7 45 c4 00 ff 00 00 	movl   $0xff00,-0x3c(%ebp)
c010662c:	c7 45 c8 00 00 a0 c4 	movl   $0xc4a00000,-0x38(%ebp)
c0106633:	c7 45 cc 00 7b 50 75 	movl   $0x75507b00,-0x34(%ebp)
c010663a:	c7 45 d0 00 9a 98 06 	movl   $0x6989a00,-0x30(%ebp)
c0106641:	83 45 0c 01          	addl   $0x1,0xc(%ebp)
c0106645:	8b 55 0c             	mov    0xc(%ebp),%edx
c0106648:	8b 45 08             	mov    0x8(%ebp),%eax
c010664b:	01 d0                	add    %edx,%eax
c010664d:	0f b6 00             	movzbl (%eax),%eax
c0106650:	0f be c0             	movsbl %al,%eax
c0106653:	50                   	push   %eax
c0106654:	e8 62 ff ff ff       	call   c01065bb <single_shtoi>
c0106659:	83 c4 04             	add    $0x4,%esp
c010665c:	89 45 f8             	mov    %eax,-0x8(%ebp)
c010665f:	83 45 0c 01          	addl   $0x1,0xc(%ebp)
c0106663:	8b 55 0c             	mov    0xc(%ebp),%edx
c0106666:	8b 45 08             	mov    0x8(%ebp),%eax
c0106669:	01 d0                	add    %edx,%eax
c010666b:	0f b6 00             	movzbl (%eax),%eax
c010666e:	0f be c0             	movsbl %al,%eax
c0106671:	50                   	push   %eax
c0106672:	e8 44 ff ff ff       	call   c01065bb <single_shtoi>
c0106677:	83 c4 04             	add    $0x4,%esp
c010667a:	89 45 f4             	mov    %eax,-0xc(%ebp)
c010667d:	8b 45 f8             	mov    -0x8(%ebp),%eax
c0106680:	8b 44 85 b4          	mov    -0x4c(%ebp,%eax,4),%eax
c0106684:	a3 88 a1 10 c0       	mov    %eax,0xc010a188
c0106689:	8b 45 f4             	mov    -0xc(%ebp),%eax
c010668c:	8b 44 85 b4          	mov    -0x4c(%ebp,%eax,4),%eax
c0106690:	a3 d8 10 11 c0       	mov    %eax,0xc01110d8
c0106695:	90                   	nop
c0106696:	8b 7d fc             	mov    -0x4(%ebp),%edi
c0106699:	c9                   	leave
c010669a:	c3                   	ret

c010669b <draw_text_buffer>:
c010669b:	55                   	push   %ebp
c010669c:	89 e5                	mov    %esp,%ebp
c010669e:	57                   	push   %edi
c010669f:	56                   	push   %esi
c01066a0:	53                   	push   %ebx
c01066a1:	83 ec 3c             	sub    $0x3c,%esp
c01066a4:	fa                   	cli
c01066a5:	66 c7 45 e6 00 00    	movw   $0x0,-0x1a(%ebp)
c01066ab:	66 c7 45 e4 00 00    	movw   $0x0,-0x1c(%ebp)
c01066b1:	66 c7 45 e2 00 00    	movw   $0x0,-0x1e(%ebp)
c01066b7:	0f b6 05 84 a1 10 c0 	movzbl 0xc010a184,%eax
c01066be:	c1 e0 03             	shl    $0x3,%eax
c01066c1:	88 45 d7             	mov    %al,-0x29(%ebp)
c01066c4:	0f b6 05 84 a1 10 c0 	movzbl 0xc010a184,%eax
c01066cb:	c1 e0 04             	shl    $0x4,%eax
c01066ce:	88 45 d6             	mov    %al,-0x2a(%ebp)
c01066d1:	e9 54 01 00 00       	jmp    c010682a <draw_text_buffer+0x18f>
c01066d6:	8b 15 c0 10 11 c0    	mov    0xc01110c0,%edx
c01066dc:	0f b7 45 e6          	movzwl -0x1a(%ebp),%eax
c01066e0:	01 d0                	add    %edx,%eax
c01066e2:	0f b6 00             	movzbl (%eax),%eax
c01066e5:	3c ff                	cmp    $0xff,%al
c01066e7:	75 1d                	jne    c0106706 <draw_text_buffer+0x6b>
c01066e9:	0f b7 55 e6          	movzwl -0x1a(%ebp),%edx
c01066ed:	a1 c0 10 11 c0       	mov    0xc01110c0,%eax
c01066f2:	52                   	push   %edx
c01066f3:	50                   	push   %eax
c01066f4:	e8 ff fe ff ff       	call   c01065f8 <parse_color>
c01066f9:	83 c4 08             	add    $0x8,%esp
c01066fc:	66 83 45 e6 03       	addw   $0x3,-0x1a(%ebp)
c0106701:	e9 24 01 00 00       	jmp    c010682a <draw_text_buffer+0x18f>
c0106706:	8b 15 c0 10 11 c0    	mov    0xc01110c0,%edx
c010670c:	0f b7 45 e6          	movzwl -0x1a(%ebp),%eax
c0106710:	01 d0                	add    %edx,%eax
c0106712:	0f b6 00             	movzbl (%eax),%eax
c0106715:	3c 0a                	cmp    $0xa,%al
c0106717:	75 79                	jne    c0106792 <draw_text_buffer+0xf7>
c0106719:	0f b7 45 e4          	movzwl -0x1c(%ebp),%eax
c010671d:	89 45 dc             	mov    %eax,-0x24(%ebp)
c0106720:	eb 45                	jmp    c0106767 <draw_text_buffer+0xcc>
c0106722:	0f b6 05 84 a1 10 c0 	movzbl 0xc010a184,%eax
c0106729:	0f b6 f0             	movzbl %al,%esi
c010672c:	8b 1d d8 10 11 c0    	mov    0xc01110d8,%ebx
c0106732:	8b 0d 88 a1 10 c0    	mov    0xc010a188,%ecx
c0106738:	0f b6 45 d6          	movzbl -0x2a(%ebp),%eax
c010673c:	66 0f af 45 e2       	imul   -0x1e(%ebp),%ax
c0106741:	0f b7 d0             	movzwl %ax,%edx
c0106744:	0f b6 45 d7          	movzbl -0x29(%ebp),%eax
c0106748:	8b 7d dc             	mov    -0x24(%ebp),%edi
c010674b:	0f af c7             	imul   %edi,%eax
c010674e:	0f b7 c0             	movzwl %ax,%eax
c0106751:	83 ec 08             	sub    $0x8,%esp
c0106754:	56                   	push   %esi
c0106755:	53                   	push   %ebx
c0106756:	51                   	push   %ecx
c0106757:	52                   	push   %edx
c0106758:	50                   	push   %eax
c0106759:	6a 20                	push   $0x20
c010675b:	e8 67 eb ff ff       	call   c01052c7 <fb_put_glyph>
c0106760:	83 c4 20             	add    $0x20,%esp
c0106763:	83 45 dc 01          	addl   $0x1,-0x24(%ebp)
c0106767:	a1 d0 10 11 c0       	mov    0xc01110d0,%eax
c010676c:	39 45 dc             	cmp    %eax,-0x24(%ebp)
c010676f:	7c b1                	jl     c0106722 <draw_text_buffer+0x87>
c0106771:	0f b7 45 e2          	movzwl -0x1e(%ebp),%eax
c0106775:	83 c0 01             	add    $0x1,%eax
c0106778:	66 89 45 e2          	mov    %ax,-0x1e(%ebp)
c010677c:	0f b7 45 e6          	movzwl -0x1a(%ebp),%eax
c0106780:	83 c0 01             	add    $0x1,%eax
c0106783:	66 89 45 e6          	mov    %ax,-0x1a(%ebp)
c0106787:	66 c7 45 e4 00 00    	movw   $0x0,-0x1c(%ebp)
c010678d:	e9 98 00 00 00       	jmp    c010682a <draw_text_buffer+0x18f>
c0106792:	0f b7 45 e4          	movzwl -0x1c(%ebp),%eax
c0106796:	8b 0d d0 10 11 c0    	mov    0xc01110d0,%ecx
c010679c:	99                   	cltd
c010679d:	f7 f9                	idiv   %ecx
c010679f:	89 d0                	mov    %edx,%eax
c01067a1:	85 c0                	test   %eax,%eax
c01067a3:	75 18                	jne    c01067bd <draw_text_buffer+0x122>
c01067a5:	66 83 7d e4 00       	cmpw   $0x0,-0x1c(%ebp)
c01067aa:	74 11                	je     c01067bd <draw_text_buffer+0x122>
c01067ac:	0f b7 45 e2          	movzwl -0x1e(%ebp),%eax
c01067b0:	83 c0 01             	add    $0x1,%eax
c01067b3:	66 89 45 e2          	mov    %ax,-0x1e(%ebp)
c01067b7:	66 c7 45 e4 00 00    	movw   $0x0,-0x1c(%ebp)
c01067bd:	0f b6 05 84 a1 10 c0 	movzbl 0xc010a184,%eax
c01067c4:	0f b6 f8             	movzbl %al,%edi
c01067c7:	8b 35 d8 10 11 c0    	mov    0xc01110d8,%esi
c01067cd:	8b 1d 88 a1 10 c0    	mov    0xc010a188,%ebx
c01067d3:	0f b6 45 d6          	movzbl -0x2a(%ebp),%eax
c01067d7:	66 0f af 45 e2       	imul   -0x1e(%ebp),%ax
c01067dc:	0f b7 c8             	movzwl %ax,%ecx
c01067df:	0f b6 45 d7          	movzbl -0x29(%ebp),%eax
c01067e3:	66 0f af 45 e4       	imul   -0x1c(%ebp),%ax
c01067e8:	0f b7 c0             	movzwl %ax,%eax
c01067eb:	89 45 c4             	mov    %eax,-0x3c(%ebp)
c01067ee:	a1 c0 10 11 c0       	mov    0xc01110c0,%eax
c01067f3:	89 c2                	mov    %eax,%edx
c01067f5:	0f b7 45 e6          	movzwl -0x1a(%ebp),%eax
c01067f9:	01 d0                	add    %edx,%eax
c01067fb:	0f b6 00             	movzbl (%eax),%eax
c01067fe:	0f be c0             	movsbl %al,%eax
c0106801:	83 ec 08             	sub    $0x8,%esp
c0106804:	57                   	push   %edi
c0106805:	56                   	push   %esi
c0106806:	53                   	push   %ebx
c0106807:	51                   	push   %ecx
c0106808:	ff 75 c4             	push   -0x3c(%ebp)
c010680b:	50                   	push   %eax
c010680c:	e8 b6 ea ff ff       	call   c01052c7 <fb_put_glyph>
c0106811:	83 c4 20             	add    $0x20,%esp
c0106814:	0f b7 45 e6          	movzwl -0x1a(%ebp),%eax
c0106818:	83 c0 01             	add    $0x1,%eax
c010681b:	66 89 45 e6          	mov    %ax,-0x1a(%ebp)
c010681f:	0f b7 45 e4          	movzwl -0x1c(%ebp),%eax
c0106823:	83 c0 01             	add    $0x1,%eax
c0106826:	66 89 45 e4          	mov    %ax,-0x1c(%ebp)
c010682a:	8b 15 c0 10 11 c0    	mov    0xc01110c0,%edx
c0106830:	0f b7 45 e6          	movzwl -0x1a(%ebp),%eax
c0106834:	01 d0                	add    %edx,%eax
c0106836:	0f b6 00             	movzbl (%eax),%eax
c0106839:	84 c0                	test   %al,%al
c010683b:	0f 85 95 fe ff ff    	jne    c01066d6 <draw_text_buffer+0x3b>
c0106841:	c7 45 d8 00 00 00 00 	movl   $0x0,-0x28(%ebp)
c0106848:	eb 59                	jmp    c01068a3 <draw_text_buffer+0x208>
c010684a:	0f b6 05 84 a1 10 c0 	movzbl 0xc010a184,%eax
c0106851:	0f b6 f0             	movzbl %al,%esi
c0106854:	8b 1d d8 10 11 c0    	mov    0xc01110d8,%ebx
c010685a:	8b 0d 88 a1 10 c0    	mov    0xc010a188,%ecx
c0106860:	0f b6 45 d6          	movzbl -0x2a(%ebp),%eax
c0106864:	66 0f af 45 e2       	imul   -0x1e(%ebp),%ax
c0106869:	0f b7 d0             	movzwl %ax,%edx
c010686c:	0f b6 45 d7          	movzbl -0x29(%ebp),%eax
c0106870:	8b 7d d8             	mov    -0x28(%ebp),%edi
c0106873:	0f af c7             	imul   %edi,%eax
c0106876:	0f b7 c0             	movzwl %ax,%eax
c0106879:	83 ec 08             	sub    $0x8,%esp
c010687c:	56                   	push   %esi
c010687d:	53                   	push   %ebx
c010687e:	51                   	push   %ecx
c010687f:	52                   	push   %edx
c0106880:	50                   	push   %eax
c0106881:	6a 20                	push   $0x20
c0106883:	e8 3f ea ff ff       	call   c01052c7 <fb_put_glyph>
c0106888:	83 c4 20             	add    $0x20,%esp
c010688b:	83 7d d8 01          	cmpl   $0x1,-0x28(%ebp)
c010688f:	7e 0e                	jle    c010689f <draw_text_buffer+0x204>
c0106891:	8b 15 c4 10 11 c0    	mov    0xc01110c4,%edx
c0106897:	8b 45 d8             	mov    -0x28(%ebp),%eax
c010689a:	01 d0                	add    %edx,%eax
c010689c:	c6 00 00             	movb   $0x0,(%eax)
c010689f:	83 45 d8 01          	addl   $0x1,-0x28(%ebp)
c01068a3:	a1 d0 10 11 c0       	mov    0xc01110d0,%eax
c01068a8:	39 45 d8             	cmp    %eax,-0x28(%ebp)
c01068ab:	7c 9d                	jl     c010684a <draw_text_buffer+0x1af>
c01068ad:	fb                   	sti
c01068ae:	90                   	nop
c01068af:	8d 65 f4             	lea    -0xc(%ebp),%esp
c01068b2:	5b                   	pop    %ebx
c01068b3:	5e                   	pop    %esi
c01068b4:	5f                   	pop    %edi
c01068b5:	5d                   	pop    %ebp
c01068b6:	c3                   	ret

c01068b7 <draw_user_chars>:
c01068b7:	55                   	push   %ebp
c01068b8:	89 e5                	mov    %esp,%ebp
c01068ba:	57                   	push   %edi
c01068bb:	56                   	push   %esi
c01068bc:	53                   	push   %ebx
c01068bd:	83 ec 2c             	sub    $0x2c,%esp
c01068c0:	0f b6 05 84 a1 10 c0 	movzbl 0xc010a184,%eax
c01068c7:	c1 e0 03             	shl    $0x3,%eax
c01068ca:	88 45 e3             	mov    %al,-0x1d(%ebp)
c01068cd:	0f b6 05 84 a1 10 c0 	movzbl 0xc010a184,%eax
c01068d4:	c1 e0 04             	shl    $0x4,%eax
c01068d7:	88 45 e2             	mov    %al,-0x1e(%ebp)
c01068da:	c7 45 e4 00 00 00 00 	movl   $0x0,-0x1c(%ebp)
c01068e1:	eb 60                	jmp    c0106943 <draw_user_chars+0x8c>
c01068e3:	0f b6 05 84 a1 10 c0 	movzbl 0xc010a184,%eax
c01068ea:	0f b6 f8             	movzbl %al,%edi
c01068ed:	8b 35 d8 10 11 c0    	mov    0xc01110d8,%esi
c01068f3:	8b 1d 88 a1 10 c0    	mov    0xc010a188,%ebx
c01068f9:	0f b6 55 e2          	movzbl -0x1e(%ebp),%edx
c01068fd:	0f b7 05 ca 10 11 c0 	movzwl 0xc01110ca,%eax
c0106904:	0f af c2             	imul   %edx,%eax
c0106907:	0f b7 c8             	movzwl %ax,%ecx
c010690a:	0f b6 45 e3          	movzbl -0x1d(%ebp),%eax
c010690e:	8b 55 e4             	mov    -0x1c(%ebp),%edx
c0106911:	0f af c2             	imul   %edx,%eax
c0106914:	0f b7 c0             	movzwl %ax,%eax
c0106917:	89 45 d4             	mov    %eax,-0x2c(%ebp)
c010691a:	a1 c4 10 11 c0       	mov    0xc01110c4,%eax
c010691f:	89 c2                	mov    %eax,%edx
c0106921:	8b 45 e4             	mov    -0x1c(%ebp),%eax
c0106924:	01 d0                	add    %edx,%eax
c0106926:	0f b6 00             	movzbl (%eax),%eax
c0106929:	0f be c0             	movsbl %al,%eax
c010692c:	83 ec 08             	sub    $0x8,%esp
c010692f:	57                   	push   %edi
c0106930:	56                   	push   %esi
c0106931:	53                   	push   %ebx
c0106932:	51                   	push   %ecx
c0106933:	ff 75 d4             	push   -0x2c(%ebp)
c0106936:	50                   	push   %eax
c0106937:	e8 8b e9 ff ff       	call   c01052c7 <fb_put_glyph>
c010693c:	83 c4 20             	add    $0x20,%esp
c010693f:	83 45 e4 01          	addl   $0x1,-0x1c(%ebp)
c0106943:	8b 15 c4 10 11 c0    	mov    0xc01110c4,%edx
c0106949:	8b 45 e4             	mov    -0x1c(%ebp),%eax
c010694c:	01 d0                	add    %edx,%eax
c010694e:	0f b6 00             	movzbl (%eax),%eax
c0106951:	84 c0                	test   %al,%al
c0106953:	75 8e                	jne    c01068e3 <draw_user_chars+0x2c>
c0106955:	90                   	nop
c0106956:	90                   	nop
c0106957:	8d 65 f4             	lea    -0xc(%ebp),%esp
c010695a:	5b                   	pop    %ebx
c010695b:	5e                   	pop    %esi
c010695c:	5f                   	pop    %edi
c010695d:	5d                   	pop    %ebp
c010695e:	c3                   	ret

c010695f <term_render_hex>:
c010695f:	55                   	push   %ebp
c0106960:	89 e5                	mov    %esp,%ebp
c0106962:	83 ec 68             	sub    $0x68,%esp
c0106965:	83 7d 08 00          	cmpl   $0x0,0x8(%ebp)
c0106969:	75 15                	jne    c0106980 <term_render_hex+0x21>
c010696b:	83 ec 0c             	sub    $0xc,%esp
c010696e:	68 db 8f 10 c0       	push   $0xc0108fdb
c0106973:	e8 46 fb ff ff       	call   c01064be <write_text_buffer>
c0106978:	83 c4 10             	add    $0x10,%esp
c010697b:	e9 cc 00 00 00       	jmp    c0106a4c <term_render_hex+0xed>
c0106980:	c6 45 a0 30          	movb   $0x30,-0x60(%ebp)
c0106984:	c6 45 a1 78          	movb   $0x78,-0x5f(%ebp)
c0106988:	c7 45 f4 02 00 00 00 	movl   $0x2,-0xc(%ebp)
c010698f:	8b 45 08             	mov    0x8(%ebp),%eax
c0106992:	89 45 f0             	mov    %eax,-0x10(%ebp)
c0106995:	eb 42                	jmp    c01069d9 <term_render_hex+0x7a>
c0106997:	8b 45 f0             	mov    -0x10(%ebp),%eax
c010699a:	83 e0 0f             	and    $0xf,%eax
c010699d:	89 45 e0             	mov    %eax,-0x20(%ebp)
c01069a0:	83 7d e0 09          	cmpl   $0x9,-0x20(%ebp)
c01069a4:	77 14                	ja     c01069ba <term_render_hex+0x5b>
c01069a6:	8b 45 e0             	mov    -0x20(%ebp),%eax
c01069a9:	83 c0 30             	add    $0x30,%eax
c01069ac:	89 c1                	mov    %eax,%ecx
c01069ae:	8d 55 a0             	lea    -0x60(%ebp),%edx
c01069b1:	8b 45 f4             	mov    -0xc(%ebp),%eax
c01069b4:	01 d0                	add    %edx,%eax
c01069b6:	88 08                	mov    %cl,(%eax)
c01069b8:	eb 12                	jmp    c01069cc <term_render_hex+0x6d>
c01069ba:	8b 45 e0             	mov    -0x20(%ebp),%eax
c01069bd:	83 c0 57             	add    $0x57,%eax
c01069c0:	89 c1                	mov    %eax,%ecx
c01069c2:	8d 55 a0             	lea    -0x60(%ebp),%edx
c01069c5:	8b 45 f4             	mov    -0xc(%ebp),%eax
c01069c8:	01 d0                	add    %edx,%eax
c01069ca:	88 08                	mov    %cl,(%eax)
c01069cc:	83 45 f4 01          	addl   $0x1,-0xc(%ebp)
c01069d0:	8b 45 f0             	mov    -0x10(%ebp),%eax
c01069d3:	c1 e8 04             	shr    $0x4,%eax
c01069d6:	89 45 f0             	mov    %eax,-0x10(%ebp)
c01069d9:	83 7d f0 00          	cmpl   $0x0,-0x10(%ebp)
c01069dd:	75 b8                	jne    c0106997 <term_render_hex+0x38>
c01069df:	c7 45 ec 02 00 00 00 	movl   $0x2,-0x14(%ebp)
c01069e6:	8b 45 f4             	mov    -0xc(%ebp),%eax
c01069e9:	83 e8 01             	sub    $0x1,%eax
c01069ec:	89 45 e8             	mov    %eax,-0x18(%ebp)
c01069ef:	eb 39                	jmp    c0106a2a <term_render_hex+0xcb>
c01069f1:	8d 55 a0             	lea    -0x60(%ebp),%edx
c01069f4:	8b 45 e8             	mov    -0x18(%ebp),%eax
c01069f7:	01 d0                	add    %edx,%eax
c01069f9:	0f b6 00             	movzbl (%eax),%eax
c01069fc:	88 45 e7             	mov    %al,-0x19(%ebp)
c01069ff:	8d 55 a0             	lea    -0x60(%ebp),%edx
c0106a02:	8b 45 ec             	mov    -0x14(%ebp),%eax
c0106a05:	01 d0                	add    %edx,%eax
c0106a07:	0f b6 00             	movzbl (%eax),%eax
c0106a0a:	8d 4d a0             	lea    -0x60(%ebp),%ecx
c0106a0d:	8b 55 e8             	mov    -0x18(%ebp),%edx
c0106a10:	01 ca                	add    %ecx,%edx
c0106a12:	88 02                	mov    %al,(%edx)
c0106a14:	8d 55 a0             	lea    -0x60(%ebp),%edx
c0106a17:	8b 45 ec             	mov    -0x14(%ebp),%eax
c0106a1a:	01 c2                	add    %eax,%edx
c0106a1c:	0f b6 45 e7          	movzbl -0x19(%ebp),%eax
c0106a20:	88 02                	mov    %al,(%edx)
c0106a22:	83 45 ec 01          	addl   $0x1,-0x14(%ebp)
c0106a26:	83 6d e8 01          	subl   $0x1,-0x18(%ebp)
c0106a2a:	8b 45 ec             	mov    -0x14(%ebp),%eax
c0106a2d:	39 45 e8             	cmp    %eax,-0x18(%ebp)
c0106a30:	73 bf                	jae    c01069f1 <term_render_hex+0x92>
c0106a32:	8d 55 a0             	lea    -0x60(%ebp),%edx
c0106a35:	8b 45 f4             	mov    -0xc(%ebp),%eax
c0106a38:	01 d0                	add    %edx,%eax
c0106a3a:	c6 00 00             	movb   $0x0,(%eax)
c0106a3d:	83 ec 0c             	sub    $0xc,%esp
c0106a40:	8d 45 a0             	lea    -0x60(%ebp),%eax
c0106a43:	50                   	push   %eax
c0106a44:	e8 75 fa ff ff       	call   c01064be <write_text_buffer>
c0106a49:	83 c4 10             	add    $0x10,%esp
c0106a4c:	c9                   	leave
c0106a4d:	c3                   	ret

c0106a4e <printf>:
c0106a4e:	55                   	push   %ebp
c0106a4f:	89 e5                	mov    %esp,%ebp
c0106a51:	83 ec 18             	sub    $0x18,%esp
c0106a54:	c7 45 f4 01 00 00 00 	movl   $0x1,-0xc(%ebp)
c0106a5b:	8d 45 0c             	lea    0xc(%ebp),%eax
c0106a5e:	89 45 ec             	mov    %eax,-0x14(%ebp)
c0106a61:	e9 ee 00 00 00       	jmp    c0106b54 <printf+0x106>
c0106a66:	8b 45 08             	mov    0x8(%ebp),%eax
c0106a69:	0f b6 00             	movzbl (%eax),%eax
c0106a6c:	3c 25                	cmp    $0x25,%al
c0106a6e:	0f 85 b8 00 00 00    	jne    c0106b2c <printf+0xde>
c0106a74:	83 45 08 01          	addl   $0x1,0x8(%ebp)
c0106a78:	8b 45 08             	mov    0x8(%ebp),%eax
c0106a7b:	0f b6 00             	movzbl (%eax),%eax
c0106a7e:	0f be c0             	movsbl %al,%eax
c0106a81:	83 f8 78             	cmp    $0x78,%eax
c0106a84:	74 2d                	je     c0106ab3 <printf+0x65>
c0106a86:	83 f8 78             	cmp    $0x78,%eax
c0106a89:	0f 8f 97 00 00 00    	jg     c0106b26 <printf+0xd8>
c0106a8f:	83 f8 74             	cmp    $0x74,%eax
c0106a92:	74 47                	je     c0106adb <printf+0x8d>
c0106a94:	83 f8 74             	cmp    $0x74,%eax
c0106a97:	0f 8f 89 00 00 00    	jg     c0106b26 <printf+0xd8>
c0106a9d:	83 f8 73             	cmp    $0x73,%eax
c0106aa0:	74 4c                	je     c0106aee <printf+0xa0>
c0106aa2:	83 f8 73             	cmp    $0x73,%eax
c0106aa5:	7f 7f                	jg     c0106b26 <printf+0xd8>
c0106aa7:	83 f8 25             	cmp    $0x25,%eax
c0106aaa:	74 20                	je     c0106acc <printf+0x7e>
c0106aac:	83 f8 63             	cmp    $0x63,%eax
c0106aaf:	74 56                	je     c0106b07 <printf+0xb9>
c0106ab1:	eb 73                	jmp    c0106b26 <printf+0xd8>
c0106ab3:	8b 45 ec             	mov    -0x14(%ebp),%eax
c0106ab6:	8d 50 04             	lea    0x4(%eax),%edx
c0106ab9:	89 55 ec             	mov    %edx,-0x14(%ebp)
c0106abc:	8b 00                	mov    (%eax),%eax
c0106abe:	83 ec 0c             	sub    $0xc,%esp
c0106ac1:	50                   	push   %eax
c0106ac2:	e8 98 fe ff ff       	call   c010695f <term_render_hex>
c0106ac7:	83 c4 10             	add    $0x10,%esp
c0106aca:	eb 5a                	jmp    c0106b26 <printf+0xd8>
c0106acc:	83 ec 0c             	sub    $0xc,%esp
c0106acf:	6a 25                	push   $0x25
c0106ad1:	e8 6f fa ff ff       	call   c0106545 <write_char_text_buffer>
c0106ad6:	83 c4 10             	add    $0x10,%esp
c0106ad9:	eb 4b                	jmp    c0106b26 <printf+0xd8>
c0106adb:	83 ec 0c             	sub    $0xc,%esp
c0106ade:	6a ff                	push   $0xffffffff
c0106ae0:	e8 60 fa ff ff       	call   c0106545 <write_char_text_buffer>
c0106ae5:	83 c4 10             	add    $0x10,%esp
c0106ae8:	83 45 08 01          	addl   $0x1,0x8(%ebp)
c0106aec:	eb 66                	jmp    c0106b54 <printf+0x106>
c0106aee:	8b 45 ec             	mov    -0x14(%ebp),%eax
c0106af1:	8d 50 04             	lea    0x4(%eax),%edx
c0106af4:	89 55 ec             	mov    %edx,-0x14(%ebp)
c0106af7:	8b 00                	mov    (%eax),%eax
c0106af9:	83 ec 0c             	sub    $0xc,%esp
c0106afc:	50                   	push   %eax
c0106afd:	e8 bc f9 ff ff       	call   c01064be <write_text_buffer>
c0106b02:	83 c4 10             	add    $0x10,%esp
c0106b05:	eb 1f                	jmp    c0106b26 <printf+0xd8>
c0106b07:	8b 45 ec             	mov    -0x14(%ebp),%eax
c0106b0a:	8d 50 04             	lea    0x4(%eax),%edx
c0106b0d:	89 55 ec             	mov    %edx,-0x14(%ebp)
c0106b10:	8b 00                	mov    (%eax),%eax
c0106b12:	88 45 f3             	mov    %al,-0xd(%ebp)
c0106b15:	0f be 45 f3          	movsbl -0xd(%ebp),%eax
c0106b19:	83 ec 0c             	sub    $0xc,%esp
c0106b1c:	50                   	push   %eax
c0106b1d:	e8 23 fa ff ff       	call   c0106545 <write_char_text_buffer>
c0106b22:	83 c4 10             	add    $0x10,%esp
c0106b25:	90                   	nop
c0106b26:	83 45 08 01          	addl   $0x1,0x8(%ebp)
c0106b2a:	eb 28                	jmp    c0106b54 <printf+0x106>
c0106b2c:	8b 45 08             	mov    0x8(%ebp),%eax
c0106b2f:	0f b6 00             	movzbl (%eax),%eax
c0106b32:	0f be c0             	movsbl %al,%eax
c0106b35:	83 ec 0c             	sub    $0xc,%esp
c0106b38:	50                   	push   %eax
c0106b39:	e8 07 fa ff ff       	call   c0106545 <write_char_text_buffer>
c0106b3e:	83 c4 10             	add    $0x10,%esp
c0106b41:	8b 45 08             	mov    0x8(%ebp),%eax
c0106b44:	0f b6 00             	movzbl (%eax),%eax
c0106b47:	3c 0a                	cmp    $0xa,%al
c0106b49:	75 05                	jne    c0106b50 <printf+0x102>
c0106b4b:	e8 4b fb ff ff       	call   c010669b <draw_text_buffer>
c0106b50:	83 45 08 01          	addl   $0x1,0x8(%ebp)
c0106b54:	8b 45 08             	mov    0x8(%ebp),%eax
c0106b57:	0f b6 00             	movzbl (%eax),%eax
c0106b5a:	84 c0                	test   %al,%al
c0106b5c:	0f 85 04 ff ff ff    	jne    c0106a66 <printf+0x18>
c0106b62:	90                   	nop
c0106b63:	90                   	nop
c0106b64:	c9                   	leave
c0106b65:	c3                   	ret

c0106b66 <write_user_char>:
c0106b66:	55                   	push   %ebp
c0106b67:	89 e5                	mov    %esp,%ebp
c0106b69:	83 ec 04             	sub    $0x4,%esp
c0106b6c:	8b 45 08             	mov    0x8(%ebp),%eax
c0106b6f:	88 45 fc             	mov    %al,-0x4(%ebp)
c0106b72:	80 7d fc 08          	cmpb   $0x8,-0x4(%ebp)
c0106b76:	75 38                	jne    c0106bb0 <write_user_char+0x4a>
c0106b78:	0f b7 05 86 a1 10 c0 	movzwl 0xc010a186,%eax
c0106b7f:	66 83 f8 02          	cmp    $0x2,%ax
c0106b83:	0f 86 87 00 00 00    	jbe    c0106c10 <write_user_char+0xaa>
c0106b89:	0f b7 05 86 a1 10 c0 	movzwl 0xc010a186,%eax
c0106b90:	83 e8 01             	sub    $0x1,%eax
c0106b93:	66 a3 86 a1 10 c0    	mov    %ax,0xc010a186
c0106b99:	8b 15 c4 10 11 c0    	mov    0xc01110c4,%edx
c0106b9f:	0f b7 05 86 a1 10 c0 	movzwl 0xc010a186,%eax
c0106ba6:	0f b7 c0             	movzwl %ax,%eax
c0106ba9:	01 d0                	add    %edx,%eax
c0106bab:	c6 00 20             	movb   $0x20,(%eax)
c0106bae:	eb 64                	jmp    c0106c14 <write_user_char+0xae>
c0106bb0:	0f b7 05 86 a1 10 c0 	movzwl 0xc010a186,%eax
c0106bb7:	0f b7 d0             	movzwl %ax,%edx
c0106bba:	a1 d0 10 11 c0       	mov    0xc01110d0,%eax
c0106bbf:	39 c2                	cmp    %eax,%edx
c0106bc1:	74 50                	je     c0106c13 <write_user_char+0xad>
c0106bc3:	8b 15 c4 10 11 c0    	mov    0xc01110c4,%edx
c0106bc9:	0f b7 05 86 a1 10 c0 	movzwl 0xc010a186,%eax
c0106bd0:	0f b7 c0             	movzwl %ax,%eax
c0106bd3:	01 c2                	add    %eax,%edx
c0106bd5:	0f b6 45 fc          	movzbl -0x4(%ebp),%eax
c0106bd9:	88 02                	mov    %al,(%edx)
c0106bdb:	a1 c0 10 11 c0       	mov    0xc01110c0,%eax
c0106be0:	0f b7 15 c8 10 11 c0 	movzwl 0xc01110c8,%edx
c0106be7:	0f b7 ca             	movzwl %dx,%ecx
c0106bea:	0f b7 15 86 a1 10 c0 	movzwl 0xc010a186,%edx
c0106bf1:	0f b7 d2             	movzwl %dx,%edx
c0106bf4:	01 ca                	add    %ecx,%edx
c0106bf6:	01 c2                	add    %eax,%edx
c0106bf8:	0f b6 45 fc          	movzbl -0x4(%ebp),%eax
c0106bfc:	88 02                	mov    %al,(%edx)
c0106bfe:	0f b7 05 86 a1 10 c0 	movzwl 0xc010a186,%eax
c0106c05:	83 c0 01             	add    $0x1,%eax
c0106c08:	66 a3 86 a1 10 c0    	mov    %ax,0xc010a186
c0106c0e:	eb 04                	jmp    c0106c14 <write_user_char+0xae>
c0106c10:	90                   	nop
c0106c11:	eb 01                	jmp    c0106c14 <write_user_char+0xae>
c0106c13:	90                   	nop
c0106c14:	c9                   	leave
c0106c15:	c3                   	ret

c0106c16 <tflush>:
c0106c16:	55                   	push   %ebp
c0106c17:	89 e5                	mov    %esp,%ebp
c0106c19:	83 ec 08             	sub    $0x8,%esp
c0106c1c:	e8 7a fa ff ff       	call   c010669b <draw_text_buffer>
c0106c21:	e8 91 fc ff ff       	call   c01068b7 <draw_user_chars>
c0106c26:	90                   	nop
c0106c27:	c9                   	leave
c0106c28:	c3                   	ret

c0106c29 <bark_process>:
c0106c29:	55                   	push   %ebp
c0106c2a:	89 e5                	mov    %esp,%ebp
c0106c2c:	83 ec 08             	sub    $0x8,%esp
c0106c2f:	83 ec 0c             	sub    $0xc,%esp
c0106c32:	68 df 8f 10 c0       	push   $0xc0108fdf
c0106c37:	e8 12 fe ff ff       	call   c0106a4e <printf>
c0106c3c:	83 c4 10             	add    $0x10,%esp
c0106c3f:	e8 55 ef ff ff       	call   c0105b99 <kill_current_process>
c0106c44:	f4                   	hlt
c0106c45:	eb fd                	jmp    c0106c44 <bark_process+0x1b>
c0106c47:	90                   	nop
c0106c48:	c9                   	leave
c0106c49:	c3                   	ret

c0106c4a <parse_user_chars>:
c0106c4a:	55                   	push   %ebp
c0106c4b:	89 e5                	mov    %esp,%ebp
c0106c4d:	83 ec 18             	sub    $0x18,%esp
c0106c50:	c6 45 f7 02          	movb   $0x2,-0x9(%ebp)
c0106c54:	a1 d0 10 11 c0       	mov    0xc01110d0,%eax
c0106c59:	83 ec 0c             	sub    $0xc,%esp
c0106c5c:	50                   	push   %eax
c0106c5d:	e8 30 d4 ff ff       	call   c0104092 <kalloc>
c0106c62:	83 c4 10             	add    $0x10,%esp
c0106c65:	89 45 f0             	mov    %eax,-0x10(%ebp)
c0106c68:	a1 d0 10 11 c0       	mov    0xc01110d0,%eax
c0106c6d:	83 ec 04             	sub    $0x4,%esp
c0106c70:	50                   	push   %eax
c0106c71:	6a 00                	push   $0x0
c0106c73:	ff 75 f0             	push   -0x10(%ebp)
c0106c76:	e8 c2 d2 ff ff       	call   c0103f3d <memset>
c0106c7b:	83 c4 10             	add    $0x10,%esp
c0106c7e:	83 ec 08             	sub    $0x8,%esp
c0106c81:	ff 75 f0             	push   -0x10(%ebp)
c0106c84:	68 f1 8f 10 c0       	push   $0xc0108ff1
c0106c89:	e8 cd cd ff ff       	call   c0103a5b <logf>
c0106c8e:	83 c4 10             	add    $0x10,%esp
c0106c91:	eb 4d                	jmp    c0106ce0 <parse_user_chars+0x96>
c0106c93:	8b 15 c4 10 11 c0    	mov    0xc01110c4,%edx
c0106c99:	0f be 45 f7          	movsbl -0x9(%ebp),%eax
c0106c9d:	01 d0                	add    %edx,%eax
c0106c9f:	0f b6 00             	movzbl (%eax),%eax
c0106ca2:	3c 20                	cmp    $0x20,%al
c0106ca4:	74 4f                	je     c0106cf5 <parse_user_chars+0xab>
c0106ca6:	8b 15 c4 10 11 c0    	mov    0xc01110c4,%edx
c0106cac:	0f be 45 f7          	movsbl -0x9(%ebp),%eax
c0106cb0:	01 d0                	add    %edx,%eax
c0106cb2:	0f b6 00             	movzbl (%eax),%eax
c0106cb5:	3c 0a                	cmp    $0xa,%al
c0106cb7:	74 3f                	je     c0106cf8 <parse_user_chars+0xae>
c0106cb9:	8b 15 c4 10 11 c0    	mov    0xc01110c4,%edx
c0106cbf:	0f be 45 f7          	movsbl -0x9(%ebp),%eax
c0106cc3:	01 d0                	add    %edx,%eax
c0106cc5:	0f be 55 f7          	movsbl -0x9(%ebp),%edx
c0106cc9:	8d 4a fe             	lea    -0x2(%edx),%ecx
c0106ccc:	8b 55 f0             	mov    -0x10(%ebp),%edx
c0106ccf:	01 ca                	add    %ecx,%edx
c0106cd1:	0f b6 00             	movzbl (%eax),%eax
c0106cd4:	88 02                	mov    %al,(%edx)
c0106cd6:	0f b6 45 f7          	movzbl -0x9(%ebp),%eax
c0106cda:	83 c0 01             	add    $0x1,%eax
c0106cdd:	88 45 f7             	mov    %al,-0x9(%ebp)
c0106ce0:	8b 15 c4 10 11 c0    	mov    0xc01110c4,%edx
c0106ce6:	0f be 45 f7          	movsbl -0x9(%ebp),%eax
c0106cea:	01 d0                	add    %edx,%eax
c0106cec:	0f b6 00             	movzbl (%eax),%eax
c0106cef:	84 c0                	test   %al,%al
c0106cf1:	75 a0                	jne    c0106c93 <parse_user_chars+0x49>
c0106cf3:	eb 04                	jmp    c0106cf9 <parse_user_chars+0xaf>
c0106cf5:	90                   	nop
c0106cf6:	eb 01                	jmp    c0106cf9 <parse_user_chars+0xaf>
c0106cf8:	90                   	nop
c0106cf9:	83 ec 0c             	sub    $0xc,%esp
c0106cfc:	68 08 90 10 c0       	push   $0xc0109008
c0106d01:	e8 62 d2 ff ff       	call   c0103f68 <strlen>
c0106d06:	83 c4 10             	add    $0x10,%esp
c0106d09:	83 ec 04             	sub    $0x4,%esp
c0106d0c:	50                   	push   %eax
c0106d0d:	ff 75 f0             	push   -0x10(%ebp)
c0106d10:	68 08 90 10 c0       	push   $0xc0109008
c0106d15:	e8 72 d2 ff ff       	call   c0103f8c <strcmp>
c0106d1a:	83 c4 10             	add    $0x10,%esp
c0106d1d:	84 c0                	test   %al,%al
c0106d1f:	74 1a                	je     c0106d3b <parse_user_chars+0xf1>
c0106d21:	83 ec 08             	sub    $0x8,%esp
c0106d24:	68 10 90 10 c0       	push   $0xc0109010
c0106d29:	68 18 90 10 c0       	push   $0xc0109018
c0106d2e:	e8 1b fd ff ff       	call   c0106a4e <printf>
c0106d33:	83 c4 10             	add    $0x10,%esp
c0106d36:	e9 ac 00 00 00       	jmp    c0106de7 <parse_user_chars+0x19d>
c0106d3b:	83 ec 0c             	sub    $0xc,%esp
c0106d3e:	68 3b 90 10 c0       	push   $0xc010903b
c0106d43:	e8 20 d2 ff ff       	call   c0103f68 <strlen>
c0106d48:	83 c4 10             	add    $0x10,%esp
c0106d4b:	83 ec 04             	sub    $0x4,%esp
c0106d4e:	50                   	push   %eax
c0106d4f:	ff 75 f0             	push   -0x10(%ebp)
c0106d52:	68 3b 90 10 c0       	push   $0xc010903b
c0106d57:	e8 30 d2 ff ff       	call   c0103f8c <strcmp>
c0106d5c:	83 c4 10             	add    $0x10,%esp
c0106d5f:	84 c0                	test   %al,%al
c0106d61:	74 32                	je     c0106d95 <parse_user_chars+0x14b>
c0106d63:	83 ec 0c             	sub    $0xc,%esp
c0106d66:	68 3d 90 10 c0       	push   $0xc010903d
c0106d6b:	e8 de fc ff ff       	call   c0106a4e <printf>
c0106d70:	83 c4 10             	add    $0x10,%esp
c0106d73:	c7 45 ec 4b 90 10 c0 	movl   $0xc010904b,-0x14(%ebp)
c0106d7a:	c7 45 e8 29 6c 10 c0 	movl   $0xc0106c29,-0x18(%ebp)
c0106d81:	8b 45 ec             	mov    -0x14(%ebp),%eax
c0106d84:	8b 5d e8             	mov    -0x18(%ebp),%ebx
c0106d87:	b9 00 00 00 00       	mov    $0x0,%ecx
c0106d8c:	ba 00 00 00 00       	mov    $0x0,%edx
c0106d91:	cd 80                	int    $0x80
c0106d93:	eb 52                	jmp    c0106de7 <parse_user_chars+0x19d>
c0106d95:	83 ec 0c             	sub    $0xc,%esp
c0106d98:	68 50 90 10 c0       	push   $0xc0109050
c0106d9d:	e8 c6 d1 ff ff       	call   c0103f68 <strlen>
c0106da2:	83 c4 10             	add    $0x10,%esp
c0106da5:	83 ec 04             	sub    $0x4,%esp
c0106da8:	50                   	push   %eax
c0106da9:	ff 75 f0             	push   -0x10(%ebp)
c0106dac:	68 50 90 10 c0       	push   $0xc0109050
c0106db1:	e8 d6 d1 ff ff       	call   c0103f8c <strcmp>
c0106db6:	83 c4 10             	add    $0x10,%esp
c0106db9:	84 c0                	test   %al,%al
c0106dbb:	74 17                	je     c0106dd4 <parse_user_chars+0x18a>
c0106dbd:	83 ec 0c             	sub    $0xc,%esp
c0106dc0:	68 59 90 10 c0       	push   $0xc0109059
c0106dc5:	e8 84 fc ff ff       	call   c0106a4e <printf>
c0106dca:	83 c4 10             	add    $0x10,%esp
c0106dcd:	e8 37 ce ff ff       	call   c0103c09 <triple_fault>
c0106dd2:	eb 13                	jmp    c0106de7 <parse_user_chars+0x19d>
c0106dd4:	83 ec 08             	sub    $0x8,%esp
c0106dd7:	ff 75 f0             	push   -0x10(%ebp)
c0106dda:	68 63 90 10 c0       	push   $0xc0109063
c0106ddf:	e8 6a fc ff ff       	call   c0106a4e <printf>
c0106de4:	83 c4 10             	add    $0x10,%esp
c0106de7:	83 ec 0c             	sub    $0xc,%esp
c0106dea:	ff 75 f0             	push   -0x10(%ebp)
c0106ded:	e8 35 d4 ff ff       	call   c0104227 <kfree>
c0106df2:	83 c4 10             	add    $0x10,%esp
c0106df5:	90                   	nop
c0106df6:	c9                   	leave
c0106df7:	c3                   	ret

c0106df8 <next_keycode>:
c0106df8:	55                   	push   %ebp
c0106df9:	89 e5                	mov    %esp,%ebp
c0106dfb:	83 ec 10             	sub    $0x10,%esp
c0106dfe:	0f b6 15 bc 10 11 c0 	movzbl 0xc01110bc,%edx
c0106e05:	0f b6 05 88 10 11 c0 	movzbl 0xc0111088,%eax
c0106e0c:	38 c2                	cmp    %al,%dl
c0106e0e:	75 14                	jne    c0106e24 <next_keycode+0x2c>
c0106e10:	c6 45 fc 00          	movb   $0x0,-0x4(%ebp)
c0106e14:	c6 45 fd 00          	movb   $0x0,-0x3(%ebp)
c0106e18:	8b 45 08             	mov    0x8(%ebp),%eax
c0106e1b:	0f b7 55 fc          	movzwl -0x4(%ebp),%edx
c0106e1f:	66 89 10             	mov    %dx,(%eax)
c0106e22:	eb 55                	jmp    c0106e79 <next_keycode+0x81>
c0106e24:	0f b6 05 bc 10 11 c0 	movzbl 0xc01110bc,%eax
c0106e2b:	0f b6 c0             	movzbl %al,%eax
c0106e2e:	8d 48 01             	lea    0x1(%eax),%ecx
c0106e31:	ba 67 66 66 66       	mov    $0x66666667,%edx
c0106e36:	89 c8                	mov    %ecx,%eax
c0106e38:	f7 ea                	imul   %edx
c0106e3a:	c1 fa 03             	sar    $0x3,%edx
c0106e3d:	89 c8                	mov    %ecx,%eax
c0106e3f:	c1 f8 1f             	sar    $0x1f,%eax
c0106e42:	29 c2                	sub    %eax,%edx
c0106e44:	89 d0                	mov    %edx,%eax
c0106e46:	c1 e0 02             	shl    $0x2,%eax
c0106e49:	01 d0                	add    %edx,%eax
c0106e4b:	c1 e0 02             	shl    $0x2,%eax
c0106e4e:	29 c1                	sub    %eax,%ecx
c0106e50:	89 ca                	mov    %ecx,%edx
c0106e52:	89 d0                	mov    %edx,%eax
c0106e54:	a2 bc 10 11 c0       	mov    %al,0xc01110bc
c0106e59:	0f b6 05 bc 10 11 c0 	movzbl 0xc01110bc,%eax
c0106e60:	0f b6 c0             	movzbl %al,%eax
c0106e63:	0f b7 84 00 60 10 11 	movzwl -0x3feeefa0(%eax,%eax,1),%eax
c0106e6a:	c0 
c0106e6b:	66 89 45 fe          	mov    %ax,-0x2(%ebp)
c0106e6f:	8b 45 08             	mov    0x8(%ebp),%eax
c0106e72:	0f b7 55 fe          	movzwl -0x2(%ebp),%edx
c0106e76:	66 89 10             	mov    %dx,(%eax)
c0106e79:	8b 45 08             	mov    0x8(%ebp),%eax
c0106e7c:	c9                   	leave
c0106e7d:	c2 04 00             	ret    $0x4

c0106e80 <terminal_loop>:
c0106e80:	55                   	push   %ebp
c0106e81:	89 e5                	mov    %esp,%ebp
c0106e83:	83 ec 18             	sub    $0x18,%esp
c0106e86:	8d 45 ee             	lea    -0x12(%ebp),%eax
c0106e89:	50                   	push   %eax
c0106e8a:	e8 69 ff ff ff       	call   c0106df8 <next_keycode>
c0106e8f:	0f b6 45 ee          	movzbl -0x12(%ebp),%eax
c0106e93:	84 c0                	test   %al,%al
c0106e95:	75 03                	jne    c0106e9a <terminal_loop+0x1a>
c0106e97:	f4                   	hlt
c0106e98:	eb ec                	jmp    c0106e86 <terminal_loop+0x6>
c0106e9a:	0f b7 45 ee          	movzwl -0x12(%ebp),%eax
c0106e9e:	50                   	push   %eax
c0106e9f:	e8 f9 ef ff ff       	call   c0105e9d <keycode_to_keysym>
c0106ea4:	83 c4 04             	add    $0x4,%esp
c0106ea7:	88 45 f7             	mov    %al,-0x9(%ebp)
c0106eaa:	0f b6 45 ef          	movzbl -0x11(%ebp),%eax
c0106eae:	0f b6 c0             	movzbl %al,%eax
c0106eb1:	83 e0 08             	and    $0x8,%eax
c0106eb4:	85 c0                	test   %eax,%eax
c0106eb6:	74 04                	je     c0106ebc <terminal_loop+0x3c>
c0106eb8:	c6 45 f7 00          	movb   $0x0,-0x9(%ebp)
c0106ebc:	8d 45 ee             	lea    -0x12(%ebp),%eax
c0106ebf:	89 45 f0             	mov    %eax,-0x10(%ebp)
c0106ec2:	80 7d f7 00          	cmpb   $0x0,-0x9(%ebp)
c0106ec6:	74 be                	je     c0106e86 <terminal_loop+0x6>
c0106ec8:	0f be 45 f7          	movsbl -0x9(%ebp),%eax
c0106ecc:	50                   	push   %eax
c0106ecd:	e8 94 fc ff ff       	call   c0106b66 <write_user_char>
c0106ed2:	83 c4 04             	add    $0x4,%esp
c0106ed5:	80 7d f7 0a          	cmpb   $0xa,-0x9(%ebp)
c0106ed9:	75 24                	jne    c0106eff <terminal_loop+0x7f>
c0106edb:	a1 c4 10 11 c0       	mov    0xc01110c4,%eax
c0106ee0:	83 ec 0c             	sub    $0xc,%esp
c0106ee3:	50                   	push   %eax
c0106ee4:	e8 d5 f5 ff ff       	call   c01064be <write_text_buffer>
c0106ee9:	83 c4 10             	add    $0x10,%esp
c0106eec:	e8 59 fd ff ff       	call   c0106c4a <parse_user_chars>
c0106ef1:	66 c7 05 86 a1 10 c0 	movw   $0x2,0xc010a186
c0106ef8:	02 00 
c0106efa:	e8 17 fd ff ff       	call   c0106c16 <tflush>
c0106eff:	e8 b3 f9 ff ff       	call   c01068b7 <draw_user_chars>
c0106f04:	eb 80                	jmp    c0106e86 <terminal_loop+0x6>

c0106f06 <start_terminal>:
c0106f06:	55                   	push   %ebp
c0106f07:	89 e5                	mov    %esp,%ebp
c0106f09:	83 ec 18             	sub    $0x18,%esp
c0106f0c:	6a 00                	push   $0x0
c0106f0e:	6a 00                	push   $0x0
c0106f10:	68 80 6e 10 c0       	push   $0xc0106e80
c0106f15:	68 80 90 10 c0       	push   $0xc0109080
c0106f1a:	e8 b1 ec ff ff       	call   c0105bd0 <create_process>
c0106f1f:	83 c4 10             	add    $0x10,%esp
c0106f22:	89 45 f4             	mov    %eax,-0xc(%ebp)
c0106f25:	83 ec 0c             	sub    $0xc,%esp
c0106f28:	68 89 90 10 c0       	push   $0xc0109089
c0106f2d:	e8 29 cb ff ff       	call   c0103a5b <logf>
c0106f32:	83 c4 10             	add    $0x10,%esp
c0106f35:	e8 7d f9 ff ff       	call   c01068b7 <draw_user_chars>
c0106f3a:	90                   	nop
c0106f3b:	c9                   	leave
c0106f3c:	c3                   	ret

c0106f3d <init_terminal>:
c0106f3d:	55                   	push   %ebp
c0106f3e:	89 e5                	mov    %esp,%ebp
c0106f40:	83 ec 18             	sub    $0x18,%esp
c0106f43:	0f b7 05 98 10 11 c0 	movzwl 0xc0111098,%eax
c0106f4a:	0f b7 c0             	movzwl %ax,%eax
c0106f4d:	0f b6 15 84 a1 10 c0 	movzbl 0xc010a184,%edx
c0106f54:	0f b6 d2             	movzbl %dl,%edx
c0106f57:	8d 0c d5 00 00 00 00 	lea    0x0(,%edx,8),%ecx
c0106f5e:	99                   	cltd
c0106f5f:	f7 f9                	idiv   %ecx
c0106f61:	83 e8 01             	sub    $0x1,%eax
c0106f64:	a3 d0 10 11 c0       	mov    %eax,0xc01110d0
c0106f69:	0f b7 05 9a 10 11 c0 	movzwl 0xc011109a,%eax
c0106f70:	0f b7 c0             	movzwl %ax,%eax
c0106f73:	0f b6 15 84 a1 10 c0 	movzbl 0xc010a184,%edx
c0106f7a:	0f b6 d2             	movzbl %dl,%edx
c0106f7d:	89 d1                	mov    %edx,%ecx
c0106f7f:	c1 e1 04             	shl    $0x4,%ecx
c0106f82:	99                   	cltd
c0106f83:	f7 f9                	idiv   %ecx
c0106f85:	83 e8 02             	sub    $0x2,%eax
c0106f88:	a3 d4 10 11 c0       	mov    %eax,0xc01110d4
c0106f8d:	8b 15 d0 10 11 c0    	mov    0xc01110d0,%edx
c0106f93:	a1 d4 10 11 c0       	mov    0xc01110d4,%eax
c0106f98:	0f af c2             	imul   %edx,%eax
c0106f9b:	83 c0 01             	add    $0x1,%eax
c0106f9e:	83 ec 0c             	sub    $0xc,%esp
c0106fa1:	50                   	push   %eax
c0106fa2:	e8 eb d0 ff ff       	call   c0104092 <kalloc>
c0106fa7:	83 c4 10             	add    $0x10,%esp
c0106faa:	a3 c0 10 11 c0       	mov    %eax,0xc01110c0
c0106faf:	8b 15 d0 10 11 c0    	mov    0xc01110d0,%edx
c0106fb5:	a1 d4 10 11 c0       	mov    0xc01110d4,%eax
c0106fba:	0f af c2             	imul   %edx,%eax
c0106fbd:	83 c0 01             	add    $0x1,%eax
c0106fc0:	89 c2                	mov    %eax,%edx
c0106fc2:	a1 c0 10 11 c0       	mov    0xc01110c0,%eax
c0106fc7:	83 ec 04             	sub    $0x4,%esp
c0106fca:	52                   	push   %edx
c0106fcb:	6a 00                	push   $0x0
c0106fcd:	50                   	push   %eax
c0106fce:	e8 6a cf ff ff       	call   c0103f3d <memset>
c0106fd3:	83 c4 10             	add    $0x10,%esp
c0106fd6:	a1 d0 10 11 c0       	mov    0xc01110d0,%eax
c0106fdb:	83 c0 01             	add    $0x1,%eax
c0106fde:	83 ec 0c             	sub    $0xc,%esp
c0106fe1:	50                   	push   %eax
c0106fe2:	e8 ab d0 ff ff       	call   c0104092 <kalloc>
c0106fe7:	83 c4 10             	add    $0x10,%esp
c0106fea:	a3 c4 10 11 c0       	mov    %eax,0xc01110c4
c0106fef:	a1 d0 10 11 c0       	mov    0xc01110d0,%eax
c0106ff4:	83 c0 01             	add    $0x1,%eax
c0106ff7:	89 c2                	mov    %eax,%edx
c0106ff9:	a1 c4 10 11 c0       	mov    0xc01110c4,%eax
c0106ffe:	83 ec 04             	sub    $0x4,%esp
c0107001:	52                   	push   %edx
c0107002:	6a 00                	push   $0x0
c0107004:	50                   	push   %eax
c0107005:	e8 33 cf ff ff       	call   c0103f3d <memset>
c010700a:	83 c4 10             	add    $0x10,%esp
c010700d:	a1 c4 10 11 c0       	mov    0xc01110c4,%eax
c0107012:	c6 00 3e             	movb   $0x3e,(%eax)
c0107015:	a1 c4 10 11 c0       	mov    0xc01110c4,%eax
c010701a:	83 c0 01             	add    $0x1,%eax
c010701d:	c6 00 20             	movb   $0x20,(%eax)
c0107020:	0f b7 05 c8 10 11 c0 	movzwl 0xc01110c8,%eax
c0107027:	0f b7 c0             	movzwl %ax,%eax
c010702a:	89 45 f4             	mov    %eax,-0xc(%ebp)
c010702d:	83 ec 0c             	sub    $0xc,%esp
c0107030:	68 a4 90 10 c0       	push   $0xc01090a4
c0107035:	e8 14 fa ff ff       	call   c0106a4e <printf>
c010703a:	83 c4 10             	add    $0x10,%esp
c010703d:	e8 d4 fb ff ff       	call   c0106c16 <tflush>
c0107042:	c6 05 cc 10 11 c0 01 	movb   $0x1,0xc01110cc
c0107049:	90                   	nop
c010704a:	c9                   	leave
c010704b:	c3                   	ret

c010704c <alloc_node_obj>:
c010704c:	55                   	push   %ebp
c010704d:	89 e5                	mov    %esp,%ebp
c010704f:	83 ec 10             	sub    $0x10,%esp
c0107052:	8b 45 08             	mov    0x8(%ebp),%eax
c0107055:	8b 40 24             	mov    0x24(%eax),%eax
c0107058:	83 c0 30             	add    $0x30,%eax
c010705b:	89 45 fc             	mov    %eax,-0x4(%ebp)
c010705e:	eb 04                	jmp    c0107064 <alloc_node_obj+0x18>
c0107060:	83 45 fc 20          	addl   $0x20,-0x4(%ebp)
c0107064:	8b 45 fc             	mov    -0x4(%ebp),%eax
c0107067:	8b 40 0c             	mov    0xc(%eax),%eax
c010706a:	83 e0 01             	and    $0x1,%eax
c010706d:	85 c0                	test   %eax,%eax
c010706f:	75 ef                	jne    c0107060 <alloc_node_obj+0x14>
c0107071:	8b 45 fc             	mov    -0x4(%ebp),%eax
c0107074:	c7 40 0c 03 00 00 00 	movl   $0x3,0xc(%eax)
c010707b:	8b 45 fc             	mov    -0x4(%ebp),%eax
c010707e:	c9                   	leave
c010707f:	c3                   	ret

c0107080 <free_node_obj>:
c0107080:	55                   	push   %ebp
c0107081:	89 e5                	mov    %esp,%ebp
c0107083:	83 ec 18             	sub    $0x18,%esp
c0107086:	8b 45 08             	mov    0x8(%ebp),%eax
c0107089:	89 45 f4             	mov    %eax,-0xc(%ebp)
c010708c:	8b 45 f4             	mov    -0xc(%ebp),%eax
c010708f:	8b 40 0c             	mov    0xc(%eax),%eax
c0107092:	83 e0 02             	and    $0x2,%eax
c0107095:	85 c0                	test   %eax,%eax
c0107097:	75 15                	jne    c01070ae <free_node_obj+0x2e>
c0107099:	83 ec 08             	sub    $0x8,%esp
c010709c:	ff 75 08             	push   0x8(%ebp)
c010709f:	68 c4 90 10 c0       	push   $0xc01090c4
c01070a4:	e8 b2 c9 ff ff       	call   c0103a5b <logf>
c01070a9:	83 c4 10             	add    $0x10,%esp
c01070ac:	eb 1b                	jmp    c01070c9 <free_node_obj+0x49>
c01070ae:	8b 45 f4             	mov    -0xc(%ebp),%eax
c01070b1:	8b 40 0c             	mov    0xc(%eax),%eax
c01070b4:	83 e0 fd             	and    $0xfffffffd,%eax
c01070b7:	89 c2                	mov    %eax,%edx
c01070b9:	8b 45 f4             	mov    -0xc(%ebp),%eax
c01070bc:	89 50 0c             	mov    %edx,0xc(%eax)
c01070bf:	8b 45 f4             	mov    -0xc(%ebp),%eax
c01070c2:	c7 40 04 00 00 00 00 	movl   $0x0,0x4(%eax)
c01070c9:	c9                   	leave
c01070ca:	c3                   	ret

c01070cb <rb_left_rotation>:
c01070cb:	55                   	push   %ebp
c01070cc:	89 e5                	mov    %esp,%ebp
c01070ce:	83 ec 10             	sub    $0x10,%esp
c01070d1:	8b 45 0c             	mov    0xc(%ebp),%eax
c01070d4:	8b 40 18             	mov    0x18(%eax),%eax
c01070d7:	89 45 fc             	mov    %eax,-0x4(%ebp)
c01070da:	8b 45 fc             	mov    -0x4(%ebp),%eax
c01070dd:	8b 50 14             	mov    0x14(%eax),%edx
c01070e0:	8b 45 0c             	mov    0xc(%ebp),%eax
c01070e3:	89 50 18             	mov    %edx,0x18(%eax)
c01070e6:	8b 45 fc             	mov    -0x4(%ebp),%eax
c01070e9:	8b 40 14             	mov    0x14(%eax),%eax
c01070ec:	85 c0                	test   %eax,%eax
c01070ee:	74 0c                	je     c01070fc <rb_left_rotation+0x31>
c01070f0:	8b 45 fc             	mov    -0x4(%ebp),%eax
c01070f3:	8b 40 14             	mov    0x14(%eax),%eax
c01070f6:	8b 55 0c             	mov    0xc(%ebp),%edx
c01070f9:	89 50 1c             	mov    %edx,0x1c(%eax)
c01070fc:	8b 45 0c             	mov    0xc(%ebp),%eax
c01070ff:	8b 50 1c             	mov    0x1c(%eax),%edx
c0107102:	8b 45 fc             	mov    -0x4(%ebp),%eax
c0107105:	89 50 1c             	mov    %edx,0x1c(%eax)
c0107108:	8b 45 fc             	mov    -0x4(%ebp),%eax
c010710b:	8b 40 1c             	mov    0x1c(%eax),%eax
c010710e:	85 c0                	test   %eax,%eax
c0107110:	75 0a                	jne    c010711c <rb_left_rotation+0x51>
c0107112:	8b 45 08             	mov    0x8(%ebp),%eax
c0107115:	8b 55 fc             	mov    -0x4(%ebp),%edx
c0107118:	89 10                	mov    %edx,(%eax)
c010711a:	eb 28                	jmp    c0107144 <rb_left_rotation+0x79>
c010711c:	8b 45 0c             	mov    0xc(%ebp),%eax
c010711f:	8b 40 1c             	mov    0x1c(%eax),%eax
c0107122:	8b 40 14             	mov    0x14(%eax),%eax
c0107125:	39 45 0c             	cmp    %eax,0xc(%ebp)
c0107128:	75 0e                	jne    c0107138 <rb_left_rotation+0x6d>
c010712a:	8b 45 0c             	mov    0xc(%ebp),%eax
c010712d:	8b 40 1c             	mov    0x1c(%eax),%eax
c0107130:	8b 55 fc             	mov    -0x4(%ebp),%edx
c0107133:	89 50 14             	mov    %edx,0x14(%eax)
c0107136:	eb 0c                	jmp    c0107144 <rb_left_rotation+0x79>
c0107138:	8b 45 0c             	mov    0xc(%ebp),%eax
c010713b:	8b 40 1c             	mov    0x1c(%eax),%eax
c010713e:	8b 55 fc             	mov    -0x4(%ebp),%edx
c0107141:	89 50 18             	mov    %edx,0x18(%eax)
c0107144:	8b 45 fc             	mov    -0x4(%ebp),%eax
c0107147:	8b 55 0c             	mov    0xc(%ebp),%edx
c010714a:	89 50 14             	mov    %edx,0x14(%eax)
c010714d:	8b 45 0c             	mov    0xc(%ebp),%eax
c0107150:	8b 55 fc             	mov    -0x4(%ebp),%edx
c0107153:	89 50 1c             	mov    %edx,0x1c(%eax)
c0107156:	90                   	nop
c0107157:	c9                   	leave
c0107158:	c3                   	ret

c0107159 <rb_right_rotation>:
c0107159:	55                   	push   %ebp
c010715a:	89 e5                	mov    %esp,%ebp
c010715c:	83 ec 10             	sub    $0x10,%esp
c010715f:	8b 45 0c             	mov    0xc(%ebp),%eax
c0107162:	8b 40 14             	mov    0x14(%eax),%eax
c0107165:	89 45 fc             	mov    %eax,-0x4(%ebp)
c0107168:	8b 45 fc             	mov    -0x4(%ebp),%eax
c010716b:	8b 50 18             	mov    0x18(%eax),%edx
c010716e:	8b 45 0c             	mov    0xc(%ebp),%eax
c0107171:	89 50 14             	mov    %edx,0x14(%eax)
c0107174:	8b 45 fc             	mov    -0x4(%ebp),%eax
c0107177:	8b 40 18             	mov    0x18(%eax),%eax
c010717a:	85 c0                	test   %eax,%eax
c010717c:	74 0c                	je     c010718a <rb_right_rotation+0x31>
c010717e:	8b 45 fc             	mov    -0x4(%ebp),%eax
c0107181:	8b 40 18             	mov    0x18(%eax),%eax
c0107184:	8b 55 0c             	mov    0xc(%ebp),%edx
c0107187:	89 50 1c             	mov    %edx,0x1c(%eax)
c010718a:	8b 45 0c             	mov    0xc(%ebp),%eax
c010718d:	8b 50 1c             	mov    0x1c(%eax),%edx
c0107190:	8b 45 fc             	mov    -0x4(%ebp),%eax
c0107193:	89 50 1c             	mov    %edx,0x1c(%eax)
c0107196:	8b 45 fc             	mov    -0x4(%ebp),%eax
c0107199:	8b 40 1c             	mov    0x1c(%eax),%eax
c010719c:	85 c0                	test   %eax,%eax
c010719e:	75 0a                	jne    c01071aa <rb_right_rotation+0x51>
c01071a0:	8b 45 08             	mov    0x8(%ebp),%eax
c01071a3:	8b 55 fc             	mov    -0x4(%ebp),%edx
c01071a6:	89 10                	mov    %edx,(%eax)
c01071a8:	eb 28                	jmp    c01071d2 <rb_right_rotation+0x79>
c01071aa:	8b 45 0c             	mov    0xc(%ebp),%eax
c01071ad:	8b 40 1c             	mov    0x1c(%eax),%eax
c01071b0:	8b 40 14             	mov    0x14(%eax),%eax
c01071b3:	39 45 0c             	cmp    %eax,0xc(%ebp)
c01071b6:	75 0e                	jne    c01071c6 <rb_right_rotation+0x6d>
c01071b8:	8b 45 0c             	mov    0xc(%ebp),%eax
c01071bb:	8b 40 1c             	mov    0x1c(%eax),%eax
c01071be:	8b 55 fc             	mov    -0x4(%ebp),%edx
c01071c1:	89 50 14             	mov    %edx,0x14(%eax)
c01071c4:	eb 0c                	jmp    c01071d2 <rb_right_rotation+0x79>
c01071c6:	8b 45 0c             	mov    0xc(%ebp),%eax
c01071c9:	8b 40 1c             	mov    0x1c(%eax),%eax
c01071cc:	8b 55 fc             	mov    -0x4(%ebp),%edx
c01071cf:	89 50 18             	mov    %edx,0x18(%eax)
c01071d2:	8b 45 fc             	mov    -0x4(%ebp),%eax
c01071d5:	8b 55 0c             	mov    0xc(%ebp),%edx
c01071d8:	89 50 18             	mov    %edx,0x18(%eax)
c01071db:	8b 45 0c             	mov    0xc(%ebp),%eax
c01071de:	8b 55 fc             	mov    -0x4(%ebp),%edx
c01071e1:	89 50 1c             	mov    %edx,0x1c(%eax)
c01071e4:	90                   	nop
c01071e5:	c9                   	leave
c01071e6:	c3                   	ret

c01071e7 <insert_violations>:
c01071e7:	55                   	push   %ebp
c01071e8:	89 e5                	mov    %esp,%ebp
c01071ea:	83 ec 18             	sub    $0x18,%esp
c01071ed:	83 7d 0c 00          	cmpl   $0x0,0xc(%ebp)
c01071f1:	0f 84 b7 01 00 00    	je     c01073ae <insert_violations+0x1c7>
c01071f7:	8b 45 0c             	mov    0xc(%ebp),%eax
c01071fa:	8b 40 1c             	mov    0x1c(%eax),%eax
c01071fd:	85 c0                	test   %eax,%eax
c01071ff:	75 0f                	jne    c0107210 <insert_violations+0x29>
c0107201:	8b 45 0c             	mov    0xc(%ebp),%eax
c0107204:	c7 40 10 01 00 00 00 	movl   $0x1,0x10(%eax)
c010720b:	e9 a2 01 00 00       	jmp    c01073b2 <insert_violations+0x1cb>
c0107210:	8b 45 0c             	mov    0xc(%ebp),%eax
c0107213:	8b 40 1c             	mov    0x1c(%eax),%eax
c0107216:	8b 40 10             	mov    0x10(%eax),%eax
c0107219:	83 f8 01             	cmp    $0x1,%eax
c010721c:	0f 84 8f 01 00 00    	je     c01073b1 <insert_violations+0x1ca>
c0107222:	8b 45 0c             	mov    0xc(%ebp),%eax
c0107225:	8b 40 1c             	mov    0x1c(%eax),%eax
c0107228:	8b 40 1c             	mov    0x1c(%eax),%eax
c010722b:	8b 40 14             	mov    0x14(%eax),%eax
c010722e:	89 45 f4             	mov    %eax,-0xc(%ebp)
c0107231:	8b 45 0c             	mov    0xc(%ebp),%eax
c0107234:	8b 40 1c             	mov    0x1c(%eax),%eax
c0107237:	8b 40 1c             	mov    0x1c(%eax),%eax
c010723a:	8b 50 14             	mov    0x14(%eax),%edx
c010723d:	8b 45 0c             	mov    0xc(%ebp),%eax
c0107240:	8b 40 1c             	mov    0x1c(%eax),%eax
c0107243:	39 c2                	cmp    %eax,%edx
c0107245:	75 0f                	jne    c0107256 <insert_violations+0x6f>
c0107247:	8b 45 0c             	mov    0xc(%ebp),%eax
c010724a:	8b 40 1c             	mov    0x1c(%eax),%eax
c010724d:	8b 40 1c             	mov    0x1c(%eax),%eax
c0107250:	8b 40 18             	mov    0x18(%eax),%eax
c0107253:	89 45 f4             	mov    %eax,-0xc(%ebp)
c0107256:	c7 45 f0 01 00 00 00 	movl   $0x1,-0x10(%ebp)
c010725d:	83 7d f4 00          	cmpl   $0x0,-0xc(%ebp)
c0107261:	74 09                	je     c010726c <insert_violations+0x85>
c0107263:	8b 45 f4             	mov    -0xc(%ebp),%eax
c0107266:	8b 40 10             	mov    0x10(%eax),%eax
c0107269:	89 45 f0             	mov    %eax,-0x10(%ebp)
c010726c:	83 7d f0 00          	cmpl   $0x0,-0x10(%ebp)
c0107270:	75 44                	jne    c01072b6 <insert_violations+0xcf>
c0107272:	8b 45 0c             	mov    0xc(%ebp),%eax
c0107275:	8b 40 1c             	mov    0x1c(%eax),%eax
c0107278:	c7 40 10 01 00 00 00 	movl   $0x1,0x10(%eax)
c010727f:	8b 45 f4             	mov    -0xc(%ebp),%eax
c0107282:	c7 40 10 01 00 00 00 	movl   $0x1,0x10(%eax)
c0107289:	8b 45 0c             	mov    0xc(%ebp),%eax
c010728c:	8b 40 1c             	mov    0x1c(%eax),%eax
c010728f:	8b 40 1c             	mov    0x1c(%eax),%eax
c0107292:	c7 40 10 00 00 00 00 	movl   $0x0,0x10(%eax)
c0107299:	8b 45 0c             	mov    0xc(%ebp),%eax
c010729c:	8b 40 1c             	mov    0x1c(%eax),%eax
c010729f:	8b 40 1c             	mov    0x1c(%eax),%eax
c01072a2:	83 ec 08             	sub    $0x8,%esp
c01072a5:	50                   	push   %eax
c01072a6:	ff 75 08             	push   0x8(%ebp)
c01072a9:	e8 39 ff ff ff       	call   c01071e7 <insert_violations>
c01072ae:	83 c4 10             	add    $0x10,%esp
c01072b1:	e9 ea 00 00 00       	jmp    c01073a0 <insert_violations+0x1b9>
c01072b6:	8b 45 0c             	mov    0xc(%ebp),%eax
c01072b9:	8b 40 1c             	mov    0x1c(%eax),%eax
c01072bc:	8b 40 1c             	mov    0x1c(%eax),%eax
c01072bf:	8b 50 14             	mov    0x14(%eax),%edx
c01072c2:	8b 45 0c             	mov    0xc(%ebp),%eax
c01072c5:	8b 40 1c             	mov    0x1c(%eax),%eax
c01072c8:	39 c2                	cmp    %eax,%edx
c01072ca:	75 2e                	jne    c01072fa <insert_violations+0x113>
c01072cc:	8b 45 0c             	mov    0xc(%ebp),%eax
c01072cf:	8b 40 1c             	mov    0x1c(%eax),%eax
c01072d2:	8b 40 18             	mov    0x18(%eax),%eax
c01072d5:	39 45 0c             	cmp    %eax,0xc(%ebp)
c01072d8:	75 4c                	jne    c0107326 <insert_violations+0x13f>
c01072da:	8b 45 0c             	mov    0xc(%ebp),%eax
c01072dd:	8b 40 1c             	mov    0x1c(%eax),%eax
c01072e0:	83 ec 08             	sub    $0x8,%esp
c01072e3:	50                   	push   %eax
c01072e4:	ff 75 08             	push   0x8(%ebp)
c01072e7:	e8 df fd ff ff       	call   c01070cb <rb_left_rotation>
c01072ec:	83 c4 10             	add    $0x10,%esp
c01072ef:	8b 45 0c             	mov    0xc(%ebp),%eax
c01072f2:	8b 40 14             	mov    0x14(%eax),%eax
c01072f5:	89 45 0c             	mov    %eax,0xc(%ebp)
c01072f8:	eb 2c                	jmp    c0107326 <insert_violations+0x13f>
c01072fa:	8b 45 0c             	mov    0xc(%ebp),%eax
c01072fd:	8b 40 1c             	mov    0x1c(%eax),%eax
c0107300:	8b 40 14             	mov    0x14(%eax),%eax
c0107303:	39 45 0c             	cmp    %eax,0xc(%ebp)
c0107306:	75 1e                	jne    c0107326 <insert_violations+0x13f>
c0107308:	8b 45 0c             	mov    0xc(%ebp),%eax
c010730b:	8b 40 1c             	mov    0x1c(%eax),%eax
c010730e:	83 ec 08             	sub    $0x8,%esp
c0107311:	50                   	push   %eax
c0107312:	ff 75 08             	push   0x8(%ebp)
c0107315:	e8 3f fe ff ff       	call   c0107159 <rb_right_rotation>
c010731a:	83 c4 10             	add    $0x10,%esp
c010731d:	8b 45 0c             	mov    0xc(%ebp),%eax
c0107320:	8b 40 18             	mov    0x18(%eax),%eax
c0107323:	89 45 0c             	mov    %eax,0xc(%ebp)
c0107326:	8b 45 0c             	mov    0xc(%ebp),%eax
c0107329:	8b 40 1c             	mov    0x1c(%eax),%eax
c010732c:	8b 40 14             	mov    0x14(%eax),%eax
c010732f:	39 45 0c             	cmp    %eax,0xc(%ebp)
c0107332:	75 37                	jne    c010736b <insert_violations+0x184>
c0107334:	8b 45 0c             	mov    0xc(%ebp),%eax
c0107337:	8b 40 1c             	mov    0x1c(%eax),%eax
c010733a:	c7 40 10 01 00 00 00 	movl   $0x1,0x10(%eax)
c0107341:	8b 45 0c             	mov    0xc(%ebp),%eax
c0107344:	8b 40 1c             	mov    0x1c(%eax),%eax
c0107347:	8b 40 1c             	mov    0x1c(%eax),%eax
c010734a:	c7 40 10 00 00 00 00 	movl   $0x0,0x10(%eax)
c0107351:	8b 45 0c             	mov    0xc(%ebp),%eax
c0107354:	8b 40 1c             	mov    0x1c(%eax),%eax
c0107357:	8b 40 1c             	mov    0x1c(%eax),%eax
c010735a:	83 ec 08             	sub    $0x8,%esp
c010735d:	50                   	push   %eax
c010735e:	ff 75 08             	push   0x8(%ebp)
c0107361:	e8 f3 fd ff ff       	call   c0107159 <rb_right_rotation>
c0107366:	83 c4 10             	add    $0x10,%esp
c0107369:	eb 35                	jmp    c01073a0 <insert_violations+0x1b9>
c010736b:	8b 45 0c             	mov    0xc(%ebp),%eax
c010736e:	8b 40 1c             	mov    0x1c(%eax),%eax
c0107371:	c7 40 10 01 00 00 00 	movl   $0x1,0x10(%eax)
c0107378:	8b 45 0c             	mov    0xc(%ebp),%eax
c010737b:	8b 40 1c             	mov    0x1c(%eax),%eax
c010737e:	8b 40 1c             	mov    0x1c(%eax),%eax
c0107381:	c7 40 10 00 00 00 00 	movl   $0x0,0x10(%eax)
c0107388:	8b 45 0c             	mov    0xc(%ebp),%eax
c010738b:	8b 40 1c             	mov    0x1c(%eax),%eax
c010738e:	8b 40 1c             	mov    0x1c(%eax),%eax
c0107391:	83 ec 08             	sub    $0x8,%esp
c0107394:	50                   	push   %eax
c0107395:	ff 75 08             	push   0x8(%ebp)
c0107398:	e8 2e fd ff ff       	call   c01070cb <rb_left_rotation>
c010739d:	83 c4 10             	add    $0x10,%esp
c01073a0:	8b 45 08             	mov    0x8(%ebp),%eax
c01073a3:	8b 00                	mov    (%eax),%eax
c01073a5:	c7 40 10 01 00 00 00 	movl   $0x1,0x10(%eax)
c01073ac:	eb 04                	jmp    c01073b2 <insert_violations+0x1cb>
c01073ae:	90                   	nop
c01073af:	eb 01                	jmp    c01073b2 <insert_violations+0x1cb>
c01073b1:	90                   	nop
c01073b2:	c9                   	leave
c01073b3:	c3                   	ret

c01073b4 <insert_node>:
c01073b4:	55                   	push   %ebp
c01073b5:	89 e5                	mov    %esp,%ebp
c01073b7:	83 ec 18             	sub    $0x18,%esp
c01073ba:	8b 45 08             	mov    0x8(%ebp),%eax
c01073bd:	8b 00                	mov    (%eax),%eax
c01073bf:	85 c0                	test   %eax,%eax
c01073c1:	0f 84 a7 00 00 00    	je     c010746e <insert_node+0xba>
c01073c7:	8b 45 08             	mov    0x8(%ebp),%eax
c01073ca:	8b 00                	mov    (%eax),%eax
c01073cc:	89 45 f4             	mov    %eax,-0xc(%ebp)
c01073cf:	c7 45 f0 00 00 00 00 	movl   $0x0,-0x10(%ebp)
c01073d6:	8b 45 08             	mov    0x8(%ebp),%eax
c01073d9:	8b 00                	mov    (%eax),%eax
c01073db:	c7 40 10 01 00 00 00 	movl   $0x1,0x10(%eax)
c01073e2:	c6 45 ef 00          	movb   $0x0,-0x11(%ebp)
c01073e6:	eb 32                	jmp    c010741a <insert_node+0x66>
c01073e8:	8b 45 f4             	mov    -0xc(%ebp),%eax
c01073eb:	89 45 f0             	mov    %eax,-0x10(%ebp)
c01073ee:	8b 45 0c             	mov    0xc(%ebp),%eax
c01073f1:	8b 40 08             	mov    0x8(%eax),%eax
c01073f4:	8b 55 f4             	mov    -0xc(%ebp),%edx
c01073f7:	8b 52 08             	mov    0x8(%edx),%edx
c01073fa:	39 c2                	cmp    %eax,%edx
c01073fc:	73 0f                	jae    c010740d <insert_node+0x59>
c01073fe:	c6 45 ef 01          	movb   $0x1,-0x11(%ebp)
c0107402:	8b 45 f4             	mov    -0xc(%ebp),%eax
c0107405:	8b 40 18             	mov    0x18(%eax),%eax
c0107408:	89 45 f4             	mov    %eax,-0xc(%ebp)
c010740b:	eb 0d                	jmp    c010741a <insert_node+0x66>
c010740d:	c6 45 ef 00          	movb   $0x0,-0x11(%ebp)
c0107411:	8b 45 f4             	mov    -0xc(%ebp),%eax
c0107414:	8b 40 14             	mov    0x14(%eax),%eax
c0107417:	89 45 f4             	mov    %eax,-0xc(%ebp)
c010741a:	83 7d f4 00          	cmpl   $0x0,-0xc(%ebp)
c010741e:	75 c8                	jne    c01073e8 <insert_node+0x34>
c0107420:	80 7d ef 00          	cmpb   $0x0,-0x11(%ebp)
c0107424:	74 0b                	je     c0107431 <insert_node+0x7d>
c0107426:	8b 45 f0             	mov    -0x10(%ebp),%eax
c0107429:	8b 55 0c             	mov    0xc(%ebp),%edx
c010742c:	89 50 18             	mov    %edx,0x18(%eax)
c010742f:	eb 09                	jmp    c010743a <insert_node+0x86>
c0107431:	8b 45 f0             	mov    -0x10(%ebp),%eax
c0107434:	8b 55 0c             	mov    0xc(%ebp),%edx
c0107437:	89 50 14             	mov    %edx,0x14(%eax)
c010743a:	8b 45 0c             	mov    0xc(%ebp),%eax
c010743d:	8b 55 f0             	mov    -0x10(%ebp),%edx
c0107440:	89 50 1c             	mov    %edx,0x1c(%eax)
c0107443:	8b 45 0c             	mov    0xc(%ebp),%eax
c0107446:	c7 40 10 00 00 00 00 	movl   $0x0,0x10(%eax)
c010744d:	8b 45 0c             	mov    0xc(%ebp),%eax
c0107450:	8b 40 1c             	mov    0x1c(%eax),%eax
c0107453:	8b 40 10             	mov    0x10(%eax),%eax
c0107456:	83 f8 01             	cmp    $0x1,%eax
c0107459:	74 14                	je     c010746f <insert_node+0xbb>
c010745b:	83 ec 08             	sub    $0x8,%esp
c010745e:	ff 75 0c             	push   0xc(%ebp)
c0107461:	ff 75 08             	push   0x8(%ebp)
c0107464:	e8 7e fd ff ff       	call   c01071e7 <insert_violations>
c0107469:	83 c4 10             	add    $0x10,%esp
c010746c:	eb 01                	jmp    c010746f <insert_node+0xbb>
c010746e:	90                   	nop
c010746f:	c9                   	leave
c0107470:	c3                   	ret

c0107471 <delete_violations>:
c0107471:	55                   	push   %ebp
c0107472:	89 e5                	mov    %esp,%ebp
c0107474:	83 ec 28             	sub    $0x28,%esp
c0107477:	8b 45 0c             	mov    0xc(%ebp),%eax
c010747a:	8b 40 1c             	mov    0x1c(%eax),%eax
c010747d:	85 c0                	test   %eax,%eax
c010747f:	75 0f                	jne    c0107490 <delete_violations+0x1f>
c0107481:	8b 45 0c             	mov    0xc(%ebp),%eax
c0107484:	c7 40 10 01 00 00 00 	movl   $0x1,0x10(%eax)
c010748b:	e9 17 03 00 00       	jmp    c01077a7 <delete_violations+0x336>
c0107490:	8b 45 0c             	mov    0xc(%ebp),%eax
c0107493:	8b 40 10             	mov    0x10(%eax),%eax
c0107496:	83 f8 02             	cmp    $0x2,%eax
c0107499:	74 10                	je     c01074ab <delete_violations+0x3a>
c010749b:	8b 45 0c             	mov    0xc(%ebp),%eax
c010749e:	8b 40 10             	mov    0x10(%eax),%eax
c01074a1:	85 c0                	test   %eax,%eax
c01074a3:	0f 84 fd 02 00 00    	je     c01077a6 <delete_violations+0x335>
c01074a9:	eb 01                	jmp    c01074ac <delete_violations+0x3b>
c01074ab:	90                   	nop
c01074ac:	c7 45 f4 00 00 00 00 	movl   $0x0,-0xc(%ebp)
c01074b3:	8b 45 0c             	mov    0xc(%ebp),%eax
c01074b6:	8b 40 1c             	mov    0x1c(%eax),%eax
c01074b9:	8b 40 14             	mov    0x14(%eax),%eax
c01074bc:	89 45 f0             	mov    %eax,-0x10(%ebp)
c01074bf:	8b 45 f0             	mov    -0x10(%ebp),%eax
c01074c2:	3b 45 0c             	cmp    0xc(%ebp),%eax
c01074c5:	75 13                	jne    c01074da <delete_violations+0x69>
c01074c7:	8b 45 0c             	mov    0xc(%ebp),%eax
c01074ca:	8b 40 1c             	mov    0x1c(%eax),%eax
c01074cd:	8b 40 18             	mov    0x18(%eax),%eax
c01074d0:	89 45 f0             	mov    %eax,-0x10(%ebp)
c01074d3:	c7 45 f4 01 00 00 00 	movl   $0x1,-0xc(%ebp)
c01074da:	8b 45 0c             	mov    0xc(%ebp),%eax
c01074dd:	8b 40 10             	mov    0x10(%eax),%eax
c01074e0:	83 f8 01             	cmp    $0x1,%eax
c01074e3:	74 0f                	je     c01074f4 <delete_violations+0x83>
c01074e5:	8b 45 0c             	mov    0xc(%ebp),%eax
c01074e8:	8b 40 10             	mov    0x10(%eax),%eax
c01074eb:	83 f8 02             	cmp    $0x2,%eax
c01074ee:	0f 85 b3 02 00 00    	jne    c01077a7 <delete_violations+0x336>
c01074f4:	8b 45 0c             	mov    0xc(%ebp),%eax
c01074f7:	c7 40 10 02 00 00 00 	movl   $0x2,0x10(%eax)
c01074fe:	c7 45 ec 01 00 00 00 	movl   $0x1,-0x14(%ebp)
c0107505:	c7 45 e8 01 00 00 00 	movl   $0x1,-0x18(%ebp)
c010750c:	8b 45 f0             	mov    -0x10(%ebp),%eax
c010750f:	8b 40 14             	mov    0x14(%eax),%eax
c0107512:	85 c0                	test   %eax,%eax
c0107514:	74 0c                	je     c0107522 <delete_violations+0xb1>
c0107516:	8b 45 f0             	mov    -0x10(%ebp),%eax
c0107519:	8b 40 14             	mov    0x14(%eax),%eax
c010751c:	8b 40 10             	mov    0x10(%eax),%eax
c010751f:	89 45 ec             	mov    %eax,-0x14(%ebp)
c0107522:	8b 45 f0             	mov    -0x10(%ebp),%eax
c0107525:	8b 40 18             	mov    0x18(%eax),%eax
c0107528:	85 c0                	test   %eax,%eax
c010752a:	74 0c                	je     c0107538 <delete_violations+0xc7>
c010752c:	8b 45 f0             	mov    -0x10(%ebp),%eax
c010752f:	8b 40 18             	mov    0x18(%eax),%eax
c0107532:	8b 40 10             	mov    0x10(%eax),%eax
c0107535:	89 45 e8             	mov    %eax,-0x18(%ebp)
c0107538:	8b 45 f0             	mov    -0x10(%ebp),%eax
c010753b:	8b 40 10             	mov    0x10(%eax),%eax
c010753e:	83 f8 01             	cmp    $0x1,%eax
c0107541:	75 67                	jne    c01075aa <delete_violations+0x139>
c0107543:	83 7d ec 01          	cmpl   $0x1,-0x14(%ebp)
c0107547:	75 61                	jne    c01075aa <delete_violations+0x139>
c0107549:	83 7d e8 01          	cmpl   $0x1,-0x18(%ebp)
c010754d:	75 5b                	jne    c01075aa <delete_violations+0x139>
c010754f:	8b 45 0c             	mov    0xc(%ebp),%eax
c0107552:	c7 40 10 01 00 00 00 	movl   $0x1,0x10(%eax)
c0107559:	8b 45 f0             	mov    -0x10(%ebp),%eax
c010755c:	c7 40 10 00 00 00 00 	movl   $0x0,0x10(%eax)
c0107563:	8b 45 0c             	mov    0xc(%ebp),%eax
c0107566:	8b 40 1c             	mov    0x1c(%eax),%eax
c0107569:	8b 40 10             	mov    0x10(%eax),%eax
c010756c:	83 f8 01             	cmp    $0x1,%eax
c010756f:	75 27                	jne    c0107598 <delete_violations+0x127>
c0107571:	8b 45 0c             	mov    0xc(%ebp),%eax
c0107574:	8b 40 1c             	mov    0x1c(%eax),%eax
c0107577:	c7 40 10 02 00 00 00 	movl   $0x2,0x10(%eax)
c010757e:	8b 45 0c             	mov    0xc(%ebp),%eax
c0107581:	8b 40 1c             	mov    0x1c(%eax),%eax
c0107584:	83 ec 08             	sub    $0x8,%esp
c0107587:	50                   	push   %eax
c0107588:	ff 75 08             	push   0x8(%ebp)
c010758b:	e8 e1 fe ff ff       	call   c0107471 <delete_violations>
c0107590:	83 c4 10             	add    $0x10,%esp
c0107593:	e9 0f 02 00 00       	jmp    c01077a7 <delete_violations+0x336>
c0107598:	8b 45 0c             	mov    0xc(%ebp),%eax
c010759b:	8b 40 1c             	mov    0x1c(%eax),%eax
c010759e:	c7 40 10 01 00 00 00 	movl   $0x1,0x10(%eax)
c01075a5:	e9 fd 01 00 00       	jmp    c01077a7 <delete_violations+0x336>
c01075aa:	8b 45 f0             	mov    -0x10(%ebp),%eax
c01075ad:	8b 40 10             	mov    0x10(%eax),%eax
c01075b0:	85 c0                	test   %eax,%eax
c01075b2:	75 6c                	jne    c0107620 <delete_violations+0x1af>
c01075b4:	8b 45 f0             	mov    -0x10(%ebp),%eax
c01075b7:	8b 40 10             	mov    0x10(%eax),%eax
c01075ba:	89 45 dc             	mov    %eax,-0x24(%ebp)
c01075bd:	8b 45 0c             	mov    0xc(%ebp),%eax
c01075c0:	8b 40 1c             	mov    0x1c(%eax),%eax
c01075c3:	8b 50 10             	mov    0x10(%eax),%edx
c01075c6:	8b 45 f0             	mov    -0x10(%ebp),%eax
c01075c9:	89 50 10             	mov    %edx,0x10(%eax)
c01075cc:	8b 45 0c             	mov    0xc(%ebp),%eax
c01075cf:	8b 40 1c             	mov    0x1c(%eax),%eax
c01075d2:	8b 55 dc             	mov    -0x24(%ebp),%edx
c01075d5:	89 50 10             	mov    %edx,0x10(%eax)
c01075d8:	83 7d f4 00          	cmpl   $0x0,-0xc(%ebp)
c01075dc:	74 17                	je     c01075f5 <delete_violations+0x184>
c01075de:	8b 45 0c             	mov    0xc(%ebp),%eax
c01075e1:	8b 40 1c             	mov    0x1c(%eax),%eax
c01075e4:	83 ec 08             	sub    $0x8,%esp
c01075e7:	50                   	push   %eax
c01075e8:	ff 75 08             	push   0x8(%ebp)
c01075eb:	e8 db fa ff ff       	call   c01070cb <rb_left_rotation>
c01075f0:	83 c4 10             	add    $0x10,%esp
c01075f3:	eb 15                	jmp    c010760a <delete_violations+0x199>
c01075f5:	8b 45 0c             	mov    0xc(%ebp),%eax
c01075f8:	8b 40 1c             	mov    0x1c(%eax),%eax
c01075fb:	83 ec 08             	sub    $0x8,%esp
c01075fe:	50                   	push   %eax
c01075ff:	ff 75 08             	push   0x8(%ebp)
c0107602:	e8 52 fb ff ff       	call   c0107159 <rb_right_rotation>
c0107607:	83 c4 10             	add    $0x10,%esp
c010760a:	83 ec 08             	sub    $0x8,%esp
c010760d:	ff 75 0c             	push   0xc(%ebp)
c0107610:	ff 75 08             	push   0x8(%ebp)
c0107613:	e8 59 fe ff ff       	call   c0107471 <delete_violations>
c0107618:	83 c4 10             	add    $0x10,%esp
c010761b:	e9 87 01 00 00       	jmp    c01077a7 <delete_violations+0x336>
c0107620:	8b 45 f0             	mov    -0x10(%ebp),%eax
c0107623:	8b 40 10             	mov    0x10(%eax),%eax
c0107626:	83 f8 01             	cmp    $0x1,%eax
c0107629:	0f 85 78 01 00 00    	jne    c01077a7 <delete_violations+0x336>
c010762f:	83 7d ec 01          	cmpl   $0x1,-0x14(%ebp)
c0107633:	75 3f                	jne    c0107674 <delete_violations+0x203>
c0107635:	83 7d e8 00          	cmpl   $0x0,-0x18(%ebp)
c0107639:	75 39                	jne    c0107674 <delete_violations+0x203>
c010763b:	83 7d f4 00          	cmpl   $0x0,-0xc(%ebp)
c010763f:	75 33                	jne    c0107674 <delete_violations+0x203>
c0107641:	8b 45 f0             	mov    -0x10(%ebp),%eax
c0107644:	c7 40 10 00 00 00 00 	movl   $0x0,0x10(%eax)
c010764b:	8b 45 f0             	mov    -0x10(%ebp),%eax
c010764e:	8b 40 18             	mov    0x18(%eax),%eax
c0107651:	c7 40 10 01 00 00 00 	movl   $0x1,0x10(%eax)
c0107658:	83 ec 08             	sub    $0x8,%esp
c010765b:	ff 75 f0             	push   -0x10(%ebp)
c010765e:	ff 75 08             	push   0x8(%ebp)
c0107661:	e8 65 fa ff ff       	call   c01070cb <rb_left_rotation>
c0107666:	83 c4 10             	add    $0x10,%esp
c0107669:	8b 45 f0             	mov    -0x10(%ebp),%eax
c010766c:	8b 40 14             	mov    0x14(%eax),%eax
c010766f:	89 45 f0             	mov    %eax,-0x10(%ebp)
c0107672:	eb 43                	jmp    c01076b7 <delete_violations+0x246>
c0107674:	83 7d e8 01          	cmpl   $0x1,-0x18(%ebp)
c0107678:	75 3d                	jne    c01076b7 <delete_violations+0x246>
c010767a:	83 7d ec 00          	cmpl   $0x0,-0x14(%ebp)
c010767e:	75 37                	jne    c01076b7 <delete_violations+0x246>
c0107680:	83 7d f4 00          	cmpl   $0x0,-0xc(%ebp)
c0107684:	74 31                	je     c01076b7 <delete_violations+0x246>
c0107686:	8b 45 f0             	mov    -0x10(%ebp),%eax
c0107689:	c7 40 10 00 00 00 00 	movl   $0x0,0x10(%eax)
c0107690:	8b 45 f0             	mov    -0x10(%ebp),%eax
c0107693:	8b 40 14             	mov    0x14(%eax),%eax
c0107696:	c7 40 10 01 00 00 00 	movl   $0x1,0x10(%eax)
c010769d:	83 ec 08             	sub    $0x8,%esp
c01076a0:	ff 75 f0             	push   -0x10(%ebp)
c01076a3:	ff 75 08             	push   0x8(%ebp)
c01076a6:	e8 ae fa ff ff       	call   c0107159 <rb_right_rotation>
c01076ab:	83 c4 10             	add    $0x10,%esp
c01076ae:	8b 45 f0             	mov    -0x10(%ebp),%eax
c01076b1:	8b 40 18             	mov    0x18(%eax),%eax
c01076b4:	89 45 f0             	mov    %eax,-0x10(%ebp)
c01076b7:	8b 45 0c             	mov    0xc(%ebp),%eax
c01076ba:	8b 40 1c             	mov    0x1c(%eax),%eax
c01076bd:	8b 40 14             	mov    0x14(%eax),%eax
c01076c0:	89 45 f0             	mov    %eax,-0x10(%ebp)
c01076c3:	8b 45 f0             	mov    -0x10(%ebp),%eax
c01076c6:	3b 45 0c             	cmp    0xc(%ebp),%eax
c01076c9:	75 13                	jne    c01076de <delete_violations+0x26d>
c01076cb:	8b 45 0c             	mov    0xc(%ebp),%eax
c01076ce:	8b 40 1c             	mov    0x1c(%eax),%eax
c01076d1:	8b 40 18             	mov    0x18(%eax),%eax
c01076d4:	89 45 f0             	mov    %eax,-0x10(%ebp)
c01076d7:	c7 45 f4 01 00 00 00 	movl   $0x1,-0xc(%ebp)
c01076de:	83 7d ec 00          	cmpl   $0x0,-0x14(%ebp)
c01076e2:	75 5e                	jne    c0107742 <delete_violations+0x2d1>
c01076e4:	83 7d f4 00          	cmpl   $0x0,-0xc(%ebp)
c01076e8:	74 58                	je     c0107742 <delete_violations+0x2d1>
c01076ea:	8b 45 0c             	mov    0xc(%ebp),%eax
c01076ed:	8b 40 1c             	mov    0x1c(%eax),%eax
c01076f0:	8b 40 10             	mov    0x10(%eax),%eax
c01076f3:	89 45 e4             	mov    %eax,-0x1c(%ebp)
c01076f6:	8b 45 0c             	mov    0xc(%ebp),%eax
c01076f9:	8b 40 1c             	mov    0x1c(%eax),%eax
c01076fc:	8b 55 f0             	mov    -0x10(%ebp),%edx
c01076ff:	8b 52 10             	mov    0x10(%edx),%edx
c0107702:	89 50 10             	mov    %edx,0x10(%eax)
c0107705:	8b 45 f0             	mov    -0x10(%ebp),%eax
c0107708:	8b 55 e4             	mov    -0x1c(%ebp),%edx
c010770b:	89 50 10             	mov    %edx,0x10(%eax)
c010770e:	8b 45 0c             	mov    0xc(%ebp),%eax
c0107711:	8b 40 1c             	mov    0x1c(%eax),%eax
c0107714:	83 ec 08             	sub    $0x8,%esp
c0107717:	50                   	push   %eax
c0107718:	ff 75 08             	push   0x8(%ebp)
c010771b:	e8 ab f9 ff ff       	call   c01070cb <rb_left_rotation>
c0107720:	83 c4 10             	add    $0x10,%esp
c0107723:	8b 45 0c             	mov    0xc(%ebp),%eax
c0107726:	c7 40 10 01 00 00 00 	movl   $0x1,0x10(%eax)
c010772d:	8b 45 0c             	mov    0xc(%ebp),%eax
c0107730:	8b 40 1c             	mov    0x1c(%eax),%eax
c0107733:	8b 40 1c             	mov    0x1c(%eax),%eax
c0107736:	8b 40 18             	mov    0x18(%eax),%eax
c0107739:	c7 40 10 01 00 00 00 	movl   $0x1,0x10(%eax)
c0107740:	eb 65                	jmp    c01077a7 <delete_violations+0x336>
c0107742:	83 7d e8 00          	cmpl   $0x0,-0x18(%ebp)
c0107746:	75 5f                	jne    c01077a7 <delete_violations+0x336>
c0107748:	83 7d f4 00          	cmpl   $0x0,-0xc(%ebp)
c010774c:	75 59                	jne    c01077a7 <delete_violations+0x336>
c010774e:	8b 45 0c             	mov    0xc(%ebp),%eax
c0107751:	8b 40 1c             	mov    0x1c(%eax),%eax
c0107754:	8b 40 10             	mov    0x10(%eax),%eax
c0107757:	89 45 e0             	mov    %eax,-0x20(%ebp)
c010775a:	8b 45 0c             	mov    0xc(%ebp),%eax
c010775d:	8b 40 1c             	mov    0x1c(%eax),%eax
c0107760:	8b 55 f0             	mov    -0x10(%ebp),%edx
c0107763:	8b 52 10             	mov    0x10(%edx),%edx
c0107766:	89 50 10             	mov    %edx,0x10(%eax)
c0107769:	8b 45 f0             	mov    -0x10(%ebp),%eax
c010776c:	8b 55 e0             	mov    -0x20(%ebp),%edx
c010776f:	89 50 10             	mov    %edx,0x10(%eax)
c0107772:	8b 45 0c             	mov    0xc(%ebp),%eax
c0107775:	8b 40 1c             	mov    0x1c(%eax),%eax
c0107778:	83 ec 08             	sub    $0x8,%esp
c010777b:	50                   	push   %eax
c010777c:	ff 75 08             	push   0x8(%ebp)
c010777f:	e8 d5 f9 ff ff       	call   c0107159 <rb_right_rotation>
c0107784:	83 c4 10             	add    $0x10,%esp
c0107787:	8b 45 0c             	mov    0xc(%ebp),%eax
c010778a:	c7 40 10 01 00 00 00 	movl   $0x1,0x10(%eax)
c0107791:	8b 45 0c             	mov    0xc(%ebp),%eax
c0107794:	8b 40 1c             	mov    0x1c(%eax),%eax
c0107797:	8b 40 1c             	mov    0x1c(%eax),%eax
c010779a:	8b 40 14             	mov    0x14(%eax),%eax
c010779d:	c7 40 10 01 00 00 00 	movl   $0x1,0x10(%eax)
c01077a4:	eb 01                	jmp    c01077a7 <delete_violations+0x336>
c01077a6:	90                   	nop
c01077a7:	c9                   	leave
c01077a8:	c3                   	ret

c01077a9 <delete_node>:
c01077a9:	55                   	push   %ebp
c01077aa:	89 e5                	mov    %esp,%ebp
c01077ac:	83 ec 18             	sub    $0x18,%esp
c01077af:	8b 45 0c             	mov    0xc(%ebp),%eax
c01077b2:	8b 00                	mov    (%eax),%eax
c01077b4:	39 45 10             	cmp    %eax,0x10(%ebp)
c01077b7:	75 2e                	jne    c01077e7 <delete_node+0x3e>
c01077b9:	8b 45 10             	mov    0x10(%ebp),%eax
c01077bc:	8b 40 14             	mov    0x14(%eax),%eax
c01077bf:	85 c0                	test   %eax,%eax
c01077c1:	75 24                	jne    c01077e7 <delete_node+0x3e>
c01077c3:	8b 45 10             	mov    0x10(%ebp),%eax
c01077c6:	8b 40 18             	mov    0x18(%eax),%eax
c01077c9:	85 c0                	test   %eax,%eax
c01077cb:	75 1a                	jne    c01077e7 <delete_node+0x3e>
c01077cd:	8b 45 0c             	mov    0xc(%ebp),%eax
c01077d0:	c7 00 00 00 00 00    	movl   $0x0,(%eax)
c01077d6:	83 ec 08             	sub    $0x8,%esp
c01077d9:	ff 75 08             	push   0x8(%ebp)
c01077dc:	ff 75 10             	push   0x10(%ebp)
c01077df:	e8 9c f8 ff ff       	call   c0107080 <free_node_obj>
c01077e4:	83 c4 10             	add    $0x10,%esp
c01077e7:	8b 45 10             	mov    0x10(%ebp),%eax
c01077ea:	8b 40 14             	mov    0x14(%eax),%eax
c01077ed:	85 c0                	test   %eax,%eax
c01077ef:	75 60                	jne    c0107851 <delete_node+0xa8>
c01077f1:	8b 45 10             	mov    0x10(%ebp),%eax
c01077f4:	8b 40 18             	mov    0x18(%eax),%eax
c01077f7:	85 c0                	test   %eax,%eax
c01077f9:	75 56                	jne    c0107851 <delete_node+0xa8>
c01077fb:	8b 45 10             	mov    0x10(%ebp),%eax
c01077fe:	8b 40 1c             	mov    0x1c(%eax),%eax
c0107801:	89 45 ec             	mov    %eax,-0x14(%ebp)
c0107804:	83 ec 08             	sub    $0x8,%esp
c0107807:	ff 75 10             	push   0x10(%ebp)
c010780a:	ff 75 0c             	push   0xc(%ebp)
c010780d:	e8 5f fc ff ff       	call   c0107471 <delete_violations>
c0107812:	83 c4 10             	add    $0x10,%esp
c0107815:	8b 45 10             	mov    0x10(%ebp),%eax
c0107818:	8b 40 08             	mov    0x8(%eax),%eax
c010781b:	8b 55 ec             	mov    -0x14(%ebp),%edx
c010781e:	8b 52 08             	mov    0x8(%edx),%edx
c0107821:	39 c2                	cmp    %eax,%edx
c0107823:	73 0c                	jae    c0107831 <delete_node+0x88>
c0107825:	8b 45 ec             	mov    -0x14(%ebp),%eax
c0107828:	c7 40 18 00 00 00 00 	movl   $0x0,0x18(%eax)
c010782f:	eb 0a                	jmp    c010783b <delete_node+0x92>
c0107831:	8b 45 ec             	mov    -0x14(%ebp),%eax
c0107834:	c7 40 14 00 00 00 00 	movl   $0x0,0x14(%eax)
c010783b:	83 ec 08             	sub    $0x8,%esp
c010783e:	ff 75 08             	push   0x8(%ebp)
c0107841:	ff 75 10             	push   0x10(%ebp)
c0107844:	e8 37 f8 ff ff       	call   c0107080 <free_node_obj>
c0107849:	83 c4 10             	add    $0x10,%esp
c010784c:	e9 60 01 00 00       	jmp    c01079b1 <delete_node+0x208>
c0107851:	8b 45 10             	mov    0x10(%ebp),%eax
c0107854:	8b 40 14             	mov    0x14(%eax),%eax
c0107857:	85 c0                	test   %eax,%eax
c0107859:	0f 84 b8 00 00 00    	je     c0107917 <delete_node+0x16e>
c010785f:	8b 45 10             	mov    0x10(%ebp),%eax
c0107862:	8b 40 18             	mov    0x18(%eax),%eax
c0107865:	85 c0                	test   %eax,%eax
c0107867:	0f 84 aa 00 00 00    	je     c0107917 <delete_node+0x16e>
c010786d:	8b 45 10             	mov    0x10(%ebp),%eax
c0107870:	8b 40 14             	mov    0x14(%eax),%eax
c0107873:	89 45 f4             	mov    %eax,-0xc(%ebp)
c0107876:	eb 13                	jmp    c010788b <delete_node+0xe2>
c0107878:	8b 45 f4             	mov    -0xc(%ebp),%eax
c010787b:	8b 40 18             	mov    0x18(%eax),%eax
c010787e:	85 c0                	test   %eax,%eax
c0107880:	74 11                	je     c0107893 <delete_node+0xea>
c0107882:	8b 45 f4             	mov    -0xc(%ebp),%eax
c0107885:	8b 40 18             	mov    0x18(%eax),%eax
c0107888:	89 45 f4             	mov    %eax,-0xc(%ebp)
c010788b:	83 7d f4 00          	cmpl   $0x0,-0xc(%ebp)
c010788f:	75 e7                	jne    c0107878 <delete_node+0xcf>
c0107891:	eb 01                	jmp    c0107894 <delete_node+0xeb>
c0107893:	90                   	nop
c0107894:	83 ec 08             	sub    $0x8,%esp
c0107897:	ff 75 f4             	push   -0xc(%ebp)
c010789a:	ff 75 0c             	push   0xc(%ebp)
c010789d:	e8 cf fb ff ff       	call   c0107471 <delete_violations>
c01078a2:	83 c4 10             	add    $0x10,%esp
c01078a5:	8b 45 f4             	mov    -0xc(%ebp),%eax
c01078a8:	8b 50 04             	mov    0x4(%eax),%edx
c01078ab:	8b 45 10             	mov    0x10(%ebp),%eax
c01078ae:	89 50 04             	mov    %edx,0x4(%eax)
c01078b1:	8b 45 f4             	mov    -0xc(%ebp),%eax
c01078b4:	8b 50 08             	mov    0x8(%eax),%edx
c01078b7:	8b 45 10             	mov    0x10(%ebp),%eax
c01078ba:	89 50 08             	mov    %edx,0x8(%eax)
c01078bd:	8b 45 f4             	mov    -0xc(%ebp),%eax
c01078c0:	8b 50 0c             	mov    0xc(%eax),%edx
c01078c3:	8b 45 10             	mov    0x10(%ebp),%eax
c01078c6:	89 50 0c             	mov    %edx,0xc(%eax)
c01078c9:	8b 45 10             	mov    0x10(%ebp),%eax
c01078cc:	8b 40 14             	mov    0x14(%eax),%eax
c01078cf:	39 45 f4             	cmp    %eax,-0xc(%ebp)
c01078d2:	75 0c                	jne    c01078e0 <delete_node+0x137>
c01078d4:	8b 45 10             	mov    0x10(%ebp),%eax
c01078d7:	c7 40 14 00 00 00 00 	movl   $0x0,0x14(%eax)
c01078de:	eb 0d                	jmp    c01078ed <delete_node+0x144>
c01078e0:	8b 45 f4             	mov    -0xc(%ebp),%eax
c01078e3:	8b 40 1c             	mov    0x1c(%eax),%eax
c01078e6:	c7 40 18 00 00 00 00 	movl   $0x0,0x18(%eax)
c01078ed:	8b 45 0c             	mov    0xc(%ebp),%eax
c01078f0:	8b 00                	mov    (%eax),%eax
c01078f2:	39 45 10             	cmp    %eax,0x10(%ebp)
c01078f5:	75 0a                	jne    c0107901 <delete_node+0x158>
c01078f7:	8b 45 10             	mov    0x10(%ebp),%eax
c01078fa:	c7 40 10 01 00 00 00 	movl   $0x1,0x10(%eax)
c0107901:	83 ec 08             	sub    $0x8,%esp
c0107904:	ff 75 08             	push   0x8(%ebp)
c0107907:	ff 75 f4             	push   -0xc(%ebp)
c010790a:	e8 71 f7 ff ff       	call   c0107080 <free_node_obj>
c010790f:	83 c4 10             	add    $0x10,%esp
c0107912:	e9 9a 00 00 00       	jmp    c01079b1 <delete_node+0x208>
c0107917:	8b 45 10             	mov    0x10(%ebp),%eax
c010791a:	8b 40 18             	mov    0x18(%eax),%eax
c010791d:	89 45 f0             	mov    %eax,-0x10(%ebp)
c0107920:	8b 45 10             	mov    0x10(%ebp),%eax
c0107923:	8b 40 14             	mov    0x14(%eax),%eax
c0107926:	85 c0                	test   %eax,%eax
c0107928:	74 09                	je     c0107933 <delete_node+0x18a>
c010792a:	8b 45 10             	mov    0x10(%ebp),%eax
c010792d:	8b 40 14             	mov    0x14(%eax),%eax
c0107930:	89 45 f0             	mov    %eax,-0x10(%ebp)
c0107933:	8b 45 f0             	mov    -0x10(%ebp),%eax
c0107936:	8b 50 04             	mov    0x4(%eax),%edx
c0107939:	8b 45 10             	mov    0x10(%ebp),%eax
c010793c:	89 50 04             	mov    %edx,0x4(%eax)
c010793f:	8b 45 f0             	mov    -0x10(%ebp),%eax
c0107942:	8b 50 08             	mov    0x8(%eax),%edx
c0107945:	8b 45 10             	mov    0x10(%ebp),%eax
c0107948:	89 50 08             	mov    %edx,0x8(%eax)
c010794b:	8b 45 f0             	mov    -0x10(%ebp),%eax
c010794e:	8b 50 0c             	mov    0xc(%eax),%edx
c0107951:	8b 45 10             	mov    0x10(%ebp),%eax
c0107954:	89 50 0c             	mov    %edx,0xc(%eax)
c0107957:	83 ec 08             	sub    $0x8,%esp
c010795a:	ff 75 f0             	push   -0x10(%ebp)
c010795d:	ff 75 0c             	push   0xc(%ebp)
c0107960:	e8 0c fb ff ff       	call   c0107471 <delete_violations>
c0107965:	83 c4 10             	add    $0x10,%esp
c0107968:	8b 45 f0             	mov    -0x10(%ebp),%eax
c010796b:	8b 50 10             	mov    0x10(%eax),%edx
c010796e:	8b 45 10             	mov    0x10(%ebp),%eax
c0107971:	89 50 10             	mov    %edx,0x10(%eax)
c0107974:	8b 45 f0             	mov    -0x10(%ebp),%eax
c0107977:	8b 50 18             	mov    0x18(%eax),%edx
c010797a:	8b 45 10             	mov    0x10(%ebp),%eax
c010797d:	89 50 18             	mov    %edx,0x18(%eax)
c0107980:	8b 45 f0             	mov    -0x10(%ebp),%eax
c0107983:	8b 50 14             	mov    0x14(%eax),%edx
c0107986:	8b 45 10             	mov    0x10(%ebp),%eax
c0107989:	89 50 14             	mov    %edx,0x14(%eax)
c010798c:	8b 45 0c             	mov    0xc(%ebp),%eax
c010798f:	8b 00                	mov    (%eax),%eax
c0107991:	39 45 10             	cmp    %eax,0x10(%ebp)
c0107994:	75 0a                	jne    c01079a0 <delete_node+0x1f7>
c0107996:	8b 45 10             	mov    0x10(%ebp),%eax
c0107999:	c7 40 10 01 00 00 00 	movl   $0x1,0x10(%eax)
c01079a0:	83 ec 08             	sub    $0x8,%esp
c01079a3:	ff 75 08             	push   0x8(%ebp)
c01079a6:	ff 75 f0             	push   -0x10(%ebp)
c01079a9:	e8 d2 f6 ff ff       	call   c0107080 <free_node_obj>
c01079ae:	83 c4 10             	add    $0x10,%esp
c01079b1:	c9                   	leave
c01079b2:	c3                   	ret

c01079b3 <make_node>:
c01079b3:	55                   	push   %ebp
c01079b4:	89 e5                	mov    %esp,%ebp
c01079b6:	83 ec 18             	sub    $0x18,%esp
c01079b9:	ff 75 08             	push   0x8(%ebp)
c01079bc:	e8 8b f6 ff ff       	call   c010704c <alloc_node_obj>
c01079c1:	83 c4 04             	add    $0x4,%esp
c01079c4:	89 45 f4             	mov    %eax,-0xc(%ebp)
c01079c7:	8b 45 f4             	mov    -0xc(%ebp),%eax
c01079ca:	8b 55 10             	mov    0x10(%ebp),%edx
c01079cd:	89 50 08             	mov    %edx,0x8(%eax)
c01079d0:	8b 55 14             	mov    0x14(%ebp),%edx
c01079d3:	8b 45 f4             	mov    -0xc(%ebp),%eax
c01079d6:	89 10                	mov    %edx,(%eax)
c01079d8:	8b 45 f4             	mov    -0xc(%ebp),%eax
c01079db:	8b 55 0c             	mov    0xc(%ebp),%edx
c01079de:	89 50 04             	mov    %edx,0x4(%eax)
c01079e1:	8b 45 08             	mov    0x8(%ebp),%eax
c01079e4:	8b 40 20             	mov    0x20(%eax),%eax
c01079e7:	85 c0                	test   %eax,%eax
c01079e9:	75 33                	jne    c0107a1e <make_node+0x6b>
c01079eb:	8b 45 f4             	mov    -0xc(%ebp),%eax
c01079ee:	c7 40 10 01 00 00 00 	movl   $0x1,0x10(%eax)
c01079f5:	8b 45 f4             	mov    -0xc(%ebp),%eax
c01079f8:	c7 40 14 00 00 00 00 	movl   $0x0,0x14(%eax)
c01079ff:	8b 45 f4             	mov    -0xc(%ebp),%eax
c0107a02:	c7 40 18 00 00 00 00 	movl   $0x0,0x18(%eax)
c0107a09:	8b 45 f4             	mov    -0xc(%ebp),%eax
c0107a0c:	c7 40 1c 00 00 00 00 	movl   $0x0,0x1c(%eax)
c0107a13:	8b 45 08             	mov    0x8(%ebp),%eax
c0107a16:	8b 55 f4             	mov    -0xc(%ebp),%edx
c0107a19:	89 50 20             	mov    %edx,0x20(%eax)
c0107a1c:	eb 15                	jmp    c0107a33 <make_node+0x80>
c0107a1e:	8b 45 08             	mov    0x8(%ebp),%eax
c0107a21:	83 c0 20             	add    $0x20,%eax
c0107a24:	83 ec 08             	sub    $0x8,%esp
c0107a27:	ff 75 f4             	push   -0xc(%ebp)
c0107a2a:	50                   	push   %eax
c0107a2b:	e8 84 f9 ff ff       	call   c01073b4 <insert_node>
c0107a30:	83 c4 10             	add    $0x10,%esp
c0107a33:	8b 45 f4             	mov    -0xc(%ebp),%eax
c0107a36:	c9                   	leave
c0107a37:	c3                   	ret

c0107a38 <find_node>:
c0107a38:	55                   	push   %ebp
c0107a39:	89 e5                	mov    %esp,%ebp
c0107a3b:	83 ec 18             	sub    $0x18,%esp
c0107a3e:	8b 45 08             	mov    0x8(%ebp),%eax
c0107a41:	89 45 f4             	mov    %eax,-0xc(%ebp)
c0107a44:	c7 45 f0 00 00 00 00 	movl   $0x0,-0x10(%ebp)
c0107a4b:	eb 33                	jmp    c0107a80 <find_node+0x48>
c0107a4d:	8b 45 f4             	mov    -0xc(%ebp),%eax
c0107a50:	8b 40 08             	mov    0x8(%eax),%eax
c0107a53:	39 45 0c             	cmp    %eax,0xc(%ebp)
c0107a56:	75 09                	jne    c0107a61 <find_node+0x29>
c0107a58:	c7 45 f0 01 00 00 00 	movl   $0x1,-0x10(%ebp)
c0107a5f:	eb 25                	jmp    c0107a86 <find_node+0x4e>
c0107a61:	8b 45 f4             	mov    -0xc(%ebp),%eax
c0107a64:	8b 40 08             	mov    0x8(%eax),%eax
c0107a67:	39 45 0c             	cmp    %eax,0xc(%ebp)
c0107a6a:	72 0b                	jb     c0107a77 <find_node+0x3f>
c0107a6c:	8b 45 f4             	mov    -0xc(%ebp),%eax
c0107a6f:	8b 40 18             	mov    0x18(%eax),%eax
c0107a72:	89 45 f4             	mov    %eax,-0xc(%ebp)
c0107a75:	eb 09                	jmp    c0107a80 <find_node+0x48>
c0107a77:	8b 45 f4             	mov    -0xc(%ebp),%eax
c0107a7a:	8b 40 14             	mov    0x14(%eax),%eax
c0107a7d:	89 45 f4             	mov    %eax,-0xc(%ebp)
c0107a80:	83 7d f4 00          	cmpl   $0x0,-0xc(%ebp)
c0107a84:	75 c7                	jne    c0107a4d <find_node+0x15>
c0107a86:	83 7d f0 00          	cmpl   $0x0,-0x10(%ebp)
c0107a8a:	74 05                	je     c0107a91 <find_node+0x59>
c0107a8c:	8b 45 f4             	mov    -0xc(%ebp),%eax
c0107a8f:	eb 18                	jmp    c0107aa9 <find_node+0x71>
c0107a91:	83 ec 08             	sub    $0x8,%esp
c0107a94:	ff 75 0c             	push   0xc(%ebp)
c0107a97:	68 e8 90 10 c0       	push   $0xc01090e8
c0107a9c:	e8 ba bf ff ff       	call   c0103a5b <logf>
c0107aa1:	83 c4 10             	add    $0x10,%esp
c0107aa4:	b8 00 00 00 00       	mov    $0x0,%eax
c0107aa9:	c9                   	leave
c0107aaa:	c3                   	ret

Disassembly of section .rodata:

c0108000 <.rodata>:
c0108000:	41                   	inc    %ecx
c0108001:	76 61                	jbe    c0108064 <find_node+0x62c>
c0108003:	69 6c 61 62 6c 65 20 	imul   $0x6d20656c,0x62(%ecx,%eiz,2),%ebp
c010800a:	6d 
c010800b:	65 6d                	gs insl (%dx),%es:(%edi)
c010800d:	6f                   	outsl  %ds:(%esi),(%dx)
c010800e:	72 79                	jb     c0108089 <find_node+0x651>
c0108010:	20 66 72             	and    %ah,0x72(%esi)
c0108013:	6f                   	outsl  %ds:(%esi),(%dx)
c0108014:	6d                   	insl   (%dx),%es:(%edi)
c0108015:	20 25 78 20 74 6f    	and    %ah,0x6f742078
c010801b:	20 25 78 0a 00 4f    	and    %ah,0x4f000a78
c0108021:	75 74                	jne    c0108097 <find_node+0x65f>
c0108023:	20 6f 66             	and    %ch,0x66(%edi)
c0108026:	20 6d 65             	and    %ch,0x65(%ebp)
c0108029:	6d                   	insl   (%dx),%es:(%edi)
c010802a:	6f                   	outsl  %ds:(%esi),(%dx)
c010802b:	72 79                	jb     c01080a6 <find_node+0x66e>
c010802d:	21 00                	and    %eax,(%eax)
c010802f:	4f                   	dec    %edi
c0108030:	6c                   	insb   (%dx),%es:(%edi)
c0108031:	64 20 46 72          	and    %al,%fs:0x72(%esi)
c0108035:	61                   	popa
c0108036:	6d                   	insl   (%dx),%es:(%edi)
c0108037:	65 20 73 74          	and    %dh,%gs:0x74(%ebx)
c010803b:	6f                   	outsl  %ds:(%esi),(%dx)
c010803c:	72 61                	jb     c010809f <find_node+0x667>
c010803e:	67 65 20 61 74       	and    %ah,%gs:0x74(%bx,%di)
c0108043:	20 25 78 20 00 4e    	and    %ah,0x4e002078
c0108049:	65 77 20             	gs ja  c010806c <find_node+0x634>
c010804c:	66 72 61             	data16 jb c01080b0 <find_node+0x678>
c010804f:	6d                   	insl   (%dx),%es:(%edi)
c0108050:	65 20 73 74          	and    %dh,%gs:0x74(%ebx)
c0108054:	6f                   	outsl  %ds:(%esi),(%dx)
c0108055:	72 61                	jb     c01080b8 <find_node+0x680>
c0108057:	67 65 20 61 74       	and    %ah,%gs:0x74(%bx,%di)
c010805c:	20 25 78 0a 00 61    	and    %ah,0x61000a78
c0108062:	66 74 65             	data16 je c01080ca <find_node+0x692>
c0108065:	72 5f                	jb     c01080c6 <find_node+0x68e>
c0108067:	6d                   	insl   (%dx),%es:(%edi)
c0108068:	62 3a                	bound  %edi,(%edx)
c010806a:	20 25 78 0a 00 00    	and    %ah,0xa78
c0108070:	4b                   	dec    %ebx
c0108071:	45                   	inc    %ebp
c0108072:	4e                   	dec    %esi
c0108073:	44                   	inc    %esp
c0108074:	20 25 78 2c 20 61    	and    %ah,0x61202c78
c010807a:	66 74 65             	data16 je c01080e2 <find_node+0x6aa>
c010807d:	72 5f                	jb     c01080de <find_node+0x6a6>
c010807f:	6d                   	insl   (%dx),%es:(%edi)
c0108080:	62 20                	bound  %esp,(%eax)
c0108082:	25 78 2c 20 50       	and    $0x50202c78,%eax
c0108087:	52                   	push   %edx
c0108088:	45                   	inc    %ebp
c0108089:	4d                   	dec    %ebp
c010808a:	45                   	inc    %ebp
c010808b:	4d                   	dec    %ebp
c010808c:	3a 20                	cmp    (%eax),%ah
c010808e:	25 78 0a 00 4e       	and    $0x4e000a78,%eax
c0108093:	55                   	push   %ebp
c0108094:	4d                   	dec    %ebp
c0108095:	20 46 52             	and    %al,0x52(%esi)
c0108098:	41                   	inc    %ecx
c0108099:	4d                   	dec    %ebp
c010809a:	45                   	inc    %ebp
c010809b:	53                   	push   %ebx
c010809c:	20 25 78 0a 00 00    	and    %ah,0xa78
c01080a2:	00 00                	add    %al,(%eax)
c01080a4:	53                   	push   %ebx
c01080a5:	74 6f                	je     c0108116 <find_node+0x6de>
c01080a7:	72 65                	jb     c010810e <find_node+0x6d6>
c01080a9:	20 70 61             	and    %dh,0x61(%eax)
c01080ac:	67 65 20 6c 6f       	and    %ch,%gs:0x6f(%si)
c01080b1:	63 61 74             	arpl   %esp,0x74(%ecx)
c01080b4:	65 64 20 61 74       	gs and %ah,%fs:0x74(%ecx)
c01080b9:	20 3a                	and    %bh,(%edx)
c01080bb:	25 78 0a 00 00       	and    $0xa78,%eax
c01080c0:	4c                   	dec    %esp
c01080c1:	6f                   	outsl  %ds:(%esi),(%dx)
c01080c2:	77 20                	ja     c01080e4 <find_node+0x6ac>
c01080c4:	61                   	popa
c01080c5:	64 64 72 20          	fs fs jb c01080e9 <find_node+0x6b1>
c01080c9:	6d                   	insl   (%dx),%es:(%edi)
c01080ca:	61                   	popa
c01080cb:	72 6b                	jb     c0108138 <find_node+0x700>
c01080cd:	65 64 20 61 74       	gs and %ah,%fs:0x74(%ecx)
c01080d2:	20 25 78 2e 20 48    	and    %ah,0x48202e78
c01080d8:	69 67 68 20 6d 61 72 	imul   $0x72616d20,0x68(%edi),%esp
c01080df:	6b 65 64 20          	imul   $0x20,0x64(%ebp),%esp
c01080e3:	61                   	popa
c01080e4:	74 20                	je     c0108106 <find_node+0x6ce>
c01080e6:	25 78 0a 0a 00       	and    $0xa0a78,%eax
c01080eb:	00 56 4d             	add    %dl,0x4d(%esi)
c01080ee:	4d                   	dec    %ebp
c01080ef:	20 46 72             	and    %al,0x72(%esi)
c01080f2:	65 65 20 74 72 65    	gs and %dh,%gs:0x65(%edx,%esi,2)
c01080f8:	65 20 63 72          	and    %ah,%gs:0x72(%ebx)
c01080fc:	65 61                	gs popa
c01080fe:	74 65                	je     c0108165 <find_node+0x72d>
c0108100:	64 2e 20 53 69       	fs and %dl,%cs:0x69(%ebx)
c0108105:	7a 65                	jp     c010816c <find_node+0x734>
c0108107:	20 25 78 0a 00 4f    	and    %ah,0x4f000a78
c010810d:	6c                   	insb   (%dx),%es:(%edi)
c010810e:	64 20 56 4d          	and    %dl,%fs:0x4d(%esi)
c0108112:	4d                   	dec    %ebp
c0108113:	20 73 74             	and    %dh,0x74(%ebx)
c0108116:	6f                   	outsl  %ds:(%esi),(%dx)
c0108117:	72 61                	jb     c010817a <find_node+0x742>
c0108119:	67 65 3a 20          	cmp    %gs:(%bx,%si),%ah
c010811d:	25 78 2c 20 4e       	and    $0x4e202c78,%eax
c0108122:	65 77 20             	gs ja  c0108145 <find_node+0x70d>
c0108125:	56                   	push   %esi
c0108126:	4d                   	dec    %ebp
c0108127:	4d                   	dec    %ebp
c0108128:	20 73 74             	and    %dh,0x74(%ebx)
c010812b:	6f                   	outsl  %ds:(%esi),(%dx)
c010812c:	72 61                	jb     c010818f <find_node+0x757>
c010812e:	67 65 3a 20          	cmp    %gs:(%bx,%si),%ah
c0108132:	25 78 0a 00 00       	and    $0xa78,%eax
c0108137:	00 41 6c             	add    %al,0x6c(%ecx)
c010813a:	6c                   	insb   (%dx),%es:(%edi)
c010813b:	6f                   	outsl  %ds:(%esi),(%dx)
c010813c:	63 61 74             	arpl   %esp,0x74(%ecx)
c010813f:	69 6e 67 20 70 61 67 	imul   $0x67617020,0x67(%esi),%ebp
c0108146:	65 20 69 6e          	and    %ch,%gs:0x6e(%ecx)
c010814a:	20 76 6d             	and    %dh,0x6d(%esi)
c010814d:	6d                   	insl   (%dx),%es:(%edi)
c010814e:	20 73 74             	and    %dh,0x74(%ebx)
c0108151:	6f                   	outsl  %ds:(%esi),(%dx)
c0108152:	72 65                	jb     c01081b9 <find_node+0x781>
c0108154:	64 20 61 74          	and    %ah,%fs:0x74(%ecx)
c0108158:	20 6c 6f 63          	and    %ch,0x63(%edi,%ebp,2)
c010815c:	61                   	popa
c010815d:	74 69                	je     c01081c8 <find_node+0x790>
c010815f:	6f                   	outsl  %ds:(%esi),(%dx)
c0108160:	6e                   	outsb  %ds:(%esi),(%dx)
c0108161:	3a 20                	cmp    (%eax),%ah
c0108163:	25 78 0a 00 00       	and    $0xa78,%eax
c0108168:	50                   	push   %eax
c0108169:	61                   	popa
c010816a:	67 65 20 6e 6f       	and    %ch,%gs:0x6f(%bp)
c010816f:	74 20                	je     c0108191 <find_node+0x759>
c0108171:	61                   	popa
c0108172:	6c                   	insb   (%dx),%es:(%edi)
c0108173:	6c                   	insb   (%dx),%es:(%edi)
c0108174:	6f                   	outsl  %ds:(%esi),(%dx)
c0108175:	63 61 74             	arpl   %esp,0x74(%ecx)
c0108178:	65 64 2e 20 4e 6f    	gs fs and %cl,%cs:0x6f(%esi)
c010817e:	20 66 72             	and    %ah,0x72(%esi)
c0108181:	65 65 20 6c 69 73    	gs and %ch,%gs:0x73(%ecx,%ebp,2)
c0108187:	74 0a                	je     c0108193 <find_node+0x75b>
c0108189:	00 4e 6f             	add    %cl,0x6f(%esi)
c010818c:	20 66 72             	and    %ah,0x72(%esi)
c010818f:	65 65 20 6d 65       	gs and %ch,%gs:0x65(%ebp)
c0108194:	6d                   	insl   (%dx),%es:(%edi)
c0108195:	6f                   	outsl  %ds:(%esi),(%dx)
c0108196:	72 79                	jb     c0108211 <find_node+0x7d9>
c0108198:	20 66 6f             	and    %ah,0x6f(%esi)
c010819b:	75 6e                	jne    c010820b <find_node+0x7d3>
c010819d:	64 2e 0a 00          	fs or  %cs:(%eax),%al
c01081a1:	4d                   	dec    %ebp
c01081a2:	61                   	popa
c01081a3:	70 70                	jo     c0108215 <find_node+0x7dd>
c01081a5:	65 64 20 70 68       	gs and %dh,%fs:0x68(%eax)
c01081aa:	79 73                	jns    c010821f <find_node+0x7e7>
c01081ac:	20 69 73             	and    %ch,0x73(%ecx)
c01081af:	20 25 78 0a 00 53    	and    %ah,0x53000a78
c01081b5:	74 61                	je     c0108218 <find_node+0x7e0>
c01081b7:	63 6b 20             	arpl   %ebp,0x20(%ebx)
c01081ba:	6c                   	insb   (%dx),%es:(%edi)
c01081bb:	6f                   	outsl  %ds:(%esi),(%dx)
c01081bc:	63 61 74             	arpl   %esp,0x74(%ecx)
c01081bf:	65 64 20 61 74       	gs and %ah,%fs:0x74(%ecx)
c01081c4:	20 76 69             	and    %dh,0x69(%esi)
c01081c7:	72 74                	jb     c010823d <find_node+0x805>
c01081c9:	20 61 64             	and    %ah,0x64(%ecx)
c01081cc:	64 72 3a             	fs jb  c0108209 <find_node+0x7d1>
c01081cf:	20 25 78 0a 00 54    	and    %ah,0x54000a78
c01081d5:	79 70                	jns    c0108247 <find_node+0x80f>
c01081d7:	65 20 6f 66          	and    %ch,%gs:0x66(%edi)
c01081db:	20 46 72             	and    %al,0x72(%esi)
c01081de:	61                   	popa
c01081df:	6d                   	insl   (%dx),%es:(%edi)
c01081e0:	65 42                	gs inc %edx
c01081e2:	75 66                	jne    c010824a <find_node+0x812>
c01081e4:	66 65 72 3a          	data16 gs jb c0108222 <find_node+0x7ea>
c01081e8:	20 25 64 0a 00 00    	and    %ah,0xa64
c01081ee:	00 00                	add    %al,(%eax)
c01081f0:	46                   	inc    %esi
c01081f1:	72 61                	jb     c0108254 <find_node+0x81c>
c01081f3:	6d                   	insl   (%dx),%es:(%edi)
c01081f4:	65 62 75 66          	bound  %esi,%gs:0x66(%ebp)
c01081f8:	66 65 72 20          	data16 gs jb c010821c <find_node+0x7e4>
c01081fc:	62 70 70             	bound  %esi,0x70(%eax)
c01081ff:	3a 20                	cmp    (%eax),%ah
c0108201:	25 64 2c 20 66       	and    $0x66202c64,%eax
c0108206:	72 61                	jb     c0108269 <find_node+0x831>
c0108208:	6d                   	insl   (%dx),%es:(%edi)
c0108209:	65 62 75 66          	bound  %esi,%gs:0x66(%ebp)
c010820d:	66 65 72 20          	data16 gs jb c0108231 <find_node+0x7f9>
c0108211:	77 69                	ja     c010827c <find_node+0x844>
c0108213:	64 74 68             	fs je  c010827e <find_node+0x846>
c0108216:	3a 20                	cmp    (%eax),%ah
c0108218:	25 64 2c 20 66       	and    $0x66202c64,%eax
c010821d:	72 61                	jb     c0108280 <find_node+0x848>
c010821f:	6d                   	insl   (%dx),%es:(%edi)
c0108220:	65 62 75 66          	bound  %esi,%gs:0x66(%ebp)
c0108224:	66 65 72 20          	data16 gs jb c0108248 <find_node+0x810>
c0108228:	68 65 69 67 68       	push   $0x68676965
c010822d:	74 3a                	je     c0108269 <find_node+0x831>
c010822f:	20 25 64 0a 00 46    	and    %ah,0x46000a64
c0108235:	42                   	inc    %edx
c0108236:	5f                   	pop    %edi
c0108237:	41                   	inc    %ecx
c0108238:	44                   	inc    %esp
c0108239:	44                   	inc    %esp
c010823a:	52                   	push   %edx
c010823b:	3a 20                	cmp    (%eax),%ah
c010823d:	25 78 0a 00 00       	and    $0xa78,%eax
c0108242:	00 00                	add    %al,(%eax)
c0108244:	46                   	inc    %esi
c0108245:	72 61                	jb     c01082a8 <find_node+0x870>
c0108247:	6d                   	insl   (%dx),%es:(%edi)
c0108248:	65 62 75 66          	bound  %esi,%gs:0x66(%ebp)
c010824c:	66 65 72 20          	data16 gs jb c0108270 <find_node+0x838>
c0108250:	69 6e 20 49 4e 44 45 	imul   $0x45444e49,0x20(%esi),%ebp
c0108257:	58                   	pop    %eax
c0108258:	45                   	inc    %ebp
c0108259:	44                   	inc    %esp
c010825a:	5f                   	pop    %edi
c010825b:	43                   	inc    %ebx
c010825c:	4f                   	dec    %edi
c010825d:	4c                   	dec    %esp
c010825e:	4f                   	dec    %edi
c010825f:	52                   	push   %edx
c0108260:	2e 20 4e 6f          	and    %cl,%cs:0x6f(%esi)
c0108264:	74 20                	je     c0108286 <find_node+0x84e>
c0108266:	73 75                	jae    c01082dd <find_node+0x8a5>
c0108268:	70 70                	jo     c01082da <find_node+0x8a2>
c010826a:	6f                   	outsl  %ds:(%esi),(%dx)
c010826b:	72 74                	jb     c01082e1 <find_node+0x8a9>
c010826d:	65 64 20 62 75       	gs and %ah,%fs:0x75(%edx)
c0108272:	74 20                	je     c0108294 <find_node+0x85c>
c0108274:	43                   	inc    %ebx
c0108275:	4f                   	dec    %edi
c0108276:	4f                   	dec    %edi
c0108277:	4c                   	dec    %esp
c0108278:	21 21                	and    %esp,(%ecx)
c010827a:	21 21                	and    %esp,(%ecx)
c010827c:	0a 00                	or     (%eax),%al
c010827e:	00 00                	add    %al,(%eax)
c0108280:	53                   	push   %ebx
c0108281:	75 70                	jne    c01082f3 <find_node+0x8bb>
c0108283:	70 6f                	jo     c01082f4 <find_node+0x8bc>
c0108285:	72 74                	jb     c01082fb <find_node+0x8c3>
c0108287:	65 64 20 52 47       	gs and %dl,%fs:0x47(%edx)
c010828c:	42                   	inc    %edx
c010828d:	20 6d 6f             	and    %ch,0x6f(%ebp)
c0108290:	64 65 20 66 6f       	fs and %ah,%gs:0x6f(%esi)
c0108295:	72 20                	jb     c01082b7 <find_node+0x87f>
c0108297:	66 72 61             	data16 jb c01082fb <find_node+0x8c3>
c010829a:	6d                   	insl   (%dx),%es:(%edi)
c010829b:	65 62 75 66          	bound  %esi,%gs:0x66(%ebp)
c010829f:	66 65 72 21          	data16 gs jb c01082c4 <find_node+0x88c>
c01082a3:	0a 00                	or     (%eax),%al
c01082a5:	00 00                	add    %al,(%eax)
c01082a7:	00 46 72             	add    %al,0x72(%esi)
c01082aa:	61                   	popa
c01082ab:	6d                   	insl   (%dx),%es:(%edi)
c01082ac:	65 62 75 66          	bound  %esi,%gs:0x66(%ebp)
c01082b0:	66 65 72 20          	data16 gs jb c01082d4 <find_node+0x89c>
c01082b4:	69 6e 20 54 45 58 54 	imul   $0x54584554,0x20(%esi),%ebp
c01082bb:	5f                   	pop    %edi
c01082bc:	4d                   	dec    %ebp
c01082bd:	4f                   	dec    %edi
c01082be:	44                   	inc    %esp
c01082bf:	45                   	inc    %ebp
c01082c0:	2e 20 68 6f          	and    %ch,%cs:0x6f(%eax)
c01082c4:	77 20                	ja     c01082e6 <find_node+0x8ae>
c01082c6:	64 69 64 20 79 6f 75 	imul   $0x6720756f,%fs:0x79(%eax,%eiz,1),%esp
c01082cd:	20 67 
c01082cf:	65 74 20             	gs je  c01082f2 <find_node+0x8ba>
c01082d2:	68 65 72 65 3f       	push   $0x3f657265
c01082d7:	3f                   	aas
c01082d8:	0a 00                	or     (%eax),%al
c01082da:	41                   	inc    %ecx
c01082db:	50                   	push   %eax
c01082dc:	49                   	dec    %ecx
c01082dd:	43                   	inc    %ebx
c01082de:	00 00                	add    %al,(%eax)
c01082e0:	4d                   	dec    %ebp
c01082e1:	41                   	inc    %ecx
c01082e2:	44                   	inc    %esp
c01082e3:	54                   	push   %esp
c01082e4:	20 65 6e             	and    %ah,0x6e(%ebp)
c01082e7:	74 72                	je     c010835b <find_node+0x923>
c01082e9:	79 20                	jns    c010830b <find_node+0x8d3>
c01082eb:	77 69                	ja     c0108356 <find_node+0x91e>
c01082ed:	74 68                	je     c0108357 <find_node+0x91f>
c01082ef:	20 69 64             	and    %ch,0x64(%ecx)
c01082f2:	20 25 64 20 4e 4f    	and    %ah,0x4f4e2064
c01082f8:	54                   	push   %esp
c01082f9:	20 46 4f             	and    %al,0x4f(%esi)
c01082fc:	55                   	push   %ebp
c01082fd:	4e                   	dec    %esi
c01082fe:	44                   	inc    %esp
c01082ff:	21 0a                	and    %ecx,(%edx)
c0108301:	00 00                	add    %al,(%eax)
c0108303:	00 53 69             	add    %dl,0x69(%ebx)
c0108306:	67 6e                	outsb  %ds:(%si),(%dx)
c0108308:	61                   	popa
c0108309:	74 75                	je     c0108380 <find_node+0x948>
c010830b:	72 65                	jb     c0108372 <find_node+0x93a>
c010830d:	20 6e 6f             	and    %ch,0x6f(%esi)
c0108310:	74 20                	je     c0108332 <find_node+0x8fa>
c0108312:	66 6f                	outsw  %ds:(%esi),(%dx)
c0108314:	75 6e                	jne    c0108384 <find_node+0x94c>
c0108316:	64 20 69 6e          	and    %ch,%fs:0x6e(%ecx)
c010831a:	20 41 43             	and    %al,0x43(%ecx)
c010831d:	50                   	push   %eax
c010831e:	49                   	dec    %ecx
c010831f:	20 74 61 62          	and    %dh,0x62(%ecx,%eiz,2)
c0108323:	6c                   	insb   (%dx),%es:(%edi)
c0108324:	65 73 0a             	gs jae c0108331 <find_node+0x8f9>
c0108327:	00 52 53             	add    %dl,0x53(%edx)
c010832a:	44                   	inc    %esp
c010832b:	50                   	push   %eax
c010832c:	20 4e 4f             	and    %cl,0x4f(%esi)
c010832f:	54                   	push   %esp
c0108330:	20 56 41             	and    %dl,0x41(%esi)
c0108333:	4c                   	dec    %esp
c0108334:	49                   	dec    %ecx
c0108335:	44                   	inc    %esp
c0108336:	41                   	inc    %ecx
c0108337:	54                   	push   %esp
c0108338:	45                   	inc    %ebp
c0108339:	44                   	inc    %esp
c010833a:	20 3e                	and    %bh,(%esi)
c010833c:	3e 3c 3c             	ds cmp $0x3c,%al
c010833f:	20 0a                	and    %cl,(%edx)
c0108341:	00 4d 75             	add    %cl,0x75(%ebp)
c0108344:	6c                   	insb   (%dx),%es:(%edi)
c0108345:	74 69                	je     c01083b0 <find_node+0x978>
c0108347:	62 6f 6f             	bound  %ebp,0x6f(%edi)
c010834a:	74 20                	je     c010836c <find_node+0x934>
c010834c:	4d                   	dec    %ebp
c010834d:	4d                   	dec    %ebp
c010834e:	41                   	inc    %ecx
c010834f:	50                   	push   %eax
c0108350:	20 74 61 67          	and    %dh,0x67(%ecx,%eiz,2)
c0108354:	20 66 6f             	and    %ah,0x6f(%esi)
c0108357:	75 6e                	jne    c01083c7 <find_node+0x98f>
c0108359:	64 2e 2e 2e 0a 00    	fs cs cs or %cs:(%eax),%al
c010835f:	00 4c 6f 61          	add    %cl,0x61(%edi,%ebp,2)
c0108363:	64 65 64 20 49 44    	fs gs and %cl,%fs:0x44(%ecx)
c0108369:	54                   	push   %esp
c010836a:	0a 00                	or     (%eax),%al
c010836c:	4b                   	dec    %ebx
c010836d:	65 72 6e             	gs jb  c01083de <find_node+0x9a6>
c0108370:	65 6c                	gs insb (%dx),%es:(%edi)
c0108372:	20 45 53             	and    %al,0x53(%ebp)
c0108375:	50                   	push   %eax
c0108376:	3a 20                	cmp    (%eax),%ah
c0108378:	25 78 0a 00 46       	and    $0x46000a78,%eax
c010837d:	75 6e                	jne    c01083ed <find_node+0x9b5>
c010837f:	63 74 69 6f          	arpl   %esi,0x6f(%ecx,%ebp,2)
c0108383:	6e                   	outsb  %ds:(%esi),(%dx)
c0108384:	20 28                	and    %ch,(%eax)
c0108386:	25 78 29 20 61       	and    $0x61202978,%eax
c010838b:	74 3a                	je     c01083c7 <find_node+0x98f>
c010838d:	20 25 78 0a 00 50    	and    %ah,0x50000a78
c0108393:	72 6f                	jb     c0108404 <find_node+0x9cc>
c0108395:	63 65 73             	arpl   %esp,0x73(%ebp)
c0108398:	73 20                	jae    c01083ba <find_node+0x982>
c010839a:	63 72 65             	arpl   %esi,0x65(%edx)
c010839d:	61                   	popa
c010839e:	74 69                	je     c0108409 <find_node+0x9d1>
c01083a0:	6f                   	outsl  %ds:(%esi),(%dx)
c01083a1:	6e                   	outsb  %ds:(%esi),(%dx)
c01083a2:	0a 00                	or     (%eax),%al
c01083a4:	44                   	inc    %esp
c01083a5:	69 76 69 73 69 6f 6e 	imul   $0x6e6f6973,0x69(%esi),%esi
c01083ac:	20 62 79             	and    %ah,0x79(%edx)
c01083af:	20 7a 65             	and    %bh,0x65(%edx)
c01083b2:	72 6f                	jb     c0108423 <find_node+0x9eb>
c01083b4:	20 69 6e             	and    %ch,0x6e(%ecx)
c01083b7:	20 6b 65             	and    %ch,0x65(%ebx)
c01083ba:	72 6e                	jb     c010842a <find_node+0x9f2>
c01083bc:	65 6c                	gs insb (%dx),%es:(%edi)
c01083be:	20 73 70             	and    %dh,0x70(%ebx)
c01083c1:	61                   	popa
c01083c2:	63 65 21             	arpl   %esp,0x21(%ebp)
c01083c5:	0a 00                	or     (%eax),%al
c01083c7:	00 49 6e             	add    %cl,0x6e(%ecx)
c01083ca:	76 61                	jbe    c010842d <find_node+0x9f5>
c01083cc:	6c                   	insb   (%dx),%es:(%edi)
c01083cd:	69 64 20 6f 70 63 6f 	imul   $0x646f6370,0x6f(%eax,%eiz,1),%esp
c01083d4:	64 
c01083d5:	65 20 69 6e          	and    %ch,%gs:0x6e(%ecx)
c01083d9:	20 6b 65             	and    %ch,0x65(%ebx)
c01083dc:	72 6e                	jb     c010844c <find_node+0xa14>
c01083de:	65 6c                	gs insb (%dx),%es:(%edi)
c01083e0:	20 73 70             	and    %dh,0x70(%ebx)
c01083e3:	61                   	popa
c01083e4:	63 65 21             	arpl   %esp,0x21(%ebp)
c01083e7:	0a 00                	or     (%eax),%al
c01083e9:	45                   	inc    %ebp
c01083ea:	72 72                	jb     c010845e <find_node+0xa26>
c01083ec:	20 63 6f             	and    %ah,0x6f(%ebx)
c01083ef:	64 65 3a 20          	fs cmp %gs:(%eax),%ah
c01083f3:	25 78 20 00 00       	and    $0x2078,%eax
c01083f8:	47                   	inc    %edi
c01083f9:	65 6e                	outsb  %gs:(%esi),(%dx)
c01083fb:	65 72 61             	gs jb  c010845f <find_node+0xa27>
c01083fe:	6c                   	insb   (%dx),%es:(%edi)
c01083ff:	20 50 72             	and    %dl,0x72(%eax)
c0108402:	6f                   	outsl  %ds:(%esi),(%dx)
c0108403:	74 65                	je     c010846a <find_node+0xa32>
c0108405:	63 74 69 6f          	arpl   %esi,0x6f(%ecx,%ebp,2)
c0108409:	6e                   	outsb  %ds:(%esi),(%dx)
c010840a:	21 20                	and    %esp,(%eax)
c010840c:	69 6e 20 6b 65 72 6e 	imul   $0x6e72656b,0x20(%esi),%ebp
c0108413:	65 6c                	gs insb (%dx),%es:(%edi)
c0108415:	20 73 70             	and    %dh,0x70(%ebx)
c0108418:	61                   	popa
c0108419:	63 65 21             	arpl   %esp,0x21(%ebp)
c010841c:	0a 00                	or     (%eax),%al
c010841e:	00 00                	add    %al,(%eax)
c0108420:	59                   	pop    %ecx
c0108421:	6f                   	outsl  %ds:(%esi),(%dx)
c0108422:	75 20                	jne    c0108444 <find_node+0xa0c>
c0108424:	6d                   	insl   (%dx),%es:(%edi)
c0108425:	65 73 73             	gs jae c010849b <find_node+0xa63>
c0108428:	20 77 69             	and    %dh,0x69(%edi)
c010842b:	74 68                	je     c0108495 <find_node+0xa5d>
c010842d:	20 74 68 65          	and    %dh,0x65(%eax,%ebp,2)
c0108431:	20 69 6e             	and    %ch,0x6e(%ecx)
c0108434:	73 74                	jae    c01084aa <find_node+0xa72>
c0108436:	72 75                	jb     c01084ad <find_node+0xa75>
c0108438:	63 74 69 6f          	arpl   %esi,0x6f(%ecx,%ebp,2)
c010843c:	6e                   	outsb  %ds:(%esi),(%dx)
c010843d:	20 70 6f             	and    %dh,0x6f(%eax)
c0108440:	69 6e 74 65 72 20 79 	imul   $0x79207265,0x74(%esi),%ebp
c0108447:	6f                   	outsl  %ds:(%esi),(%dx)
c0108448:	75 20                	jne    c010846a <find_node+0xa32>
c010844a:	4d                   	dec    %ebp
c010844b:	45                   	inc    %ebp
c010844c:	53                   	push   %ebx
c010844d:	53                   	push   %ebx
c010844e:	20 57 49             	and    %dl,0x49(%edi)
c0108451:	54                   	push   %esp
c0108452:	48                   	dec    %eax
c0108453:	20 4d 45             	and    %cl,0x45(%ebp)
c0108456:	21 0a                	and    %ecx,(%edx)
c0108458:	00 00                	add    %al,(%eax)
c010845a:	00 00                	add    %al,(%eax)
c010845c:	4d                   	dec    %ebp
c010845d:	65 6d                	gs insl (%dx),%es:(%edi)
c010845f:	6f                   	outsl  %ds:(%esi),(%dx)
c0108460:	72 79                	jb     c01084db <find_node+0xaa3>
c0108462:	20 66 61             	and    %ah,0x61(%esi)
c0108465:	75 6c                	jne    c01084d3 <find_node+0xa9b>
c0108467:	74 20                	je     c0108489 <find_node+0xa51>
c0108469:	65 6e                	outsb  %gs:(%esi),(%dx)
c010846b:	63 6f 75             	arpl   %ebp,0x75(%edi)
c010846e:	6e                   	outsb  %ds:(%esi),(%dx)
c010846f:	74 65                	je     c01084d6 <find_node+0xa9e>
c0108471:	72 65                	jb     c01084d8 <find_node+0xaa0>
c0108473:	64 21 20             	and    %esp,%fs:(%eax)
c0108476:	25 78 20 61 74       	and    $0x74612078,%eax
c010847b:	20 50 49             	and    %dl,0x49(%eax)
c010847e:	44                   	inc    %esp
c010847f:	2d 3e 25 78 0a       	sub    $0xa78253e,%eax
c0108484:	00 00                	add    %al,(%eax)
c0108486:	00 00                	add    %al,(%eax)
c0108488:	45                   	inc    %ebp
c0108489:	41                   	inc    %ecx
c010848a:	58                   	pop    %eax
c010848b:	3a 20                	cmp    (%eax),%ah
c010848d:	25 78 2c 20 45       	and    $0x45202c78,%eax
c0108492:	42                   	inc    %edx
c0108493:	58                   	pop    %eax
c0108494:	3a 20                	cmp    (%eax),%ah
c0108496:	25 78 2c 20 45       	and    $0x45202c78,%eax
c010849b:	43                   	inc    %ebx
c010849c:	58                   	pop    %eax
c010849d:	3a 20                	cmp    (%eax),%ah
c010849f:	25 78 2c 20 0a       	and    $0xa202c78,%eax
c01084a4:	45                   	inc    %ebp
c01084a5:	44                   	inc    %esp
c01084a6:	58                   	pop    %eax
c01084a7:	3a 20                	cmp    (%eax),%ah
c01084a9:	25 78 2c 20 45       	and    $0x45202c78,%eax
c01084ae:	44                   	inc    %esp
c01084af:	49                   	dec    %ecx
c01084b0:	3a 20                	cmp    (%eax),%ah
c01084b2:	25 78 2c 20 45       	and    $0x45202c78,%eax
c01084b7:	53                   	push   %ebx
c01084b8:	50                   	push   %eax
c01084b9:	3a 20                	cmp    (%eax),%ah
c01084bb:	25 78 2c 20 0a       	and    $0xa202c78,%eax
c01084c0:	43                   	inc    %ebx
c01084c1:	52                   	push   %edx
c01084c2:	33 3a                	xor    (%edx),%edi
c01084c4:	20 25 78 2c 20 43    	and    %ah,0x43202c78
c01084ca:	52                   	push   %edx
c01084cb:	32 3a                	xor    (%edx),%bh
c01084cd:	20 25 78 2c 20 43    	and    %ah,0x43202c78
c01084d3:	52                   	push   %edx
c01084d4:	30 3a                	xor    %bh,(%edx)
c01084d6:	20 25 78 2c 20 0a    	and    %ah,0xa202c78
c01084dc:	45                   	inc    %ebp
c01084dd:	49                   	dec    %ecx
c01084de:	50                   	push   %eax
c01084df:	3a 20                	cmp    (%eax),%ah
c01084e1:	25 78 2c 20 43       	and    $0x43202c78,%eax
c01084e6:	53                   	push   %ebx
c01084e7:	3a 20                	cmp    (%eax),%ah
c01084e9:	25 78 2c 20 45       	and    $0x45202c78,%eax
c01084ee:	46                   	inc    %esi
c01084ef:	4c                   	dec    %esp
c01084f0:	41                   	inc    %ecx
c01084f1:	47                   	inc    %edi
c01084f2:	53                   	push   %ebx
c01084f3:	3a 20                	cmp    (%eax),%ah
c01084f5:	25 78 0a 00 49       	and    $0x49000a78,%eax
c01084fa:	6e                   	outsb  %ds:(%esi),(%dx)
c01084fb:	74 65                	je     c0108562 <find_node+0xb2a>
c01084fd:	72 75                	jb     c0108574 <find_node+0xb3c>
c01084ff:	70 74                	jo     c0108575 <find_node+0xb3d>
c0108501:	20 6f 66             	and    %ch,0x66(%edi)
c0108504:	20 30                	and    %dh,(%eax)
c0108506:	78 32                	js     c010853a <find_node+0xb02>
c0108508:	37                   	aaa
c0108509:	20 64 65 74          	and    %ah,0x74(%ebp,%eiz,2)
c010850d:	65 63 74 65 64       	arpl   %esi,%gs:0x64(%ebp,%eiz,2)
c0108512:	0a 00                	or     (%eax),%al
c0108514:	53                   	push   %ebx
c0108515:	74 61                	je     c0108578 <find_node+0xb40>
c0108517:	63 6b 20             	arpl   %ebp,0x20(%ebx)
c010851a:	61                   	popa
c010851b:	74 20                	je     c010853d <find_node+0xb05>
c010851d:	25 78 2c 20 49       	and    $0x49202c78,%eax
c0108522:	6e                   	outsb  %ds:(%esi),(%dx)
c0108523:	74 65                	je     c010858a <find_node+0xb52>
c0108525:	72 72                	jb     c0108599 <find_node+0xb61>
c0108527:	75 70                	jne    c0108599 <find_node+0xb61>
c0108529:	74 20                	je     c010854b <find_node+0xb13>
c010852b:	6f                   	outsl  %ds:(%esi),(%dx)
c010852c:	63 63 75             	arpl   %esp,0x75(%ebx)
c010852f:	72 65                	jb     c0108596 <find_node+0xb5e>
c0108531:	64 3a 20             	cmp    %fs:(%eax),%ah
c0108534:	25 64 00 0a 00       	and    $0xa0064,%eax
c0108539:	00 00                	add    %al,(%eax)
c010853b:	00 a9 27 10 c0 de    	add    %ch,-0x213fefd9(%ecx)
c0108541:	28 10                	sub    %dl,(%eax)
c0108543:	c0 de 28             	rcr    $0x28,%dh
c0108546:	10 c0                	adc    %al,%al
c0108548:	de 28                	fisubrs (%eax)
c010854a:	10 c0                	adc    %al,%al
c010854c:	de 28                	fisubrs (%eax)
c010854e:	10 c0                	adc    %al,%al
c0108550:	de 28                	fisubrs (%eax)
c0108552:	10 c0                	adc    %al,%al
c0108554:	be 27 10 c0 de       	mov    $0xdec01027,%esi
c0108559:	28 10                	sub    %dl,(%eax)
c010855b:	c0 de 28             	rcr    $0x28,%dh
c010855e:	10 c0                	adc    %al,%al
c0108560:	de 28                	fisubrs (%eax)
c0108562:	10 c0                	adc    %al,%al
c0108564:	de 28                	fisubrs (%eax)
c0108566:	10 c0                	adc    %al,%al
c0108568:	de 28                	fisubrs (%eax)
c010856a:	10 c0                	adc    %al,%al
c010856c:	de 28                	fisubrs (%eax)
c010856e:	10 c0                	adc    %al,%al
c0108570:	d3 27                	shll   %cl,(%edi)
c0108572:	10 c0                	adc    %al,%al
c0108574:	1b 28                	sbb    (%eax),%ebp
c0108576:	10 c0                	adc    %al,%al
c0108578:	de 28                	fisubrs (%eax)
c010857a:	10 c0                	adc    %al,%al
c010857c:	de 28                	fisubrs (%eax)
c010857e:	10 c0                	adc    %al,%al
c0108580:	de 28                	fisubrs (%eax)
c0108582:	10 c0                	adc    %al,%al
c0108584:	de 28                	fisubrs (%eax)
c0108586:	10 c0                	adc    %al,%al
c0108588:	de 28                	fisubrs (%eax)
c010858a:	10 c0                	adc    %al,%al
c010858c:	de 28                	fisubrs (%eax)
c010858e:	10 c0                	adc    %al,%al
c0108590:	de 28                	fisubrs (%eax)
c0108592:	10 c0                	adc    %al,%al
c0108594:	de 28                	fisubrs (%eax)
c0108596:	10 c0                	adc    %al,%al
c0108598:	de 28                	fisubrs (%eax)
c010859a:	10 c0                	adc    %al,%al
c010859c:	de 28                	fisubrs (%eax)
c010859e:	10 c0                	adc    %al,%al
c01085a0:	de 28                	fisubrs (%eax)
c01085a2:	10 c0                	adc    %al,%al
c01085a4:	ff 27                	jmp    *(%edi)
c01085a6:	10 c0                	adc    %al,%al
c01085a8:	c9                   	leave
c01085a9:	28 10                	sub    %dl,(%eax)
c01085ab:	c0 54 45 53 54       	rclb   $0x54,0x53(%ebp,%eax,2)
c01085b0:	20 25 78 0a 00 00    	and    %ah,0xa78
c01085b6:	00 00                	add    %al,(%eax)
c01085b8:	53                   	push   %ebx
c01085b9:	69 6c 6c 79 20 69 6e 	imul   $0x746e6920,0x79(%esp,%ebp,2),%ebp
c01085c0:	74 
c01085c1:	65 72 72             	gs jb  c0108636 <find_node+0xbfe>
c01085c4:	75 70                	jne    c0108636 <find_node+0xbfe>
c01085c6:	74 20                	je     c01085e8 <find_node+0xbb0>
c01085c8:	68 61 70 70 65       	push   $0x65707061
c01085cd:	6e                   	outsb  %ds:(%esi),(%dx)
c01085ce:	65 64 20 49 20       	gs and %cl,%fs:0x20(%ecx)
c01085d3:	67 75 65             	addr16 jne c010863b <find_node+0xc03>
c01085d6:	73 73                	jae    c010864b <find_node+0xc13>
c01085d8:	21 0a                	and    %ecx,(%edx)
c01085da:	00 00                	add    %al,(%eax)
c01085dc:	50                   	push   %eax
c01085dd:	48                   	dec    %eax
c01085de:	59                   	pop    %ecx
c01085df:	53                   	push   %ebx
c01085e0:	49                   	dec    %ecx
c01085e1:	43                   	inc    %ebx
c01085e2:	41                   	inc    %ecx
c01085e3:	4c                   	dec    %esp
c01085e4:	20 41 44             	and    %al,0x44(%ecx)
c01085e7:	44                   	inc    %esp
c01085e8:	52                   	push   %edx
c01085e9:	45                   	inc    %ebp
c01085ea:	53                   	push   %ebx
c01085eb:	53                   	push   %ebx
c01085ec:	20 4e 4f             	and    %cl,0x4f(%esi)
c01085ef:	54                   	push   %esp
c01085f0:	20 50 41             	and    %dl,0x41(%eax)
c01085f3:	47                   	inc    %edi
c01085f4:	45                   	inc    %ebp
c01085f5:	20 41 4c             	and    %al,0x4c(%ecx)
c01085f8:	49                   	dec    %ecx
c01085f9:	47                   	inc    %edi
c01085fa:	4e                   	dec    %esi
c01085fb:	45                   	inc    %ebp
c01085fc:	44                   	inc    %esp
c01085fd:	0a 00                	or     (%eax),%al
c01085ff:	00 50 48             	add    %dl,0x48(%eax)
c0108602:	59                   	pop    %ecx
c0108603:	53                   	push   %ebx
c0108604:	49                   	dec    %ecx
c0108605:	43                   	inc    %ebx
c0108606:	41                   	inc    %ecx
c0108607:	4c                   	dec    %esp
c0108608:	20 41 44             	and    %al,0x44(%ecx)
c010860b:	44                   	inc    %esp
c010860c:	52                   	push   %edx
c010860d:	45                   	inc    %ebp
c010860e:	53                   	push   %ebx
c010860f:	53                   	push   %ebx
c0108610:	20 25 78 20 4e 4f    	and    %ah,0x4f4e2078
c0108616:	54                   	push   %esp
c0108617:	20 50 41             	and    %dl,0x41(%eax)
c010861a:	47                   	inc    %edi
c010861b:	45                   	inc    %ebp
c010861c:	20 41 4c             	and    %al,0x4c(%ecx)
c010861f:	49                   	dec    %ecx
c0108620:	47                   	inc    %edi
c0108621:	4e                   	dec    %esi
c0108622:	45                   	inc    %ebp
c0108623:	44                   	inc    %esp
c0108624:	0a 00                	or     (%eax),%al
c0108626:	00 00                	add    %al,(%eax)
c0108628:	50                   	push   %eax
c0108629:	68 79 73 69 63       	push   $0x63697379
c010862e:	61                   	popa
c010862f:	6c                   	insb   (%dx),%es:(%edi)
c0108630:	20 61 64             	and    %ah,0x64(%ecx)
c0108633:	64 72 65             	fs jb  c010869b <find_node+0xc63>
c0108636:	73 73                	jae    c01086ab <find_node+0xc73>
c0108638:	20 70 61             	and    %dh,0x61(%eax)
c010863b:	73 74                	jae    c01086b1 <find_node+0xc79>
c010863d:	20 70 6f             	and    %dh,0x6f(%eax)
c0108640:	73 73                	jae    c01086b5 <find_node+0xc7d>
c0108642:	69 62 6c 65 20 76 61 	imul   $0x61762065,0x6c(%edx),%esp
c0108649:	6c                   	insb   (%dx),%es:(%edi)
c010864a:	75 65                	jne    c01086b1 <find_node+0xc79>
c010864c:	0a 00                	or     (%eax),%al
c010864e:	00 00                	add    %al,(%eax)
c0108650:	50                   	push   %eax
c0108651:	68 79 73 69 63       	push   $0x63697379
c0108656:	61                   	popa
c0108657:	6c                   	insb   (%dx),%es:(%edi)
c0108658:	20 61 64             	and    %ah,0x64(%ecx)
c010865b:	64 72 65             	fs jb  c01086c3 <find_node+0xc8b>
c010865e:	73 73                	jae    c01086d3 <find_node+0xc9b>
c0108660:	20 6e 6f             	and    %ch,0x6f(%esi)
c0108663:	74 20                	je     c0108685 <find_node+0xc4d>
c0108665:	70 72                	jo     c01086d9 <find_node+0xca1>
c0108667:	6f                   	outsl  %ds:(%esi),(%dx)
c0108668:	70 65                	jo     c01086cf <find_node+0xc97>
c010866a:	72 6c                	jb     c01086d8 <find_node+0xca0>
c010866c:	79 20                	jns    c010868e <find_node+0xc56>
c010866e:	61                   	popa
c010866f:	6c                   	insb   (%dx),%es:(%edi)
c0108670:	69 67 6e 65 64 0a 00 	imul   $0xa6465,0x6e(%edi),%esp
c0108677:	43                   	inc    %ebx
c0108678:	52                   	push   %edx
c0108679:	45                   	inc    %ebp
c010867a:	41                   	inc    %ecx
c010867b:	54                   	push   %esp
c010867c:	49                   	dec    %ecx
c010867d:	4e                   	dec    %esi
c010867e:	47                   	inc    %edi
c010867f:	20 4e 45             	and    %cl,0x45(%esi)
c0108682:	57                   	push   %edi
c0108683:	20 50 54             	and    %dl,0x54(%eax)
c0108686:	0a 00                	or     (%eax),%al
c0108688:	4e                   	dec    %esi
c0108689:	65 77 20             	gs ja  c01086ac <find_node+0xc74>
c010868c:	50                   	push   %eax
c010868d:	54                   	push   %esp
c010868e:	20 63 72             	and    %ah,0x72(%ebx)
c0108691:	65 61                	gs popa
c0108693:	74 65                	je     c01086fa <find_node+0xcc2>
c0108695:	64 20 61 74          	and    %ah,%fs:0x74(%ecx)
c0108699:	20 65 6e             	and    %ah,0x6e(%ebp)
c010869c:	74 72                	je     c0108710 <find_node+0xcd8>
c010869e:	79 20                	jns    c01086c0 <find_node+0xc88>
c01086a0:	25 64 0a 00 4e       	and    $0x4e000a64,%eax
c01086a5:	65 77 20             	gs ja  c01086c8 <find_node+0xc90>
c01086a8:	61                   	popa
c01086a9:	6e                   	outsb  %ds:(%esi),(%dx)
c01086aa:	64 20 69 6d          	and    %ch,%fs:0x6d(%ecx)
c01086ae:	70 72                	jo     c0108722 <find_node+0xcea>
c01086b0:	6f                   	outsl  %ds:(%esi),(%dx)
c01086b1:	76 65                	jbe    c0108718 <find_node+0xce0>
c01086b3:	64 20 50 41          	and    %dl,%fs:0x41(%eax)
c01086b7:	45                   	inc    %ebp
c01086b8:	20 6e 65             	and    %ch,0x65(%esi)
c01086bb:	77 20                	ja     c01086dd <find_node+0xca5>
c01086bd:	50                   	push   %eax
c01086be:	54                   	push   %esp
c01086bf:	0a 00                	or     (%eax),%al
c01086c1:	4e                   	dec    %esi
c01086c2:	65 77 20             	gs ja  c01086e5 <find_node+0xcad>
c01086c5:	70 64                	jo     c010872b <find_node+0xcf3>
c01086c7:	20 61 74             	and    %ah,0x74(%ecx)
c01086ca:	2e 2e 2e 20 25 78 0a 	cs cs and %ah,%cs:0x43000a78
c01086d1:	00 43 
c01086d3:	72 65                	jb     c010873a <find_node+0xd02>
c01086d5:	61                   	popa
c01086d6:	74 65                	je     c010873d <find_node+0xd05>
c01086d8:	64 2e 2e 2e 0a 00    	fs cs cs or %cs:(%eax),%al
c01086de:	50                   	push   %eax
c01086df:	41                   	inc    %ecx
c01086e0:	47                   	inc    %edi
c01086e1:	45                   	inc    %ebp
c01086e2:	53                   	push   %ebx
c01086e3:	3a 20                	cmp    (%eax),%ah
c01086e5:	25 64 0a 00 34       	and    $0x34000a64,%eax
c01086ea:	30 34 3a             	xor    %dh,(%edx,%edi,1)
c01086ed:	20 50 61             	and    %dl,0x61(%eax)
c01086f0:	67 65 20 6e 6f       	and    %ch,%gs:0x6f(%bp)
c01086f5:	74 20                	je     c0108717 <find_node+0xcdf>
c01086f7:	66 6f                	outsw  %ds:(%esi),(%dx)
c01086f9:	75 6e                	jne    c0108769 <find_node+0xd31>
c01086fb:	64 0a 00             	or     %fs:(%eax),%al
c01086fe:	57                   	push   %edi
c01086ff:	72 69                	jb     c010876a <find_node+0xd32>
c0108701:	74 65                	je     c0108768 <find_node+0xd30>
c0108703:	20 61 63             	and    %ah,0x63(%ecx)
c0108706:	63 65 73             	arpl   %esp,0x73(%ebp)
c0108709:	73 20                	jae    c010872b <find_node+0xcf3>
c010870b:	61                   	popa
c010870c:	74 20                	je     c010872e <find_node+0xcf6>
c010870e:	25 78 0a 00 00       	and    $0xa78,%eax
c0108713:	00 43 50             	add    %al,0x50(%ebx)
c0108716:	4c                   	dec    %esp
c0108717:	20 3d 20 33 20 65    	and    %bh,0x65203320
c010871d:	72 72                	jb     c0108791 <find_node+0xd59>
c010871f:	6f                   	outsl  %ds:(%esi),(%dx)
c0108720:	72 2c                	jb     c010874e <find_node+0xd16>
c0108722:	20 63 6f             	and    %ah,0x6f(%ebx)
c0108725:	75 6c                	jne    c0108793 <find_node+0xd5b>
c0108727:	64 20 62 65          	and    %ah,%fs:0x65(%edx)
c010872b:	20 70 72             	and    %dh,0x72(%eax)
c010872e:	69 76 69 6c 65 67 65 	imul   $0x6567656c,0x69(%esi),%esi
c0108735:	0a 00                	or     (%eax),%al
c0108737:	52                   	push   %edx
c0108738:	65 73 65             	gs jae c01087a0 <find_node+0xd68>
c010873b:	72 76                	jb     c01087b3 <find_node+0xd7b>
c010873d:	65 64 20 57 72       	gs and %dl,%fs:0x72(%edi)
c0108742:	69 74 65 0a 00 49 6e 	imul   $0x736e4900,0xa(%ebp,%eiz,2),%esi
c0108749:	73 
c010874a:	74 72                	je     c01087be <find_node+0xd86>
c010874c:	75 63                	jne    c01087b1 <find_node+0xd79>
c010874e:	74 69                	je     c01087b9 <find_node+0xd81>
c0108750:	6f                   	outsl  %ds:(%esi),(%dx)
c0108751:	6e                   	outsb  %ds:(%esi),(%dx)
c0108752:	20 46 65             	and    %al,0x65(%esi)
c0108755:	74 63                	je     c01087ba <find_node+0xd82>
c0108757:	68 0a 00 50 72       	push   $0x7250000a
c010875c:	6f                   	outsl  %ds:(%esi),(%dx)
c010875d:	74 65                	je     c01087c4 <find_node+0xd8c>
c010875f:	63 74 69 6f          	arpl   %esi,0x6f(%ecx,%ebp,2)
c0108763:	6e                   	outsb  %ds:(%esi),(%dx)
c0108764:	20 46 61             	and    %al,0x61(%esi)
c0108767:	75 6c                	jne    c01087d5 <find_node+0xd9d>
c0108769:	74 0a                	je     c0108775 <find_node+0xd3d>
c010876b:	00 53 68             	add    %dl,0x68(%ebx)
c010876e:	61                   	popa
c010876f:	64 6f                	outsl  %fs:(%esi),(%dx)
c0108771:	77 20                	ja     c0108793 <find_node+0xd5b>
c0108773:	53                   	push   %ebx
c0108774:	74 61                	je     c01087d7 <find_node+0xd9f>
c0108776:	63 6b 0a             	arpl   %ebp,0xa(%ebx)
c0108779:	00 4e 75             	add    %cl,0x75(%esi)
c010877c:	6c                   	insb   (%dx),%es:(%edi)
c010877d:	6c                   	insb   (%dx),%es:(%edi)
c010877e:	20 70 6f             	and    %dh,0x6f(%eax)
c0108781:	69 6e 74 65 72 20 61 	imul   $0x61207265,0x74(%esi),%ebp
c0108788:	63 63 65             	arpl   %esp,0x65(%ebx)
c010878b:	73 73                	jae    c0108800 <find_node+0xdc8>
c010878d:	3f                   	aas
c010878e:	0a 00                	or     (%eax),%al
c0108790:	50                   	push   %eax
c0108791:	61                   	popa
c0108792:	67 65 20 66 61       	and    %ah,%gs:0x61(%bp)
c0108797:	75 6c                	jne    c0108805 <find_node+0xdcd>
c0108799:	74 20                	je     c01087bb <find_node+0xd83>
c010879b:	61                   	popa
c010879c:	74 20                	je     c01087be <find_node+0xd86>
c010879e:	25 78 0a 00 4d       	and    $0x4d000a78,%eax
c01087a3:	45                   	inc    %ebp
c01087a4:	4d                   	dec    %ebp
c01087a5:	4f                   	dec    %edi
c01087a6:	52                   	push   %edx
c01087a7:	59                   	pop    %ecx
c01087a8:	20 50 41             	and    %dl,0x41(%eax)
c01087ab:	47                   	inc    %edi
c01087ac:	45                   	inc    %ebp
c01087ad:	20 46 41             	and    %al,0x41(%esi)
c01087b0:	55                   	push   %ebp
c01087b1:	4c                   	dec    %esp
c01087b2:	54                   	push   %esp
c01087b3:	0a 00                	or     (%eax),%al
c01087b5:	50                   	push   %eax
c01087b6:	41                   	inc    %ecx
c01087b7:	45                   	inc    %ebp
c01087b8:	20 69 73             	and    %ch,0x73(%ecx)
c01087bb:	20 61 76             	and    %ah,0x76(%ecx)
c01087be:	61                   	popa
c01087bf:	69 6c 61 62 6c 65 21 	imul   $0xa21656c,0x62(%ecx,%eiz,2),%ebp
c01087c6:	0a 
c01087c7:	00 4e 6f             	add    %cl,0x6f(%esi)
c01087ca:	20 50 41             	and    %dl,0x41(%eax)
c01087cd:	45                   	inc    %ebp
c01087ce:	20 73 75             	and    %dh,0x75(%ebx)
c01087d1:	70 70                	jo     c0108843 <find_node+0xe0b>
c01087d3:	6f                   	outsl  %ds:(%esi),(%dx)
c01087d4:	72 74                	jb     c010884a <find_node+0xe12>
c01087d6:	65 64 2e 2e 2e 0a 00 	gs fs cs cs or %cs:(%eax),%al
c01087dd:	4d                   	dec    %ebp
c01087de:	61                   	popa
c01087df:	78 20                	js     c0108801 <find_node+0xdc9>
c01087e1:	70 68                	jo     c010884b <find_node+0xe13>
c01087e3:	79 73                	jns    c0108858 <find_node+0xe20>
c01087e5:	20 62 69             	and    %ah,0x69(%edx)
c01087e8:	74 20                	je     c010880a <find_node+0xdd2>
c01087ea:	65 78 74             	gs js  c0108861 <find_node+0xe29>
c01087ed:	65 6e                	outsb  %gs:(%esi),(%dx)
c01087ef:	73 69                	jae    c010885a <find_node+0xe22>
c01087f1:	6f                   	outsl  %ds:(%esi),(%dx)
c01087f2:	6e                   	outsb  %ds:(%esi),(%dx)
c01087f3:	73 3a                	jae    c010882f <find_node+0xdf7>
c01087f5:	20 25 64 0a 00 50    	and    %ah,0x50000a64
c01087fb:	47                   	inc    %edi
c01087fc:	52                   	push   %edx
c01087fd:	4f                   	dec    %edi
c01087fe:	55                   	push   %ebp
c01087ff:	4e                   	dec    %esi
c0108800:	44                   	inc    %esp
c0108801:	20 55 50             	and    %dl,0x50(%ebp)
c0108804:	20 65 69             	and    %ah,0x69(%ebp)
c0108807:	70 20                	jo     c0108829 <find_node+0xdf1>
c0108809:	25 78 0a 00 50       	and    $0x50000a78,%eax
c010880e:	68 79 73 69 63       	push   $0x63697379
c0108813:	61                   	popa
c0108814:	6c                   	insb   (%dx),%es:(%edi)
c0108815:	20 70 64             	and    %dh,0x64(%eax)
c0108818:	70 74                	jo     c010888e <find_node+0xe56>
c010881a:	20 70 61             	and    %dh,0x61(%eax)
c010881d:	67 65 20 69 73       	and    %ch,%gs:0x73(%bx,%di)
c0108822:	20 61 74             	and    %ah,0x74(%ecx)
c0108825:	20 25 78 0a 00 45    	and    %ah,0x45000a78
c010882b:	49                   	dec    %ecx
c010882c:	50                   	push   %eax
c010882d:	20 41 54             	and    %al,0x54(%ecx)
c0108830:	20 25 78 0a 00 50    	and    %ah,0x50000a78
c0108836:	44                   	inc    %esp
c0108837:	50                   	push   %eax
c0108838:	54                   	push   %esp
c0108839:	20 4c 4f 43          	and    %cl,0x43(%edi,%ecx,2)
c010883d:	41                   	inc    %ecx
c010883e:	54                   	push   %esp
c010883f:	45                   	inc    %ebp
c0108840:	44                   	inc    %esp
c0108841:	20 41 54             	and    %al,0x54(%ecx)
c0108844:	20 25 78 0a 00 74    	and    %ah,0x74000a78
c010884a:	61                   	popa
c010884b:	67 20 73 69          	and    %dh,0x69(%bp,%di)
c010884f:	7a 65                	jp     c01088b6 <find_node+0xe7e>
c0108851:	20 6c 6f 63          	and    %ch,0x63(%edi,%ebp,2)
c0108855:	61                   	popa
c0108856:	74 69                	je     c01088c1 <find_node+0xe89>
c0108858:	6f                   	outsl  %ds:(%esi),(%dx)
c0108859:	6e                   	outsb  %ds:(%esi),(%dx)
c010885a:	20 61 74             	and    %ah,0x74(%ecx)
c010885d:	20 25 78 0a 00 00    	and    %ah,0xa78
c0108863:	00 30                	add    %dh,(%eax)
c0108865:	78 30                	js     c0108897 <find_node+0xe5f>
c0108867:	00 55 4e             	add    %dl,0x4e(%ebp)
c010886a:	4b                   	dec    %ebx
c010886b:	4e                   	dec    %esi
c010886c:	4f                   	dec    %edi
c010886d:	57                   	push   %edi
c010886e:	4e                   	dec    %esi
c010886f:	20 4f 50             	and    %cl,0x50(%edi)
c0108872:	54                   	push   %esp
c0108873:	49                   	dec    %ecx
c0108874:	4f                   	dec    %edi
c0108875:	4e                   	dec    %esi
c0108876:	20 25 00 21 0a 00    	and    %ah,0xa2100
c010887c:	57                   	push   %edi
c010887d:	3b 10                	cmp    (%eax),%edx
c010887f:	c0 22 3b             	shlb   $0x3b,(%edx)
c0108882:	10 c0                	adc    %al,%al
c0108884:	7c 3b                	jl     c01088c1 <find_node+0xe89>
c0108886:	10 c0                	adc    %al,%al
c0108888:	7c 3b                	jl     c01088c5 <find_node+0xe8d>
c010888a:	10 c0                	adc    %al,%al
c010888c:	7c 3b                	jl     c01088c9 <find_node+0xe91>
c010888e:	10 c0                	adc    %al,%al
c0108890:	7c 3b                	jl     c01088cd <find_node+0xe95>
c0108892:	10 c0                	adc    %al,%al
c0108894:	7c 3b                	jl     c01088d1 <find_node+0xe99>
c0108896:	10 c0                	adc    %al,%al
c0108898:	7c 3b                	jl     c01088d5 <find_node+0xe9d>
c010889a:	10 c0                	adc    %al,%al
c010889c:	7c 3b                	jl     c01088d9 <find_node+0xea1>
c010889e:	10 c0                	adc    %al,%al
c01088a0:	c1 3a 10             	sarl   $0x10,(%edx)
c01088a3:	c0 7c 3b 10 c0       	sarb   $0xc0,0x10(%ebx,%edi,1)
c01088a8:	7c 3b                	jl     c01088e5 <find_node+0xead>
c01088aa:	10 c0                	adc    %al,%al
c01088ac:	7c 3b                	jl     c01088e9 <find_node+0xeb1>
c01088ae:	10 c0                	adc    %al,%al
c01088b0:	7c 3b                	jl     c01088ed <find_node+0xeb5>
c01088b2:	10 c0                	adc    %al,%al
c01088b4:	7c 3b                	jl     c01088f1 <find_node+0xeb9>
c01088b6:	10 c0                	adc    %al,%al
c01088b8:	7c 3b                	jl     c01088f5 <find_node+0xebd>
c01088ba:	10 c0                	adc    %al,%al
c01088bc:	3e 3b 10             	cmp    %ds:(%eax),%edx
c01088bf:	c0 19 3b             	rcrb   $0x3b,(%ecx)
c01088c2:	10 c0                	adc    %al,%al
c01088c4:	7c 3b                	jl     c0108901 <find_node+0xec9>
c01088c6:	10 c0                	adc    %al,%al
c01088c8:	7c 3b                	jl     c0108905 <find_node+0xecd>
c01088ca:	10 c0                	adc    %al,%al
c01088cc:	7c 3b                	jl     c0108909 <find_node+0xed1>
c01088ce:	10 c0                	adc    %al,%al
c01088d0:	de 3a                	fidivrs (%edx)
c01088d2:	10 c0                	adc    %al,%al
c01088d4:	20 3c 3c             	and    %bh,(%esp,%edi,1)
c01088d7:	20 4b 45             	and    %cl,0x45(%ebx)
c01088da:	52                   	push   %edx
c01088db:	4e                   	dec    %esi
c01088dc:	45                   	inc    %ebp
c01088dd:	4c                   	dec    %esp
c01088de:	20 50 41             	and    %dl,0x41(%eax)
c01088e1:	4e                   	dec    %esi
c01088e2:	49                   	dec    %ecx
c01088e3:	43                   	inc    %ebx
c01088e4:	20 3e                	and    %bh,(%esi)
c01088e6:	3e 20 52 65          	and    %dl,%ds:0x65(%edx)
c01088ea:	61                   	popa
c01088eb:	73 6f                	jae    c010895c <find_node+0xf24>
c01088ed:	6e                   	outsb  %ds:(%esi),(%dx)
c01088ee:	3a 20                	cmp    (%eax),%ah
c01088f0:	25 73 0a 00 50       	and    $0x50000a73,%eax
c01088f5:	72 69                	jb     c0108960 <find_node+0xf28>
c01088f7:	6e                   	outsb  %ds:(%esi),(%dx)
c01088f8:	74 66                	je     c0108960 <find_node+0xf28>
c01088fa:	20 6c 6f 63          	and    %ch,0x63(%edi,%ebp,2)
c01088fe:	61                   	popa
c01088ff:	74 65                	je     c0108966 <find_node+0xf2e>
c0108901:	64 20 61 74          	and    %ah,%fs:0x74(%ecx)
c0108905:	20 25 78 0a 00 54    	and    %ah,0x54000a78
c010890b:	65 73 74             	gs jae c0108982 <find_node+0xf4a>
c010890e:	20 66 75             	and    %ah,0x75(%esi)
c0108911:	6e                   	outsb  %ds:(%esi),(%dx)
c0108912:	63 20                	arpl   %esp,(%eax)
c0108914:	72 61                	jb     c0108977 <find_node+0xf3f>
c0108916:	6e                   	outsb  %ds:(%esi),(%dx)
c0108917:	20 62 72             	and    %ah,0x72(%edx)
c010891a:	61                   	popa
c010891b:	68 0a 00 45 52       	push   $0x5245000a
c0108920:	52                   	push   %edx
c0108921:	4f                   	dec    %edi
c0108922:	52                   	push   %edx
c0108923:	0a 00                	or     (%eax),%al
c0108925:	50                   	push   %eax
c0108926:	53                   	push   %ebx
c0108927:	46                   	inc    %esi
c0108928:	20 53 54             	and    %dl,0x54(%ebx)
c010892b:	41                   	inc    %ecx
c010892c:	52                   	push   %edx
c010892d:	54                   	push   %esp
c010892e:	3a 20                	cmp    (%eax),%ah
c0108930:	25 78 0a 00 4b       	and    $0x4b000a78,%eax
c0108935:	45                   	inc    %ebp
c0108936:	52                   	push   %edx
c0108937:	4e                   	dec    %esi
c0108938:	45                   	inc    %ebp
c0108939:	4c                   	dec    %esp
c010893a:	20 53 54             	and    %dl,0x54(%ebx)
c010893d:	41                   	inc    %ecx
c010893e:	52                   	push   %edx
c010893f:	54                   	push   %esp
c0108940:	49                   	dec    %ecx
c0108941:	4e                   	dec    %esi
c0108942:	47                   	inc    %edi
c0108943:	20 4c 4f 43          	and    %cl,0x43(%edi,%ecx,2)
c0108947:	3a 20                	cmp    (%eax),%ah
c0108949:	25 78 20 4b 45       	and    $0x454b2078,%eax
c010894e:	52                   	push   %edx
c010894f:	4e                   	dec    %esi
c0108950:	45                   	inc    %ebp
c0108951:	4c                   	dec    %esp
c0108952:	20 45 4e             	and    %al,0x4e(%ebp)
c0108955:	44                   	inc    %esp
c0108956:	49                   	dec    %ecx
c0108957:	4e                   	dec    %esi
c0108958:	47                   	inc    %edi
c0108959:	20 4c 4f 43          	and    %cl,0x43(%edi,%ecx,2)
c010895d:	3a 20                	cmp    (%eax),%ah
c010895f:	25 78 20 53 49       	and    $0x49532078,%eax
c0108964:	5a                   	pop    %edx
c0108965:	45                   	inc    %ebp
c0108966:	3a 20                	cmp    (%eax),%ah
c0108968:	25 78 0a 00 57       	and    $0x57000a78,%eax
c010896d:	65 6c                	gs insb (%dx),%es:(%edi)
c010896f:	63 6f 6d             	arpl   %ebp,0x6d(%edi)
c0108972:	65 20 74 6f 20       	and    %dh,%gs:0x20(%edi,%ebp,2)
c0108977:	57                   	push   %edi
c0108978:	6f                   	outsl  %ds:(%esi),(%dx)
c0108979:	72 64                	jb     c01089df <find_node+0xfa7>
c010897b:	4f                   	dec    %edi
c010897c:	53                   	push   %ebx
c010897d:	2e 20 48 6f          	and    %cl,%cs:0x6f(%eax)
c0108981:	6d                   	insl   (%dx),%es:(%edi)
c0108982:	65 20 6f 66          	and    %ch,%gs:0x66(%edi)
c0108986:	20 74 68 65          	and    %dh,0x65(%eax,%ebp,2)
c010898a:	20 4d 45             	and    %cl,0x45(%ebp)
c010898d:	54                   	push   %esp
c010898e:	53                   	push   %ebx
c010898f:	21 0a                	and    %ecx,(%edx)
c0108991:	00 00                	add    %al,(%eax)
c0108993:	00 46 75             	add    %al,0x75(%esi)
c0108996:	63 6b 20             	arpl   %ebp,0x20(%ebx)
c0108999:	74 68                	je     c0108a03 <find_node+0xfcb>
c010899b:	65 20 79 61          	and    %bh,%gs:0x61(%ecx)
c010899f:	6e                   	outsb  %ds:(%esi),(%dx)
c01089a0:	6b 65 65 73          	imul   $0x73,0x65(%ebp),%esp
c01089a4:	2e 2e 2e 20 25 74 33 	cs cs and %ah,%cs:0x4d303374
c01089ab:	30 4d 
c01089ad:	61                   	popa
c01089ae:	79 20                	jns    c01089d0 <find_node+0xf98>
c01089b0:	74 68                	je     c0108a1a <find_node+0xfe2>
c01089b2:	65 20 64 6f 64       	and    %ah,%gs:0x64(%edi,%ebp,2)
c01089b7:	67 65 72 73          	addr16 gs jb c0108a2e <find_node+0xff6>
c01089bb:	20 77 69             	and    %dh,0x69(%edi)
c01089be:	6e                   	outsb  %ds:(%esi),(%dx)
c01089bf:	21 25 74 31 30 0a    	and    %esp,0xa303174
c01089c5:	00 00                	add    %al,(%eax)
c01089c7:	00 42 61             	add    %al,0x61(%edx)
c01089ca:	73 69                	jae    c0108a35 <find_node+0xffd>
c01089cc:	63 20                	arpl   %esp,(%eax)
c01089ce:	6b 65 72 6e          	imul   $0x6e,0x72(%ebp),%esp
c01089d2:	65 6c                	gs insb (%dx),%es:(%edi)
c01089d4:	20 66 75             	and    %ah,0x75(%esi)
c01089d7:	6e                   	outsb  %ds:(%esi),(%dx)
c01089d8:	63 74 69 6f          	arpl   %esi,0x6f(%ecx,%ebp,2)
c01089dc:	6e                   	outsb  %ds:(%esi),(%dx)
c01089dd:	20 25 74 33 30 4f    	and    %ah,0x4f303374
c01089e3:	4b                   	dec    %ebx
c01089e4:	21 25 74 31 30 0a    	and    %esp,0xa303174
c01089ea:	00 53 74             	add    %dl,0x74(%ebx)
c01089ed:	61                   	popa
c01089ee:	72 74                	jb     c0108a64 <find_node+0x102c>
c01089f0:	69 6e 67 20 74 65 72 	imul   $0x72657420,0x67(%esi),%ebp
c01089f7:	6d                   	insl   (%dx),%es:(%edi)
c01089f8:	69 6e 61 6c 2e 2e 2e 	imul   $0x2e2e2e6c,0x61(%esi),%ebp
c01089ff:	0a 00                	or     (%eax),%al
c0108a01:	0a 50 52             	or     0x52(%eax),%dl
c0108a04:	4f                   	dec    %edi
c0108a05:	47                   	inc    %edi
c0108a06:	52                   	push   %edx
c0108a07:	41                   	inc    %ecx
c0108a08:	4d                   	dec    %ebp
c0108a09:	20 54 4f 20          	and    %dl,0x20(%edi,%ecx,2)
c0108a0d:	48                   	dec    %eax
c0108a0e:	41                   	inc    %ecx
c0108a0f:	4c                   	dec    %esp
c0108a10:	54                   	push   %esp
c0108a11:	21 20                	and    %esp,(%eax)
c0108a13:	0a 00                	or     (%eax),%al
c0108a15:	00 00                	add    %al,(%eax)
c0108a17:	00 48 65             	add    %cl,0x65(%eax)
c0108a1a:	61                   	popa
c0108a1b:	70 20                	jo     c0108a3d <find_node+0x1005>
c0108a1d:	69 6e 69 74 69 61 6c 	imul   $0x6c616974,0x69(%esi),%ebp
c0108a24:	69 7a 65 64 0a 00 53 	imul   $0x53000a64,0x65(%edx),%edi
c0108a2b:	69 7a 65 20 6f 66 20 	imul   $0x20666f20,0x65(%edx),%edi
c0108a32:	6d                   	insl   (%dx),%es:(%edi)
c0108a33:	65 6d                	gs insl (%dx),%es:(%edi)
c0108a35:	6f                   	outsl  %ds:(%esi),(%dx)
c0108a36:	72 79                	jb     c0108ab1 <find_node+0x1079>
c0108a38:	20 61 6c             	and    %ah,0x6c(%ecx)
c0108a3b:	6c                   	insb   (%dx),%es:(%edi)
c0108a3c:	6f                   	outsl  %ds:(%esi),(%dx)
c0108a3d:	63 65 64             	arpl   %esp,0x64(%ebp)
c0108a40:	20 25 78 0a 00 00    	and    %ah,0xa78
c0108a46:	00 00                	add    %al,(%eax)
c0108a48:	53                   	push   %ebx
c0108a49:	70 6c                	jo     c0108ab7 <find_node+0x107f>
c0108a4b:	69 74 20 68 65 61 70 	imul   $0x20706165,0x68(%eax,%eiz,1),%esi
c0108a52:	20 
c0108a53:	6e                   	outsb  %ds:(%esi),(%dx)
c0108a54:	6f                   	outsl  %ds:(%esi),(%dx)
c0108a55:	64 65 3a 20          	fs cmp %gs:(%eax),%ah
c0108a59:	25 78 20 77 69       	and    $0x69772078,%eax
c0108a5e:	74 68                	je     c0108ac8 <find_node+0x1090>
c0108a60:	20 73 69             	and    %dh,0x69(%ebx)
c0108a63:	7a 65                	jp     c0108aca <find_node+0x1092>
c0108a65:	20 25 78 0a 00 00    	and    %ah,0xa78
c0108a6b:	00 41 6c             	add    %al,0x6c(%ecx)
c0108a6e:	6c                   	insb   (%dx),%es:(%edi)
c0108a6f:	6f                   	outsl  %ds:(%esi),(%dx)
c0108a70:	63 61 74             	arpl   %esp,0x74(%ecx)
c0108a73:	65 64 20 68 65       	gs and %ch,%fs:0x65(%eax)
c0108a78:	61                   	popa
c0108a79:	70 20                	jo     c0108a9b <find_node+0x1063>
c0108a7b:	6e                   	outsb  %ds:(%esi),(%dx)
c0108a7c:	6f                   	outsl  %ds:(%esi),(%dx)
c0108a7d:	64 65 20 61 74       	fs and %ah,%gs:0x74(%ecx)
c0108a82:	20 25 78 20 77 69    	and    %ah,0x69772078
c0108a88:	74 68                	je     c0108af2 <find_node+0x10ba>
c0108a8a:	20 73 69             	and    %dh,0x69(%ebx)
c0108a8d:	7a 65                	jp     c0108af4 <find_node+0x10bc>
c0108a8f:	20 25 78 0a 00 44    	and    %ah,0x44000a78
c0108a95:	65 66 72 61          	gs data16 jb c0108afa <find_node+0x10c2>
c0108a99:	67 6d                	insl   (%dx),%es:(%di)
c0108a9b:	65 6e                	outsb  %gs:(%esi),(%dx)
c0108a9d:	74 65                	je     c0108b04 <find_node+0x10cc>
c0108a9f:	64 20 6e 6f          	and    %ch,%fs:0x6f(%esi)
c0108aa3:	64 65 20 25 74 33 30 	fs and %ah,%gs:0x25303374
c0108aaa:	25 
c0108aab:	78 25                	js     c0108ad2 <find_node+0x109a>
c0108aad:	74 31                	je     c0108ae0 <find_node+0x10a8>
c0108aaf:	30 20                	xor    %ah,(%eax)
c0108ab1:	77 69                	ja     c0108b1c <find_node+0x10e4>
c0108ab3:	74 68                	je     c0108b1d <find_node+0x10e5>
c0108ab5:	20 25 74 33 30 25    	and    %ah,0x25303374
c0108abb:	78 25                	js     c0108ae2 <find_node+0x10aa>
c0108abd:	74 31                	je     c0108af0 <find_node+0x10b8>
c0108abf:	30 2e                	xor    %ch,(%esi)
c0108ac1:	20 4e 65             	and    %cl,0x65(%esi)
c0108ac4:	77 20                	ja     c0108ae6 <find_node+0x10ae>
c0108ac6:	73 69                	jae    c0108b31 <find_node+0x10f9>
c0108ac8:	7a 65                	jp     c0108b2f <find_node+0x10f7>
c0108aca:	3a 20                	cmp    (%eax),%ah
c0108acc:	25 78 0a 00 43       	and    $0x43000a78,%eax
c0108ad1:	50                   	push   %eax
c0108ad2:	55                   	push   %ebp
c0108ad3:	5f                   	pop    %edi
c0108ad4:	49                   	dec    %ecx
c0108ad5:	44                   	inc    %esp
c0108ad6:	3a 20                	cmp    (%eax),%ah
c0108ad8:	25 78 20 45 41       	and    $0x41452078,%eax
c0108add:	58                   	pop    %eax
c0108ade:	20 45 42             	and    %al,0x42(%ebp)
c0108ae1:	58                   	pop    %eax
c0108ae2:	20 45 43             	and    %al,0x43(%ebp)
c0108ae5:	58                   	pop    %eax
c0108ae6:	20 45 44             	and    %al,0x44(%ebp)
c0108ae9:	58                   	pop    %eax
c0108aea:	0a 25 78 0a 25 78    	or     0x78250a78,%ah
c0108af0:	0a 25 78 0a 25 78    	or     0x78250a78,%ah
c0108af6:	0a 45 4e             	or     0x4e(%ebp),%al
c0108af9:	44                   	inc    %esp
c0108afa:	2e 2e 2e 0a 00       	cs cs or %cs:(%eax),%al
c0108aff:	54                   	push   %esp
c0108b00:	65 73 74             	gs jae c0108b77 <find_node+0x113f>
c0108b03:	20 74 72 79          	and    %dh,0x79(%edx,%esi,2)
c0108b07:	20 61 74             	and    %ah,0x74(%ecx)
c0108b0a:	20 25 78 0a 00 00    	and    %ah,0xa78
c0108b10:	42                   	inc    %edx
c0108b11:	55                   	push   %ebp
c0108b12:	53                   	push   %ebx
c0108b13:	3a 20                	cmp    (%eax),%ah
c0108b15:	25 78 0a 53 6f       	and    $0x6f530a78,%eax
c0108b1a:	75 72                	jne    c0108b8e <find_node+0x1156>
c0108b1c:	63 65 3a             	arpl   %esp,0x3a(%ebp)
c0108b1f:	20 25 78 0a 47 53    	and    %ah,0x53470a78
c0108b25:	49                   	dec    %ecx
c0108b26:	3a 20                	cmp    (%eax),%ah
c0108b28:	25 78 0a 46 6c       	and    $0x6c460a78,%eax
c0108b2d:	61                   	popa
c0108b2e:	67 73 3a             	addr16 jae c0108b6b <find_node+0x1133>
c0108b31:	20 25 78 0a 00 00    	and    %ah,0xa78
c0108b37:	00 0a                	add    %cl,(%edx)
c0108b39:	2d 2d 2d 2d 53       	sub    $0x532d2d2d,%eax
c0108b3e:	74 61                	je     c0108ba1 <find_node+0x1169>
c0108b40:	72 74                	jb     c0108bb6 <find_node+0x117e>
c0108b42:	69 6e 67 20 41 50 49 	imul   $0x49504120,0x67(%esi),%ebp
c0108b49:	43                   	inc    %ebx
c0108b4a:	20 49 6e             	and    %cl,0x6e(%ecx)
c0108b4d:	69 74 69 61 6c 69 7a 	imul   $0x617a696c,0x61(%ecx,%ebp,2),%esi
c0108b54:	61 
c0108b55:	74 69                	je     c0108bc0 <find_node+0x1188>
c0108b57:	6f                   	outsl  %ds:(%esi),(%dx)
c0108b58:	6e                   	outsb  %ds:(%esi),(%dx)
c0108b59:	73 2d                	jae    c0108b88 <find_node+0x1150>
c0108b5b:	2d 2d 2d 0a 00       	sub    $0xa2d2d,%eax
c0108b60:	41                   	inc    %ecx
c0108b61:	50                   	push   %eax
c0108b62:	49                   	dec    %ecx
c0108b63:	43                   	inc    %ebx
c0108b64:	20 49 44             	and    %cl,0x44(%ecx)
c0108b67:	20 49 53             	and    %cl,0x53(%ecx)
c0108b6a:	3a 20                	cmp    (%eax),%ah
c0108b6c:	25 78 0a 0a 00       	and    $0xa0a78,%eax
c0108b71:	00 00                	add    %al,(%eax)
c0108b73:	00 43 61             	add    %al,0x61(%ebx)
c0108b76:	6c                   	insb   (%dx),%es:(%edi)
c0108b77:	69 62 72 61 74 69 6f 	imul   $0x6f697461,0x72(%edx),%esp
c0108b7e:	6e                   	outsb  %ds:(%esi),(%dx)
c0108b7f:	20 63 6f             	and    %ah,0x6f(%ebx)
c0108b82:	6d                   	insl   (%dx),%es:(%edi)
c0108b83:	70 6c                	jo     c0108bf1 <find_node+0x11b9>
c0108b85:	65 74 65             	gs je  c0108bed <find_node+0x11b5>
c0108b88:	21 20                	and    %esp,(%eax)
c0108b8a:	54                   	push   %esp
c0108b8b:	69 63 6b 73 20 70 65 	imul   $0x65702073,0x6b(%ebx),%esp
c0108b92:	72 20                	jb     c0108bb4 <find_node+0x117c>
c0108b94:	6d                   	insl   (%dx),%es:(%edi)
c0108b95:	73 3a                	jae    c0108bd1 <find_node+0x1199>
c0108b97:	20 25 64 0a 00 53    	and    %ah,0x53000a64
c0108b9d:	74 61                	je     c0108c00 <find_node+0x11c8>
c0108b9f:	74 75                	je     c0108c16 <find_node+0x11de>
c0108ba1:	73 20                	jae    c0108bc3 <find_node+0x118b>
c0108ba3:	69 73 20 25 78 0a 00 	imul   $0xa7825,0x20(%ebx),%esi
c0108baa:	00 00                	add    %al,(%eax)
c0108bac:	44                   	inc    %esp
c0108bad:	75 61                	jne    c0108c10 <find_node+0x11d8>
c0108baf:	6c                   	insb   (%dx),%es:(%edi)
c0108bb0:	20 63 68             	and    %ah,0x68(%ebx)
c0108bb3:	61                   	popa
c0108bb4:	6e                   	outsb  %ds:(%esi),(%dx)
c0108bb5:	6e                   	outsb  %ds:(%esi),(%dx)
c0108bb6:	65 6c                	gs insb (%dx),%es:(%edi)
c0108bb8:	20 70 73             	and    %dh,0x73(%eax)
c0108bbb:	32 2c 20             	xor    (%eax,%eiz,1),%ch
c0108bbe:	69 6e 69 74 69 61 6c 	imul   $0x6c616974,0x69(%esi),%ebp
c0108bc5:	69 7a 65 64 0a 00 53 	imul   $0x53000a64,0x65(%edx),%edi
c0108bcc:	69 6e 67 6c 65 20 63 	imul   $0x6320656c,0x67(%esi),%ebp
c0108bd3:	68 61 6e 6e 65       	push   $0x656e6e61
c0108bd8:	6c                   	insb   (%dx),%es:(%edi)
c0108bd9:	20 70 73             	and    %dh,0x73(%eax)
c0108bdc:	32 0a                	xor    (%edx),%cl
c0108bde:	00 50 53             	add    %dl,0x53(%eax)
c0108be1:	2f                   	das
c0108be2:	32 20                	xor    (%eax),%ah
c0108be4:	4e                   	dec    %esi
c0108be5:	6f                   	outsl  %ds:(%esi),(%dx)
c0108be6:	6e                   	outsb  %ds:(%esi),(%dx)
c0108be7:	2d 66 75 6e 63       	sub    $0x636e7566,%eax
c0108bec:	74 69                	je     c0108c57 <find_node+0x121f>
c0108bee:	6f                   	outsl  %ds:(%esi),(%dx)
c0108bef:	6e                   	outsb  %ds:(%esi),(%dx)
c0108bf0:	61                   	popa
c0108bf1:	6c                   	insb   (%dx),%es:(%edi)
c0108bf2:	0a 00                	or     (%eax),%al
c0108bf4:	44                   	inc    %esp
c0108bf5:	65 76 69             	gs jbe c0108c61 <find_node+0x1229>
c0108bf8:	63 65 20             	arpl   %esp,0x20(%ebp)
c0108bfb:	6f                   	outsl  %ds:(%esi),(%dx)
c0108bfc:	6e                   	outsb  %ds:(%esi),(%dx)
c0108bfd:	20 70 73             	and    %dh,0x73(%eax)
c0108c00:	2f                   	das
c0108c01:	32 20                	xor    (%eax),%ah
c0108c03:	32 20                	xor    (%eax),%ah
c0108c05:	69 64 3a 20 25 78 0a 	imul   $0xa7825,0x20(%edx,%edi,1),%esp
c0108c0c:	00 
c0108c0d:	54                   	push   %esp
c0108c0e:	72 61                	jb     c0108c71 <find_node+0x1239>
c0108c10:	6e                   	outsb  %ds:(%esi),(%dx)
c0108c11:	73 20                	jae    c0108c33 <find_node+0x11fb>
c0108c13:	62 69 74             	bound  %ebp,0x74(%ecx)
c0108c16:	20 25 78 0a 00 00    	and    %ah,0xa78
c0108c1c:	52                   	push   %edx
c0108c1d:	65 63 69 65          	arpl   %ebp,%gs:0x65(%ecx)
c0108c21:	76 65                	jbe    c0108c88 <find_node+0x1250>
c0108c23:	64 3a 20             	cmp    %fs:(%eax),%ah
c0108c26:	25 78 20 7c 20       	and    $0x207c2078,%eax
c0108c2b:	53                   	push   %ebx
c0108c2c:	63 61 6e             	arpl   %esp,0x6e(%ecx)
c0108c2f:	63 6f 64             	arpl   %ebp,0x64(%edi)
c0108c32:	65 20 73 65          	and    %dh,%gs:0x65(%ebx)
c0108c36:	74 3a                	je     c0108c72 <find_node+0x123a>
c0108c38:	20 20                	and    %ah,(%eax)
c0108c3a:	25 78 0a 00 00       	and    $0xa78,%eax
c0108c3f:	00 4b 65             	add    %cl,0x65(%ebx)
c0108c42:	79 62                	jns    c0108ca6 <find_node+0x126e>
c0108c44:	6f                   	outsl  %ds:(%esi),(%dx)
c0108c45:	61                   	popa
c0108c46:	72 64                	jb     c0108cac <find_node+0x1274>
c0108c48:	20 74 79 70          	and    %dh,0x70(%ecx,%edi,2)
c0108c4c:	65 20 6e 6f          	and    %ch,%gs:0x6f(%esi)
c0108c50:	74 20                	je     c0108c72 <find_node+0x123a>
c0108c52:	73 75                	jae    c0108cc9 <find_node+0x1291>
c0108c54:	70 70                	jo     c0108cc6 <find_node+0x128e>
c0108c56:	6f                   	outsl  %ds:(%esi),(%dx)
c0108c57:	72 74                	jb     c0108ccd <find_node+0x1295>
c0108c59:	65 64 21 20          	gs and %esp,%fs:(%eax)
c0108c5d:	53                   	push   %ebx
c0108c5e:	6f                   	outsl  %ds:(%esi),(%dx)
c0108c5f:	77 77                	ja     c0108cd8 <find_node+0x12a0>
c0108c61:	79 20                	jns    c0108c83 <find_node+0x124b>
c0108c63:	3a 33                	cmp    (%ebx),%dh
c0108c65:	00 00                	add    %al,(%eax)
c0108c67:	00 4b 65             	add    %cl,0x65(%ebx)
c0108c6a:	79 62                	jns    c0108cce <find_node+0x1296>
c0108c6c:	6f                   	outsl  %ds:(%esi),(%dx)
c0108c6d:	61                   	popa
c0108c6e:	72 64                	jb     c0108cd4 <find_node+0x129c>
c0108c70:	20 74 79 70          	and    %dh,0x70(%ecx,%edi,2)
c0108c74:	65 20 73 75          	and    %dh,%gs:0x75(%ebx)
c0108c78:	70 70                	jo     c0108cea <find_node+0x12b2>
c0108c7a:	6f                   	outsl  %ds:(%esi),(%dx)
c0108c7b:	72 74                	jb     c0108cf1 <find_node+0x12b9>
c0108c7d:	65 64 21 20          	gs and %esp,%fs:(%eax)
c0108c81:	43                   	inc    %ebx
c0108c82:	6f                   	outsl  %ds:(%esi),(%dx)
c0108c83:	6e                   	outsb  %ds:(%esi),(%dx)
c0108c84:	74 69                	je     c0108cef <find_node+0x12b7>
c0108c86:	6e                   	outsb  %ds:(%esi),(%dx)
c0108c87:	75 65                	jne    c0108cee <find_node+0x12b6>
c0108c89:	21 0a                	and    %ecx,(%edx)
c0108c8b:	00 4b 65             	add    %cl,0x65(%ebx)
c0108c8e:	79 62                	jns    c0108cf2 <find_node+0x12ba>
c0108c90:	6f                   	outsl  %ds:(%esi),(%dx)
c0108c91:	61                   	popa
c0108c92:	72 64                	jb     c0108cf8 <find_node+0x12c0>
c0108c94:	20 46 75             	and    %al,0x75(%esi)
c0108c97:	6e                   	outsb  %ds:(%esi),(%dx)
c0108c98:	63 74 69 6f          	arpl   %esi,0x6f(%ecx,%ebp,2)
c0108c9c:	6e                   	outsb  %ds:(%esi),(%dx)
c0108c9d:	3a 20                	cmp    (%eax),%ah
c0108c9f:	25 74 33 30 4f       	and    $0x4f303374,%eax
c0108ca4:	4b                   	dec    %ebx
c0108ca5:	21 25 74 31 30 0a    	and    %esp,0xa303174
c0108cab:	00 66 6f             	add    %ah,0x6f(%esi)
c0108cae:	6e                   	outsb  %ds:(%esi),(%dx)
c0108caf:	74 5f                	je     c0108d10 <find_node+0x12d8>
c0108cb1:	6d                   	insl   (%dx),%es:(%edi)
c0108cb2:	6f                   	outsl  %ds:(%esi),(%dx)
c0108cb3:	64 65 3a 20          	fs cmp %gs:(%eax),%ah
c0108cb7:	25 78 2c 20 63       	and    $0x63202c78,%eax
c0108cbc:	68 61 72 5f 73       	push   $0x735f7261
c0108cc1:	69 7a 65 3a 20 25 64 	imul   $0x6425203a,0x65(%edx),%edi
c0108cc8:	0a 00                	or     (%eax),%al
c0108cca:	50                   	push   %eax
c0108ccb:	75 74                	jne    c0108d41 <find_node+0x1309>
c0108ccd:	20 70 69             	and    %dh,0x69(%eax)
c0108cd0:	78 65                	js     c0108d37 <find_node+0x12ff>
c0108cd2:	6c                   	insb   (%dx),%es:(%edi)
c0108cd3:	20 61 74             	and    %ah,0x74(%ecx)
c0108cd6:	20 61 64             	and    %ah,0x64(%ecx)
c0108cd9:	64 72 20             	fs jb  c0108cfc <find_node+0x12c4>
c0108cdc:	25 78 0a 00 55       	and    $0x55000a78,%eax
c0108ce1:	6e                   	outsb  %ds:(%esi),(%dx)
c0108ce2:	61                   	popa
c0108ce3:	62 6c 65 20          	bound  %ebp,0x20(%ebp,%eiz,2)
c0108ce7:	74 6f                	je     c0108d58 <find_node+0x1320>
c0108ce9:	20 73 65             	and    %dh,0x65(%ebx)
c0108cec:	6e                   	outsb  %ds:(%esi),(%dx)
c0108ced:	64 20 62 69          	and    %ah,%fs:0x69(%edx)
c0108cf1:	74 2e                	je     c0108d21 <find_node+0x12e9>
c0108cf3:	2e 2e 0a 00          	cs or  %cs:(%eax),%al
c0108cf7:	53                   	push   %ebx
c0108cf8:	54                   	push   %esp
c0108cf9:	41                   	inc    %ecx
c0108cfa:	54                   	push   %esp
c0108cfb:	55                   	push   %ebp
c0108cfc:	53                   	push   %ebx
c0108cfd:	3a 20                	cmp    (%eax),%ah
c0108cff:	25 78 0a 00 00       	and    $0xa78,%eax
c0108d04:	69 64 6c 65 00 00 00 	imul   $0x0,0x65(%esp,%ebp,2),%esp
c0108d0b:	00 
c0108d0c:	41                   	inc    %ecx
c0108d0d:	64 64 69 6e 67 20 70 	fs imul $0x6f727020,%fs:0x67(%esi),%ebp
c0108d14:	72 6f 
c0108d16:	63 65 73             	arpl   %esp,0x73(%ebp)
c0108d19:	73 20                	jae    c0108d3b <find_node+0x1303>
c0108d1b:	25 78 20 74 6f       	and    $0x6f742078,%eax
c0108d20:	20 74 68 65          	and    %dh,0x65(%eax,%ebp,2)
c0108d24:	20 6c 69 73          	and    %ch,0x73(%ecx,%ebp,2)
c0108d28:	74 20                	je     c0108d4a <find_node+0x1312>
c0108d2a:	77 69                	ja     c0108d95 <find_node+0x135d>
c0108d2c:	74 68                	je     c0108d96 <find_node+0x135e>
c0108d2e:	20 6e 65             	and    %ch,0x65(%esi)
c0108d31:	78 74                	js     c0108da7 <find_node+0x136f>
c0108d33:	20 25 78 2e 0a 00    	and    %ah,0xa2e78
c0108d39:	4d                   	dec    %ebp
c0108d3a:	75 73                	jne    c0108daf <find_node+0x1377>
c0108d3c:	74 20                	je     c0108d5e <find_node+0x1326>
c0108d3e:	63 75 74             	arpl   %esi,0x74(%ebp)
c0108d41:	20 6f 0a             	and    %ch,0xa(%edi)
c0108d44:	00 00                	add    %al,(%eax)
c0108d46:	00 00                	add    %al,(%eax)
c0108d48:	43                   	inc    %ebx
c0108d49:	75 74                	jne    c0108dbf <find_node+0x1387>
c0108d4b:	6f                   	outsl  %ds:(%esi),(%dx)
c0108d4c:	66 66 2d 2d 2d       	data16 sub $0x2d2d,%ax
c0108d51:	2d 2d 2d 2d 2d       	sub    $0x2d2d2d2d,%eax
c0108d56:	2d 2d 2d 2d 2d       	sub    $0x2d2d2d2d,%eax
c0108d5b:	2d 2d 2d 2d 2d       	sub    $0x2d2d2d2d,%eax
c0108d60:	2d 2d 2d 2d 2d       	sub    $0x2d2d2d2d,%eax
c0108d65:	2d 20 50 49 44       	sub    $0x44495020,%eax
c0108d6a:	3a 20                	cmp    (%eax),%ah
c0108d6c:	25 78 0a 00 4e       	and    $0x4e000a78,%eax
c0108d71:	65 77 20             	gs ja  c0108d94 <find_node+0x135c>
c0108d74:	70 72                	jo     c0108de8 <find_node+0x13b0>
c0108d76:	6f                   	outsl  %ds:(%esi),(%dx)
c0108d77:	63 65 73             	arpl   %esp,0x73(%ebp)
c0108d7a:	73 27                	jae    c0108da3 <find_node+0x136b>
c0108d7c:	20 43 6f             	and    %al,0x6f(%ebx)
c0108d7f:	6e                   	outsb  %ds:(%esi),(%dx)
c0108d80:	74 65                	je     c0108de7 <find_node+0x13af>
c0108d82:	78 74                	js     c0108df8 <find_node+0x13c0>
c0108d84:	20 73 74             	and    %dh,0x74(%ebx)
c0108d87:	6f                   	outsl  %ds:(%esi),(%dx)
c0108d88:	72 65                	jb     c0108def <find_node+0x13b7>
c0108d8a:	64 20 61 74          	and    %ah,%fs:0x74(%ecx)
c0108d8e:	20 25 78 0a 00 44    	and    %ah,0x44000a78
c0108d94:	65 6c                	gs insb (%dx),%es:(%edi)
c0108d96:	74 65                	je     c0108dfd <find_node+0x13c5>
c0108d98:	64 0a 00             	or     %fs:(%eax),%al
c0108d9b:	50                   	push   %eax
c0108d9c:	72 6f                	jb     c0108e0d <find_node+0x13d5>
c0108d9e:	63 65 73             	arpl   %esp,0x73(%ebp)
c0108da1:	73 20                	jae    c0108dc3 <find_node+0x138b>
c0108da3:	25 64 20 66 72       	and    $0x72662064,%eax
c0108da8:	65 65 64 0a 00       	gs gs or %fs:(%eax),%al
c0108dad:	00 00                	add    %al,(%eax)
c0108daf:	00 50 72             	add    %dl,0x72(%eax)
c0108db2:	6f                   	outsl  %ds:(%esi),(%dx)
c0108db3:	63 65 73             	arpl   %esp,0x73(%ebp)
c0108db6:	73 20                	jae    c0108dd8 <find_node+0x13a0>
c0108db8:	64 65 6c             	fs gs insb (%dx),%es:(%edi)
c0108dbb:	65 74 69             	gs je  c0108e27 <find_node+0x13ef>
c0108dbe:	6e                   	outsb  %ds:(%esi),(%dx)
c0108dbf:	67 20 63 6f          	and    %ah,0x6f(%bp,%di)
c0108dc3:	6e                   	outsb  %ds:(%esi),(%dx)
c0108dc4:	74 65                	je     c0108e2b <find_node+0x13f3>
c0108dc6:	78 74                	js     c0108e3c <find_node+0x1404>
c0108dc8:	20 61 74             	and    %ah,0x74(%ecx)
c0108dcb:	20 25 78 0a 00 70    	and    %ah,0x70000a78
c0108dd1:	64 70 74             	fs jo  c0108e48 <find_node+0x1410>
c0108dd4:	3a 20                	cmp    (%eax),%ah
c0108dd6:	25 78 2c 20 6c       	and    $0x6c202c78,%eax
c0108ddb:	6f                   	outsl  %ds:(%esi),(%dx)
c0108ddc:	77 5f                	ja     c0108e3d <find_node+0x1405>
c0108dde:	70 68                	jo     c0108e48 <find_node+0x1410>
c0108de0:	79 73                	jns    c0108e55 <find_node+0x141d>
c0108de2:	3a 20                	cmp    (%eax),%ah
c0108de4:	25 78 0a 00 50       	and    $0x50000a78,%eax
c0108de9:	72 6f                	jb     c0108e5a <find_node+0x1422>
c0108deb:	63 65 73             	arpl   %esp,0x73(%ebp)
c0108dee:	73 20                	jae    c0108e10 <find_node+0x13d8>
c0108df0:	4b                   	dec    %ebx
c0108df1:	69 6c 6c 65 64 20 68 	imul   $0x61682064,0x65(%esp,%ebp,2),%ebp
c0108df8:	61 
c0108df9:	68 61 68 68 61       	push   $0x61686861
c0108dfe:	20 25 78 0a 00 6b    	and    %ah,0x6b000a78
c0108e04:	69 6f 0a 00 43 72 65 	imul   $0x65724300,0xa(%edi),%ebp
c0108e0b:	61                   	popa
c0108e0c:	74 69                	je     c0108e77 <find_node+0x143f>
c0108e0e:	6e                   	outsb  %ds:(%esi),(%dx)
c0108e0f:	67 20 70 72          	and    %dh,0x72(%bx,%si)
c0108e13:	6f                   	outsl  %ds:(%esi),(%dx)
c0108e14:	63 65 73             	arpl   %esp,0x73(%ebp)
c0108e17:	73 20                	jae    c0108e39 <find_node+0x1401>
c0108e19:	61                   	popa
c0108e1a:	74 20                	je     c0108e3c <find_node+0x1404>
c0108e1c:	25 78 0a 00 50       	and    $0x50000a78,%eax
c0108e21:	72 6f                	jb     c0108e92 <find_node+0x145a>
c0108e23:	63 65 73             	arpl   %esp,0x73(%ebp)
c0108e26:	73 20                	jae    c0108e48 <find_node+0x1410>
c0108e28:	6e                   	outsb  %ds:(%esi),(%dx)
c0108e29:	61                   	popa
c0108e2a:	6d                   	insl   (%dx),%es:(%edi)
c0108e2b:	65 3a 20             	cmp    %gs:(%eax),%ah
c0108e2e:	25 73 0a 00 50       	and    $0x50000a73,%eax
c0108e33:	72 6f                	jb     c0108ea4 <find_node+0x146c>
c0108e35:	63 65 73             	arpl   %esp,0x73(%ebp)
c0108e38:	73 20                	jae    c0108e5a <find_node+0x1422>
c0108e3a:	70 69                	jo     c0108ea5 <find_node+0x146d>
c0108e3c:	64 3a 20             	cmp    %fs:(%eax),%ah
c0108e3f:	25 64 0a 00 50       	and    $0x50000a64,%eax
c0108e44:	72 6f                	jb     c0108eb5 <find_node+0x147d>
c0108e46:	63 65 73             	arpl   %esp,0x73(%ebp)
c0108e49:	73 20                	jae    c0108e6b <find_node+0x1433>
c0108e4b:	63 6f 6e             	arpl   %ebp,0x6e(%edi)
c0108e4e:	74 65                	je     c0108eb5 <find_node+0x147d>
c0108e50:	78 74                	js     c0108ec6 <find_node+0x148e>
c0108e52:	20 73 74             	and    %dh,0x74(%ebx)
c0108e55:	6f                   	outsl  %ds:(%esi),(%dx)
c0108e56:	72 65                	jb     c0108ebd <find_node+0x1485>
c0108e58:	64 20 61 74          	and    %ah,%fs:0x74(%ecx)
c0108e5c:	20 25 78 0a 00 50    	and    %ah,0x50000a78
c0108e62:	72 6f                	jb     c0108ed3 <find_node+0x149b>
c0108e64:	63 65 73             	arpl   %esp,0x73(%ebp)
c0108e67:	73 20                	jae    c0108e89 <find_node+0x1451>
c0108e69:	74 72                	je     c0108edd <find_node+0x14a5>
c0108e6b:	75 6c                	jne    c0108ed9 <find_node+0x14a1>
c0108e6d:	79 20                	jns    c0108e8f <find_node+0x1457>
c0108e6f:	66 69 6e 69 73 68    	imul   $0x6873,0x69(%esi),%bp
c0108e75:	65 64 2e 2e 2e 0a 00 	gs fs cs cs or %cs:(%eax),%al
c0108e7c:	50                   	push   %eax
c0108e7d:	72 6f                	jb     c0108eee <find_node+0x14b6>
c0108e7f:	63 65 73             	arpl   %esp,0x73(%ebp)
c0108e82:	73 20                	jae    c0108ea4 <find_node+0x146c>
c0108e84:	64 65 61             	fs gs popa
c0108e87:	64 0a 00             	or     %fs:(%eax),%al
c0108e8a:	43                   	inc    %ebx
c0108e8b:	6f                   	outsl  %ds:(%esi),(%dx)
c0108e8c:	6e                   	outsb  %ds:(%esi),(%dx)
c0108e8d:	74 65                	je     c0108ef4 <find_node+0x14bc>
c0108e8f:	78 74                	js     c0108f05 <find_node+0x14cd>
c0108e91:	20 72 65             	and    %dh,0x65(%edx)
c0108e94:	74 75                	je     c0108f0b <find_node+0x14d3>
c0108e96:	72 6e                	jb     c0108f06 <find_node+0x14ce>
c0108e98:	73 65                	jae    c0108eff <find_node+0x14c7>
c0108e9a:	64 0a 00             	or     %fs:(%eax),%al
c0108e9d:	00 00                	add    %al,(%eax)
c0108e9f:	00 8a 63 10 c0 6e    	add    %cl,0x6ec01063(%edx)
c0108ea5:	63 10                	arpl   %edx,(%eax)
c0108ea7:	c0 7c 63 10 c0       	sarb   $0xc0,0x10(%ebx,%eiz,2)
c0108eac:	75 63                	jne    c0108f11 <find_node+0x14d9>
c0108eae:	10 c0                	adc    %al,%al
c0108eb0:	8a 63 10             	mov    0x10(%ebx),%ah
c0108eb3:	c0 83 63 10 c0 8a 63 	rolb   $0x63,-0x753fef9d(%ebx)
c0108eba:	10 c0                	adc    %al,%al
c0108ebc:	8a 63 10             	mov    0x10(%ebx),%ah
c0108ebf:	c0 8a 63 10 c0 8a 63 	rorb   $0x63,-0x753fef9d(%edx)
c0108ec6:	10 c0                	adc    %al,%al
c0108ec8:	6a 61                	push   $0x61
c0108eca:	10 c0                	adc    %al,%al
c0108ecc:	84 61 10             	test   %ah,0x10(%ecx)
c0108ecf:	c0 9e 61 10 c0 b8 61 	rcrb   $0x61,-0x473fef9f(%esi)
c0108ed6:	10 c0                	adc    %al,%al
c0108ed8:	d2 61 10             	shlb   %cl,0x10(%ecx)
c0108edb:	c0 ec 61             	shr    $0x61,%ah
c0108ede:	10 c0                	adc    %al,%al
c0108ee0:	06                   	push   %es
c0108ee1:	62 10                	bound  %edx,(%eax)
c0108ee3:	c0 20 62             	shlb   $0x62,(%eax)
c0108ee6:	10 c0                	adc    %al,%al
c0108ee8:	3a 62 10             	cmp    0x10(%edx),%ah
c0108eeb:	c0 54 62 10 c0       	rclb   $0xc0,0x10(%edx,%eiz,2)
c0108ef0:	c6                   	(bad)
c0108ef1:	5e                   	pop    %esi
c0108ef2:	10 c0                	adc    %al,%al
c0108ef4:	e0 5e                	loopne c0108f54 <find_node+0x151c>
c0108ef6:	10 c0                	adc    %al,%al
c0108ef8:	fa                   	cli
c0108ef9:	5e                   	pop    %esi
c0108efa:	10 c0                	adc    %al,%al
c0108efc:	14 5f                	adc    $0x5f,%al
c0108efe:	10 c0                	adc    %al,%al
c0108f00:	2e 5f                	cs pop %edi
c0108f02:	10 c0                	adc    %al,%al
c0108f04:	48                   	dec    %eax
c0108f05:	5f                   	pop    %edi
c0108f06:	10 c0                	adc    %al,%al
c0108f08:	62 5f 10             	bound  %ebx,0x10(%edi)
c0108f0b:	c0 7c 5f 10 c0       	sarb   $0xc0,0x10(%edi,%ebx,2)
c0108f10:	96                   	xchg   %eax,%esi
c0108f11:	5f                   	pop    %edi
c0108f12:	10 c0                	adc    %al,%al
c0108f14:	b0 5f                	mov    $0x5f,%al
c0108f16:	10 c0                	adc    %al,%al
c0108f18:	ca 5f 10             	lret   $0x105f
c0108f1b:	c0 e4 5f             	shl    $0x5f,%ah
c0108f1e:	10 c0                	adc    %al,%al
c0108f20:	fe                   	(bad)
c0108f21:	5f                   	pop    %edi
c0108f22:	10 c0                	adc    %al,%al
c0108f24:	18 60 10             	sbb    %ah,0x10(%eax)
c0108f27:	c0 32 60             	shlb   $0x60,(%edx)
c0108f2a:	10 c0                	adc    %al,%al
c0108f2c:	4c                   	dec    %esp
c0108f2d:	60                   	pusha
c0108f2e:	10 c0                	adc    %al,%al
c0108f30:	66 60                	pushaw
c0108f32:	10 c0                	adc    %al,%al
c0108f34:	80 60 10 c0          	andb   $0xc0,0x10(%eax)
c0108f38:	9a 60 10 c0 b4 60 10 	lcall  $0x1060,$0xb4c01060
c0108f3f:	c0 ce 60             	ror    $0x60,%dh
c0108f42:	10 c0                	adc    %al,%al
c0108f44:	e8 60 10 c0 02       	call   c2d09fa9 <_kernel_end+0x2bf7ecd>
c0108f49:	61                   	popa
c0108f4a:	10 c0                	adc    %al,%al
c0108f4c:	1c 61                	sbb    $0x61,%al
c0108f4e:	10 c0                	adc    %al,%al
c0108f50:	36 61                	ss popa
c0108f52:	10 c0                	adc    %al,%al
c0108f54:	50                   	push   %eax
c0108f55:	61                   	popa
c0108f56:	10 c0                	adc    %al,%al
c0108f58:	8a 63 10             	mov    0x10(%ebx),%ah
c0108f5b:	c0 8a 63 10 c0 8a 63 	rorb   $0x63,-0x753fef9d(%edx)
c0108f62:	10 c0                	adc    %al,%al
c0108f64:	8a 63 10             	mov    0x10(%ebx),%ah
c0108f67:	c0 8a 63 10 c0 8a 63 	rorb   $0x63,-0x753fef9d(%edx)
c0108f6e:	10 c0                	adc    %al,%al
c0108f70:	8a 63 10             	mov    0x10(%ebx),%ah
c0108f73:	c0 8a 63 10 c0 8a 63 	rorb   $0x63,-0x753fef9d(%edx)
c0108f7a:	10 c0                	adc    %al,%al
c0108f7c:	8a 63 10             	mov    0x10(%ebx),%ah
c0108f7f:	c0 8a 63 10 c0 8a 63 	rorb   $0x63,-0x753fef9d(%edx)
c0108f86:	10 c0                	adc    %al,%al
c0108f88:	32 63 10             	xor    0x10(%ebx),%ah
c0108f8b:	c0 46 63 10          	rolb   $0x10,0x63(%esi)
c0108f8f:	c0 8a 63 10 c0 a2 62 	rorb   $0x62,-0x5d3fef9d(%edx)
c0108f96:	10 c0                	adc    %al,%al
c0108f98:	bc 62 10 c0 88       	mov    $0x88c01062,%esp
c0108f9d:	62 10                	bound  %edx,(%eax)
c0108f9f:	c0 6e 62 10          	shrb   $0x10,0x62(%esi)
c0108fa3:	c0 0a 63             	rorb   $0x63,(%edx)
c0108fa6:	10 c0                	adc    %al,%al
c0108fa8:	1e                   	push   %ds
c0108fa9:	63 10                	arpl   %edx,(%eax)
c0108fab:	c0 5a 63 10          	rcrb   $0x10,0x63(%edx)
c0108faf:	c0 d6 62             	rcl    $0x62,%dh
c0108fb2:	10 c0                	adc    %al,%al
c0108fb4:	f0 62 10             	lock bound %edx,(%eax)
c0108fb7:	c0 45 6e 64          	rolb   $0x64,0x6e(%ebp)
c0108fbb:	20 66 69             	and    %ah,0x69(%esi)
c0108fbe:	72 73                	jb     c0109033 <find_node+0x15fb>
c0108fc0:	74 20                	je     c0108fe2 <find_node+0x15aa>
c0108fc2:	6c                   	insb   (%dx),%es:(%edi)
c0108fc3:	69 6e 65 20 25 64 0a 	imul   $0xa642520,0x65(%esi),%ebp
c0108fca:	00 63 75             	add    %ah,0x75(%ebx)
c0108fcd:	72 5f                	jb     c010902e <find_node+0x15f6>
c0108fcf:	6c                   	insb   (%dx),%es:(%edi)
c0108fd0:	65 74 74             	gs je  c0109047 <find_node+0x160f>
c0108fd3:	65 72 3a             	gs jb  c0109010 <find_node+0x15d8>
c0108fd6:	20 25 78 0a 00 30    	and    %ah,0x30000a78
c0108fdc:	78 30                	js     c010900e <find_node+0x15d6>
c0108fde:	00 54 65 73          	add    %dl,0x73(%ebp,%eiz,2)
c0108fe2:	74 69                	je     c010904d <find_node+0x1615>
c0108fe4:	6e                   	outsb  %ds:(%esi),(%dx)
c0108fe5:	67 20 74 68          	and    %dh,0x68(%si)
c0108fe9:	65 20 70 69          	and    %dh,%gs:0x69(%eax)
c0108fed:	6c                   	insb   (%dx),%es:(%edi)
c0108fee:	65 0a 00             	or     %gs:(%eax),%al
c0108ff1:	41                   	inc    %ecx
c0108ff2:	71 75                	jno    c0109069 <find_node+0x1631>
c0108ff4:	69 72 65 64 20 63 6f 	imul   $0x6f632064,0x65(%edx),%esi
c0108ffb:	6d                   	insl   (%dx),%es:(%edi)
c0108ffc:	6d                   	insl   (%dx),%es:(%edi)
c0108ffd:	61                   	popa
c0108ffe:	6e                   	outsb  %ds:(%esi),(%dx)
c0108fff:	64 20 61 74          	and    %ah,%fs:0x74(%ecx)
c0109003:	20 25 78 0a 00 76    	and    %ah,0x76000a78
c0109009:	65 72 73             	gs jb  c010907f <find_node+0x1647>
c010900c:	69 6f 6e 00 30 2e 30 	imul   $0x302e3000,0x6e(%edi),%ebp
c0109013:	2e 35 00 00 00 57    	cs xor $0x57000000,%eax
c0109019:	6f                   	outsl  %ds:(%esi),(%dx)
c010901a:	72 64                	jb     c0109080 <find_node+0x1648>
c010901c:	4f                   	dec    %edi
c010901d:	53                   	push   %ebx
c010901e:	20 6b 65             	and    %ch,0x65(%ebx)
c0109021:	72 6e                	jb     c0109091 <find_node+0x1659>
c0109023:	65 6c                	gs insb (%dx),%es:(%edi)
c0109025:	20 76 65             	and    %dh,0x65(%esi)
c0109028:	72 73                	jb     c010909d <find_node+0x1665>
c010902a:	69 6f 6e 3a 20 25 74 	imul   $0x7425203a,0x6e(%edi),%ebp
c0109031:	33 30                	xor    (%eax),%esi
c0109033:	25 73 25 74 31       	and    $0x31742573,%eax
c0109038:	30 0a                	xor    %cl,(%edx)
c010903a:	00 77 00             	add    %dh,0x0(%edi)
c010903d:	25 74 35 34 6f       	and    $0x6f343574,%eax
c0109042:	6b 61 79 25          	imul   $0x25,0x79(%ecx),%esp
c0109046:	74 31                	je     c0109079 <find_node+0x1641>
c0109048:	30 0a                	xor    %cl,(%edx)
c010904a:	00 42 61             	add    %al,0x61(%edx)
c010904d:	72 6b                	jb     c01090ba <find_node+0x1682>
c010904f:	00 73 68             	add    %dh,0x68(%ebx)
c0109052:	75 74                	jne    c01090c8 <find_node+0x1690>
c0109054:	64 6f                	outsl  %fs:(%esi),(%dx)
c0109056:	77 6e                	ja     c01090c6 <find_node+0x168e>
c0109058:	00 47 6f             	add    %al,0x6f(%edi)
c010905b:	6f                   	outsl  %ds:(%esi),(%dx)
c010905c:	64 62 79 65          	bound  %edi,%fs:0x65(%ecx)
c0109060:	21 0a                	and    %ecx,(%edx)
c0109062:	00 43 6f             	add    %al,0x6f(%ebx)
c0109065:	6d                   	insl   (%dx),%es:(%edi)
c0109066:	6d                   	insl   (%dx),%es:(%edi)
c0109067:	61                   	popa
c0109068:	6e                   	outsb  %ds:(%esi),(%dx)
c0109069:	64 20 25 74 32 30 25 	and    %ah,%fs:0x25303274
c0109070:	73 25                	jae    c0109097 <find_node+0x165f>
c0109072:	74 31                	je     c01090a5 <find_node+0x166d>
c0109074:	30 20                	xor    %ah,(%eax)
c0109076:	75 6e                	jne    c01090e6 <find_node+0x16ae>
c0109078:	6b 6e 6f 77          	imul   $0x77,0x6f(%esi),%ebp
c010907c:	6e                   	outsb  %ds:(%esi),(%dx)
c010907d:	2e 0a 00             	or     %cs:(%eax),%al
c0109080:	54                   	push   %esp
c0109081:	65 72 6d             	gs jb  c01090f1 <find_node+0x16b9>
c0109084:	69 6e 61 6c 00 43 72 	imul   $0x7243006c,0x61(%esi),%ebp
c010908b:	65 61                	gs popa
c010908d:	74 65                	je     c01090f4 <find_node+0x16bc>
c010908f:	64 20 74 65 72       	and    %dh,%fs:0x72(%ebp,%eiz,2)
c0109094:	6d                   	insl   (%dx),%es:(%edi)
c0109095:	69 6e 61 6c 20 70 72 	imul   $0x7270206c,0x61(%esi),%ebp
c010909c:	6f                   	outsl  %ds:(%esi),(%dx)
c010909d:	63 65 73             	arpl   %esp,0x73(%ebp)
c01090a0:	73 0a                	jae    c01090ac <find_node+0x1674>
c01090a2:	00 00                	add    %al,(%eax)
c01090a4:	54                   	push   %esp
c01090a5:	65 72 6d             	gs jb  c0109115 <find_node+0x16dd>
c01090a8:	69 6e 61 6c 20 66 75 	imul   $0x7566206c,0x61(%esi),%ebp
c01090af:	6e                   	outsb  %ds:(%esi),(%dx)
c01090b0:	63 74 69 6f          	arpl   %esi,0x6f(%ecx,%ebp,2)
c01090b4:	6e                   	outsb  %ds:(%esi),(%dx)
c01090b5:	3a 20                	cmp    (%eax),%ah
c01090b7:	25 74 37 30 4f       	and    $0x4f303774,%eax
c01090bc:	4b                   	dec    %ebx
c01090bd:	21 25 74 31 30 0a    	and    %esp,0xa303174
c01090c3:	00 4e 6f             	add    %cl,0x6f(%esi)
c01090c6:	64 65 20 77 69       	fs and %dh,%gs:0x69(%edi)
c01090cb:	74 68                	je     c0109135 <find_node+0x16fd>
c01090cd:	20 62 61             	and    %ah,0x61(%edx)
c01090d0:	73 65                	jae    c0109137 <find_node+0x16ff>
c01090d2:	20 25 78 20 64 6f    	and    %ah,0x6f642078
c01090d8:	65 73 20             	gs jae c01090fb <find_node+0x16c3>
c01090db:	6e                   	outsb  %ds:(%esi),(%dx)
c01090dc:	6f                   	outsl  %ds:(%esi),(%dx)
c01090dd:	74 20                	je     c01090ff <find_node+0x16c7>
c01090df:	65 78 69             	gs js  c010914b <find_node+0x1713>
c01090e2:	73 74                	jae    c0109158 <find_node+0x1720>
c01090e4:	0a 00                	or     (%eax),%al
c01090e6:	00 00                	add    %al,(%eax)
c01090e8:	4e                   	dec    %esi
c01090e9:	6f                   	outsl  %ds:(%esi),(%dx)
c01090ea:	64 65 20 6f 66       	fs and %ch,%gs:0x66(%edi)
c01090ef:	20 73 69             	and    %dh,0x69(%ebx)
c01090f2:	7a 65                	jp     c0109159 <find_node+0x1721>
c01090f4:	20 25 64 20 77 61    	and    %ah,0x61772064
c01090fa:	73 20                	jae    c010911c <find_node+0x16e4>
c01090fc:	6e                   	outsb  %ds:(%esi),(%dx)
c01090fd:	6f                   	outsl  %ds:(%esi),(%dx)
c01090fe:	74 20                	je     c0109120 <find_node+0x16e8>
c0109100:	66 6f                	outsw  %ds:(%esi),(%dx)
c0109102:	75 6e                	jne    c0109172 <find_node+0x173a>
c0109104:	64 0a 00             	or     %fs:(%eax),%al

Disassembly of section .data:

c010a000 <mem_top>:
c010a000:	00 00                	add    %al,(%eax)
c010a002:	00 02                	add    %al,(%edx)

c010a004 <mem_bottom>:
c010a004:	00 00                	add    %al,(%eax)
c010a006:	00 01                	add    %al,(%ecx)

c010a008 <pre_mem>:
c010a008:	dc 20                	fsubl  (%eax)
c010a00a:	11 c0                	adc    %eax,%eax

c010a00c <test_try>:
c010a00c:	02 02                	add    (%edx),%al
c010a00e:	02 00                	add    (%eax),%al
c010a010:	00 00                	add    %al,(%eax)
c010a012:	02 00                	add    (%eax),%al
	...

c010a020 <key_lookup>:
c010a020:	00 00                	add    %al,(%eax)
c010a022:	00 00                	add    %al,(%eax)
c010a024:	04 00                	add    $0x0,%al
c010a026:	00 00                	add    %al,(%eax)
c010a028:	0a 00                	or     (%eax),%al
c010a02a:	00 00                	add    %al,(%eax)
c010a02c:	0b 00                	or     (%eax),%eax
c010a02e:	00 00                	add    %al,(%eax)
c010a030:	0c 00                	or     $0x0,%al
c010a032:	00 00                	add    %al,(%eax)
c010a034:	0d 00 00 00 0e       	or     $0xe000000,%eax
c010a039:	00 00                	add    %al,(%eax)
c010a03b:	00 0f                	add    %cl,(%edi)
c010a03d:	00 00                	add    %al,(%eax)
c010a03f:	00 10                	add    %dl,(%eax)
c010a041:	00 00                	add    %al,(%eax)
c010a043:	00 11                	add    %dl,(%ecx)
c010a045:	00 00                	add    %al,(%eax)
c010a047:	00 12                	add    %dl,(%edx)
c010a049:	00 00                	add    %al,(%eax)
c010a04b:	00 13                	add    %dl,(%ebx)
c010a04d:	00 00                	add    %al,(%eax)
c010a04f:	00 3b                	add    %bh,(%ebx)
c010a051:	00 00                	add    %al,(%eax)
c010a053:	00 3a                	add    %bh,(%edx)
c010a055:	00 00                	add    %al,(%eax)
c010a057:	00 02                	add    %al,(%edx)
c010a059:	00 00                	add    %al,(%eax)
c010a05b:	00 03                	add    %al,(%ebx)
c010a05d:	00 00                	add    %al,(%eax)
c010a05f:	00 24 00             	add    %ah,(%eax,%eax,1)
c010a062:	00 00                	add    %al,(%eax)
c010a064:	2a 00                	sub    (%eax),%al
c010a066:	00 00                	add    %al,(%eax)
c010a068:	18 00                	sbb    %al,(%eax)
c010a06a:	00 00                	add    %al,(%eax)
c010a06c:	25 00 00 00 27       	and    $0x27000000,%eax
c010a071:	00 00                	add    %al,(%eax)
c010a073:	00 2c 00             	add    %ch,(%eax,%eax,1)
c010a076:	00 00                	add    %al,(%eax)
c010a078:	28 00                	sub    %al,(%eax)
c010a07a:	00 00                	add    %al,(%eax)
c010a07c:	1c 00                	sbb    $0x0,%al
c010a07e:	00 00                	add    %al,(%eax)
c010a080:	22 00                	and    (%eax),%al
c010a082:	00 00                	add    %al,(%eax)
c010a084:	23 00                	and    (%eax),%eax
c010a086:	00 00                	add    %al,(%eax)
c010a088:	40                   	inc    %eax
c010a089:	00 00                	add    %al,(%eax)
c010a08b:	00 3f                	add    %bh,(%edi)
c010a08d:	00 00                	add    %al,(%eax)
c010a08f:	00 05 00 00 00 07    	add    %al,0x7000000
c010a095:	00 00                	add    %al,(%eax)
c010a097:	00 14 00             	add    %dl,(%eax,%eax,1)
c010a09a:	00 00                	add    %al,(%eax)
c010a09c:	26 00 00             	add    %al,%es:(%eax)
c010a09f:	00 17                	add    %dl,(%edi)
c010a0a1:	00 00                	add    %al,(%eax)
c010a0a3:	00 19                	add    %bl,(%ecx)
c010a0a5:	00 00                	add    %al,(%eax)
c010a0a7:	00 1a                	add    %bl,(%edx)
c010a0a9:	00 00                	add    %al,(%eax)
c010a0ab:	00 1b                	add    %bl,(%ebx)
c010a0ad:	00 00                	add    %al,(%eax)
c010a0af:	00 1d 00 00 00 1e    	add    %bl,0x1e000000
c010a0b5:	00 00                	add    %al,(%eax)
c010a0b7:	00 1f                	add    %bl,(%edi)
c010a0b9:	00 00                	add    %al,(%eax)
c010a0bb:	00 45 00             	add    %al,0x0(%ebp)
c010a0be:	00 00                	add    %al,(%eax)
c010a0c0:	44                   	inc    %esp
c010a0c1:	00 00                	add    %al,(%eax)
c010a0c3:	00 43 00             	add    %al,0x0(%ebx)
c010a0c6:	00 00                	add    %al,(%eax)
c010a0c8:	06                   	push   %es
c010a0c9:	00 00                	add    %al,(%eax)
c010a0cb:	00 3e                	add    %bh,(%esi)
c010a0cd:	00 00                	add    %al,(%eax)
c010a0cf:	00 2d 00 00 00 2b    	add    %ch,0x2b000000
c010a0d5:	00 00                	add    %al,(%eax)
c010a0d7:	00 16                	add    %dl,(%esi)
c010a0d9:	00 00                	add    %al,(%eax)
c010a0db:	00 29                	add    %ch,(%ecx)
c010a0dd:	00 00                	add    %al,(%eax)
c010a0df:	00 15 00 00 00 21    	add    %dl,0x21000000
c010a0e5:	00 00                	add    %al,(%eax)
c010a0e7:	00 20                	add    %ah,(%eax)
c010a0e9:	00 00                	add    %al,(%eax)
c010a0eb:	00 42 00             	add    %al,0x0(%edx)
c010a0ee:	00 00                	add    %al,(%eax)
c010a0f0:	41                   	inc    %ecx
c010a0f1:	00 00                	add    %al,(%eax)
c010a0f3:	00 3d 00 00 00 06    	add    %bh,0x6000000
c010a0f9:	00 00                	add    %al,(%eax)
c010a0fb:	00 00                	add    %al,(%eax)
c010a0fd:	00 00                	add    %al,(%eax)
c010a0ff:	00 08                	add    %cl,(%eax)
c010a101:	00 00                	add    %al,(%eax)
c010a103:	00 01                	add    %al,(%ecx)
c010a105:	00 00                	add    %al,(%eax)
c010a107:	00 09                	add    %cl,(%ecx)
c010a109:	00 00                	add    %al,(%eax)
c010a10b:	00 2e                	add    %ch,(%esi)
c010a10d:	00 00                	add    %al,(%eax)
c010a10f:	00 2f                	add    %ch,(%edi)
c010a111:	00 00                	add    %al,(%eax)
c010a113:	00 30                	add    %dh,(%eax)
c010a115:	00 00                	add    %al,(%eax)
c010a117:	00 31                	add    %dh,(%ecx)
c010a119:	00 00                	add    %al,(%eax)
c010a11b:	00 32                	add    %dh,(%edx)
c010a11d:	00 00                	add    %al,(%eax)
c010a11f:	00 33                	add    %dh,(%ebx)
c010a121:	00 00                	add    %al,(%eax)
c010a123:	00 34 00             	add    %dh,(%eax,%eax,1)
c010a126:	00 00                	add    %al,(%eax)
c010a128:	35 00 00 00 36       	xor    $0x36000000,%eax
c010a12d:	00 00                	add    %al,(%eax)
c010a12f:	00 37                	add    %dh,(%edi)
	...
c010a179:	00 00                	add    %al,(%eax)
c010a17b:	00 38                	add    %bh,(%eax)
c010a17d:	00 00                	add    %al,(%eax)
c010a17f:	00 39                	add    %bh,(%ecx)
c010a181:	00 00                	add    %al,(%eax)
	...

c010a184 <font_size>:
c010a184:	01 00                	add    %eax,(%eax)

c010a186 <user_char_index>:
c010a186:	02 00                	add    (%eax),%al

c010a188 <term_fg>:
c010a188:	00 f0                	add    %dh,%al
c010a18a:	f0 f0          	lock lock ss add $0x2,%al

c010a18c <_binary_font_psf_start>:
c010a18c:	36 04 02             	ss add $0x2,%al
c010a18f:	10 00                	adc    %al,(%eax)
c010a191:	00 00                	add    %al,(%eax)
c010a193:	3e 63 5d 7d          	arpl   %ebx,%ds:0x7d(%ebp)
c010a197:	7b 77                	jnp    c010a210 <_binary_font_psf_start+0x84>
c010a199:	77 7f                	ja     c010a21a <_binary_font_psf_start+0x8e>
c010a19b:	77 3e                	ja     c010a1db <_binary_font_psf_start+0x4f>
	...
c010a1a5:	7e 24                	jle    c010a1cb <_binary_font_psf_start+0x3f>
c010a1a7:	24 24                	and    $0x24,%al
c010a1a9:	24 24                	and    $0x24,%al
c010a1ab:	24 22                	and    $0x22,%al
c010a1ad:	00 00                	add    %al,(%eax)
c010a1af:	00 00                	add    %al,(%eax)
c010a1b1:	00 00                	add    %al,(%eax)
c010a1b3:	00 01                	add    %al,(%ecx)
c010a1b5:	02 7f 04             	add    0x4(%edi),%bh
c010a1b8:	08 10                	or     %dl,(%eax)
c010a1ba:	7f 20                	jg     c010a1dc <_binary_font_psf_start+0x50>
c010a1bc:	40                   	inc    %eax
c010a1bd:	00 00                	add    %al,(%eax)
c010a1bf:	00 00                	add    %al,(%eax)
c010a1c1:	00 00                	add    %al,(%eax)
c010a1c3:	00 08                	add    %cl,(%eax)
c010a1c5:	10 20                	adc    %ah,(%eax)
c010a1c7:	40                   	inc    %eax
c010a1c8:	20 10                	and    %dl,(%eax)
c010a1ca:	08 00                	or     %al,(%eax)
c010a1cc:	7c 00                	jl     c010a1ce <_binary_font_psf_start+0x42>
c010a1ce:	00 00                	add    %al,(%eax)
c010a1d0:	00 00                	add    %al,(%eax)
c010a1d2:	00 00                	add    %al,(%eax)
c010a1d4:	10 08                	adc    %cl,(%eax)
c010a1d6:	04 02                	add    $0x2,%al
c010a1d8:	04 08                	add    $0x8,%al
c010a1da:	10 00                	adc    %al,(%eax)
c010a1dc:	3e 00 00             	add    %al,%ds:(%eax)
c010a1df:	00 00                	add    %al,(%eax)
c010a1e1:	00 00                	add    %al,(%eax)
c010a1e3:	00 00                	add    %al,(%eax)
c010a1e5:	7e 7e                	jle    c010a265 <_binary_font_psf_start+0xd9>
c010a1e7:	7e 7e                	jle    c010a267 <_binary_font_psf_start+0xdb>
c010a1e9:	7e 7e                	jle    c010a269 <_binary_font_psf_start+0xdd>
c010a1eb:	7e 00                	jle    c010a1ed <_binary_font_psf_start+0x61>
	...
c010a1f5:	10 38                	adc    %bh,(%eax)
c010a1f7:	7c fe                	jl     c010a1f7 <_binary_font_psf_start+0x6b>
c010a1f9:	7c 38                	jl     c010a233 <_binary_font_psf_start+0xa7>
c010a1fb:	10 00                	adc    %al,(%eax)
c010a1fd:	00 00                	add    %al,(%eax)
c010a1ff:	00 00                	add    %al,(%eax)
c010a201:	00 10                	add    %dl,(%eax)
c010a203:	30 10                	xor    %dl,(%eax)
c010a205:	11 12                	adc    %edx,(%edx)
c010a207:	04 08                	add    $0x8,%al
c010a209:	12 26                	adc    (%esi),%ah
c010a20b:	4a                   	dec    %edx
c010a20c:	0f 02 02             	lar    (%edx),%eax
c010a20f:	00 00                	add    %al,(%eax)
c010a211:	00 10                	add    %dl,(%eax)
c010a213:	30 10                	xor    %dl,(%eax)
c010a215:	11 12                	adc    %edx,(%edx)
c010a217:	04 08                	add    $0x8,%al
c010a219:	10 26                	adc    %ah,(%esi)
c010a21b:	49                   	dec    %ecx
c010a21c:	02 04 0f             	add    (%edi,%ecx,1),%al
c010a21f:	00 00                	add    %al,(%eax)
c010a221:	00 70 08             	add    %dh,0x8(%eax)
c010a224:	30 09                	xor    %cl,(%ecx)
c010a226:	72 04                	jb     c010a22c <_binary_font_psf_start+0xa0>
c010a228:	08 12                	or     %dl,(%edx)
c010a22a:	26 4a                	es dec %edx
c010a22c:	0f 02 02             	lar    (%edx),%eax
c010a22f:	00 00                	add    %al,(%eax)
c010a231:	00 08                	add    %cl,(%eax)
c010a233:	08 08                	or     %cl,(%eax)
c010a235:	08 08                	or     %cl,(%eax)
c010a237:	00 00                	add    %al,(%eax)
c010a239:	08 08                	or     %cl,(%eax)
c010a23b:	08 08                	or     %cl,(%eax)
c010a23d:	08 00                	or     %al,(%eax)
c010a23f:	00 00                	add    %al,(%eax)
c010a241:	24 24                	and    $0x24,%al
	...
c010a25b:	00 00                	add    %al,(%eax)
c010a25d:	08 08                	or     %cl,(%eax)
c010a25f:	30 00                	xor    %al,(%eax)
c010a261:	00 07                	add    %al,(%edi)
c010a263:	08 08                	or     %cl,(%eax)
c010a265:	08 3e                	or     %bh,(%esi)
c010a267:	08 08                	or     %cl,(%eax)
c010a269:	08 08                	or     %cl,(%eax)
c010a26b:	08 08                	or     %cl,(%eax)
c010a26d:	70 00                	jo     c010a26f <_binary_font_psf_start+0xe3>
c010a26f:	00 00                	add    %al,(%eax)
c010a271:	00 00                	add    %al,(%eax)
c010a273:	08 08                	or     %cl,(%eax)
c010a275:	3e 08 08             	or     %cl,%ds:(%eax)
c010a278:	08 08                	or     %cl,(%eax)
c010a27a:	08 08                	or     %cl,(%eax)
c010a27c:	08 00                	or     %al,(%eax)
c010a27e:	00 00                	add    %al,(%eax)
c010a280:	00 00                	add    %al,(%eax)
c010a282:	00 08                	add    %cl,(%eax)
c010a284:	08 3e                	or     %bh,(%esi)
c010a286:	08 08                	or     %cl,(%eax)
c010a288:	08 08                	or     %cl,(%eax)
c010a28a:	3e 08 08             	or     %cl,%ds:(%eax)
c010a28d:	00 00                	add    %al,(%eax)
c010a28f:	00 00                	add    %al,(%eax)
c010a291:	00 00                	add    %al,(%eax)
c010a293:	42                   	inc    %edx
c010a294:	a4                   	movsb  %ds:(%esi),%es:(%edi)
c010a295:	a4                   	movsb  %ds:(%esi),%es:(%edi)
c010a296:	48                   	dec    %eax
c010a297:	10 10                	adc    %dl,(%eax)
c010a299:	2a 55 55             	sub    0x55(%ebp),%dl
c010a29c:	8a 00                	mov    (%eax),%al
c010a29e:	00 00                	add    %al,(%eax)
c010a2a0:	00 00                	add    %al,(%eax)
c010a2a2:	00 f1                	add    %dh,%cl
c010a2a4:	5b                   	pop    %ebx
c010a2a5:	55                   	push   %ebp
c010a2a6:	51                   	push   %ecx
	...
c010a2bb:	49                   	dec    %ecx
c010a2bc:	49                   	dec    %ecx
	...
c010a2c5:	00 08                	add    %cl,(%eax)
c010a2c7:	10 20                	adc    %ah,(%eax)
c010a2c9:	10 08                	adc    %cl,(%eax)
	...
c010a2d3:	00 00                	add    %al,(%eax)
c010a2d5:	00 10                	add    %dl,(%eax)
c010a2d7:	08 04 08             	or     %al,(%eax,%ecx,1)
c010a2da:	10 00                	adc    %al,(%eax)
c010a2dc:	00 00                	add    %al,(%eax)
c010a2de:	00 00                	add    %al,(%eax)
c010a2e0:	00 24 24             	add    %ah,(%esp)
c010a2e3:	24 12                	and    $0x12,%al
	...
c010a2f1:	24 24                	and    $0x24,%al
c010a2f3:	24 48                	and    $0x48,%al
	...
c010a309:	00 00                	add    %al,(%eax)
c010a30b:	24 24                	and    $0x24,%al
c010a30d:	24 48                	and    $0x48,%al
	...
c010a31b:	24 24                	and    $0x24,%al
c010a31d:	24 12                	and    $0x12,%al
	...
c010a32b:	10 10                	adc    %dl,(%eax)
c010a32d:	10 08                	adc    %cl,(%eax)
c010a32f:	00 42 3c             	add    %al,0x3c(%edx)
c010a332:	00 3c 42             	add    %bh,(%edx,%eax,2)
c010a335:	42                   	inc    %edx
c010a336:	40                   	inc    %eax
c010a337:	40                   	inc    %eax
c010a338:	4e                   	dec    %esi
c010a339:	42                   	inc    %edx
c010a33a:	42                   	inc    %edx
c010a33b:	42                   	inc    %edx
c010a33c:	3c 00                	cmp    $0x0,%al
c010a33e:	00 00                	add    %al,(%eax)
c010a340:	00 42 3c             	add    %al,0x3c(%edx)
c010a343:	00 00                	add    %al,(%eax)
c010a345:	3a 46 42             	cmp    0x42(%esi),%al
c010a348:	42                   	inc    %edx
c010a349:	42                   	inc    %edx
c010a34a:	46                   	inc    %esi
c010a34b:	3a 02                	cmp    (%edx),%al
c010a34d:	02 42 3c             	add    0x3c(%edx),%al
c010a350:	08 08                	or     %cl,(%eax)
c010a352:	00 3e                	add    %bh,(%esi)
c010a354:	08 08                	or     %cl,(%eax)
c010a356:	08 08                	or     %cl,(%eax)
c010a358:	08 08                	or     %cl,(%eax)
c010a35a:	08 08                	or     %cl,(%eax)
c010a35c:	3e 00 00             	add    %al,%ds:(%eax)
c010a35f:	00 00                	add    %al,(%eax)
c010a361:	00 00                	add    %al,(%eax)
c010a363:	00 00                	add    %al,(%eax)
c010a365:	18 08                	sbb    %cl,(%eax)
c010a367:	08 08                	or     %cl,(%eax)
c010a369:	08 08                	or     %cl,(%eax)
c010a36b:	08 3e                	or     %bh,(%esi)
c010a36d:	00 00                	add    %al,(%eax)
c010a36f:	00 00                	add    %al,(%eax)
c010a371:	00 00                	add    %al,(%eax)
c010a373:	3c 42                	cmp    $0x42,%al
c010a375:	42                   	inc    %edx
c010a376:	40                   	inc    %eax
c010a377:	30 0c 02             	xor    %cl,(%edx,%eax,1)
c010a37a:	42                   	inc    %edx
c010a37b:	42                   	inc    %edx
c010a37c:	3c 08                	cmp    $0x8,%al
c010a37e:	08 30                	or     %dh,(%eax)
c010a380:	00 00                	add    %al,(%eax)
c010a382:	00 00                	add    %al,(%eax)
c010a384:	00 3c 42             	add    %bh,(%edx,%eax,2)
c010a387:	40                   	inc    %eax
c010a388:	30 0c 02             	xor    %cl,(%edx,%eax,1)
c010a38b:	42                   	inc    %edx
c010a38c:	3c 08                	cmp    $0x8,%al
c010a38e:	08 30                	or     %dh,(%eax)
	...
c010a3a0:	00 00                	add    %al,(%eax)
c010a3a2:	00 08                	add    %cl,(%eax)
c010a3a4:	08 08                	or     %cl,(%eax)
c010a3a6:	08 08                	or     %cl,(%eax)
c010a3a8:	08 08                	or     %cl,(%eax)
c010a3aa:	00 08                	add    %cl,(%eax)
c010a3ac:	08 00                	or     %al,(%eax)
c010a3ae:	00 00                	add    %al,(%eax)
c010a3b0:	00 24 24             	add    %ah,(%esp)
c010a3b3:	24 24                	and    $0x24,%al
	...
c010a3c1:	00 00                	add    %al,(%eax)
c010a3c3:	24 24                	and    $0x24,%al
c010a3c5:	24 7e                	and    $0x7e,%al
c010a3c7:	24 24                	and    $0x24,%al
c010a3c9:	7e 24                	jle    c010a3ef <_binary_font_psf_start+0x263>
c010a3cb:	24 24                	and    $0x24,%al
c010a3cd:	00 00                	add    %al,(%eax)
c010a3cf:	00 00                	add    %al,(%eax)
c010a3d1:	00 08                	add    %cl,(%eax)
c010a3d3:	08 3e                	or     %bh,(%esi)
c010a3d5:	49                   	dec    %ecx
c010a3d6:	48                   	dec    %eax
c010a3d7:	48                   	dec    %eax
c010a3d8:	3e 09 09             	or     %ecx,%ds:(%ecx)
c010a3db:	49                   	dec    %ecx
c010a3dc:	3e 08 08             	or     %cl,%ds:(%eax)
c010a3df:	00 00                	add    %al,(%eax)
c010a3e1:	00 00                	add    %al,(%eax)
c010a3e3:	31 4a 4a             	xor    %ecx,0x4a(%edx)
c010a3e6:	34 08                	xor    $0x8,%al
c010a3e8:	08 16                	or     %dl,(%esi)
c010a3ea:	29 29                	sub    %ebp,(%ecx)
c010a3ec:	46                   	inc    %esi
c010a3ed:	00 00                	add    %al,(%eax)
c010a3ef:	00 00                	add    %al,(%eax)
c010a3f1:	00 00                	add    %al,(%eax)
c010a3f3:	18 24 24             	sbb    %ah,(%esp)
c010a3f6:	24 18                	and    $0x18,%al
c010a3f8:	28 45 42             	sub    %al,0x42(%ebp)
c010a3fb:	46                   	inc    %esi
c010a3fc:	39 00                	cmp    %eax,(%eax)
c010a3fe:	00 00                	add    %al,(%eax)
c010a400:	00 08                	add    %cl,(%eax)
c010a402:	08 08                	or     %cl,(%eax)
c010a404:	10 00                	adc    %al,(%eax)
	...
c010a412:	04 08                	add    $0x8,%al
c010a414:	08 10                	or     %dl,(%eax)
c010a416:	10 10                	adc    %dl,(%eax)
c010a418:	10 10                	adc    %dl,(%eax)
c010a41a:	10 08                	adc    %cl,(%eax)
c010a41c:	08 04 00             	or     %al,(%eax,%eax,1)
c010a41f:	00 00                	add    %al,(%eax)
c010a421:	00 20                	add    %ah,(%eax)
c010a423:	10 10                	adc    %dl,(%eax)
c010a425:	08 08                	or     %cl,(%eax)
c010a427:	08 08                	or     %cl,(%eax)
c010a429:	08 08                	or     %cl,(%eax)
c010a42b:	10 10                	adc    %dl,(%eax)
c010a42d:	20 00                	and    %al,(%eax)
c010a42f:	00 00                	add    %al,(%eax)
c010a431:	00 00                	add    %al,(%eax)
c010a433:	00 00                	add    %al,(%eax)
c010a435:	08 49 2a             	or     %cl,0x2a(%ecx)
c010a438:	1c 2a                	sbb    $0x2a,%al
c010a43a:	49                   	dec    %ecx
c010a43b:	08 00                	or     %al,(%eax)
	...
c010a445:	08 08                	or     %cl,(%eax)
c010a447:	08 7f 08             	or     %bh,0x8(%edi)
c010a44a:	08 08                	or     %cl,(%eax)
	...
c010a458:	00 00                	add    %al,(%eax)
c010a45a:	00 08                	add    %cl,(%eax)
c010a45c:	08 08                	or     %cl,(%eax)
c010a45e:	10 00                	adc    %al,(%eax)
	...
c010a468:	7e 00                	jle    c010a46a <_binary_font_psf_start+0x2de>
	...
c010a47a:	00 08                	add    %cl,(%eax)
c010a47c:	08 00                	or     %al,(%eax)
c010a47e:	00 00                	add    %al,(%eax)
c010a480:	00 00                	add    %al,(%eax)
c010a482:	00 02                	add    %al,(%edx)
c010a484:	02 04 04             	add    (%esp,%eax,1),%al
c010a487:	08 08                	or     %cl,(%eax)
c010a489:	10 10                	adc    %dl,(%eax)
c010a48b:	20 20                	and    %ah,(%eax)
c010a48d:	00 00                	add    %al,(%eax)
c010a48f:	00 00                	add    %al,(%eax)
c010a491:	00 00                	add    %al,(%eax)
c010a493:	3c 42                	cmp    $0x42,%al
c010a495:	42                   	inc    %edx
c010a496:	42                   	inc    %edx
c010a497:	4a                   	dec    %edx
c010a498:	52                   	push   %edx
c010a499:	42                   	inc    %edx
c010a49a:	42                   	inc    %edx
c010a49b:	42                   	inc    %edx
c010a49c:	3c 00                	cmp    $0x0,%al
c010a49e:	00 00                	add    %al,(%eax)
c010a4a0:	00 00                	add    %al,(%eax)
c010a4a2:	00 08                	add    %cl,(%eax)
c010a4a4:	18 28                	sbb    %ch,(%eax)
c010a4a6:	08 08                	or     %cl,(%eax)
c010a4a8:	08 08                	or     %cl,(%eax)
c010a4aa:	08 08                	or     %cl,(%eax)
c010a4ac:	3e 00 00             	add    %al,%ds:(%eax)
c010a4af:	00 00                	add    %al,(%eax)
c010a4b1:	00 00                	add    %al,(%eax)
c010a4b3:	3c 42                	cmp    $0x42,%al
c010a4b5:	42                   	inc    %edx
c010a4b6:	02 04 08             	add    (%eax,%ecx,1),%al
c010a4b9:	10 20                	adc    %ah,(%eax)
c010a4bb:	40                   	inc    %eax
c010a4bc:	7e 00                	jle    c010a4be <_binary_font_psf_start+0x332>
c010a4be:	00 00                	add    %al,(%eax)
c010a4c0:	00 00                	add    %al,(%eax)
c010a4c2:	00 3c 42             	add    %bh,(%edx,%eax,2)
c010a4c5:	42                   	inc    %edx
c010a4c6:	02 1c 02             	add    (%edx,%eax,1),%bl
c010a4c9:	02 42 42             	add    0x42(%edx),%al
c010a4cc:	3c 00                	cmp    $0x0,%al
c010a4ce:	00 00                	add    %al,(%eax)
c010a4d0:	00 00                	add    %al,(%eax)
c010a4d2:	00 04 0c             	add    %al,(%esp,%ecx,1)
c010a4d5:	14 24                	adc    $0x24,%al
c010a4d7:	44                   	inc    %esp
c010a4d8:	44                   	inc    %esp
c010a4d9:	7e 04                	jle    c010a4df <_binary_font_psf_start+0x353>
c010a4db:	04 04                	add    $0x4,%al
c010a4dd:	00 00                	add    %al,(%eax)
c010a4df:	00 00                	add    %al,(%eax)
c010a4e1:	00 00                	add    %al,(%eax)
c010a4e3:	7e 40                	jle    c010a525 <_binary_font_psf_start+0x399>
c010a4e5:	40                   	inc    %eax
c010a4e6:	40                   	inc    %eax
c010a4e7:	7c 02                	jl     c010a4eb <_binary_font_psf_start+0x35f>
c010a4e9:	02 02                	add    (%edx),%al
c010a4eb:	42                   	inc    %edx
c010a4ec:	3c 00                	cmp    $0x0,%al
c010a4ee:	00 00                	add    %al,(%eax)
c010a4f0:	00 00                	add    %al,(%eax)
c010a4f2:	00 1c 20             	add    %bl,(%eax,%eiz,1)
c010a4f5:	40                   	inc    %eax
c010a4f6:	40                   	inc    %eax
c010a4f7:	7c 42                	jl     c010a53b <_binary_font_psf_start+0x3af>
c010a4f9:	42                   	inc    %edx
c010a4fa:	42                   	inc    %edx
c010a4fb:	42                   	inc    %edx
c010a4fc:	3c 00                	cmp    $0x0,%al
c010a4fe:	00 00                	add    %al,(%eax)
c010a500:	00 00                	add    %al,(%eax)
c010a502:	00 7e 02             	add    %bh,0x2(%esi)
c010a505:	02 04 04             	add    (%esp,%eax,1),%al
c010a508:	08 08                	or     %cl,(%eax)
c010a50a:	10 10                	adc    %dl,(%eax)
c010a50c:	10 00                	adc    %al,(%eax)
c010a50e:	00 00                	add    %al,(%eax)
c010a510:	00 00                	add    %al,(%eax)
c010a512:	00 3c 42             	add    %bh,(%edx,%eax,2)
c010a515:	42                   	inc    %edx
c010a516:	42                   	inc    %edx
c010a517:	3c 42                	cmp    $0x42,%al
c010a519:	42                   	inc    %edx
c010a51a:	42                   	inc    %edx
c010a51b:	42                   	inc    %edx
c010a51c:	3c 00                	cmp    $0x0,%al
c010a51e:	00 00                	add    %al,(%eax)
c010a520:	00 00                	add    %al,(%eax)
c010a522:	00 3c 42             	add    %bh,(%edx,%eax,2)
c010a525:	42                   	inc    %edx
c010a526:	42                   	inc    %edx
c010a527:	42                   	inc    %edx
c010a528:	3e 02 02             	add    %ds:(%edx),%al
c010a52b:	04 38                	add    $0x38,%al
	...
c010a535:	00 08                	add    %cl,(%eax)
c010a537:	08 00                	or     %al,(%eax)
c010a539:	00 00                	add    %al,(%eax)
c010a53b:	08 08                	or     %cl,(%eax)
	...
c010a545:	00 08                	add    %cl,(%eax)
c010a547:	08 00                	or     %al,(%eax)
c010a549:	00 00                	add    %al,(%eax)
c010a54b:	08 08                	or     %cl,(%eax)
c010a54d:	08 10                	or     %dl,(%eax)
c010a54f:	00 00                	add    %al,(%eax)
c010a551:	00 00                	add    %al,(%eax)
c010a553:	00 04 08             	add    %al,(%eax,%ecx,1)
c010a556:	10 20                	adc    %ah,(%eax)
c010a558:	40                   	inc    %eax
c010a559:	20 10                	and    %dl,(%eax)
c010a55b:	08 04 00             	or     %al,(%eax,%eax,1)
	...
c010a566:	7e 00                	jle    c010a568 <_binary_font_psf_start+0x3dc>
c010a568:	00 00                	add    %al,(%eax)
c010a56a:	7e 00                	jle    c010a56c <_binary_font_psf_start+0x3e0>
	...
c010a574:	20 10                	and    %dl,(%eax)
c010a576:	08 04 02             	or     %al,(%edx,%eax,1)
c010a579:	04 08                	add    $0x8,%al
c010a57b:	10 20                	adc    %ah,(%eax)
c010a57d:	00 00                	add    %al,(%eax)
c010a57f:	00 00                	add    %al,(%eax)
c010a581:	00 00                	add    %al,(%eax)
c010a583:	3c 42                	cmp    $0x42,%al
c010a585:	42                   	inc    %edx
c010a586:	02 04 08             	add    (%eax,%ecx,1),%al
c010a589:	08 00                	or     %al,(%eax)
c010a58b:	08 08                	or     %cl,(%eax)
c010a58d:	00 00                	add    %al,(%eax)
c010a58f:	00 00                	add    %al,(%eax)
c010a591:	00 00                	add    %al,(%eax)
c010a593:	1c 22                	sbb    $0x22,%al
c010a595:	4a                   	dec    %edx
c010a596:	56                   	push   %esi
c010a597:	52                   	push   %edx
c010a598:	52                   	push   %edx
c010a599:	52                   	push   %edx
c010a59a:	4e                   	dec    %esi
c010a59b:	20 1e                	and    %bl,(%esi)
c010a59d:	00 00                	add    %al,(%eax)
c010a59f:	00 00                	add    %al,(%eax)
c010a5a1:	00 00                	add    %al,(%eax)
c010a5a3:	18 24 24             	sbb    %ah,(%esp)
c010a5a6:	42                   	inc    %edx
c010a5a7:	42                   	inc    %edx
c010a5a8:	7e 42                	jle    c010a5ec <_binary_font_psf_start+0x460>
c010a5aa:	42                   	inc    %edx
c010a5ab:	42                   	inc    %edx
c010a5ac:	42                   	inc    %edx
c010a5ad:	00 00                	add    %al,(%eax)
c010a5af:	00 00                	add    %al,(%eax)
c010a5b1:	00 00                	add    %al,(%eax)
c010a5b3:	7c 42                	jl     c010a5f7 <_binary_font_psf_start+0x46b>
c010a5b5:	42                   	inc    %edx
c010a5b6:	42                   	inc    %edx
c010a5b7:	7c 42                	jl     c010a5fb <_binary_font_psf_start+0x46f>
c010a5b9:	42                   	inc    %edx
c010a5ba:	42                   	inc    %edx
c010a5bb:	42                   	inc    %edx
c010a5bc:	7c 00                	jl     c010a5be <_binary_font_psf_start+0x432>
c010a5be:	00 00                	add    %al,(%eax)
c010a5c0:	00 00                	add    %al,(%eax)
c010a5c2:	00 3c 42             	add    %bh,(%edx,%eax,2)
c010a5c5:	42                   	inc    %edx
c010a5c6:	40                   	inc    %eax
c010a5c7:	40                   	inc    %eax
c010a5c8:	40                   	inc    %eax
c010a5c9:	40                   	inc    %eax
c010a5ca:	42                   	inc    %edx
c010a5cb:	42                   	inc    %edx
c010a5cc:	3c 00                	cmp    $0x0,%al
c010a5ce:	00 00                	add    %al,(%eax)
c010a5d0:	00 00                	add    %al,(%eax)
c010a5d2:	00 78 44             	add    %bh,0x44(%eax)
c010a5d5:	42                   	inc    %edx
c010a5d6:	42                   	inc    %edx
c010a5d7:	42                   	inc    %edx
c010a5d8:	42                   	inc    %edx
c010a5d9:	42                   	inc    %edx
c010a5da:	42                   	inc    %edx
c010a5db:	44                   	inc    %esp
c010a5dc:	78 00                	js     c010a5de <_binary_font_psf_start+0x452>
c010a5de:	00 00                	add    %al,(%eax)
c010a5e0:	00 00                	add    %al,(%eax)
c010a5e2:	00 7e 40             	add    %bh,0x40(%esi)
c010a5e5:	40                   	inc    %eax
c010a5e6:	40                   	inc    %eax
c010a5e7:	7c 40                	jl     c010a629 <_binary_font_psf_start+0x49d>
c010a5e9:	40                   	inc    %eax
c010a5ea:	40                   	inc    %eax
c010a5eb:	40                   	inc    %eax
c010a5ec:	7e 00                	jle    c010a5ee <_binary_font_psf_start+0x462>
c010a5ee:	00 00                	add    %al,(%eax)
c010a5f0:	00 00                	add    %al,(%eax)
c010a5f2:	00 7e 40             	add    %bh,0x40(%esi)
c010a5f5:	40                   	inc    %eax
c010a5f6:	40                   	inc    %eax
c010a5f7:	7c 40                	jl     c010a639 <_binary_font_psf_start+0x4ad>
c010a5f9:	40                   	inc    %eax
c010a5fa:	40                   	inc    %eax
c010a5fb:	40                   	inc    %eax
c010a5fc:	40                   	inc    %eax
c010a5fd:	00 00                	add    %al,(%eax)
c010a5ff:	00 00                	add    %al,(%eax)
c010a601:	00 00                	add    %al,(%eax)
c010a603:	3c 42                	cmp    $0x42,%al
c010a605:	42                   	inc    %edx
c010a606:	40                   	inc    %eax
c010a607:	40                   	inc    %eax
c010a608:	4e                   	dec    %esi
c010a609:	42                   	inc    %edx
c010a60a:	42                   	inc    %edx
c010a60b:	42                   	inc    %edx
c010a60c:	3c 00                	cmp    $0x0,%al
c010a60e:	00 00                	add    %al,(%eax)
c010a610:	00 00                	add    %al,(%eax)
c010a612:	00 42 42             	add    %al,0x42(%edx)
c010a615:	42                   	inc    %edx
c010a616:	42                   	inc    %edx
c010a617:	7e 42                	jle    c010a65b <_binary_font_psf_start+0x4cf>
c010a619:	42                   	inc    %edx
c010a61a:	42                   	inc    %edx
c010a61b:	42                   	inc    %edx
c010a61c:	42                   	inc    %edx
c010a61d:	00 00                	add    %al,(%eax)
c010a61f:	00 00                	add    %al,(%eax)
c010a621:	00 00                	add    %al,(%eax)
c010a623:	3e 08 08             	or     %cl,%ds:(%eax)
c010a626:	08 08                	or     %cl,(%eax)
c010a628:	08 08                	or     %cl,(%eax)
c010a62a:	08 08                	or     %cl,(%eax)
c010a62c:	3e 00 00             	add    %al,%ds:(%eax)
c010a62f:	00 00                	add    %al,(%eax)
c010a631:	00 00                	add    %al,(%eax)
c010a633:	1f                   	pop    %ds
c010a634:	04 04                	add    $0x4,%al
c010a636:	04 04                	add    $0x4,%al
c010a638:	04 04                	add    $0x4,%al
c010a63a:	44                   	inc    %esp
c010a63b:	44                   	inc    %esp
c010a63c:	38 00                	cmp    %al,(%eax)
c010a63e:	00 00                	add    %al,(%eax)
c010a640:	00 00                	add    %al,(%eax)
c010a642:	00 42 44             	add    %al,0x44(%edx)
c010a645:	48                   	dec    %eax
c010a646:	50                   	push   %eax
c010a647:	60                   	pusha
c010a648:	60                   	pusha
c010a649:	50                   	push   %eax
c010a64a:	48                   	dec    %eax
c010a64b:	44                   	inc    %esp
c010a64c:	42                   	inc    %edx
c010a64d:	00 00                	add    %al,(%eax)
c010a64f:	00 00                	add    %al,(%eax)
c010a651:	00 00                	add    %al,(%eax)
c010a653:	40                   	inc    %eax
c010a654:	40                   	inc    %eax
c010a655:	40                   	inc    %eax
c010a656:	40                   	inc    %eax
c010a657:	40                   	inc    %eax
c010a658:	40                   	inc    %eax
c010a659:	40                   	inc    %eax
c010a65a:	40                   	inc    %eax
c010a65b:	40                   	inc    %eax
c010a65c:	7e 00                	jle    c010a65e <_binary_font_psf_start+0x4d2>
c010a65e:	00 00                	add    %al,(%eax)
c010a660:	00 00                	add    %al,(%eax)
c010a662:	00 41 63             	add    %al,0x63(%ecx)
c010a665:	63 55 55             	arpl   %edx,0x55(%ebp)
c010a668:	49                   	dec    %ecx
c010a669:	49                   	dec    %ecx
c010a66a:	41                   	inc    %ecx
c010a66b:	41                   	inc    %ecx
c010a66c:	41                   	inc    %ecx
c010a66d:	00 00                	add    %al,(%eax)
c010a66f:	00 00                	add    %al,(%eax)
c010a671:	00 00                	add    %al,(%eax)
c010a673:	42                   	inc    %edx
c010a674:	62 62 52             	bound  %esp,0x52(%edx)
c010a677:	52                   	push   %edx
c010a678:	4a                   	dec    %edx
c010a679:	4a                   	dec    %edx
c010a67a:	46                   	inc    %esi
c010a67b:	46                   	inc    %esi
c010a67c:	42                   	inc    %edx
c010a67d:	00 00                	add    %al,(%eax)
c010a67f:	00 00                	add    %al,(%eax)
c010a681:	00 00                	add    %al,(%eax)
c010a683:	3c 42                	cmp    $0x42,%al
c010a685:	42                   	inc    %edx
c010a686:	42                   	inc    %edx
c010a687:	42                   	inc    %edx
c010a688:	42                   	inc    %edx
c010a689:	42                   	inc    %edx
c010a68a:	42                   	inc    %edx
c010a68b:	42                   	inc    %edx
c010a68c:	3c 00                	cmp    $0x0,%al
c010a68e:	00 00                	add    %al,(%eax)
c010a690:	00 00                	add    %al,(%eax)
c010a692:	00 7c 42 42          	add    %bh,0x42(%edx,%eax,2)
c010a696:	42                   	inc    %edx
c010a697:	42                   	inc    %edx
c010a698:	7c 40                	jl     c010a6da <_binary_font_psf_start+0x54e>
c010a69a:	40                   	inc    %eax
c010a69b:	40                   	inc    %eax
c010a69c:	40                   	inc    %eax
c010a69d:	00 00                	add    %al,(%eax)
c010a69f:	00 00                	add    %al,(%eax)
c010a6a1:	00 00                	add    %al,(%eax)
c010a6a3:	3c 42                	cmp    $0x42,%al
c010a6a5:	42                   	inc    %edx
c010a6a6:	42                   	inc    %edx
c010a6a7:	42                   	inc    %edx
c010a6a8:	42                   	inc    %edx
c010a6a9:	42                   	inc    %edx
c010a6aa:	5a                   	pop    %edx
c010a6ab:	66 3c 03             	data16 cmp $0x3,%al
c010a6ae:	00 00                	add    %al,(%eax)
c010a6b0:	00 00                	add    %al,(%eax)
c010a6b2:	00 7c 42 42          	add    %bh,0x42(%edx,%eax,2)
c010a6b6:	42                   	inc    %edx
c010a6b7:	7c 48                	jl     c010a701 <_binary_font_psf_start+0x575>
c010a6b9:	44                   	inc    %esp
c010a6ba:	44                   	inc    %esp
c010a6bb:	42                   	inc    %edx
c010a6bc:	42                   	inc    %edx
c010a6bd:	00 00                	add    %al,(%eax)
c010a6bf:	00 00                	add    %al,(%eax)
c010a6c1:	00 00                	add    %al,(%eax)
c010a6c3:	3c 42                	cmp    $0x42,%al
c010a6c5:	42                   	inc    %edx
c010a6c6:	40                   	inc    %eax
c010a6c7:	30 0c 02             	xor    %cl,(%edx,%eax,1)
c010a6ca:	42                   	inc    %edx
c010a6cb:	42                   	inc    %edx
c010a6cc:	3c 00                	cmp    $0x0,%al
c010a6ce:	00 00                	add    %al,(%eax)
c010a6d0:	00 00                	add    %al,(%eax)
c010a6d2:	00 7f 08             	add    %bh,0x8(%edi)
c010a6d5:	08 08                	or     %cl,(%eax)
c010a6d7:	08 08                	or     %cl,(%eax)
c010a6d9:	08 08                	or     %cl,(%eax)
c010a6db:	08 08                	or     %cl,(%eax)
c010a6dd:	00 00                	add    %al,(%eax)
c010a6df:	00 00                	add    %al,(%eax)
c010a6e1:	00 00                	add    %al,(%eax)
c010a6e3:	42                   	inc    %edx
c010a6e4:	42                   	inc    %edx
c010a6e5:	42                   	inc    %edx
c010a6e6:	42                   	inc    %edx
c010a6e7:	42                   	inc    %edx
c010a6e8:	42                   	inc    %edx
c010a6e9:	42                   	inc    %edx
c010a6ea:	42                   	inc    %edx
c010a6eb:	42                   	inc    %edx
c010a6ec:	3c 00                	cmp    $0x0,%al
c010a6ee:	00 00                	add    %al,(%eax)
c010a6f0:	00 00                	add    %al,(%eax)
c010a6f2:	00 41 41             	add    %al,0x41(%ecx)
c010a6f5:	41                   	inc    %ecx
c010a6f6:	22 22                	and    (%edx),%ah
c010a6f8:	22 14 14             	and    (%esp,%edx,1),%dl
c010a6fb:	08 08                	or     %cl,(%eax)
c010a6fd:	00 00                	add    %al,(%eax)
c010a6ff:	00 00                	add    %al,(%eax)
c010a701:	00 00                	add    %al,(%eax)
c010a703:	41                   	inc    %ecx
c010a704:	41                   	inc    %ecx
c010a705:	41                   	inc    %ecx
c010a706:	49                   	dec    %ecx
c010a707:	49                   	dec    %ecx
c010a708:	55                   	push   %ebp
c010a709:	55                   	push   %ebp
c010a70a:	63 63 41             	arpl   %esp,0x41(%ebx)
c010a70d:	00 00                	add    %al,(%eax)
c010a70f:	00 00                	add    %al,(%eax)
c010a711:	00 00                	add    %al,(%eax)
c010a713:	42                   	inc    %edx
c010a714:	42                   	inc    %edx
c010a715:	24 24                	and    $0x24,%al
c010a717:	18 18                	sbb    %bl,(%eax)
c010a719:	24 24                	and    $0x24,%al
c010a71b:	42                   	inc    %edx
c010a71c:	42                   	inc    %edx
c010a71d:	00 00                	add    %al,(%eax)
c010a71f:	00 00                	add    %al,(%eax)
c010a721:	00 00                	add    %al,(%eax)
c010a723:	41                   	inc    %ecx
c010a724:	41                   	inc    %ecx
c010a725:	22 22                	and    (%edx),%ah
c010a727:	14 08                	adc    $0x8,%al
c010a729:	08 08                	or     %cl,(%eax)
c010a72b:	08 08                	or     %cl,(%eax)
c010a72d:	00 00                	add    %al,(%eax)
c010a72f:	00 00                	add    %al,(%eax)
c010a731:	00 00                	add    %al,(%eax)
c010a733:	7e 02                	jle    c010a737 <_binary_font_psf_start+0x5ab>
c010a735:	02 04 08             	add    (%eax,%ecx,1),%al
c010a738:	10 20                	adc    %ah,(%eax)
c010a73a:	40                   	inc    %eax
c010a73b:	40                   	inc    %eax
c010a73c:	7e 00                	jle    c010a73e <_binary_font_psf_start+0x5b2>
c010a73e:	00 00                	add    %al,(%eax)
c010a740:	00 00                	add    %al,(%eax)
c010a742:	1c 10                	sbb    $0x10,%al
c010a744:	10 10                	adc    %dl,(%eax)
c010a746:	10 10                	adc    %dl,(%eax)
c010a748:	10 10                	adc    %dl,(%eax)
c010a74a:	10 10                	adc    %dl,(%eax)
c010a74c:	10 1c 00             	adc    %bl,(%eax,%eax,1)
c010a74f:	00 00                	add    %al,(%eax)
c010a751:	00 00                	add    %al,(%eax)
c010a753:	20 20                	and    %ah,(%eax)
c010a755:	10 10                	adc    %dl,(%eax)
c010a757:	08 08                	or     %cl,(%eax)
c010a759:	04 04                	add    $0x4,%al
c010a75b:	02 02                	add    (%edx),%al
c010a75d:	00 00                	add    %al,(%eax)
c010a75f:	00 00                	add    %al,(%eax)
c010a761:	00 38                	add    %bh,(%eax)
c010a763:	08 08                	or     %cl,(%eax)
c010a765:	08 08                	or     %cl,(%eax)
c010a767:	08 08                	or     %cl,(%eax)
c010a769:	08 08                	or     %cl,(%eax)
c010a76b:	08 08                	or     %cl,(%eax)
c010a76d:	38 00                	cmp    %al,(%eax)
c010a76f:	00 00                	add    %al,(%eax)
c010a771:	08 14 22             	or     %dl,(%edx,%eiz,1)
c010a774:	41                   	inc    %ecx
	...
c010a78d:	7f 00                	jg     c010a78f <_binary_font_psf_start+0x603>
c010a78f:	00 00                	add    %al,(%eax)
c010a791:	10 10                	adc    %dl,(%eax)
c010a793:	10 08                	adc    %cl,(%eax)
	...
c010a7a5:	3c 42                	cmp    $0x42,%al
c010a7a7:	02 3e                	add    (%esi),%bh
c010a7a9:	42                   	inc    %edx
c010a7aa:	42                   	inc    %edx
c010a7ab:	46                   	inc    %esi
c010a7ac:	3a 00                	cmp    (%eax),%al
c010a7ae:	00 00                	add    %al,(%eax)
c010a7b0:	00 00                	add    %al,(%eax)
c010a7b2:	40                   	inc    %eax
c010a7b3:	40                   	inc    %eax
c010a7b4:	40                   	inc    %eax
c010a7b5:	5c                   	pop    %esp
c010a7b6:	62 42 42             	bound  %eax,0x42(%edx)
c010a7b9:	42                   	inc    %edx
c010a7ba:	42                   	inc    %edx
c010a7bb:	62 5c 00 00          	bound  %ebx,0x0(%eax,%eax,1)
c010a7bf:	00 00                	add    %al,(%eax)
c010a7c1:	00 00                	add    %al,(%eax)
c010a7c3:	00 00                	add    %al,(%eax)
c010a7c5:	3c 42                	cmp    $0x42,%al
c010a7c7:	40                   	inc    %eax
c010a7c8:	40                   	inc    %eax
c010a7c9:	40                   	inc    %eax
c010a7ca:	40                   	inc    %eax
c010a7cb:	42                   	inc    %edx
c010a7cc:	3c 00                	cmp    $0x0,%al
c010a7ce:	00 00                	add    %al,(%eax)
c010a7d0:	00 00                	add    %al,(%eax)
c010a7d2:	02 02                	add    (%edx),%al
c010a7d4:	02 3a                	add    (%edx),%bh
c010a7d6:	46                   	inc    %esi
c010a7d7:	42                   	inc    %edx
c010a7d8:	42                   	inc    %edx
c010a7d9:	42                   	inc    %edx
c010a7da:	42                   	inc    %edx
c010a7db:	46                   	inc    %esi
c010a7dc:	3a 00                	cmp    (%eax),%al
c010a7de:	00 00                	add    %al,(%eax)
c010a7e0:	00 00                	add    %al,(%eax)
c010a7e2:	00 00                	add    %al,(%eax)
c010a7e4:	00 3c 42             	add    %bh,(%edx,%eax,2)
c010a7e7:	42                   	inc    %edx
c010a7e8:	7e 40                	jle    c010a82a <_binary_font_psf_start+0x69e>
c010a7ea:	40                   	inc    %eax
c010a7eb:	42                   	inc    %edx
c010a7ec:	3c 00                	cmp    $0x0,%al
c010a7ee:	00 00                	add    %al,(%eax)
c010a7f0:	00 00                	add    %al,(%eax)
c010a7f2:	0e                   	push   %cs
c010a7f3:	10 10                	adc    %dl,(%eax)
c010a7f5:	10 7c 10 10          	adc    %bh,0x10(%eax,%edx,1)
c010a7f9:	10 10                	adc    %dl,(%eax)
c010a7fb:	10 10                	adc    %dl,(%eax)
	...
c010a805:	3a 46 42             	cmp    0x42(%esi),%al
c010a808:	42                   	inc    %edx
c010a809:	42                   	inc    %edx
c010a80a:	46                   	inc    %esi
c010a80b:	3a 02                	cmp    (%edx),%al
c010a80d:	02 42 3c             	add    0x3c(%edx),%al
c010a810:	00 00                	add    %al,(%eax)
c010a812:	40                   	inc    %eax
c010a813:	40                   	inc    %eax
c010a814:	40                   	inc    %eax
c010a815:	5c                   	pop    %esp
c010a816:	62 42 42             	bound  %eax,0x42(%edx)
c010a819:	42                   	inc    %edx
c010a81a:	42                   	inc    %edx
c010a81b:	42                   	inc    %edx
c010a81c:	42                   	inc    %edx
c010a81d:	00 00                	add    %al,(%eax)
c010a81f:	00 00                	add    %al,(%eax)
c010a821:	00 08                	add    %cl,(%eax)
c010a823:	08 00                	or     %al,(%eax)
c010a825:	18 08                	sbb    %cl,(%eax)
c010a827:	08 08                	or     %cl,(%eax)
c010a829:	08 08                	or     %cl,(%eax)
c010a82b:	08 3e                	or     %bh,(%esi)
c010a82d:	00 00                	add    %al,(%eax)
c010a82f:	00 00                	add    %al,(%eax)
c010a831:	00 04 04             	add    %al,(%esp,%eax,1)
c010a834:	00 0c 04             	add    %cl,(%esp,%eax,1)
c010a837:	04 04                	add    $0x4,%al
c010a839:	04 04                	add    $0x4,%al
c010a83b:	04 04                	add    $0x4,%al
c010a83d:	04 44                	add    $0x44,%al
c010a83f:	38 00                	cmp    %al,(%eax)
c010a841:	00 40 40             	add    %al,0x40(%eax)
c010a844:	40                   	inc    %eax
c010a845:	44                   	inc    %esp
c010a846:	48                   	dec    %eax
c010a847:	50                   	push   %eax
c010a848:	60                   	pusha
c010a849:	50                   	push   %eax
c010a84a:	48                   	dec    %eax
c010a84b:	44                   	inc    %esp
c010a84c:	42                   	inc    %edx
c010a84d:	00 00                	add    %al,(%eax)
c010a84f:	00 00                	add    %al,(%eax)
c010a851:	00 18                	add    %bl,(%eax)
c010a853:	08 08                	or     %cl,(%eax)
c010a855:	08 08                	or     %cl,(%eax)
c010a857:	08 08                	or     %cl,(%eax)
c010a859:	08 08                	or     %cl,(%eax)
c010a85b:	08 3e                	or     %bh,(%esi)
	...
c010a865:	76 49                	jbe    c010a8b0 <_binary_font_psf_start+0x724>
c010a867:	49                   	dec    %ecx
c010a868:	49                   	dec    %ecx
c010a869:	49                   	dec    %ecx
c010a86a:	49                   	dec    %ecx
c010a86b:	49                   	dec    %ecx
c010a86c:	49                   	dec    %ecx
	...
c010a875:	5c                   	pop    %esp
c010a876:	62 42 42             	bound  %eax,0x42(%edx)
c010a879:	42                   	inc    %edx
c010a87a:	42                   	inc    %edx
c010a87b:	42                   	inc    %edx
c010a87c:	42                   	inc    %edx
	...
c010a885:	3c 42                	cmp    $0x42,%al
c010a887:	42                   	inc    %edx
c010a888:	42                   	inc    %edx
c010a889:	42                   	inc    %edx
c010a88a:	42                   	inc    %edx
c010a88b:	42                   	inc    %edx
c010a88c:	3c 00                	cmp    $0x0,%al
c010a88e:	00 00                	add    %al,(%eax)
c010a890:	00 00                	add    %al,(%eax)
c010a892:	00 00                	add    %al,(%eax)
c010a894:	00 5c 62 42          	add    %bl,0x42(%edx,%eiz,2)
c010a898:	42                   	inc    %edx
c010a899:	42                   	inc    %edx
c010a89a:	42                   	inc    %edx
c010a89b:	62 5c 40 40          	bound  %ebx,0x40(%eax,%eax,2)
c010a89f:	40                   	inc    %eax
c010a8a0:	00 00                	add    %al,(%eax)
c010a8a2:	00 00                	add    %al,(%eax)
c010a8a4:	00 3a                	add    %bh,(%edx)
c010a8a6:	46                   	inc    %esi
c010a8a7:	42                   	inc    %edx
c010a8a8:	42                   	inc    %edx
c010a8a9:	42                   	inc    %edx
c010a8aa:	42                   	inc    %edx
c010a8ab:	46                   	inc    %esi
c010a8ac:	3a 02                	cmp    (%edx),%al
c010a8ae:	02 02                	add    (%edx),%al
c010a8b0:	00 00                	add    %al,(%eax)
c010a8b2:	00 00                	add    %al,(%eax)
c010a8b4:	00 5c 62 40          	add    %bl,0x40(%edx,%eiz,2)
c010a8b8:	40                   	inc    %eax
c010a8b9:	40                   	inc    %eax
c010a8ba:	40                   	inc    %eax
c010a8bb:	40                   	inc    %eax
c010a8bc:	40                   	inc    %eax
	...
c010a8c5:	3c 42                	cmp    $0x42,%al
c010a8c7:	40                   	inc    %eax
c010a8c8:	30 0c 02             	xor    %cl,(%edx,%eax,1)
c010a8cb:	42                   	inc    %edx
c010a8cc:	3c 00                	cmp    $0x0,%al
c010a8ce:	00 00                	add    %al,(%eax)
c010a8d0:	00 00                	add    %al,(%eax)
c010a8d2:	10 10                	adc    %dl,(%eax)
c010a8d4:	10 10                	adc    %dl,(%eax)
c010a8d6:	7c 10                	jl     c010a8e8 <_binary_font_psf_start+0x75c>
c010a8d8:	10 10                	adc    %dl,(%eax)
c010a8da:	10 10                	adc    %dl,(%eax)
c010a8dc:	0e                   	push   %cs
	...
c010a8e5:	42                   	inc    %edx
c010a8e6:	42                   	inc    %edx
c010a8e7:	42                   	inc    %edx
c010a8e8:	42                   	inc    %edx
c010a8e9:	42                   	inc    %edx
c010a8ea:	42                   	inc    %edx
c010a8eb:	46                   	inc    %esi
c010a8ec:	3a 00                	cmp    (%eax),%al
c010a8ee:	00 00                	add    %al,(%eax)
c010a8f0:	00 00                	add    %al,(%eax)
c010a8f2:	00 00                	add    %al,(%eax)
c010a8f4:	00 41 41             	add    %al,0x41(%ecx)
c010a8f7:	41                   	inc    %ecx
c010a8f8:	22 22                	and    (%edx),%ah
c010a8fa:	14 14                	adc    $0x14,%al
c010a8fc:	08 00                	or     %al,(%eax)
c010a8fe:	00 00                	add    %al,(%eax)
c010a900:	00 00                	add    %al,(%eax)
c010a902:	00 00                	add    %al,(%eax)
c010a904:	00 41 41             	add    %al,0x41(%ecx)
c010a907:	49                   	dec    %ecx
c010a908:	49                   	dec    %ecx
c010a909:	49                   	dec    %ecx
c010a90a:	49                   	dec    %ecx
c010a90b:	49                   	dec    %ecx
c010a90c:	36 00 00             	add    %al,%ss:(%eax)
c010a90f:	00 00                	add    %al,(%eax)
c010a911:	00 00                	add    %al,(%eax)
c010a913:	00 00                	add    %al,(%eax)
c010a915:	42                   	inc    %edx
c010a916:	42                   	inc    %edx
c010a917:	24 18                	and    $0x18,%al
c010a919:	18 24 42             	sbb    %ah,(%edx,%eax,2)
c010a91c:	42                   	inc    %edx
	...
c010a925:	42                   	inc    %edx
c010a926:	42                   	inc    %edx
c010a927:	42                   	inc    %edx
c010a928:	42                   	inc    %edx
c010a929:	42                   	inc    %edx
c010a92a:	46                   	inc    %esi
c010a92b:	3a 02                	cmp    (%edx),%al
c010a92d:	02 42 3c             	add    0x3c(%edx),%al
c010a930:	00 00                	add    %al,(%eax)
c010a932:	00 00                	add    %al,(%eax)
c010a934:	00 7e 02             	add    %bh,0x2(%esi)
c010a937:	04 08                	add    $0x8,%al
c010a939:	10 20                	adc    %ah,(%eax)
c010a93b:	40                   	inc    %eax
c010a93c:	7e 00                	jle    c010a93e <_binary_font_psf_start+0x7b2>
c010a93e:	00 00                	add    %al,(%eax)
c010a940:	00 00                	add    %al,(%eax)
c010a942:	06                   	push   %es
c010a943:	08 08                	or     %cl,(%eax)
c010a945:	08 08                	or     %cl,(%eax)
c010a947:	30 08                	xor    %cl,(%eax)
c010a949:	08 08                	or     %cl,(%eax)
c010a94b:	08 08                	or     %cl,(%eax)
c010a94d:	06                   	push   %es
c010a94e:	00 00                	add    %al,(%eax)
c010a950:	00 00                	add    %al,(%eax)
c010a952:	08 08                	or     %cl,(%eax)
c010a954:	08 08                	or     %cl,(%eax)
c010a956:	08 08                	or     %cl,(%eax)
c010a958:	08 08                	or     %cl,(%eax)
c010a95a:	08 08                	or     %cl,(%eax)
c010a95c:	08 08                	or     %cl,(%eax)
c010a95e:	00 00                	add    %al,(%eax)
c010a960:	00 00                	add    %al,(%eax)
c010a962:	30 08                	xor    %cl,(%eax)
c010a964:	08 08                	or     %cl,(%eax)
c010a966:	08 06                	or     %al,(%esi)
c010a968:	08 08                	or     %cl,(%eax)
c010a96a:	08 08                	or     %cl,(%eax)
c010a96c:	08 30                	or     %dh,(%eax)
c010a96e:	00 00                	add    %al,(%eax)
c010a970:	00 31                	add    %dh,(%ecx)
c010a972:	49                   	dec    %ecx
c010a973:	46                   	inc    %esi
	...
c010a984:	00 00                	add    %al,(%eax)
c010a986:	18 3c 3c             	sbb    %bh,(%esp,%edi,1)
c010a989:	18 00                	sbb    %al,(%eax)
c010a98b:	00 00                	add    %al,(%eax)
c010a98d:	00 00                	add    %al,(%eax)
c010a98f:	00 30                	add    %dh,(%eax)
c010a991:	0c 00                	or     $0x0,%al
c010a993:	18 24 24             	sbb    %ah,(%esp)
c010a996:	42                   	inc    %edx
c010a997:	42                   	inc    %edx
c010a998:	7e 42                	jle    c010a9dc <_binary_font_psf_start+0x850>
c010a99a:	42                   	inc    %edx
c010a99b:	42                   	inc    %edx
c010a99c:	42                   	inc    %edx
c010a99d:	00 00                	add    %al,(%eax)
c010a99f:	00 0c 30             	add    %cl,(%eax,%esi,1)
c010a9a2:	00 18                	add    %bl,(%eax)
c010a9a4:	24 24                	and    $0x24,%al
c010a9a6:	42                   	inc    %edx
c010a9a7:	42                   	inc    %edx
c010a9a8:	7e 42                	jle    c010a9ec <_binary_font_psf_start+0x860>
c010a9aa:	42                   	inc    %edx
c010a9ab:	42                   	inc    %edx
c010a9ac:	42                   	inc    %edx
c010a9ad:	00 00                	add    %al,(%eax)
c010a9af:	00 18                	add    %bl,(%eax)
c010a9b1:	24 00                	and    $0x0,%al
c010a9b3:	18 24 24             	sbb    %ah,(%esp)
c010a9b6:	42                   	inc    %edx
c010a9b7:	42                   	inc    %edx
c010a9b8:	7e 42                	jle    c010a9fc <_binary_font_psf_start+0x870>
c010a9ba:	42                   	inc    %edx
c010a9bb:	42                   	inc    %edx
c010a9bc:	42                   	inc    %edx
c010a9bd:	00 00                	add    %al,(%eax)
c010a9bf:	00 32                	add    %dh,(%edx)
c010a9c1:	4c                   	dec    %esp
c010a9c2:	00 18                	add    %bl,(%eax)
c010a9c4:	24 24                	and    $0x24,%al
c010a9c6:	42                   	inc    %edx
c010a9c7:	42                   	inc    %edx
c010a9c8:	7e 42                	jle    c010aa0c <_binary_font_psf_start+0x880>
c010a9ca:	42                   	inc    %edx
c010a9cb:	42                   	inc    %edx
c010a9cc:	42                   	inc    %edx
c010a9cd:	00 00                	add    %al,(%eax)
c010a9cf:	00 24 24             	add    %ah,(%esp)
c010a9d2:	00 18                	add    %bl,(%eax)
c010a9d4:	24 24                	and    $0x24,%al
c010a9d6:	42                   	inc    %edx
c010a9d7:	42                   	inc    %edx
c010a9d8:	7e 42                	jle    c010aa1c <_binary_font_psf_start+0x890>
c010a9da:	42                   	inc    %edx
c010a9db:	42                   	inc    %edx
c010a9dc:	42                   	inc    %edx
c010a9dd:	00 00                	add    %al,(%eax)
c010a9df:	00 18                	add    %bl,(%eax)
c010a9e1:	24 24                	and    $0x24,%al
c010a9e3:	18 24 24             	sbb    %ah,(%esp)
c010a9e6:	42                   	inc    %edx
c010a9e7:	42                   	inc    %edx
c010a9e8:	7e 42                	jle    c010aa2c <_binary_font_psf_start+0x8a0>
c010a9ea:	42                   	inc    %edx
c010a9eb:	42                   	inc    %edx
c010a9ec:	42                   	inc    %edx
c010a9ed:	00 00                	add    %al,(%eax)
c010a9ef:	00 00                	add    %al,(%eax)
c010a9f1:	00 00                	add    %al,(%eax)
c010a9f3:	1f                   	pop    %ds
c010a9f4:	28 48 48             	sub    %cl,0x48(%eax)
c010a9f7:	7e 48                	jle    c010aa41 <_binary_font_psf_start+0x8b5>
c010a9f9:	48                   	dec    %eax
c010a9fa:	48                   	dec    %eax
c010a9fb:	48                   	dec    %eax
c010a9fc:	4f                   	dec    %edi
c010a9fd:	00 00                	add    %al,(%eax)
c010a9ff:	00 00                	add    %al,(%eax)
c010aa01:	00 00                	add    %al,(%eax)
c010aa03:	3c 42                	cmp    $0x42,%al
c010aa05:	42                   	inc    %edx
c010aa06:	40                   	inc    %eax
c010aa07:	40                   	inc    %eax
c010aa08:	40                   	inc    %eax
c010aa09:	40                   	inc    %eax
c010aa0a:	42                   	inc    %edx
c010aa0b:	42                   	inc    %edx
c010aa0c:	3c 08                	cmp    $0x8,%al
c010aa0e:	08 30                	or     %dh,(%eax)
c010aa10:	30 0c 00             	xor    %cl,(%eax,%eax,1)
c010aa13:	7e 40                	jle    c010aa55 <_binary_font_psf_start+0x8c9>
c010aa15:	40                   	inc    %eax
c010aa16:	40                   	inc    %eax
c010aa17:	7c 40                	jl     c010aa59 <_binary_font_psf_start+0x8cd>
c010aa19:	40                   	inc    %eax
c010aa1a:	40                   	inc    %eax
c010aa1b:	40                   	inc    %eax
c010aa1c:	7e 00                	jle    c010aa1e <_binary_font_psf_start+0x892>
c010aa1e:	00 00                	add    %al,(%eax)
c010aa20:	0c 30                	or     $0x30,%al
c010aa22:	00 7e 40             	add    %bh,0x40(%esi)
c010aa25:	40                   	inc    %eax
c010aa26:	40                   	inc    %eax
c010aa27:	7c 40                	jl     c010aa69 <_binary_font_psf_start+0x8dd>
c010aa29:	40                   	inc    %eax
c010aa2a:	40                   	inc    %eax
c010aa2b:	40                   	inc    %eax
c010aa2c:	7e 00                	jle    c010aa2e <_binary_font_psf_start+0x8a2>
c010aa2e:	00 00                	add    %al,(%eax)
c010aa30:	18 24 00             	sbb    %ah,(%eax,%eax,1)
c010aa33:	7e 40                	jle    c010aa75 <_binary_font_psf_start+0x8e9>
c010aa35:	40                   	inc    %eax
c010aa36:	40                   	inc    %eax
c010aa37:	7c 40                	jl     c010aa79 <_binary_font_psf_start+0x8ed>
c010aa39:	40                   	inc    %eax
c010aa3a:	40                   	inc    %eax
c010aa3b:	40                   	inc    %eax
c010aa3c:	7e 00                	jle    c010aa3e <_binary_font_psf_start+0x8b2>
c010aa3e:	00 00                	add    %al,(%eax)
c010aa40:	24 24                	and    $0x24,%al
c010aa42:	00 7e 40             	add    %bh,0x40(%esi)
c010aa45:	40                   	inc    %eax
c010aa46:	40                   	inc    %eax
c010aa47:	7c 40                	jl     c010aa89 <_binary_font_psf_start+0x8fd>
c010aa49:	40                   	inc    %eax
c010aa4a:	40                   	inc    %eax
c010aa4b:	40                   	inc    %eax
c010aa4c:	7e 00                	jle    c010aa4e <_binary_font_psf_start+0x8c2>
c010aa4e:	00 00                	add    %al,(%eax)
c010aa50:	30 0c 00             	xor    %cl,(%eax,%eax,1)
c010aa53:	3e 08 08             	or     %cl,%ds:(%eax)
c010aa56:	08 08                	or     %cl,(%eax)
c010aa58:	08 08                	or     %cl,(%eax)
c010aa5a:	08 08                	or     %cl,(%eax)
c010aa5c:	3e 00 00             	add    %al,%ds:(%eax)
c010aa5f:	00 06                	add    %al,(%esi)
c010aa61:	18 00                	sbb    %al,(%eax)
c010aa63:	3e 08 08             	or     %cl,%ds:(%eax)
c010aa66:	08 08                	or     %cl,(%eax)
c010aa68:	08 08                	or     %cl,(%eax)
c010aa6a:	08 08                	or     %cl,(%eax)
c010aa6c:	3e 00 00             	add    %al,%ds:(%eax)
c010aa6f:	00 18                	add    %bl,(%eax)
c010aa71:	24 00                	and    $0x0,%al
c010aa73:	3e 08 08             	or     %cl,%ds:(%eax)
c010aa76:	08 08                	or     %cl,(%eax)
c010aa78:	08 08                	or     %cl,(%eax)
c010aa7a:	08 08                	or     %cl,(%eax)
c010aa7c:	3e 00 00             	add    %al,%ds:(%eax)
c010aa7f:	00 22                	add    %ah,(%edx)
c010aa81:	22 00                	and    (%eax),%al
c010aa83:	3e 08 08             	or     %cl,%ds:(%eax)
c010aa86:	08 08                	or     %cl,(%eax)
c010aa88:	08 08                	or     %cl,(%eax)
c010aa8a:	08 08                	or     %cl,(%eax)
c010aa8c:	3e 00 00             	add    %al,%ds:(%eax)
c010aa8f:	00 00                	add    %al,(%eax)
c010aa91:	00 00                	add    %al,(%eax)
c010aa93:	78 44                	js     c010aad9 <_binary_font_psf_start+0x94d>
c010aa95:	42                   	inc    %edx
c010aa96:	42                   	inc    %edx
c010aa97:	f2 42                	repnz inc %edx
c010aa99:	42                   	inc    %edx
c010aa9a:	42                   	inc    %edx
c010aa9b:	44                   	inc    %esp
c010aa9c:	78 00                	js     c010aa9e <_binary_font_psf_start+0x912>
c010aa9e:	00 00                	add    %al,(%eax)
c010aaa0:	32 4c 00 42          	xor    0x42(%eax,%eax,1),%cl
c010aaa4:	62 62 52             	bound  %esp,0x52(%edx)
c010aaa7:	52                   	push   %edx
c010aaa8:	4a                   	dec    %edx
c010aaa9:	4a                   	dec    %edx
c010aaaa:	46                   	inc    %esi
c010aaab:	46                   	inc    %esi
c010aaac:	42                   	inc    %edx
c010aaad:	00 00                	add    %al,(%eax)
c010aaaf:	00 30                	add    %dh,(%eax)
c010aab1:	0c 00                	or     $0x0,%al
c010aab3:	3c 42                	cmp    $0x42,%al
c010aab5:	42                   	inc    %edx
c010aab6:	42                   	inc    %edx
c010aab7:	42                   	inc    %edx
c010aab8:	42                   	inc    %edx
c010aab9:	42                   	inc    %edx
c010aaba:	42                   	inc    %edx
c010aabb:	42                   	inc    %edx
c010aabc:	3c 00                	cmp    $0x0,%al
c010aabe:	00 00                	add    %al,(%eax)
c010aac0:	0c 30                	or     $0x30,%al
c010aac2:	00 3c 42             	add    %bh,(%edx,%eax,2)
c010aac5:	42                   	inc    %edx
c010aac6:	42                   	inc    %edx
c010aac7:	42                   	inc    %edx
c010aac8:	42                   	inc    %edx
c010aac9:	42                   	inc    %edx
c010aaca:	42                   	inc    %edx
c010aacb:	42                   	inc    %edx
c010aacc:	3c 00                	cmp    $0x0,%al
c010aace:	00 00                	add    %al,(%eax)
c010aad0:	18 24 00             	sbb    %ah,(%eax,%eax,1)
c010aad3:	3c 42                	cmp    $0x42,%al
c010aad5:	42                   	inc    %edx
c010aad6:	42                   	inc    %edx
c010aad7:	42                   	inc    %edx
c010aad8:	42                   	inc    %edx
c010aad9:	42                   	inc    %edx
c010aada:	42                   	inc    %edx
c010aadb:	42                   	inc    %edx
c010aadc:	3c 00                	cmp    $0x0,%al
c010aade:	00 00                	add    %al,(%eax)
c010aae0:	32 4c 00 3c          	xor    0x3c(%eax,%eax,1),%cl
c010aae4:	42                   	inc    %edx
c010aae5:	42                   	inc    %edx
c010aae6:	42                   	inc    %edx
c010aae7:	42                   	inc    %edx
c010aae8:	42                   	inc    %edx
c010aae9:	42                   	inc    %edx
c010aaea:	42                   	inc    %edx
c010aaeb:	42                   	inc    %edx
c010aaec:	3c 00                	cmp    $0x0,%al
c010aaee:	00 00                	add    %al,(%eax)
c010aaf0:	24 24                	and    $0x24,%al
c010aaf2:	00 3c 42             	add    %bh,(%edx,%eax,2)
c010aaf5:	42                   	inc    %edx
c010aaf6:	42                   	inc    %edx
c010aaf7:	42                   	inc    %edx
c010aaf8:	42                   	inc    %edx
c010aaf9:	42                   	inc    %edx
c010aafa:	42                   	inc    %edx
c010aafb:	42                   	inc    %edx
c010aafc:	3c 00                	cmp    $0x0,%al
	...
c010ab06:	22 14 08             	and    (%eax,%ecx,1),%dl
c010ab09:	14 22                	adc    $0x22,%al
c010ab0b:	00 00                	add    %al,(%eax)
c010ab0d:	00 00                	add    %al,(%eax)
c010ab0f:	00 00                	add    %al,(%eax)
c010ab11:	00 02                	add    %al,(%edx)
c010ab13:	3a 44 46 4a          	cmp    0x4a(%esi,%eax,2),%al
c010ab17:	4a                   	dec    %edx
c010ab18:	52                   	push   %edx
c010ab19:	52                   	push   %edx
c010ab1a:	62 22                	bound  %esp,(%edx)
c010ab1c:	5c                   	pop    %esp
c010ab1d:	40                   	inc    %eax
c010ab1e:	00 00                	add    %al,(%eax)
c010ab20:	30 0c 00             	xor    %cl,(%eax,%eax,1)
c010ab23:	42                   	inc    %edx
c010ab24:	42                   	inc    %edx
c010ab25:	42                   	inc    %edx
c010ab26:	42                   	inc    %edx
c010ab27:	42                   	inc    %edx
c010ab28:	42                   	inc    %edx
c010ab29:	42                   	inc    %edx
c010ab2a:	42                   	inc    %edx
c010ab2b:	42                   	inc    %edx
c010ab2c:	3c 00                	cmp    $0x0,%al
c010ab2e:	00 00                	add    %al,(%eax)
c010ab30:	0c 30                	or     $0x30,%al
c010ab32:	00 42 42             	add    %al,0x42(%edx)
c010ab35:	42                   	inc    %edx
c010ab36:	42                   	inc    %edx
c010ab37:	42                   	inc    %edx
c010ab38:	42                   	inc    %edx
c010ab39:	42                   	inc    %edx
c010ab3a:	42                   	inc    %edx
c010ab3b:	42                   	inc    %edx
c010ab3c:	3c 00                	cmp    $0x0,%al
c010ab3e:	00 00                	add    %al,(%eax)
c010ab40:	18 24 00             	sbb    %ah,(%eax,%eax,1)
c010ab43:	42                   	inc    %edx
c010ab44:	42                   	inc    %edx
c010ab45:	42                   	inc    %edx
c010ab46:	42                   	inc    %edx
c010ab47:	42                   	inc    %edx
c010ab48:	42                   	inc    %edx
c010ab49:	42                   	inc    %edx
c010ab4a:	42                   	inc    %edx
c010ab4b:	42                   	inc    %edx
c010ab4c:	3c 00                	cmp    $0x0,%al
c010ab4e:	00 00                	add    %al,(%eax)
c010ab50:	24 24                	and    $0x24,%al
c010ab52:	00 42 42             	add    %al,0x42(%edx)
c010ab55:	42                   	inc    %edx
c010ab56:	42                   	inc    %edx
c010ab57:	42                   	inc    %edx
c010ab58:	42                   	inc    %edx
c010ab59:	42                   	inc    %edx
c010ab5a:	42                   	inc    %edx
c010ab5b:	42                   	inc    %edx
c010ab5c:	3c 00                	cmp    $0x0,%al
c010ab5e:	00 00                	add    %al,(%eax)
c010ab60:	06                   	push   %es
c010ab61:	18 00                	sbb    %al,(%eax)
c010ab63:	41                   	inc    %ecx
c010ab64:	41                   	inc    %ecx
c010ab65:	22 22                	and    (%edx),%ah
c010ab67:	14 08                	adc    $0x8,%al
c010ab69:	08 08                	or     %cl,(%eax)
c010ab6b:	08 08                	or     %cl,(%eax)
c010ab6d:	00 00                	add    %al,(%eax)
c010ab6f:	00 00                	add    %al,(%eax)
c010ab71:	00 00                	add    %al,(%eax)
c010ab73:	40                   	inc    %eax
c010ab74:	40                   	inc    %eax
c010ab75:	7c 42                	jl     c010abb9 <_binary_font_psf_start+0xa2d>
c010ab77:	42                   	inc    %edx
c010ab78:	42                   	inc    %edx
c010ab79:	42                   	inc    %edx
c010ab7a:	7c 40                	jl     c010abbc <_binary_font_psf_start+0xa30>
c010ab7c:	40                   	inc    %eax
c010ab7d:	00 00                	add    %al,(%eax)
c010ab7f:	00 00                	add    %al,(%eax)
c010ab81:	00 00                	add    %al,(%eax)
c010ab83:	38 44 4c 50          	cmp    %al,0x50(%esp,%ecx,2)
c010ab87:	50                   	push   %eax
c010ab88:	4c                   	dec    %esp
c010ab89:	42                   	inc    %edx
c010ab8a:	42                   	inc    %edx
c010ab8b:	52                   	push   %edx
c010ab8c:	4c                   	dec    %esp
c010ab8d:	00 00                	add    %al,(%eax)
c010ab8f:	00 aa 55 aa 55 aa    	add    %ch,-0x55aa55ab(%edx)
c010ab95:	55                   	push   %ebp
c010ab96:	aa                   	stos   %al,%es:(%edi)
c010ab97:	55                   	push   %ebp
c010ab98:	aa                   	stos   %al,%es:(%edi)
c010ab99:	55                   	push   %ebp
c010ab9a:	aa                   	stos   %al,%es:(%edi)
c010ab9b:	55                   	push   %ebp
c010ab9c:	aa                   	stos   %al,%es:(%edi)
c010ab9d:	55                   	push   %ebp
c010ab9e:	aa                   	stos   %al,%es:(%edi)
c010ab9f:	55                   	push   %ebp
c010aba0:	00 00                	add    %al,(%eax)
c010aba2:	00 08                	add    %cl,(%eax)
c010aba4:	08 00                	or     %al,(%eax)
c010aba6:	08 08                	or     %cl,(%eax)
c010aba8:	08 08                	or     %cl,(%eax)
c010abaa:	08 08                	or     %cl,(%eax)
c010abac:	08 00                	or     %al,(%eax)
c010abae:	00 00                	add    %al,(%eax)
c010abb0:	00 00                	add    %al,(%eax)
c010abb2:	00 08                	add    %cl,(%eax)
c010abb4:	08 3e                	or     %bh,(%esi)
c010abb6:	49                   	dec    %ecx
c010abb7:	48                   	dec    %eax
c010abb8:	48                   	dec    %eax
c010abb9:	48                   	dec    %eax
c010abba:	48                   	dec    %eax
c010abbb:	49                   	dec    %ecx
c010abbc:	3e 08 08             	or     %cl,%ds:(%eax)
c010abbf:	00 00                	add    %al,(%eax)
c010abc1:	00 00                	add    %al,(%eax)
c010abc3:	1c 20                	sbb    $0x20,%al
c010abc5:	20 20                	and    %ah,(%eax)
c010abc7:	78 20                	js     c010abe9 <_binary_font_psf_start+0xa5d>
c010abc9:	20 20                	and    %ah,(%eax)
c010abcb:	22 7e 00             	and    0x0(%esi),%bh
c010abce:	00 00                	add    %al,(%eax)
c010abd0:	00 00                	add    %al,(%eax)
c010abd2:	00 00                	add    %al,(%eax)
c010abd4:	0e                   	push   %cs
c010abd5:	11 20                	adc    %esp,(%eax)
c010abd7:	7e 20                	jle    c010abf9 <_binary_font_psf_start+0xa6d>
c010abd9:	7c 20                	jl     c010abfb <_binary_font_psf_start+0xa6f>
c010abdb:	11 0e                	adc    %ecx,(%esi)
c010abdd:	00 00                	add    %al,(%eax)
c010abdf:	00 00                	add    %al,(%eax)
c010abe1:	00 00                	add    %al,(%eax)
c010abe3:	41                   	inc    %ecx
c010abe4:	41                   	inc    %ecx
c010abe5:	22 14 08             	and    (%eax,%ecx,1),%dl
c010abe8:	3e 08 3e             	or     %bh,%ds:(%esi)
c010abeb:	08 08                	or     %cl,(%eax)
c010abed:	00 00                	add    %al,(%eax)
c010abef:	00 24 18             	add    %ah,(%eax,%ebx,1)
c010abf2:	00 3c 42             	add    %bh,(%edx,%eax,2)
c010abf5:	42                   	inc    %edx
c010abf6:	40                   	inc    %eax
c010abf7:	30 0c 02             	xor    %cl,(%edx,%eax,1)
c010abfa:	42                   	inc    %edx
c010abfb:	42                   	inc    %edx
c010abfc:	3c 00                	cmp    $0x0,%al
c010abfe:	00 00                	add    %al,(%eax)
c010ac00:	00 00                	add    %al,(%eax)
c010ac02:	1c 22                	sbb    $0x22,%al
c010ac04:	20 18                	and    %bl,(%eax)
c010ac06:	24 22                	and    $0x22,%al
c010ac08:	22 12                	and    (%edx),%dl
c010ac0a:	0c 02                	or     $0x2,%al
c010ac0c:	22 1c 00             	and    (%eax,%eax,1),%bl
c010ac0f:	00 00                	add    %al,(%eax)
c010ac11:	24 18                	and    $0x18,%al
c010ac13:	00 00                	add    %al,(%eax)
c010ac15:	3c 42                	cmp    $0x42,%al
c010ac17:	40                   	inc    %eax
c010ac18:	30 0c 02             	xor    %cl,(%edx,%eax,1)
c010ac1b:	42                   	inc    %edx
c010ac1c:	3c 00                	cmp    $0x0,%al
c010ac1e:	00 00                	add    %al,(%eax)
c010ac20:	00 00                	add    %al,(%eax)
c010ac22:	00 3c 42             	add    %bh,(%edx,%eax,2)
c010ac25:	99                   	cltd
c010ac26:	a5                   	movsl  %ds:(%esi),%es:(%edi)
c010ac27:	a1 a1 a5 99 42       	mov    0x4299a5a1,%eax
c010ac2c:	3c 00                	cmp    $0x0,%al
c010ac2e:	00 00                	add    %al,(%eax)
c010ac30:	00 00                	add    %al,(%eax)
c010ac32:	38 04 3c             	cmp    %al,(%esp,%edi,1)
c010ac35:	44                   	inc    %esp
c010ac36:	3c 00                	cmp    $0x0,%al
c010ac38:	7c 00                	jl     c010ac3a <_binary_font_psf_start+0xaae>
	...
c010ac46:	12 24 48             	adc    (%eax,%ecx,2),%ah
c010ac49:	24 12                	and    $0x12,%al
	...
c010ac57:	00 7e 02             	add    %bh,0x2(%esi)
c010ac5a:	02 02                	add    (%edx),%al
	...
c010ac64:	00 22                	add    %ah,(%edx)
c010ac66:	1c 22                	sbb    $0x22,%al
c010ac68:	22 22                	and    (%edx),%ah
c010ac6a:	1c 22                	sbb    $0x22,%al
c010ac6c:	00 00                	add    %al,(%eax)
c010ac6e:	00 00                	add    %al,(%eax)
c010ac70:	00 00                	add    %al,(%eax)
c010ac72:	00 3c 42             	add    %bh,(%edx,%eax,2)
c010ac75:	b9 a5 a5 b9 a9       	mov    $0xa9b9a5a5,%ecx
c010ac7a:	a5                   	movsl  %ds:(%esi),%es:(%edi)
c010ac7b:	42                   	inc    %edx
c010ac7c:	3c 00                	cmp    $0x0,%al
c010ac7e:	00 00                	add    %al,(%eax)
c010ac80:	00 3c 00             	add    %bh,(%eax,%eax,1)
	...
c010ac8f:	00 00                	add    %al,(%eax)
c010ac91:	00 18                	add    %bl,(%eax)
c010ac93:	24 24                	and    $0x24,%al
c010ac95:	18 00                	sbb    %al,(%eax)
	...
c010aca3:	08 08                	or     %cl,(%eax)
c010aca5:	08 7f 08             	or     %bh,0x8(%edi)
c010aca8:	08 08                	or     %cl,(%eax)
c010acaa:	00 7f 00             	add    %bh,0x0(%edi)
c010acad:	00 00                	add    %al,(%eax)
c010acaf:	00 00                	add    %al,(%eax)
c010acb1:	00 38                	add    %bh,(%eax)
c010acb3:	44                   	inc    %esp
c010acb4:	04 18                	add    $0x18,%al
c010acb6:	20 40 7c             	and    %al,0x7c(%eax)
	...
c010acc1:	00 38                	add    %bh,(%eax)
c010acc3:	44                   	inc    %esp
c010acc4:	04 38                	add    $0x38,%al
c010acc6:	04 44                	add    $0x44,%al
c010acc8:	38 00                	cmp    %al,(%eax)
c010acca:	00 00                	add    %al,(%eax)
c010accc:	00 00                	add    %al,(%eax)
c010acce:	00 00                	add    %al,(%eax)
c010acd0:	24 18                	and    $0x18,%al
c010acd2:	00 7e 02             	add    %bh,0x2(%esi)
c010acd5:	02 04 08             	add    (%eax,%ecx,1),%al
c010acd8:	10 20                	adc    %ah,(%eax)
c010acda:	40                   	inc    %eax
c010acdb:	40                   	inc    %eax
c010acdc:	7e 00                	jle    c010acde <_binary_font_psf_start+0xb52>
c010acde:	00 00                	add    %al,(%eax)
c010ace0:	00 00                	add    %al,(%eax)
c010ace2:	00 00                	add    %al,(%eax)
c010ace4:	00 42 42             	add    %al,0x42(%edx)
c010ace7:	42                   	inc    %edx
c010ace8:	42                   	inc    %edx
c010ace9:	42                   	inc    %edx
c010acea:	42                   	inc    %edx
c010aceb:	66 5a                	pop    %dx
c010aced:	40                   	inc    %eax
c010acee:	40                   	inc    %eax
c010acef:	40                   	inc    %eax
c010acf0:	00 00                	add    %al,(%eax)
c010acf2:	00 3e                	add    %bh,(%esi)
c010acf4:	7a 7a                	jp     c010ad70 <_binary_font_psf_start+0xbe4>
c010acf6:	7a 7a                	jp     c010ad72 <_binary_font_psf_start+0xbe6>
c010acf8:	3a 0a                	cmp    (%edx),%cl
c010acfa:	0a 0a                	or     (%edx),%cl
c010acfc:	0a 00                	or     (%eax),%al
	...
c010ad06:	00 08                	add    %cl,(%eax)
c010ad08:	08 00                	or     %al,(%eax)
c010ad0a:	00 00                	add    %al,(%eax)
c010ad0c:	00 00                	add    %al,(%eax)
c010ad0e:	00 00                	add    %al,(%eax)
c010ad10:	00 24 18             	add    %ah,(%eax,%ebx,1)
c010ad13:	00 00                	add    %al,(%eax)
c010ad15:	7e 02                	jle    c010ad19 <_binary_font_psf_start+0xb8d>
c010ad17:	04 08                	add    $0x8,%al
c010ad19:	10 20                	adc    %ah,(%eax)
c010ad1b:	40                   	inc    %eax
c010ad1c:	7e 00                	jle    c010ad1e <_binary_font_psf_start+0xb92>
c010ad1e:	00 00                	add    %al,(%eax)
c010ad20:	00 00                	add    %al,(%eax)
c010ad22:	10 30                	adc    %dh,(%eax)
c010ad24:	50                   	push   %eax
c010ad25:	10 10                	adc    %dl,(%eax)
c010ad27:	10 7c 00 00          	adc    %bh,0x0(%eax,%eax,1)
c010ad2b:	00 00                	add    %al,(%eax)
c010ad2d:	00 00                	add    %al,(%eax)
c010ad2f:	00 00                	add    %al,(%eax)
c010ad31:	00 38                	add    %bh,(%eax)
c010ad33:	44                   	inc    %esp
c010ad34:	44                   	inc    %esp
c010ad35:	44                   	inc    %esp
c010ad36:	38 00                	cmp    %al,(%eax)
c010ad38:	7c 00                	jl     c010ad3a <_binary_font_psf_start+0xbae>
	...
c010ad46:	48                   	dec    %eax
c010ad47:	24 12                	and    $0x12,%al
c010ad49:	24 48                	and    $0x48,%al
	...
c010ad53:	37                   	aaa
c010ad54:	48                   	dec    %eax
c010ad55:	48                   	dec    %eax
c010ad56:	48                   	dec    %eax
c010ad57:	4e                   	dec    %esi
c010ad58:	48                   	dec    %eax
c010ad59:	48                   	dec    %eax
c010ad5a:	48                   	dec    %eax
c010ad5b:	48                   	dec    %eax
c010ad5c:	37                   	aaa
	...
c010ad65:	36 49                	ss dec %ecx
c010ad67:	49                   	dec    %ecx
c010ad68:	4f                   	dec    %edi
c010ad69:	48                   	dec    %eax
c010ad6a:	48                   	dec    %eax
c010ad6b:	49                   	dec    %ecx
c010ad6c:	36 00 00             	add    %al,%ss:(%eax)
c010ad6f:	00 22                	add    %ah,(%edx)
c010ad71:	22 00                	and    (%eax),%al
c010ad73:	41                   	inc    %ecx
c010ad74:	41                   	inc    %ecx
c010ad75:	22 22                	and    (%edx),%ah
c010ad77:	14 08                	adc    $0x8,%al
c010ad79:	08 08                	or     %cl,(%eax)
c010ad7b:	08 08                	or     %cl,(%eax)
c010ad7d:	00 00                	add    %al,(%eax)
c010ad7f:	00 00                	add    %al,(%eax)
c010ad81:	00 00                	add    %al,(%eax)
c010ad83:	10 10                	adc    %dl,(%eax)
c010ad85:	00 10                	add    %dl,(%eax)
c010ad87:	10 20                	adc    %ah,(%eax)
c010ad89:	40                   	inc    %eax
c010ad8a:	42                   	inc    %edx
c010ad8b:	42                   	inc    %edx
c010ad8c:	3c 00                	cmp    $0x0,%al
	...
c010ad96:	00 00                	add    %al,(%eax)
c010ad98:	ff 00                	incl   (%eax)
c010ad9a:	00 00                	add    %al,(%eax)
c010ad9c:	00 00                	add    %al,(%eax)
c010ad9e:	00 00                	add    %al,(%eax)
c010ada0:	08 08                	or     %cl,(%eax)
c010ada2:	08 08                	or     %cl,(%eax)
c010ada4:	08 08                	or     %cl,(%eax)
c010ada6:	08 08                	or     %cl,(%eax)
c010ada8:	08 08                	or     %cl,(%eax)
c010adaa:	08 08                	or     %cl,(%eax)
c010adac:	08 08                	or     %cl,(%eax)
c010adae:	08 08                	or     %cl,(%eax)
	...
c010adb8:	0f 08                	invd
c010adba:	08 08                	or     %cl,(%eax)
c010adbc:	08 08                	or     %cl,(%eax)
c010adbe:	08 08                	or     %cl,(%eax)
	...
c010adc8:	f8                   	clc
c010adc9:	08 08                	or     %cl,(%eax)
c010adcb:	08 08                	or     %cl,(%eax)
c010adcd:	08 08                	or     %cl,(%eax)
c010adcf:	08 08                	or     %cl,(%eax)
c010add1:	08 08                	or     %cl,(%eax)
c010add3:	08 08                	or     %cl,(%eax)
c010add5:	08 08                	or     %cl,(%eax)
c010add7:	08 0f                	or     %cl,(%edi)
c010add9:	00 00                	add    %al,(%eax)
c010addb:	00 00                	add    %al,(%eax)
c010addd:	00 00                	add    %al,(%eax)
c010addf:	00 08                	add    %cl,(%eax)
c010ade1:	08 08                	or     %cl,(%eax)
c010ade3:	08 08                	or     %cl,(%eax)
c010ade5:	08 08                	or     %cl,(%eax)
c010ade7:	08 f8                	or     %bh,%al
c010ade9:	00 00                	add    %al,(%eax)
c010adeb:	00 00                	add    %al,(%eax)
c010aded:	00 00                	add    %al,(%eax)
c010adef:	00 08                	add    %cl,(%eax)
c010adf1:	08 08                	or     %cl,(%eax)
c010adf3:	08 08                	or     %cl,(%eax)
c010adf5:	08 08                	or     %cl,(%eax)
c010adf7:	08 0f                	or     %cl,(%edi)
c010adf9:	08 08                	or     %cl,(%eax)
c010adfb:	08 08                	or     %cl,(%eax)
c010adfd:	08 08                	or     %cl,(%eax)
c010adff:	08 08                	or     %cl,(%eax)
c010ae01:	08 08                	or     %cl,(%eax)
c010ae03:	08 08                	or     %cl,(%eax)
c010ae05:	08 08                	or     %cl,(%eax)
c010ae07:	08 f8                	or     %bh,%al
c010ae09:	08 08                	or     %cl,(%eax)
c010ae0b:	08 08                	or     %cl,(%eax)
c010ae0d:	08 08                	or     %cl,(%eax)
c010ae0f:	08 00                	or     %al,(%eax)
c010ae11:	00 00                	add    %al,(%eax)
c010ae13:	00 00                	add    %al,(%eax)
c010ae15:	00 00                	add    %al,(%eax)
c010ae17:	00 ff                	add    %bh,%bh
c010ae19:	08 08                	or     %cl,(%eax)
c010ae1b:	08 08                	or     %cl,(%eax)
c010ae1d:	08 08                	or     %cl,(%eax)
c010ae1f:	08 08                	or     %cl,(%eax)
c010ae21:	08 08                	or     %cl,(%eax)
c010ae23:	08 08                	or     %cl,(%eax)
c010ae25:	08 08                	or     %cl,(%eax)
c010ae27:	08 ff                	or     %bh,%bh
c010ae29:	00 00                	add    %al,(%eax)
c010ae2b:	00 00                	add    %al,(%eax)
c010ae2d:	00 00                	add    %al,(%eax)
c010ae2f:	00 08                	add    %cl,(%eax)
c010ae31:	08 08                	or     %cl,(%eax)
c010ae33:	08 08                	or     %cl,(%eax)
c010ae35:	08 08                	or     %cl,(%eax)
c010ae37:	08 ff                	or     %bh,%bh
c010ae39:	08 08                	or     %cl,(%eax)
c010ae3b:	08 08                	or     %cl,(%eax)
c010ae3d:	08 08                	or     %cl,(%eax)
c010ae3f:	08 88 22 88 22 88    	or     %cl,-0x77dd77de(%eax)
c010ae45:	22 88 22 88 22 88    	and    -0x77dd77de(%eax),%cl
c010ae4b:	22 88 22 88 22 ff    	and    -0xdd77de(%eax),%cl
	...
c010ae61:	00 00                	add    %al,(%eax)
c010ae63:	ff 00                	incl   (%eax)
	...
c010ae79:	00 00                	add    %al,(%eax)
c010ae7b:	00 ff                	add    %bh,%bh
	...
c010ae8d:	00 00                	add    %al,(%eax)
c010ae8f:	ff 00                	incl   (%eax)
c010ae91:	00 00                	add    %al,(%eax)
c010ae93:	00 00                	add    %al,(%eax)
c010ae95:	00 00                	add    %al,(%eax)
c010ae97:	ff 00                	incl   (%eax)
c010ae99:	ff 00                	incl   (%eax)
c010ae9b:	00 00                	add    %al,(%eax)
c010ae9d:	00 00                	add    %al,(%eax)
c010ae9f:	00 14 14             	add    %dl,(%esp,%edx,1)
c010aea2:	14 14                	adc    $0x14,%al
c010aea4:	14 14                	adc    $0x14,%al
c010aea6:	14 14                	adc    $0x14,%al
c010aea8:	14 14                	adc    $0x14,%al
c010aeaa:	14 14                	adc    $0x14,%al
c010aeac:	14 14                	adc    $0x14,%al
c010aeae:	14 14                	adc    $0x14,%al
c010aeb0:	00 00                	add    %al,(%eax)
c010aeb2:	00 00                	add    %al,(%eax)
c010aeb4:	00 00                	add    %al,(%eax)
c010aeb6:	00 1f                	add    %bl,(%edi)
c010aeb8:	10 17                	adc    %dl,(%edi)
c010aeba:	14 14                	adc    $0x14,%al
c010aebc:	14 14                	adc    $0x14,%al
c010aebe:	14 14                	adc    $0x14,%al
c010aec0:	00 00                	add    %al,(%eax)
c010aec2:	00 00                	add    %al,(%eax)
c010aec4:	00 00                	add    %al,(%eax)
c010aec6:	00 fc                	add    %bh,%ah
c010aec8:	04 f4                	add    $0xf4,%al
c010aeca:	14 14                	adc    $0x14,%al
c010aecc:	14 14                	adc    $0x14,%al
c010aece:	14 14                	adc    $0x14,%al
c010aed0:	14 14                	adc    $0x14,%al
c010aed2:	14 14                	adc    $0x14,%al
c010aed4:	14 14                	adc    $0x14,%al
c010aed6:	14 17                	adc    $0x17,%al
c010aed8:	10 1f                	adc    %bl,(%edi)
c010aeda:	00 00                	add    %al,(%eax)
c010aedc:	00 00                	add    %al,(%eax)
c010aede:	00 00                	add    %al,(%eax)
c010aee0:	14 14                	adc    $0x14,%al
c010aee2:	14 14                	adc    $0x14,%al
c010aee4:	14 14                	adc    $0x14,%al
c010aee6:	14 f4                	adc    $0xf4,%al
c010aee8:	04 fc                	add    $0xfc,%al
c010aeea:	00 00                	add    %al,(%eax)
c010aeec:	00 00                	add    %al,(%eax)
c010aeee:	00 00                	add    %al,(%eax)
c010aef0:	14 14                	adc    $0x14,%al
c010aef2:	14 14                	adc    $0x14,%al
c010aef4:	14 14                	adc    $0x14,%al
c010aef6:	14 17                	adc    $0x17,%al
c010aef8:	10 17                	adc    %dl,(%edi)
c010aefa:	14 14                	adc    $0x14,%al
c010aefc:	14 14                	adc    $0x14,%al
c010aefe:	14 14                	adc    $0x14,%al
c010af00:	14 14                	adc    $0x14,%al
c010af02:	14 14                	adc    $0x14,%al
c010af04:	14 14                	adc    $0x14,%al
c010af06:	14 f4                	adc    $0xf4,%al
c010af08:	04 f4                	add    $0xf4,%al
c010af0a:	14 14                	adc    $0x14,%al
c010af0c:	14 14                	adc    $0x14,%al
c010af0e:	14 14                	adc    $0x14,%al
c010af10:	00 00                	add    %al,(%eax)
c010af12:	00 00                	add    %al,(%eax)
c010af14:	00 00                	add    %al,(%eax)
c010af16:	00 ff                	add    %bh,%bh
c010af18:	00 f7                	add    %dh,%bh
c010af1a:	14 14                	adc    $0x14,%al
c010af1c:	14 14                	adc    $0x14,%al
c010af1e:	14 14                	adc    $0x14,%al
c010af20:	14 14                	adc    $0x14,%al
c010af22:	14 14                	adc    $0x14,%al
c010af24:	14 14                	adc    $0x14,%al
c010af26:	14 f7                	adc    $0xf7,%al
c010af28:	00 ff                	add    %bh,%bh
c010af2a:	00 00                	add    %al,(%eax)
c010af2c:	00 00                	add    %al,(%eax)
c010af2e:	00 00                	add    %al,(%eax)
c010af30:	14 14                	adc    $0x14,%al
c010af32:	14 14                	adc    $0x14,%al
c010af34:	14 14                	adc    $0x14,%al
c010af36:	14 f7                	adc    $0xf7,%al
c010af38:	00 f7                	add    %dh,%bh
c010af3a:	14 14                	adc    $0x14,%al
c010af3c:	14 14                	adc    $0x14,%al
c010af3e:	14 14                	adc    $0x14,%al
c010af40:	ff                   	(bad)
c010af41:	ff                   	(bad)
c010af42:	ff                   	(bad)
c010af43:	ff                   	(bad)
c010af44:	ff                   	(bad)
c010af45:	ff                   	(bad)
c010af46:	ff                   	(bad)
c010af47:	ff                   	(bad)
c010af48:	ff                   	(bad)
c010af49:	ff                   	(bad)
c010af4a:	ff                   	(bad)
c010af4b:	ff                   	(bad)
c010af4c:	ff                   	(bad)
c010af4d:	ff                   	(bad)
c010af4e:	ff                   	(bad)
c010af4f:	ff 00                	incl   (%eax)
c010af51:	00 00                	add    %al,(%eax)
c010af53:	00 00                	add    %al,(%eax)
c010af55:	08 1c 2a             	or     %bl,(%edx,%ebp,1)
c010af58:	08 08                	or     %cl,(%eax)
c010af5a:	08 08                	or     %cl,(%eax)
	...
c010af64:	00 08                	add    %cl,(%eax)
c010af66:	08 08                	or     %cl,(%eax)
c010af68:	08 2a                	or     %ch,(%edx)
c010af6a:	1c 08                	sbb    $0x8,%al
	...
c010af74:	00 00                	add    %al,(%eax)
c010af76:	10 20                	adc    %ah,(%eax)
c010af78:	7f 20                	jg     c010af9a <_binary_font_psf_start+0xe0e>
c010af7a:	10 00                	adc    %al,(%eax)
	...
c010af84:	00 00                	add    %al,(%eax)
c010af86:	08 04 fe             	or     %al,(%esi,%edi,8)
c010af89:	04 08                	add    $0x8,%al
c010af8b:	00 00                	add    %al,(%eax)
c010af8d:	00 00                	add    %al,(%eax)
c010af8f:	00 00                	add    %al,(%eax)
c010af91:	30 0c 00             	xor    %cl,(%eax,%eax,1)
c010af94:	00 3c 42             	add    %bh,(%edx,%eax,2)
c010af97:	02 3e                	add    (%esi),%bh
c010af99:	42                   	inc    %edx
c010af9a:	42                   	inc    %edx
c010af9b:	46                   	inc    %esi
c010af9c:	3a 00                	cmp    (%eax),%al
c010af9e:	00 00                	add    %al,(%eax)
c010afa0:	00 0c 30             	add    %cl,(%eax,%esi,1)
c010afa3:	00 00                	add    %al,(%eax)
c010afa5:	3c 42                	cmp    $0x42,%al
c010afa7:	02 3e                	add    (%esi),%bh
c010afa9:	42                   	inc    %edx
c010afaa:	42                   	inc    %edx
c010afab:	46                   	inc    %esi
c010afac:	3a 00                	cmp    (%eax),%al
c010afae:	00 00                	add    %al,(%eax)
c010afb0:	00 18                	add    %bl,(%eax)
c010afb2:	24 00                	and    $0x0,%al
c010afb4:	00 3c 42             	add    %bh,(%edx,%eax,2)
c010afb7:	02 3e                	add    (%esi),%bh
c010afb9:	42                   	inc    %edx
c010afba:	42                   	inc    %edx
c010afbb:	46                   	inc    %esi
c010afbc:	3a 00                	cmp    (%eax),%al
c010afbe:	00 00                	add    %al,(%eax)
c010afc0:	00 32                	add    %dh,(%edx)
c010afc2:	4c                   	dec    %esp
c010afc3:	00 00                	add    %al,(%eax)
c010afc5:	3c 42                	cmp    $0x42,%al
c010afc7:	02 3e                	add    (%esi),%bh
c010afc9:	42                   	inc    %edx
c010afca:	42                   	inc    %edx
c010afcb:	46                   	inc    %esi
c010afcc:	3a 00                	cmp    (%eax),%al
c010afce:	00 00                	add    %al,(%eax)
c010afd0:	00 24 24             	add    %ah,(%esp)
c010afd3:	00 00                	add    %al,(%eax)
c010afd5:	3c 42                	cmp    $0x42,%al
c010afd7:	02 3e                	add    (%esi),%bh
c010afd9:	42                   	inc    %edx
c010afda:	42                   	inc    %edx
c010afdb:	46                   	inc    %esi
c010afdc:	3a 00                	cmp    (%eax),%al
c010afde:	00 00                	add    %al,(%eax)
c010afe0:	18 24 24             	sbb    %ah,(%esp)
c010afe3:	18 00                	sbb    %al,(%eax)
c010afe5:	3c 42                	cmp    $0x42,%al
c010afe7:	02 3e                	add    (%esi),%bh
c010afe9:	42                   	inc    %edx
c010afea:	42                   	inc    %edx
c010afeb:	46                   	inc    %esi
c010afec:	3a 00                	cmp    (%eax),%al
c010afee:	00 00                	add    %al,(%eax)
c010aff0:	00 00                	add    %al,(%eax)
c010aff2:	00 00                	add    %al,(%eax)
c010aff4:	00 36                	add    %dh,(%esi)
c010aff6:	49                   	dec    %ecx
c010aff7:	09 3f                	or     %edi,(%edi)
c010aff9:	48                   	dec    %eax
c010affa:	48                   	dec    %eax
c010affb:	49                   	dec    %ecx
c010affc:	36 00 00             	add    %al,%ss:(%eax)
c010afff:	00 00                	add    %al,(%eax)
c010b001:	00 00                	add    %al,(%eax)
c010b003:	00 00                	add    %al,(%eax)
c010b005:	3c 42                	cmp    $0x42,%al
c010b007:	40                   	inc    %eax
c010b008:	40                   	inc    %eax
c010b009:	40                   	inc    %eax
c010b00a:	40                   	inc    %eax
c010b00b:	42                   	inc    %edx
c010b00c:	3c 08                	cmp    $0x8,%al
c010b00e:	08 30                	or     %dh,(%eax)
c010b010:	00 30                	add    %dh,(%eax)
c010b012:	0c 00                	or     $0x0,%al
c010b014:	00 3c 42             	add    %bh,(%edx,%eax,2)
c010b017:	42                   	inc    %edx
c010b018:	7e 40                	jle    c010b05a <_binary_font_psf_start+0xece>
c010b01a:	40                   	inc    %eax
c010b01b:	42                   	inc    %edx
c010b01c:	3c 00                	cmp    $0x0,%al
c010b01e:	00 00                	add    %al,(%eax)
c010b020:	00 0c 30             	add    %cl,(%eax,%esi,1)
c010b023:	00 00                	add    %al,(%eax)
c010b025:	3c 42                	cmp    $0x42,%al
c010b027:	42                   	inc    %edx
c010b028:	7e 40                	jle    c010b06a <_binary_font_psf_start+0xede>
c010b02a:	40                   	inc    %eax
c010b02b:	42                   	inc    %edx
c010b02c:	3c 00                	cmp    $0x0,%al
c010b02e:	00 00                	add    %al,(%eax)
c010b030:	00 18                	add    %bl,(%eax)
c010b032:	24 00                	and    $0x0,%al
c010b034:	00 3c 42             	add    %bh,(%edx,%eax,2)
c010b037:	42                   	inc    %edx
c010b038:	7e 40                	jle    c010b07a <_binary_font_psf_start+0xeee>
c010b03a:	40                   	inc    %eax
c010b03b:	42                   	inc    %edx
c010b03c:	3c 00                	cmp    $0x0,%al
c010b03e:	00 00                	add    %al,(%eax)
c010b040:	00 24 24             	add    %ah,(%esp)
c010b043:	00 00                	add    %al,(%eax)
c010b045:	3c 42                	cmp    $0x42,%al
c010b047:	42                   	inc    %edx
c010b048:	7e 40                	jle    c010b08a <_binary_font_psf_start+0xefe>
c010b04a:	40                   	inc    %eax
c010b04b:	42                   	inc    %edx
c010b04c:	3c 00                	cmp    $0x0,%al
c010b04e:	00 00                	add    %al,(%eax)
c010b050:	00 30                	add    %dh,(%eax)
c010b052:	0c 00                	or     $0x0,%al
c010b054:	00 18                	add    %bl,(%eax)
c010b056:	08 08                	or     %cl,(%eax)
c010b058:	08 08                	or     %cl,(%eax)
c010b05a:	08 08                	or     %cl,(%eax)
c010b05c:	3e 00 00             	add    %al,%ds:(%eax)
c010b05f:	00 00                	add    %al,(%eax)
c010b061:	0c 30                	or     $0x30,%al
c010b063:	00 00                	add    %al,(%eax)
c010b065:	18 08                	sbb    %cl,(%eax)
c010b067:	08 08                	or     %cl,(%eax)
c010b069:	08 08                	or     %cl,(%eax)
c010b06b:	08 3e                	or     %bh,(%esi)
c010b06d:	00 00                	add    %al,(%eax)
c010b06f:	00 00                	add    %al,(%eax)
c010b071:	18 24 00             	sbb    %ah,(%eax,%eax,1)
c010b074:	00 18                	add    %bl,(%eax)
c010b076:	08 08                	or     %cl,(%eax)
c010b078:	08 08                	or     %cl,(%eax)
c010b07a:	08 08                	or     %cl,(%eax)
c010b07c:	3e 00 00             	add    %al,%ds:(%eax)
c010b07f:	00 00                	add    %al,(%eax)
c010b081:	24 24                	and    $0x24,%al
c010b083:	00 00                	add    %al,(%eax)
c010b085:	18 08                	sbb    %cl,(%eax)
c010b087:	08 08                	or     %cl,(%eax)
c010b089:	08 08                	or     %cl,(%eax)
c010b08b:	08 3e                	or     %bh,(%esi)
c010b08d:	00 00                	add    %al,(%eax)
c010b08f:	00 00                	add    %al,(%eax)
c010b091:	00 66 18             	add    %ah,0x18(%esi)
c010b094:	64 02 3a             	add    %fs:(%edx),%bh
c010b097:	46                   	inc    %esi
c010b098:	42                   	inc    %edx
c010b099:	42                   	inc    %edx
c010b09a:	42                   	inc    %edx
c010b09b:	42                   	inc    %edx
c010b09c:	3c 00                	cmp    $0x0,%al
c010b09e:	00 00                	add    %al,(%eax)
c010b0a0:	00 32                	add    %dh,(%edx)
c010b0a2:	4c                   	dec    %esp
c010b0a3:	00 00                	add    %al,(%eax)
c010b0a5:	5c                   	pop    %esp
c010b0a6:	62 42 42             	bound  %eax,0x42(%edx)
c010b0a9:	42                   	inc    %edx
c010b0aa:	42                   	inc    %edx
c010b0ab:	42                   	inc    %edx
c010b0ac:	42                   	inc    %edx
c010b0ad:	00 00                	add    %al,(%eax)
c010b0af:	00 00                	add    %al,(%eax)
c010b0b1:	30 0c 00             	xor    %cl,(%eax,%eax,1)
c010b0b4:	00 3c 42             	add    %bh,(%edx,%eax,2)
c010b0b7:	42                   	inc    %edx
c010b0b8:	42                   	inc    %edx
c010b0b9:	42                   	inc    %edx
c010b0ba:	42                   	inc    %edx
c010b0bb:	42                   	inc    %edx
c010b0bc:	3c 00                	cmp    $0x0,%al
c010b0be:	00 00                	add    %al,(%eax)
c010b0c0:	00 0c 30             	add    %cl,(%eax,%esi,1)
c010b0c3:	00 00                	add    %al,(%eax)
c010b0c5:	3c 42                	cmp    $0x42,%al
c010b0c7:	42                   	inc    %edx
c010b0c8:	42                   	inc    %edx
c010b0c9:	42                   	inc    %edx
c010b0ca:	42                   	inc    %edx
c010b0cb:	42                   	inc    %edx
c010b0cc:	3c 00                	cmp    $0x0,%al
c010b0ce:	00 00                	add    %al,(%eax)
c010b0d0:	00 18                	add    %bl,(%eax)
c010b0d2:	24 00                	and    $0x0,%al
c010b0d4:	00 3c 42             	add    %bh,(%edx,%eax,2)
c010b0d7:	42                   	inc    %edx
c010b0d8:	42                   	inc    %edx
c010b0d9:	42                   	inc    %edx
c010b0da:	42                   	inc    %edx
c010b0db:	42                   	inc    %edx
c010b0dc:	3c 00                	cmp    $0x0,%al
c010b0de:	00 00                	add    %al,(%eax)
c010b0e0:	00 32                	add    %dh,(%edx)
c010b0e2:	4c                   	dec    %esp
c010b0e3:	00 00                	add    %al,(%eax)
c010b0e5:	3c 42                	cmp    $0x42,%al
c010b0e7:	42                   	inc    %edx
c010b0e8:	42                   	inc    %edx
c010b0e9:	42                   	inc    %edx
c010b0ea:	42                   	inc    %edx
c010b0eb:	42                   	inc    %edx
c010b0ec:	3c 00                	cmp    $0x0,%al
c010b0ee:	00 00                	add    %al,(%eax)
c010b0f0:	00 24 24             	add    %ah,(%esp)
c010b0f3:	00 00                	add    %al,(%eax)
c010b0f5:	3c 42                	cmp    $0x42,%al
c010b0f7:	42                   	inc    %edx
c010b0f8:	42                   	inc    %edx
c010b0f9:	42                   	inc    %edx
c010b0fa:	42                   	inc    %edx
c010b0fb:	42                   	inc    %edx
c010b0fc:	3c 00                	cmp    $0x0,%al
c010b0fe:	00 00                	add    %al,(%eax)
c010b100:	00 00                	add    %al,(%eax)
c010b102:	00 00                	add    %al,(%eax)
c010b104:	10 10                	adc    %dl,(%eax)
c010b106:	00 00                	add    %al,(%eax)
c010b108:	7c 00                	jl     c010b10a <_binary_font_psf_start+0xf7e>
c010b10a:	00 10                	add    %dl,(%eax)
c010b10c:	10 00                	adc    %al,(%eax)
c010b10e:	00 00                	add    %al,(%eax)
c010b110:	00 00                	add    %al,(%eax)
c010b112:	00 00                	add    %al,(%eax)
c010b114:	02 3c 46             	add    (%esi,%eax,2),%bh
c010b117:	4a                   	dec    %edx
c010b118:	4a                   	dec    %edx
c010b119:	52                   	push   %edx
c010b11a:	52                   	push   %edx
c010b11b:	62 3c 40             	bound  %edi,(%eax,%eax,2)
c010b11e:	00 00                	add    %al,(%eax)
c010b120:	00 30                	add    %dh,(%eax)
c010b122:	0c 00                	or     $0x0,%al
c010b124:	00 42 42             	add    %al,0x42(%edx)
c010b127:	42                   	inc    %edx
c010b128:	42                   	inc    %edx
c010b129:	42                   	inc    %edx
c010b12a:	42                   	inc    %edx
c010b12b:	46                   	inc    %esi
c010b12c:	3a 00                	cmp    (%eax),%al
c010b12e:	00 00                	add    %al,(%eax)
c010b130:	00 0c 30             	add    %cl,(%eax,%esi,1)
c010b133:	00 00                	add    %al,(%eax)
c010b135:	42                   	inc    %edx
c010b136:	42                   	inc    %edx
c010b137:	42                   	inc    %edx
c010b138:	42                   	inc    %edx
c010b139:	42                   	inc    %edx
c010b13a:	42                   	inc    %edx
c010b13b:	46                   	inc    %esi
c010b13c:	3a 00                	cmp    (%eax),%al
c010b13e:	00 00                	add    %al,(%eax)
c010b140:	00 18                	add    %bl,(%eax)
c010b142:	24 00                	and    $0x0,%al
c010b144:	00 42 42             	add    %al,0x42(%edx)
c010b147:	42                   	inc    %edx
c010b148:	42                   	inc    %edx
c010b149:	42                   	inc    %edx
c010b14a:	42                   	inc    %edx
c010b14b:	46                   	inc    %esi
c010b14c:	3a 00                	cmp    (%eax),%al
c010b14e:	00 00                	add    %al,(%eax)
c010b150:	00 24 24             	add    %ah,(%esp)
c010b153:	00 00                	add    %al,(%eax)
c010b155:	42                   	inc    %edx
c010b156:	42                   	inc    %edx
c010b157:	42                   	inc    %edx
c010b158:	42                   	inc    %edx
c010b159:	42                   	inc    %edx
c010b15a:	42                   	inc    %edx
c010b15b:	46                   	inc    %esi
c010b15c:	3a 00                	cmp    (%eax),%al
c010b15e:	00 00                	add    %al,(%eax)
c010b160:	00 0c 30             	add    %cl,(%eax,%esi,1)
c010b163:	00 00                	add    %al,(%eax)
c010b165:	42                   	inc    %edx
c010b166:	42                   	inc    %edx
c010b167:	42                   	inc    %edx
c010b168:	42                   	inc    %edx
c010b169:	42                   	inc    %edx
c010b16a:	46                   	inc    %esi
c010b16b:	3a 02                	cmp    (%edx),%al
c010b16d:	02 42 3c             	add    0x3c(%edx),%al
c010b170:	00 00                	add    %al,(%eax)
c010b172:	40                   	inc    %eax
c010b173:	40                   	inc    %eax
c010b174:	40                   	inc    %eax
c010b175:	5c                   	pop    %esp
c010b176:	62 42 42             	bound  %eax,0x42(%edx)
c010b179:	42                   	inc    %edx
c010b17a:	42                   	inc    %edx
c010b17b:	62 5c 40 40          	bound  %ebx,0x40(%eax,%eax,2)
c010b17f:	40                   	inc    %eax
c010b180:	00 24 24             	add    %ah,(%esp)
c010b183:	00 00                	add    %al,(%eax)
c010b185:	42                   	inc    %edx
c010b186:	42                   	inc    %edx
c010b187:	42                   	inc    %edx
c010b188:	42                   	inc    %edx
c010b189:	42                   	inc    %edx
c010b18a:	46                   	inc    %esi
c010b18b:	3a 02                	cmp    (%edx),%al
c010b18d:	02 42 3c             	add    0x3c(%edx),%al
c010b190:	fd                   	std
c010b191:	ff                   	(bad)
c010b192:	ff                   	(bad)
c010b193:	ff c0                	inc    %eax
c010b195:	03 ff                	add    %edi,%edi
c010b197:	ff 60 22             	jmp    *0x22(%eax)
c010b19a:	ff                   	(bad)
c010b19b:	ff 64 22 ff          	jmp    *-0x1(%edx,%eiz,1)
c010b19f:	ff 65 22             	jmp    *0x22(%ebp)
c010b1a2:	ff                   	(bad)
c010b1a3:	ff a0 25 ac 25 ae    	jmp    *-0x51da53db(%eax)
c010b1a9:	25 fc 25 fe 25       	and    $0x25fe25fc,%eax
c010b1ae:	1b 2b                	sbb    (%ebx),%ebp
c010b1b0:	0e                   	push   %cs
c010b1b1:	22 ff                	and    %bh,%bh
c010b1b3:	ff c6                	inc    %esi
c010b1b5:	25 66 26 25 2b       	and    $0x2b252666,%eax
c010b1ba:	27                   	daa
c010b1bb:	2b ff                	sub    %edi,%edi
c010b1bd:	ff                   	(bad)
c010b1be:	bc 00 ff ff bd       	mov    $0xbdffff00,%esp
c010b1c3:	00 ff                	add    %bh,%bh
c010b1c5:	ff                   	(bad)
c010b1c6:	be 00 ff ff a6       	mov    $0xa6ffff00,%esi
c010b1cb:	00 ff                	add    %bh,%bh
c010b1cd:	ff a8 00 ff ff b8    	ljmp   *-0x47000100(%eax)
c010b1d3:	00 ff                	add    %bh,%bh
c010b1d5:	ff 92 01 ff ff 20    	call   *0x20ffff01(%edx)
c010b1db:	20 ff                	and    %bh,%bh
c010b1dd:	ff 21                	jmp    *(%ecx)
c010b1df:	20 ff                	and    %bh,%bh
c010b1e1:	ff 30                	push   (%eax)
c010b1e3:	20 ff                	and    %bh,%bh
c010b1e5:	ff 22                	jmp    *(%edx)
c010b1e7:	21 ff                	and    %edi,%edi
c010b1e9:	ff 26                	jmp    *(%esi)
c010b1eb:	20 ff                	and    %bh,%bh
c010b1ed:	ff                   	(bad)
c010b1ee:	39 20                	cmp    %esp,(%eax)
c010b1f0:	ff                   	(bad)
c010b1f1:	ff                   	(bad)
c010b1f2:	3a 20                	cmp    (%eax),%ah
c010b1f4:	ff                   	(bad)
c010b1f5:	ff 1c 20             	lcall  *(%eax,%eiz,1)
c010b1f8:	1f                   	pop    %ds
c010b1f9:	20 36                	and    %dh,(%esi)
c010b1fb:	20 ff                	and    %bh,%bh
c010b1fd:	ff 1d 20 ba 02 dd    	lcall  *0xdd02ba20
c010b203:	02 ee                	add    %dh,%ch
c010b205:	02 33                	add    (%ebx),%dh
c010b207:	20 ff                	and    %bh,%bh
c010b209:	ff 1e                	lcall  *(%esi)
c010b20b:	20 ff                	and    %bh,%bh
c010b20d:	ff 42 2e             	incl   0x2e(%edx)
c010b210:	ff                   	(bad)
c010b211:	ff 41 2e             	incl   0x2e(%ecx)
c010b214:	ce                   	into
c010b215:	02 ff                	add    %bh,%bh
c010b217:	ff 1e                	lcall  *(%esi)
c010b219:	01 ff                	add    %edi,%edi
c010b21b:	ff 1f                	lcall  *(%edi)
c010b21d:	01 ff                	add    %edi,%edi
c010b21f:	ff 30                	push   (%eax)
c010b221:	01 ff                	add    %edi,%edi
c010b223:	ff 31                	push   (%ecx)
c010b225:	01 ff                	add    %edi,%edi
c010b227:	ff 5e 01             	lcall  *0x1(%esi)
c010b22a:	ff                   	(bad)
c010b22b:	ff 5f 01             	lcall  *0x1(%edi)
c010b22e:	ff                   	(bad)
c010b22f:	ff 20                	jmp    *(%eax)
c010b231:	00 a0 00 00 20 01    	add    %ah,0x1200000(%eax)
c010b237:	20 02                	and    %al,(%edx)
c010b239:	20 03                	and    %al,(%ebx)
c010b23b:	20 04 20             	and    %al,(%eax,%eiz,1)
c010b23e:	05 20 06 20 07       	add    $0x7200620,%eax
c010b243:	20 08                	and    %cl,(%eax)
c010b245:	20 09                	and    %cl,(%ecx)
c010b247:	20 0a                	and    %cl,(%edx)
c010b249:	20 2f                	and    %ch,(%edi)
c010b24b:	20 5f 20             	and    %bl,0x20(%edi)
c010b24e:	ff                   	(bad)
c010b24f:	ff 21                	jmp    *(%ecx)
c010b251:	00 ff                	add    %bh,%bh
c010b253:	ff 22                	jmp    *(%edx)
c010b255:	00 ff                	add    %bh,%bh
c010b257:	ff 23                	jmp    *(%ebx)
c010b259:	00 ff                	add    %bh,%bh
c010b25b:	ff 24 00             	jmp    *(%eax,%eax,1)
c010b25e:	ff                   	(bad)
c010b25f:	ff 25 00 ff ff 26    	jmp    *0x26ffff00
c010b265:	00 ff                	add    %bh,%bh
c010b267:	ff 27                	jmp    *(%edi)
c010b269:	00 b4 00 b9 02 bc 02 	add    %dh,0x2bc02b9(%eax,%eax,1)
c010b270:	ca 02 19             	lret   $0x1902
c010b273:	20 32                	and    %dh,(%edx)
c010b275:	20 ff                	and    %bh,%bh
c010b277:	ff 28                	ljmp   *(%eax)
c010b279:	00 ff                	add    %bh,%bh
c010b27b:	ff 29                	ljmp   *(%ecx)
c010b27d:	00 ff                	add    %bh,%bh
c010b27f:	ff 2a                	ljmp   *(%edx)
c010b281:	00 4e 20             	add    %cl,0x20(%esi)
c010b284:	17                   	pop    %ss
c010b285:	22 ff                	and    %bh,%bh
c010b287:	ff 2b                	ljmp   *(%ebx)
c010b289:	00 ff                	add    %bh,%bh
c010b28b:	ff 2c 00             	ljmp   *(%eax,%eax,1)
c010b28e:	cf                   	iret
c010b28f:	02 1a                	add    (%edx),%bl
c010b291:	20 ff                	and    %bh,%bh
c010b293:	ff 2d 00 ad 00 10    	ljmp   *0x1000ad00
c010b299:	20 11                	and    %dl,(%ecx)
c010b29b:	20 12                	and    %dl,(%edx)
c010b29d:	20 13                	and    %dl,(%ebx)
c010b29f:	20 43 20             	and    %al,0x20(%ebx)
c010b2a2:	12 22                	adc    (%edx),%ah
c010b2a4:	ff                   	(bad)
c010b2a5:	ff 2e                	ljmp   *(%esi)
c010b2a7:	00 24 20             	add    %ah,(%eax,%eiz,1)
c010b2aa:	ff                   	(bad)
c010b2ab:	ff 2f                	ljmp   *(%edi)
c010b2ad:	00 44 20 15          	add    %al,0x15(%eax,%eiz,1)
c010b2b1:	22 ff                	and    %bh,%bh
c010b2b3:	ff 30                	push   (%eax)
c010b2b5:	00 ff                	add    %bh,%bh
c010b2b7:	ff 31                	push   (%ecx)
c010b2b9:	00 ff                	add    %bh,%bh
c010b2bb:	ff 32                	push   (%edx)
c010b2bd:	00 ff                	add    %bh,%bh
c010b2bf:	ff 33                	push   (%ebx)
c010b2c1:	00 ff                	add    %bh,%bh
c010b2c3:	ff 34 00             	push   (%eax,%eax,1)
c010b2c6:	ff                   	(bad)
c010b2c7:	ff 35 00 ff ff 36    	push   0x36ffff00
c010b2cd:	00 ff                	add    %bh,%bh
c010b2cf:	ff 37                	push   (%edi)
c010b2d1:	00 ff                	add    %bh,%bh
c010b2d3:	ff                   	(bad)
c010b2d4:	38 00                	cmp    %al,(%eax)
c010b2d6:	ff                   	(bad)
c010b2d7:	ff                   	(bad)
c010b2d8:	39 00                	cmp    %eax,(%eax)
c010b2da:	ff                   	(bad)
c010b2db:	ff                   	(bad)
c010b2dc:	3a 00                	cmp    (%eax),%al
c010b2de:	36 22 ff             	ss and %bh,%bh
c010b2e1:	ff                   	(bad)
c010b2e2:	3b 00                	cmp    (%eax),%eax
c010b2e4:	ff                   	(bad)
c010b2e5:	ff                   	(bad)
c010b2e6:	3c 00                	cmp    $0x0,%al
c010b2e8:	ff                   	(bad)
c010b2e9:	ff                   	(bad)
c010b2ea:	3d 00 40 2e ff       	cmp    $0xff2e4000,%eax
c010b2ef:	ff                   	(bad)
c010b2f0:	3e 00 ff             	ds add %bh,%bh
c010b2f3:	ff                   	(bad)
c010b2f4:	3f                   	aas
c010b2f5:	00 ff                	add    %bh,%bh
c010b2f7:	ff 40 00             	incl   0x0(%eax)
c010b2fa:	ff                   	(bad)
c010b2fb:	ff 41 00             	incl   0x0(%ecx)
c010b2fe:	ff                   	(bad)
c010b2ff:	ff 42 00             	incl   0x0(%edx)
c010b302:	ff                   	(bad)
c010b303:	ff 43 00             	incl   0x0(%ebx)
c010b306:	ff                   	(bad)
c010b307:	ff 44 00 ff          	incl   -0x1(%eax,%eax,1)
c010b30b:	ff 45 00             	incl   0x0(%ebp)
c010b30e:	ff                   	(bad)
c010b30f:	ff 46 00             	incl   0x0(%esi)
c010b312:	ff                   	(bad)
c010b313:	ff 47 00             	incl   0x0(%edi)
c010b316:	ff                   	(bad)
c010b317:	ff 48 00             	decl   0x0(%eax)
c010b31a:	ff                   	(bad)
c010b31b:	ff 49 00             	decl   0x0(%ecx)
c010b31e:	ff                   	(bad)
c010b31f:	ff 4a 00             	decl   0x0(%edx)
c010b322:	ff                   	(bad)
c010b323:	ff 4b 00             	decl   0x0(%ebx)
c010b326:	2a 21                	sub    (%ecx),%ah
c010b328:	ff                   	(bad)
c010b329:	ff 4c 00 ff          	decl   -0x1(%eax,%eax,1)
c010b32d:	ff 4d 00             	decl   0x0(%ebp)
c010b330:	ff                   	(bad)
c010b331:	ff 4e 00             	decl   0x0(%esi)
c010b334:	ff                   	(bad)
c010b335:	ff 4f 00             	decl   0x0(%edi)
c010b338:	ff                   	(bad)
c010b339:	ff 50 00             	call   *0x0(%eax)
c010b33c:	ff                   	(bad)
c010b33d:	ff 51 00             	call   *0x0(%ecx)
c010b340:	ff                   	(bad)
c010b341:	ff 52 00             	call   *0x0(%edx)
c010b344:	ff                   	(bad)
c010b345:	ff 53 00             	call   *0x0(%ebx)
c010b348:	ff                   	(bad)
c010b349:	ff 54 00 ff          	call   *-0x1(%eax,%eax,1)
c010b34d:	ff 55 00             	call   *0x0(%ebp)
c010b350:	ff                   	(bad)
c010b351:	ff 56 00             	call   *0x0(%esi)
c010b354:	ff                   	(bad)
c010b355:	ff 57 00             	call   *0x0(%edi)
c010b358:	ff                   	(bad)
c010b359:	ff 58 00             	lcall  *0x0(%eax)
c010b35c:	ff                   	(bad)
c010b35d:	ff 59 00             	lcall  *0x0(%ecx)
c010b360:	ff                   	(bad)
c010b361:	ff 5a 00             	lcall  *0x0(%edx)
c010b364:	ff                   	(bad)
c010b365:	ff 5b 00             	lcall  *0x0(%ebx)
c010b368:	ff                   	(bad)
c010b369:	ff 5c 00 f5          	lcall  *-0xb(%eax,%eax,1)
c010b36d:	29 ff                	sub    %edi,%edi
c010b36f:	ff 5d 00             	lcall  *0x0(%ebp)
c010b372:	ff                   	(bad)
c010b373:	ff 5e 00             	lcall  *0x0(%esi)
c010b376:	c4 02                	les    (%edx),%eax
c010b378:	c6 02 03             	movb   $0x3,(%edx)
c010b37b:	23 ff                	and    %edi,%edi
c010b37d:	ff 5f 00             	lcall  *0x0(%edi)
c010b380:	ff                   	(bad)
c010b381:	ff 60 00             	jmp    *0x0(%eax)
c010b384:	bb 02 bd 02 cb       	mov    $0xcb02bd02,%ebx
c010b389:	02 18                	add    (%eax),%bl
c010b38b:	20 1b                	and    %bl,(%ebx)
c010b38d:	20 35 20 ff ff 61    	and    %dh,0x61ffff20
c010b393:	00 ff                	add    %bh,%bh
c010b395:	ff 62 00             	jmp    *0x0(%edx)
c010b398:	ff                   	(bad)
c010b399:	ff 63 00             	jmp    *0x0(%ebx)
c010b39c:	ff                   	(bad)
c010b39d:	ff 64 00 ff          	jmp    *-0x1(%eax,%eax,1)
c010b3a1:	ff 65 00             	jmp    *0x0(%ebp)
c010b3a4:	ff                   	(bad)
c010b3a5:	ff 66 00             	jmp    *0x0(%esi)
c010b3a8:	ff                   	(bad)
c010b3a9:	ff 67 00             	jmp    *0x0(%edi)
c010b3ac:	ff                   	(bad)
c010b3ad:	ff 68 00             	ljmp   *0x0(%eax)
c010b3b0:	ff                   	(bad)
c010b3b1:	ff 69 00             	ljmp   *0x0(%ecx)
c010b3b4:	ff                   	(bad)
c010b3b5:	ff 6a 00             	ljmp   *0x0(%edx)
c010b3b8:	ff                   	(bad)
c010b3b9:	ff 6b 00             	ljmp   *0x0(%ebx)
c010b3bc:	ff                   	(bad)
c010b3bd:	ff 6c 00 ff          	ljmp   *-0x1(%eax,%eax,1)
c010b3c1:	ff 6d 00             	ljmp   *0x0(%ebp)
c010b3c4:	ff                   	(bad)
c010b3c5:	ff 6e 00             	ljmp   *0x0(%esi)
c010b3c8:	ff                   	(bad)
c010b3c9:	ff 6f 00             	ljmp   *0x0(%edi)
c010b3cc:	ff                   	(bad)
c010b3cd:	ff 70 00             	push   0x0(%eax)
c010b3d0:	ff                   	(bad)
c010b3d1:	ff 71 00             	push   0x0(%ecx)
c010b3d4:	ff                   	(bad)
c010b3d5:	ff 72 00             	push   0x0(%edx)
c010b3d8:	ff                   	(bad)
c010b3d9:	ff 73 00             	push   0x0(%ebx)
c010b3dc:	ff                   	(bad)
c010b3dd:	ff 74 00 ff          	push   -0x1(%eax,%eax,1)
c010b3e1:	ff 75 00             	push   0x0(%ebp)
c010b3e4:	ff                   	(bad)
c010b3e5:	ff 76 00             	push   0x0(%esi)
c010b3e8:	ff                   	(bad)
c010b3e9:	ff 77 00             	push   0x0(%edi)
c010b3ec:	ff                   	(bad)
c010b3ed:	ff                   	(bad)
c010b3ee:	78 00                	js     c010b3f0 <_binary_font_psf_start+0x1264>
c010b3f0:	ff                   	(bad)
c010b3f1:	ff                   	(bad)
c010b3f2:	79 00                	jns    c010b3f4 <_binary_font_psf_start+0x1268>
c010b3f4:	ff                   	(bad)
c010b3f5:	ff                   	(bad)
c010b3f6:	7a 00                	jp     c010b3f8 <_binary_font_psf_start+0x126c>
c010b3f8:	ff                   	(bad)
c010b3f9:	ff                   	(bad)
c010b3fa:	7b 00                	jnp    c010b3fc <_binary_font_psf_start+0x1270>
c010b3fc:	ff                   	(bad)
c010b3fd:	ff                   	(bad)
c010b3fe:	7c 00                	jl     c010b400 <_binary_font_psf_start+0x1274>
c010b400:	23 22                	and    (%edx),%esp
c010b402:	ff                   	(bad)
c010b403:	ff                   	(bad)
c010b404:	7d 00                	jge    c010b406 <_binary_font_psf_start+0x127a>
c010b406:	ff                   	(bad)
c010b407:	ff                   	(bad)
c010b408:	7e 00                	jle    c010b40a <_binary_font_psf_start+0x127e>
c010b40a:	dc 02                	faddl  (%edx)
c010b40c:	ff                   	(bad)
c010b40d:	ff 22                	jmp    *(%edx)
c010b40f:	20 19                	and    %bl,(%ecx)
c010b411:	22 cf                	and    %bh,%cl
c010b413:	25 ff ff c0 00       	and    $0xc0ffff,%eax
c010b418:	ff                   	(bad)
c010b419:	ff c1                	inc    %ecx
c010b41b:	00 ff                	add    %bh,%bh
c010b41d:	ff c2                	inc    %edx
c010b41f:	00 ff                	add    %bh,%bh
c010b421:	ff c3                	inc    %ebx
c010b423:	00 ff                	add    %bh,%bh
c010b425:	ff c4                	inc    %esp
c010b427:	00 ff                	add    %bh,%bh
c010b429:	ff c5                	inc    %ebp
c010b42b:	00 2b                	add    %ch,(%ebx)
c010b42d:	21 ff                	and    %edi,%edi
c010b42f:	ff c6                	inc    %esi
c010b431:	00 ff                	add    %bh,%bh
c010b433:	ff c7                	inc    %edi
c010b435:	00 ff                	add    %bh,%bh
c010b437:	ff c8                	dec    %eax
c010b439:	00 ff                	add    %bh,%bh
c010b43b:	ff c9                	dec    %ecx
c010b43d:	00 ff                	add    %bh,%bh
c010b43f:	ff ca                	dec    %edx
c010b441:	00 ff                	add    %bh,%bh
c010b443:	ff cb                	dec    %ebx
c010b445:	00 ff                	add    %bh,%bh
c010b447:	ff cc                	dec    %esp
c010b449:	00 ff                	add    %bh,%bh
c010b44b:	ff cd                	dec    %ebp
c010b44d:	00 ff                	add    %bh,%bh
c010b44f:	ff ce                	dec    %esi
c010b451:	00 ff                	add    %bh,%bh
c010b453:	ff cf                	dec    %edi
c010b455:	00 ff                	add    %bh,%bh
c010b457:	ff d0                	call   *%eax
c010b459:	00 10                	add    %dl,(%eax)
c010b45b:	01 ff                	add    %edi,%edi
c010b45d:	ff d1                	call   *%ecx
c010b45f:	00 ff                	add    %bh,%bh
c010b461:	ff d2                	call   *%edx
c010b463:	00 ff                	add    %bh,%bh
c010b465:	ff d3                	call   *%ebx
c010b467:	00 ff                	add    %bh,%bh
c010b469:	ff d4                	call   *%esp
c010b46b:	00 ff                	add    %bh,%bh
c010b46d:	ff d5                	call   *%ebp
c010b46f:	00 ff                	add    %bh,%bh
c010b471:	ff d6                	call   *%esi
c010b473:	00 ff                	add    %bh,%bh
c010b475:	ff d7                	call   *%edi
c010b477:	00 ff                	add    %bh,%bh
c010b479:	ff                   	lcall  (bad)
c010b47a:	d8 00                	fadds  (%eax)
c010b47c:	ff                   	(bad)
c010b47d:	ff                   	lcall  (bad)
c010b47e:	d9 00                	flds   (%eax)
c010b480:	ff                   	(bad)
c010b481:	ff                   	lcall  (bad)
c010b482:	da 00                	fiaddl (%eax)
c010b484:	ff                   	(bad)
c010b485:	ff                   	lcall  (bad)
c010b486:	db 00                	fildl  (%eax)
c010b488:	ff                   	(bad)
c010b489:	ff                   	lcall  (bad)
c010b48a:	dc 00                	faddl  (%eax)
c010b48c:	ff                   	(bad)
c010b48d:	ff                   	lcall  (bad)
c010b48e:	dd 00                	fldl   (%eax)
c010b490:	ff                   	(bad)
c010b491:	ff                   	lcall  (bad)
c010b492:	de 00                	fiadds (%eax)
c010b494:	ff                   	(bad)
c010b495:	ff                   	lcall  (bad)
c010b496:	df 00                	filds  (%eax)
c010b498:	ff                   	(bad)
c010b499:	ff 92 25 ff ff a1    	call   *-0x5e0000db(%edx)
c010b49f:	00 ff                	add    %bh,%bh
c010b4a1:	ff a2 00 ff ff a3    	jmp    *-0x5c000100(%edx)
c010b4a7:	00 ff                	add    %bh,%bh
c010b4a9:	ff ac 20 ff ff a5 00 	ljmp   *0xa5ffff(%eax,%eiz,1)
c010b4b0:	ff                   	(bad)
c010b4b1:	ff 60 01             	jmp    *0x1(%eax)
c010b4b4:	ff                   	(bad)
c010b4b5:	ff a7 00 ff ff 61    	jmp    *0x61ffff00(%edi)
c010b4bb:	01 ff                	add    %edi,%edi
c010b4bd:	ff a9 00 ff ff aa    	ljmp   *-0x55000100(%ecx)
c010b4c3:	00 ff                	add    %bh,%bh
c010b4c5:	ff ab 00 ff ff ac    	ljmp   *-0x53000100(%ebx)
c010b4cb:	00 ff                	add    %bh,%bh
c010b4cd:	ff a4 00 ff ff ae 00 	jmp    *0xaeffff(%eax,%eax,1)
c010b4d4:	ff                   	(bad)
c010b4d5:	ff af 00 c9 02 ff    	ljmp   *-0xfd3700(%edi)
c010b4db:	ff b0 00 da 02 ff    	push   -0xfd2600(%eax)
c010b4e1:	ff b1 00 ff ff b2    	push   -0x4d000100(%ecx)
c010b4e7:	00 ff                	add    %bh,%bh
c010b4e9:	ff b3 00 ff ff 7d    	push   0x7dffff00(%ebx)
c010b4ef:	01 ff                	add    %edi,%edi
c010b4f1:	ff b5 00 bc 03 ff    	push   -0xfc4400(%ebp)
c010b4f7:	ff b6 00 ff ff b7    	push   -0x48000100(%esi)
c010b4fd:	00 27                	add    %ah,(%edi)
c010b4ff:	20 c5                	and    %al,%ch
c010b501:	22 31                	and    (%ecx),%dh
c010b503:	2e ff                	cs (bad)
c010b505:	ff                   	(bad)
c010b506:	7e 01                	jle    c010b509 <_binary_font_psf_start+0x137d>
c010b508:	ff                   	(bad)
c010b509:	ff                   	(bad)
c010b50a:	b9 00 ff ff ba       	mov    $0xbaffff00,%ecx
c010b50f:	00 ff                	add    %bh,%bh
c010b511:	ff                   	(bad)
c010b512:	bb 00 ff ff 52       	mov    $0x52ffff00,%ebx
c010b517:	01 ff                	add    %edi,%edi
c010b519:	ff 53 01             	call   *0x1(%ebx)
c010b51c:	ff                   	(bad)
c010b51d:	ff                   	(bad)
c010b51e:	78 01                	js     c010b521 <_binary_font_psf_start+0x1395>
c010b520:	ff                   	(bad)
c010b521:	ff                   	(bad)
c010b522:	bf 00 ff ff 00       	mov    $0xffff00,%edi
c010b527:	25 14 20 15 20       	and    $0x20152014,%eax
c010b52c:	af                   	scas   %es:(%edi),%eax
c010b52d:	23 ff                	and    %edi,%edi
c010b52f:	ff 02                	incl   (%edx)
c010b531:	25 ff ff 0c 25       	and    $0x250cffff,%eax
c010b536:	6d                   	insl   (%dx),%es:(%edi)
c010b537:	25 ff ff 10 25       	and    $0x2510ffff,%eax
c010b53c:	6e                   	outsb  %ds:(%esi),(%dx)
c010b53d:	25 ff ff 14 25       	and    $0x2514ffff,%eax
c010b542:	70 25                	jo     c010b569 <_binary_font_psf_start+0x13dd>
c010b544:	ff                   	(bad)
c010b545:	ff 18                	lcall  *(%eax)
c010b547:	25 6f 25 ff ff       	and    $0xffff256f,%eax
c010b54c:	1c 25                	sbb    $0x25,%al
c010b54e:	ff                   	(bad)
c010b54f:	ff 24 25 ff ff 2c 25 	jmp    *0x252cffff(,%eiz,1)
c010b556:	ff                   	(bad)
c010b557:	ff 34 25 ff ff 3c 25 	push   0x253cffff(,%eiz,1)
c010b55e:	ff                   	(bad)
c010b55f:	ff 91 25 ff ff ba    	call   *-0x450000db(%ecx)
c010b565:	23 3e                	and    (%esi),%edi
c010b567:	20 ff                	and    %bh,%bh
c010b569:	ff                   	(bad)
c010b56a:	bb 23 ff ff bc       	mov    $0xbcffff23,%ebx
c010b56f:	23 ff                	and    %edi,%edi
c010b571:	ff                   	(bad)
c010b572:	bd 23 ff ff 50       	mov    $0x50ffff23,%ebp
c010b577:	25 01 25 ff ff       	and    $0xffff2501,%eax
c010b57c:	51                   	push   %ecx
c010b57d:	25 03 25 ff ff       	and    $0xffff2503,%eax
c010b582:	54                   	push   %esp
c010b583:	25 0f 25 ff ff       	and    $0xffff250f,%eax
c010b588:	57                   	push   %edi
c010b589:	25 13 25 ff ff       	and    $0xffff2513,%eax
c010b58e:	5a                   	pop    %edx
c010b58f:	25 17 25 ff ff       	and    $0xffff2517,%eax
c010b594:	5d                   	pop    %ebp
c010b595:	25 1b 25 ff ff       	and    $0xffff251b,%eax
c010b59a:	60                   	pusha
c010b59b:	25 23 25 ff ff       	and    $0xffff2523,%eax
c010b5a0:	63 25 2b 25 ff ff    	arpl   %esp,0xffff252b
c010b5a6:	66 25 33 25          	and    $0x2533,%ax
c010b5aa:	ff                   	(bad)
c010b5ab:	ff 69 25             	ljmp   *0x25(%ecx)
c010b5ae:	3b 25 ff ff 6c 25    	cmp    0x256cffff,%esp
c010b5b4:	4b                   	dec    %ebx
c010b5b5:	25 ff ff 88 25       	and    $0x2588ffff,%eax
c010b5ba:	ff                   	(bad)
c010b5bb:	ff 91 21 ff ff 93    	call   *-0x6c0000df(%ecx)
c010b5c1:	21 ff                	and    %edi,%edi
c010b5c3:	ff 90 21 ff ff 92    	call   *-0x6d0000df(%eax)
c010b5c9:	21 ff                	and    %edi,%edi
c010b5cb:	ff e0                	jmp    *%eax
c010b5cd:	00 ff                	add    %bh,%bh
c010b5cf:	ff e1                	jmp    *%ecx
c010b5d1:	00 ff                	add    %bh,%bh
c010b5d3:	ff e2                	jmp    *%edx
c010b5d5:	00 ff                	add    %bh,%bh
c010b5d7:	ff e3                	jmp    *%ebx
c010b5d9:	00 ff                	add    %bh,%bh
c010b5db:	ff e4                	jmp    *%esp
c010b5dd:	00 ff                	add    %bh,%bh
c010b5df:	ff e5                	jmp    *%ebp
c010b5e1:	00 ff                	add    %bh,%bh
c010b5e3:	ff e6                	jmp    *%esi
c010b5e5:	00 ff                	add    %bh,%bh
c010b5e7:	ff e7                	jmp    *%edi
c010b5e9:	00 ff                	add    %bh,%bh
c010b5eb:	ff                   	ljmp   (bad)
c010b5ec:	e8 00 ff ff e9       	call   aa10b4f1 <mb2_hdr_end+0xaa00b419>
c010b5f1:	00 ff                	add    %bh,%bh
c010b5f3:	ff                   	ljmp   (bad)
c010b5f4:	ea 00 ff ff eb 00 ff 	ljmp   $0xff00,$0xebffff00
c010b5fb:	ff                   	ljmp   (bad)
c010b5fc:	ec                   	in     (%dx),%al
c010b5fd:	00 ff                	add    %bh,%bh
c010b5ff:	ff                   	ljmp   (bad)
c010b600:	ed                   	in     (%dx),%eax
c010b601:	00 ff                	add    %bh,%bh
c010b603:	ff                   	ljmp   (bad)
c010b604:	ee                   	out    %al,(%dx)
c010b605:	00 ff                	add    %bh,%bh
c010b607:	ff                   	ljmp   (bad)
c010b608:	ef                   	out    %eax,(%dx)
c010b609:	00 ff                	add    %bh,%bh
c010b60b:	ff f0                	push   %eax
c010b60d:	00 ff                	add    %bh,%bh
c010b60f:	ff f1                	push   %ecx
c010b611:	00 ff                	add    %bh,%bh
c010b613:	ff f2                	push   %edx
c010b615:	00 ff                	add    %bh,%bh
c010b617:	ff f3                	push   %ebx
c010b619:	00 ff                	add    %bh,%bh
c010b61b:	ff f4                	push   %esp
c010b61d:	00 ff                	add    %bh,%bh
c010b61f:	ff f5                	push   %ebp
c010b621:	00 ff                	add    %bh,%bh
c010b623:	ff f6                	push   %esi
c010b625:	00 ff                	add    %bh,%bh
c010b627:	ff f7                	push   %edi
c010b629:	00 ff                	add    %bh,%bh
c010b62b:	ff                   	(bad)
c010b62c:	f8                   	clc
c010b62d:	00 ff                	add    %bh,%bh
c010b62f:	ff                   	(bad)
c010b630:	f9                   	stc
c010b631:	00 ff                	add    %bh,%bh
c010b633:	ff                   	(bad)
c010b634:	fa                   	cli
c010b635:	00 ff                	add    %bh,%bh
c010b637:	ff                   	(bad)
c010b638:	fb                   	sti
c010b639:	00 ff                	add    %bh,%bh
c010b63b:	ff                   	(bad)
c010b63c:	fc                   	cld
c010b63d:	00 ff                	add    %bh,%bh
c010b63f:	ff                   	(bad)
c010b640:	fd                   	std
c010b641:	00 ff                	add    %bh,%bh
c010b643:	ff                   	(bad)
c010b644:	fe 00                	incb   (%eax)
c010b646:	ff                   	(bad)
c010b647:	ff                   	(bad)
c010b648:	ff 00                	incl   (%eax)
c010b64a:	ff                   	(bad)
c010b64b:	ff                   	.byte 0xff

Disassembly of section .comment:

00000000 <.comment>:
   0:	47                   	inc    %edi
   1:	43                   	inc    %ebx
   2:	43                   	inc    %ebx
   3:	3a 20                	cmp    (%eax),%ah
   5:	28 47 4e             	sub    %al,0x4e(%edi)
   8:	55                   	push   %ebp
   9:	29 20                	sub    %esp,(%eax)
   b:	31 34 2e             	xor    %esi,(%esi,%ebp,1)
   e:	32 2e                	xor    (%esi),%ch
  10:	30 00                	xor    %al,(%eax)
