
isodir/boot/word.bin:     file format elf32-i386
isodir/boot/word.bin
architecture: i386, flags 0x00000112:
EXEC_P, HAS_SYMS, D_PAGED
start address 0x00100030

Program Header:
    LOAD off    0x00001000 vaddr 0x00100000 paddr 0x00100000 align 2**12
         filesz 0x00000096 memsz 0x00000096 flags rw-
    LOAD off    0x00002000 vaddr 0xc0101000 paddr 0x00101000 align 2**12
         filesz 0x000049a7 memsz 0x000049a7 flags r-x
    LOAD off    0x00007000 vaddr 0xc0106000 paddr 0x00106000 align 2**12
         filesz 0x00001650 memsz 0x00009010 flags rw-

Sections:
Idx Name          Size      VMA       LMA       File off  Algn
  0 .mb2_hdr      00000030  00100000  00100000  00001000  2**3
                  CONTENTS, ALLOC, LOAD, DATA
  1 .multiboot.text 00000066  00100030  00100030  00001030  2**0
                  CONTENTS, ALLOC, LOAD, READONLY, DATA
  2 .text         00003e38  c0101000  00101000  00002000  2**0
                  CONTENTS, ALLOC, LOAD, READONLY, CODE
  3 .rodata       000009a7  c0105000  00105000  00006000  2**2
                  CONTENTS, ALLOC, LOAD, READONLY, DATA
  4 .data         00001650  c0106000  00106000  00007000  2**5
                  CONTENTS, ALLOC, LOAD, DATA
  5 .bss          00007010  c0108000  00108000  00008650  2**12
                  ALLOC
  6 .comment      00000012  00000000  00000000  00008650  2**0
                  CONTENTS, READONLY
SYMBOL TABLE:
00000000 l    df *ABS*	00000000 bootNP.o
e85250d6 l       *ABS*	00000000 MAGIC_NUMBER
00000000 l       *ABS*	00000000 ARCH
00001000 l       *ABS*	00000000 PAGESIZE
c0000000 l       *ABS*	00000000 BOOTLOC
00100000 l       .mb2_hdr	00000000 mb2_hdr_begin
00100030 l       .mb2_hdr	00000000 mb2_hdr_end
00100010 l       .mb2_hdr	00000000 mb2_frame_buffer_req
00100024 l       .mb2_hdr	00000000 mb2_framebuffer_end
c010e010 l       .bss	00000000 boot_stack_base
c010f010 l       .bss	00000000 stack_top
c0109000 l       .bss	00000000 boot_page_directory
c010a000 l       .bss	00000000 boot_page_table1
c0102f2d l       .text	00000000 flush
00000000 l    df *ABS*	00000000 terminal.c
00000000 l    df *ABS*	00000000 string.c
00000000 l    df *ABS*	00000000 heap.c
00000000 l    df *ABS*	00000000 idtStub.o
c0101c71 l       .text	00000000 isr_frame_as
c0101c9f l       .text	00000000 irq_frame
00000000 l    df *ABS*	00000000 apic.c
c0101dd3 l     F .text	0000001b io_wait
00000000 l    df *ABS*	00000000 timer.c
00000000 l    df *ABS*	00000000 keyboard.c
c0102347 l     F .text	0000001b io_wait
00000000 l    df *ABS*	00000000 framebuffer.c
00000000 l    df *ABS*	00000000 pmm.c
c0106184 l     O .data	00000004 mem_top
c0106188 l     O .data	00000004 mem_bottom
00000000 l    df *ABS*	00000000 vmm.c
c010b010 l     O .bss	00000004 mem_top
c010b014 l     O .bss	00000004 mem_bottom
00000000 l    df *ABS*	00000000 mb_parse.c
c010b024 l     O .bss	00000004 mem_top
c010b028 l     O .bss	00000004 mem_bottom
c010b02c l     O .bss	00000004 bypp
00000000 l    df *ABS*	00000000 gdt.c
00000000 l    df *ABS*	00000000 idt.c
c010b070 l     O .bss	00000800 idt
c010b870 l     O .bss	00000006 idtr
00000000 l    df *ABS*	00000000 paging.c
c010e000 l     O .bss	00000004 mem_top
c010e004 l     O .bss	00000004 mem_bottom
00000000 l    df *ABS*	00000000 kernel.c
c010e008 l     O .bss	00000004 mem_top
c010e00c l     O .bss	00000004 mem_bottom
c010481b l     F .text	000000c1 init_serial
c010c000 g     O .bss	00001000 kernel_pd
c0103168 g     F .text	00000010 physical_to_frame
c0101d29 g     F .text	00000000 isr_stub_17
c01020b4 g     F .text	000000c0 calibrate_timer
c0101d05 g     F .text	00000000 isr_stub_13
c010156b g     F .text	00000130 printf
c0101e7f g     F .text	00000022 read_ioapic_register
c010825e g     O .bss	00000001 key_buffer_pos
c0103337 g     F .text	0000009c create_vmm
c0101d0d g     F .text	00000000 isr_stub_14
c0108268 g     O .bss	00000002 cursor_xpaws
c0108044 g     O .bss	00000004 key_codes
c01045f1 g     F .text	0000000c load_page_directory
c01018e5 g     F .text	00000016 memmove
c0108020 g     O .bss	00000004 glob_lapic_addr
c0101ce1 g     F .text	00000000 isr_stub_8
c01039a5 g     F .text	000000ae parse_MADT
c010618c g     O .data	00000004 pre_mem
c01022ff g     F .text	0000000d poll_timer
c010473e g     F .text	000000ad pg_init
c010b068 g     O .bss	00000006 gp
c0104b16 g     F .text	00000179 logf
c0108060 g     O .bss	000001fe key_buffer
c0104919 g     F .text	00000106 log_integer_to_serial
c010169b g     F .text	0000000e tflush
c0102fef g     F .text	0000004c pre_malloc
c010801c g     O .bss	00000004 cur_heap_pos
c0101ea1 g     F .text	00000026 write_ioapic_register
c01030c6 g     F .text	00000043 clear_frame
c01047eb g     F .text	00000019 inportb
c010d000 g     O .bss	00001000 kernel_pt
c0103d03 g     F .text	0000009f gdt_install
c0108024 g     O .bss	00000004 glob_ioapic_addr
c01018a8 g     F .text	0000003d memcpy
c010825f g     O .bss	00000001 current_state
c0101b64 g     F .text	0000010d kfree
c01043a1 g     F .text	000000ac memory_unmap
c0108040 g     O .bss	00000000 extended_key_lookup
c0101cb0 g       .text	00000000 isr_stub_1
c01019c9 g     F .text	00000006 malloc
c0103309 g     F .text	0000002e convert_x86_32_vm_flags
c01016a9 g     F .text	0000008a next_keycode
c0101d9f g       .text	00000000 isr_stub_29
c0101e20 g     F .text	0000005f get_cpuid
c0102d74 g     F .text	00000026 get_glyph
c010b020 g     O .bss	00000004 old_acpi
c01013e3 g     F .text	00000099 parse_color
c01011b8 g     F .text	00000076 write_char_text_buffer
c0101ccc g       .text	00000000 isr_stub_5
c01025e9 g     F .text	000004f4 get_printable_char
c0101d4f g       .text	00000000 isr_stub_21
c0101d15 g       .text	00000000 isr_stub_15
c0101d3b g       .text	00000000 isr_stub_19
c0103886 g     F .text	00000006 test1
c010122e g     F .text	00000178 draw_text_buffer
c0108014 g     O .bss	00000004 term_bg
c0108004 g     O .bss	00000004 text_buffer
c0101dc3 g     F .text	00000000 irq_stub_49
c010b01c g     O .bss	00000004 fb
c0108018 g     O .bss	00000004 heap_start
c0103a93 g     F .text	0000008a get_sdt_by_signature
c0103c65 g     F .text	0000009e gdt_set_gate
c0103b1d g     F .text	0000007b init_rsdt_v1
c0101f99 g     F .text	00000020 lapic_write_reg
c0102d9a g     F .text	000000bb fill_square
c010f010 g       .bss	00000000 _kernel_end
c010198d g     F .text	0000003c init_heap
c0102efe g     F .text	00000000 enable_paging
c0103892 g     F .text	0000006e get_pixel_addr
c010147c g     F .text	000000ef term_render_hex
c0101ca9 g       .text	00000000 isr_stub_0
c0101cf5 g     F .text	00000000 isr_stub_11
c010b008 g     O .bss	00000004 last_frame
c0106000 g     O .data	00000001 font_size
c0108260 g     O .bss	00000004 fb_virt_addr
c0104ca7 g     F .text	00000191 kernel_main
c0108264 g     O .bss	00000004 font_head
c01045fd g     F .text	0000001c enable_paging_c
c01031d0 g     F .text	00000070 transfer_dynamic
c0101131 g     F .text	00000087 write_text_buffer
c010444d g     F .text	00000099 create_new_pt
c0102184 g     F .text	0000004d set_pit_one_shot
c0101cbe g       .text	00000000 isr_stub_3
c0104507 g     F .text	00000044 newinit_pd
c010b00c g     O .bss	00000004 current_vmm
c0101d95 g       .text	00000000 isr_stub_28
c0102ef1 g     F .text	00000000 load_directory
c0103178 g     F .text	00000058 alloc_phys_page
c01048dc g     F .text	0000003d log_to_serial
c0101dcb g     F .text	00000000 irq_stub_50
c0101da9 g     F .text	00000000 isr_stub_30
c0103b98 g     F .text	000000cd init_multiboot
c0103527 g     F .text	0000027d page_kalloc
c01044e6 g     F .text	00000021 copy_kernel_map
c0104804 g     F .text	00000017 outportb
c01013a6 g     F .text	0000003d single_shtoi
c0103158 g     F .text	00000010 frame_to_physical
c0103da2 g     F .text	00000061 idt_set_gate
c0101d63 g       .text	00000000 isr_stub_23
c010802c g     O .bss	00000004 calibrating
c0107650 g       .data	00000000 _binary_font_psf_end
c01022b2 g     F .text	0000004d polled_sleep
c0101ff4 g     F .text	0000001e set_initial_lapic_timer_count
00100030 g     F .multiboot.text	00000000 _start
c0102f2e g     F .text	000000c1 set_memory_map
c0104196 g     F .text	000000cc exc_print
c0104319 g     F .text	00000088 memory_map
c0101f29 g     F .text	00000070 init_ioapic
c0102ead g     F .text	00000025 put_pixel
c0101db1 g       .text	00000000 isr_stub_31
c0103e03 g     F .text	00000393 init_idt
c0104c8f g     F .text	00000018 panic
c0101cb7 g       .text	00000000 isr_stub_2
c0108008 g     O .bss	00000002 textbuf_loc
c0103240 g     F .text	000000c9 kinit
c010183f g     F .text	00000069 memcmp
c010826c g     O .bss	00000002 screen_width
c0101d1f g       .text	00000000 isr_stub_16
c0102414 g     F .text	000000f6 handle_keychange
c0101000 g     F .text	00000131 scroll_text_buffer_down
c0102024 g     F .text	0000001d send_EOI
c0103474 g     F .text	000000b3 alloc_vm_obj
c01021d1 g     F .text	000000e1 disable_pic
c010826e g     O .bss	00000002 screen_height
c01018fb  w    F .text	0000002b memset
c0101d6d g       .text	00000000 isr_stub_24
c0102c28 g     F .text	0000014c fb_put_glyph
c0101d45 g       .text	00000000 isr_stub_20
c010454b g     F .text	000000a6 init_kpt
c0101d77 g       .text	00000000 isr_stub_25
c010b040 g     O .bss	00000028 desc
c0101fb9 g     F .text	0000001c lapic_read_reg
c0102012 g     F .text	00000012 get_lapic_timer_count
c01037a4 g     F .text	000000e2 page_free
c01042e1 g     F .text	00000038 isr_handler
c0108028 g     O .bss	00000004 ticks_per_ms
c0104a1f g     F .text	000000f7 print_hex
c0101dbb g     F .text	00000000 irq_stub_48
c010194a g     F .text	00000043 strcmp
c0101d81 g       .text	00000000 isr_stub_26
c0102e55 g     F .text	00000058 init_font
c0101733 g     F .text	00000058 terminal_loop
c0101dee g     F .text	00000032 get_apic_addr
c010388c g     F .text	00000006 test2
c0102041 g     F .text	00000073 init_apic
c010800c g     O .bss	00000004 max_char_x
c010b004 g     O .bss	00000004 num_frames
c010800a g     O .bss	00000002 cur_lines
c0101cda g       .text	00000000 isr_stub_7
c01033d3 g     F .text	00000093 vmm_transfer_dynamic
c0106190 g       .data	00000000 _binary_font_psf_start
c010428b g     F .text	00000056 irq_handler
c0101cc5 g       .text	00000000 isr_stub_4
c0106004 g     O .data	00000004 term_fg
c0104262 g     F .text	00000029 handle_keyboard
c0104619 g     F .text	00000125 handle_exception
c0102bf4 g     F .text	0000001a fb_set_width
c010b018 g     O .bss	00000004 rsdt_addr
c0103900 g     F .text	000000a5 init_framebuffer
c0102f10 g     F .text	00000000 flush_gdt
c010826a g     O .bss	00000002 cursor_ypaws
c0101d31 g       .text	00000000 isr_stub_18
c0101ec7 g     F .text	00000062 ioapic_pit_irq
c0102c0e g     F .text	0000001a fb_set_height
c010230c g     F .text	0000003b arm_interrupt_timer
c010250a g     F .text	000000df recieve_scancode
c0101fd5 g     F .text	0000001f lapic_timer_init
c010178b g     F .text	000000b4 init_terminal
c0101ced g     F .text	00000000 isr_stub_10
c0101cfd g     F .text	00000000 isr_stub_12
c0101cd3 g       .text	00000000 isr_stub_6
000014c0 g       *ABS*	00000000 _binary_font_psf_size
c010303b g     F .text	0000008b get_first_frame
c0103a53 g     F .text	00000040 validate_RSDP
c0101926 g     F .text	00000024 strlen
c0103466 g     F .text	0000000e set_current_vmm
00100000 g       .mb2_hdr	00000000 _kernel_start
c010b000 g     O .bss	00000004 frames
c0106020 g     O .data	00000164 key_lookup
c0102174 g     F .text	00000010 end_calibration
c0101ce6 g       .text	00000000 isr_stub_9
c01019d5 g     F .text	0000018f kalloc
c0102add g     F .text	00000117 init_keyboard
c0101d59 g       .text	00000000 isr_stub_22
c0102362 g     F .text	000000b2 handle_masks
c0103109 g     F .text	0000004f set_frame
c0108000 g     O .bss	00000001 key_buffer_tail
c0108010 g     O .bss	00000004 max_char_y
c01019cf g     F .text	00000006 free
c0101d8b g       .text	00000000 isr_stub_27



Disassembly of section .mb2_hdr:

00100000 <_kernel_start>:
  100000:	d6                   	(bad)
  100001:	50                   	push   %eax
  100002:	52                   	push   %edx
  100003:	e8 00 00 00 00       	call   100008 <_kernel_start+0x8>
  100008:	30 00                	xor    %al,(%eax)
  10000a:	00 00                	add    %al,(%eax)
  10000c:	fa                   	cli
  10000d:	ae                   	scas   %es:(%edi),%al
  10000e:	ad                   	lods   %ds:(%esi),%eax
  10000f:	17                   	pop    %ss

00100010 <mb2_frame_buffer_req>:
  100010:	05 00 01 00 14       	add    $0x14000100,%eax
  100015:	00 00                	add    %al,(%eax)
  100017:	00 20                	add    %ah,(%eax)
  100019:	03 00                	add    (%eax),%eax
  10001b:	00 58 02             	add    %bl,0x2(%eax)
  10001e:	00 00                	add    %al,(%eax)
  100020:	20 00                	and    %al,(%eax)
	...

00100024 <mb2_framebuffer_end>:
	...
  10002c:	08 00                	or     %al,(%eax)
	...

Disassembly of section .multiboot.text:

00100030 <_start>:
  100030:	bc 10 f0 10 c0       	mov    $0xc010f010,%esp
  100035:	bf 00 a0 10 00       	mov    $0x10a000,%edi
  10003a:	be 00 00 00 00       	mov    $0x0,%esi
  10003f:	b9 00 08 00 00       	mov    $0x800,%ecx
  100044:	81 fe 00 00 10 00    	cmp    $0x100000,%esi
  10004a:	7c 0f                	jl     10005b <_start+0x2b>
  10004c:	81 fe 10 f0 10 00    	cmp    $0x10f010,%esi
  100052:	7d 12                	jge    100066 <_start+0x36>
  100054:	89 f2                	mov    %esi,%edx
  100056:	83 ca 03             	or     $0x3,%edx
  100059:	89 17                	mov    %edx,(%edi)
  10005b:	81 c6 00 10 00 00    	add    $0x1000,%esi
  100061:	83 c7 04             	add    $0x4,%edi
  100064:	e2 de                	loop   100044 <_start+0x14>
  100066:	c7 05 00 90 10 00 03 	movl   $0x10a003,0x109000
  10006d:	a0 10 00 
  100070:	c7 05 00 9c 10 00 03 	movl   $0x10a003,0x109c00
  100077:	a0 10 00 
  10007a:	b9 00 90 10 00       	mov    $0x109000,%ecx
  10007f:	0f 22 d9             	mov    %ecx,%cr3
  100082:	0f 20 c1             	mov    %cr0,%ecx
  100085:	81 c9 00 00 00 80    	or     $0x80000000,%ecx
  10008b:	0f 22 c1             	mov    %ecx,%cr0
  10008e:	8d 0d d2 2e 10 c0    	lea    0xc0102ed2,%ecx
  100094:	ff e1                	jmp    *%ecx

Disassembly of section .text:

c0101000 <scroll_text_buffer_down>:
c0101000:	55                   	push   %ebp
c0101001:	89 e5                	mov    %esp,%ebp
c0101003:	83 ec 18             	sub    $0x18,%esp
c0101006:	a1 0c 80 10 c0       	mov    0xc010800c,%eax
c010100b:	89 45 f4             	mov    %eax,-0xc(%ebp)
c010100e:	eb 04                	jmp    c0101014 <scroll_text_buffer_down+0x14>
c0101010:	83 45 f4 01          	addl   $0x1,-0xc(%ebp)
c0101014:	a1 0c 80 10 c0       	mov    0xc010800c,%eax
c0101019:	39 45 f4             	cmp    %eax,-0xc(%ebp)
c010101c:	7c f2                	jl     c0101010 <scroll_text_buffer_down+0x10>
c010101e:	8b 15 04 80 10 c0    	mov    0xc0108004,%edx
c0101024:	8b 45 f4             	mov    -0xc(%ebp),%eax
c0101027:	01 d0                	add    %edx,%eax
c0101029:	0f b6 00             	movzbl (%eax),%eax
c010102c:	3c 0a                	cmp    $0xa,%al
c010102e:	75 e0                	jne    c0101010 <scroll_text_buffer_down+0x10>
c0101030:	c7 45 f0 00 00 00 00 	movl   $0x0,-0x10(%ebp)
c0101037:	eb 21                	jmp    c010105a <scroll_text_buffer_down+0x5a>
c0101039:	8b 15 04 80 10 c0    	mov    0xc0108004,%edx
c010103f:	8b 45 f0             	mov    -0x10(%ebp),%eax
c0101042:	01 d0                	add    %edx,%eax
c0101044:	0f b6 00             	movzbl (%eax),%eax
c0101047:	3c 0a                	cmp    $0xa,%al
c0101049:	75 0b                	jne    c0101056 <scroll_text_buffer_down+0x56>
c010104b:	8b 45 f0             	mov    -0x10(%ebp),%eax
c010104e:	83 c0 01             	add    $0x1,%eax
c0101051:	89 45 f4             	mov    %eax,-0xc(%ebp)
c0101054:	eb 0e                	jmp    c0101064 <scroll_text_buffer_down+0x64>
c0101056:	83 45 f0 01          	addl   $0x1,-0x10(%ebp)
c010105a:	a1 0c 80 10 c0       	mov    0xc010800c,%eax
c010105f:	39 45 f0             	cmp    %eax,-0x10(%ebp)
c0101062:	7c d5                	jl     c0101039 <scroll_text_buffer_down+0x39>
c0101064:	83 ec 08             	sub    $0x8,%esp
c0101067:	ff 75 f4             	push   -0xc(%ebp)
c010106a:	68 00 50 10 c0       	push   $0xc0105000
c010106f:	e8 a2 3a 00 00       	call   c0104b16 <logf>
c0101074:	83 c4 10             	add    $0x10,%esp
c0101077:	c7 45 ec 00 00 00 00 	movl   $0x0,-0x14(%ebp)
c010107e:	eb 39                	jmp    c01010b9 <scroll_text_buffer_down+0xb9>
c0101080:	a1 04 80 10 c0       	mov    0xc0108004,%eax
c0101085:	8b 4d ec             	mov    -0x14(%ebp),%ecx
c0101088:	8b 55 f4             	mov    -0xc(%ebp),%edx
c010108b:	01 ca                	add    %ecx,%edx
c010108d:	01 d0                	add    %edx,%eax
c010108f:	0f b6 00             	movzbl (%eax),%eax
c0101092:	84 c0                	test   %al,%al
c0101094:	74 40                	je     c01010d6 <scroll_text_buffer_down+0xd6>
c0101096:	a1 04 80 10 c0       	mov    0xc0108004,%eax
c010109b:	8b 4d ec             	mov    -0x14(%ebp),%ecx
c010109e:	8b 55 f4             	mov    -0xc(%ebp),%edx
c01010a1:	01 ca                	add    %ecx,%edx
c01010a3:	01 d0                	add    %edx,%eax
c01010a5:	8b 0d 04 80 10 c0    	mov    0xc0108004,%ecx
c01010ab:	8b 55 ec             	mov    -0x14(%ebp),%edx
c01010ae:	01 ca                	add    %ecx,%edx
c01010b0:	0f b6 00             	movzbl (%eax),%eax
c01010b3:	88 02                	mov    %al,(%edx)
c01010b5:	83 45 ec 01          	addl   $0x1,-0x14(%ebp)
c01010b9:	8b 55 ec             	mov    -0x14(%ebp),%edx
c01010bc:	8b 45 f4             	mov    -0xc(%ebp),%eax
c01010bf:	8d 0c 02             	lea    (%edx,%eax,1),%ecx
c01010c2:	8b 15 0c 80 10 c0    	mov    0xc010800c,%edx
c01010c8:	a1 10 80 10 c0       	mov    0xc0108010,%eax
c01010cd:	0f af c2             	imul   %edx,%eax
c01010d0:	39 c1                	cmp    %eax,%ecx
c01010d2:	7c ac                	jl     c0101080 <scroll_text_buffer_down+0x80>
c01010d4:	eb 01                	jmp    c01010d7 <scroll_text_buffer_down+0xd7>
c01010d6:	90                   	nop
c01010d7:	c7 45 e8 00 00 00 00 	movl   $0x0,-0x18(%ebp)
c01010de:	eb 16                	jmp    c01010f6 <scroll_text_buffer_down+0xf6>
c01010e0:	a1 04 80 10 c0       	mov    0xc0108004,%eax
c01010e5:	8b 4d ec             	mov    -0x14(%ebp),%ecx
c01010e8:	8b 55 e8             	mov    -0x18(%ebp),%edx
c01010eb:	01 ca                	add    %ecx,%edx
c01010ed:	01 d0                	add    %edx,%eax
c01010ef:	c6 00 00             	movb   $0x0,(%eax)
c01010f2:	83 45 e8 01          	addl   $0x1,-0x18(%ebp)
c01010f6:	a1 04 80 10 c0       	mov    0xc0108004,%eax
c01010fb:	8b 4d ec             	mov    -0x14(%ebp),%ecx
c01010fe:	8b 55 e8             	mov    -0x18(%ebp),%edx
c0101101:	01 ca                	add    %ecx,%edx
c0101103:	01 d0                	add    %edx,%eax
c0101105:	0f b6 00             	movzbl (%eax),%eax
c0101108:	84 c0                	test   %al,%al
c010110a:	75 d4                	jne    c01010e0 <scroll_text_buffer_down+0xe0>
c010110c:	0f b7 05 0a 80 10 c0 	movzwl 0xc010800a,%eax
c0101113:	83 e8 01             	sub    $0x1,%eax
c0101116:	66 a3 0a 80 10 c0    	mov    %ax,0xc010800a
c010111c:	0f b7 05 08 80 10 c0 	movzwl 0xc0108008,%eax
c0101123:	8b 55 f4             	mov    -0xc(%ebp),%edx
c0101126:	29 d0                	sub    %edx,%eax
c0101128:	66 a3 08 80 10 c0    	mov    %ax,0xc0108008
c010112e:	90                   	nop
c010112f:	c9                   	leave
c0101130:	c3                   	ret

c0101131 <write_text_buffer>:
c0101131:	55                   	push   %ebp
c0101132:	89 e5                	mov    %esp,%ebp
c0101134:	83 ec 18             	sub    $0x18,%esp
c0101137:	8b 15 0c 80 10 c0    	mov    0xc010800c,%edx
c010113d:	a1 10 80 10 c0       	mov    0xc0108010,%eax
c0101142:	0f af c2             	imul   %edx,%eax
c0101145:	89 45 f4             	mov    %eax,-0xc(%ebp)
c0101148:	eb 60                	jmp    c01011aa <write_text_buffer+0x79>
c010114a:	8b 45 08             	mov    0x8(%ebp),%eax
c010114d:	0f b6 00             	movzbl (%eax),%eax
c0101150:	3c 0a                	cmp    $0xa,%al
c0101152:	75 10                	jne    c0101164 <write_text_buffer+0x33>
c0101154:	0f b7 05 0a 80 10 c0 	movzwl 0xc010800a,%eax
c010115b:	83 c0 01             	add    $0x1,%eax
c010115e:	66 a3 0a 80 10 c0    	mov    %ax,0xc010800a
c0101164:	0f b7 05 0a 80 10 c0 	movzwl 0xc010800a,%eax
c010116b:	0f b7 d0             	movzwl %ax,%edx
c010116e:	a1 10 80 10 c0       	mov    0xc0108010,%eax
c0101173:	39 c2                	cmp    %eax,%edx
c0101175:	7e 05                	jle    c010117c <write_text_buffer+0x4b>
c0101177:	e8 84 fe ff ff       	call   c0101000 <scroll_text_buffer_down>
c010117c:	8b 15 04 80 10 c0    	mov    0xc0108004,%edx
c0101182:	0f b7 05 08 80 10 c0 	movzwl 0xc0108008,%eax
c0101189:	0f b7 c0             	movzwl %ax,%eax
c010118c:	01 c2                	add    %eax,%edx
c010118e:	8b 45 08             	mov    0x8(%ebp),%eax
c0101191:	0f b6 00             	movzbl (%eax),%eax
c0101194:	88 02                	mov    %al,(%edx)
c0101196:	83 45 08 01          	addl   $0x1,0x8(%ebp)
c010119a:	0f b7 05 08 80 10 c0 	movzwl 0xc0108008,%eax
c01011a1:	83 c0 01             	add    $0x1,%eax
c01011a4:	66 a3 08 80 10 c0    	mov    %ax,0xc0108008
c01011aa:	8b 45 08             	mov    0x8(%ebp),%eax
c01011ad:	0f b6 00             	movzbl (%eax),%eax
c01011b0:	84 c0                	test   %al,%al
c01011b2:	75 96                	jne    c010114a <write_text_buffer+0x19>
c01011b4:	90                   	nop
c01011b5:	90                   	nop
c01011b6:	c9                   	leave
c01011b7:	c3                   	ret

c01011b8 <write_char_text_buffer>:
c01011b8:	55                   	push   %ebp
c01011b9:	89 e5                	mov    %esp,%ebp
c01011bb:	83 ec 28             	sub    $0x28,%esp
c01011be:	8b 45 08             	mov    0x8(%ebp),%eax
c01011c1:	88 45 e4             	mov    %al,-0x1c(%ebp)
c01011c4:	8b 15 0c 80 10 c0    	mov    0xc010800c,%edx
c01011ca:	a1 10 80 10 c0       	mov    0xc0108010,%eax
c01011cf:	0f af c2             	imul   %edx,%eax
c01011d2:	89 45 f4             	mov    %eax,-0xc(%ebp)
c01011d5:	80 7d e4 0a          	cmpb   $0xa,-0x1c(%ebp)
c01011d9:	75 10                	jne    c01011eb <write_char_text_buffer+0x33>
c01011db:	0f b7 05 0a 80 10 c0 	movzwl 0xc010800a,%eax
c01011e2:	83 c0 01             	add    $0x1,%eax
c01011e5:	66 a3 0a 80 10 c0    	mov    %ax,0xc010800a
c01011eb:	0f b7 05 0a 80 10 c0 	movzwl 0xc010800a,%eax
c01011f2:	0f b7 d0             	movzwl %ax,%edx
c01011f5:	a1 10 80 10 c0       	mov    0xc0108010,%eax
c01011fa:	39 c2                	cmp    %eax,%edx
c01011fc:	7e 05                	jle    c0101203 <write_char_text_buffer+0x4b>
c01011fe:	e8 fd fd ff ff       	call   c0101000 <scroll_text_buffer_down>
c0101203:	8b 15 04 80 10 c0    	mov    0xc0108004,%edx
c0101209:	0f b7 05 08 80 10 c0 	movzwl 0xc0108008,%eax
c0101210:	0f b7 c0             	movzwl %ax,%eax
c0101213:	01 c2                	add    %eax,%edx
c0101215:	0f b6 45 e4          	movzbl -0x1c(%ebp),%eax
c0101219:	88 02                	mov    %al,(%edx)
c010121b:	0f b7 05 08 80 10 c0 	movzwl 0xc0108008,%eax
c0101222:	83 c0 01             	add    $0x1,%eax
c0101225:	66 a3 08 80 10 c0    	mov    %ax,0xc0108008
c010122b:	90                   	nop
c010122c:	c9                   	leave
c010122d:	c3                   	ret

c010122e <draw_text_buffer>:
c010122e:	55                   	push   %ebp
c010122f:	89 e5                	mov    %esp,%ebp
c0101231:	57                   	push   %edi
c0101232:	56                   	push   %esi
c0101233:	53                   	push   %ebx
c0101234:	83 ec 2c             	sub    $0x2c,%esp
c0101237:	66 c7 45 e6 00 00    	movw   $0x0,-0x1a(%ebp)
c010123d:	66 c7 45 e4 00 00    	movw   $0x0,-0x1c(%ebp)
c0101243:	66 c7 45 e2 00 00    	movw   $0x0,-0x1e(%ebp)
c0101249:	0f b6 05 00 60 10 c0 	movzbl 0xc0106000,%eax
c0101250:	c1 e0 03             	shl    $0x3,%eax
c0101253:	88 45 db             	mov    %al,-0x25(%ebp)
c0101256:	0f b6 05 00 60 10 c0 	movzbl 0xc0106000,%eax
c010125d:	c1 e0 03             	shl    $0x3,%eax
c0101260:	88 45 da             	mov    %al,-0x26(%ebp)
c0101263:	e9 1d 01 00 00       	jmp    c0101385 <draw_text_buffer+0x157>
c0101268:	8b 15 04 80 10 c0    	mov    0xc0108004,%edx
c010126e:	0f b7 45 e6          	movzwl -0x1a(%ebp),%eax
c0101272:	01 d0                	add    %edx,%eax
c0101274:	0f b6 00             	movzbl (%eax),%eax
c0101277:	3c 0a                	cmp    $0xa,%al
c0101279:	75 79                	jne    c01012f4 <draw_text_buffer+0xc6>
c010127b:	0f b7 45 e4          	movzwl -0x1c(%ebp),%eax
c010127f:	89 45 dc             	mov    %eax,-0x24(%ebp)
c0101282:	eb 45                	jmp    c01012c9 <draw_text_buffer+0x9b>
c0101284:	0f b6 05 00 60 10 c0 	movzbl 0xc0106000,%eax
c010128b:	0f b6 f0             	movzbl %al,%esi
c010128e:	8b 1d 14 80 10 c0    	mov    0xc0108014,%ebx
c0101294:	8b 0d 04 60 10 c0    	mov    0xc0106004,%ecx
c010129a:	0f b6 45 da          	movzbl -0x26(%ebp),%eax
c010129e:	66 0f af 45 e2       	imul   -0x1e(%ebp),%ax
c01012a3:	0f b7 d0             	movzwl %ax,%edx
c01012a6:	0f b6 45 db          	movzbl -0x25(%ebp),%eax
c01012aa:	8b 7d dc             	mov    -0x24(%ebp),%edi
c01012ad:	0f af c7             	imul   %edi,%eax
c01012b0:	0f b7 c0             	movzwl %ax,%eax
c01012b3:	83 ec 08             	sub    $0x8,%esp
c01012b6:	56                   	push   %esi
c01012b7:	53                   	push   %ebx
c01012b8:	51                   	push   %ecx
c01012b9:	52                   	push   %edx
c01012ba:	50                   	push   %eax
c01012bb:	6a 20                	push   $0x20
c01012bd:	e8 66 19 00 00       	call   c0102c28 <fb_put_glyph>
c01012c2:	83 c4 20             	add    $0x20,%esp
c01012c5:	83 45 dc 01          	addl   $0x1,-0x24(%ebp)
c01012c9:	a1 0c 80 10 c0       	mov    0xc010800c,%eax
c01012ce:	39 45 dc             	cmp    %eax,-0x24(%ebp)
c01012d1:	7c b1                	jl     c0101284 <draw_text_buffer+0x56>
c01012d3:	0f b7 45 e2          	movzwl -0x1e(%ebp),%eax
c01012d7:	83 c0 01             	add    $0x1,%eax
c01012da:	66 89 45 e2          	mov    %ax,-0x1e(%ebp)
c01012de:	0f b7 45 e6          	movzwl -0x1a(%ebp),%eax
c01012e2:	83 c0 01             	add    $0x1,%eax
c01012e5:	66 89 45 e6          	mov    %ax,-0x1a(%ebp)
c01012e9:	66 c7 45 e4 00 00    	movw   $0x0,-0x1c(%ebp)
c01012ef:	e9 91 00 00 00       	jmp    c0101385 <draw_text_buffer+0x157>
c01012f4:	0f b7 45 e4          	movzwl -0x1c(%ebp),%eax
c01012f8:	8b 0d 0c 80 10 c0    	mov    0xc010800c,%ecx
c01012fe:	99                   	cltd
c01012ff:	f7 f9                	idiv   %ecx
c0101301:	89 d0                	mov    %edx,%eax
c0101303:	85 c0                	test   %eax,%eax
c0101305:	75 11                	jne    c0101318 <draw_text_buffer+0xea>
c0101307:	0f b7 45 e2          	movzwl -0x1e(%ebp),%eax
c010130b:	83 c0 01             	add    $0x1,%eax
c010130e:	66 89 45 e2          	mov    %ax,-0x1e(%ebp)
c0101312:	66 c7 45 e4 00 00    	movw   $0x0,-0x1c(%ebp)
c0101318:	0f b6 05 00 60 10 c0 	movzbl 0xc0106000,%eax
c010131f:	0f b6 f8             	movzbl %al,%edi
c0101322:	8b 35 14 80 10 c0    	mov    0xc0108014,%esi
c0101328:	8b 1d 04 60 10 c0    	mov    0xc0106004,%ebx
c010132e:	0f b6 45 da          	movzbl -0x26(%ebp),%eax
c0101332:	66 0f af 45 e2       	imul   -0x1e(%ebp),%ax
c0101337:	0f b7 c8             	movzwl %ax,%ecx
c010133a:	0f b6 45 db          	movzbl -0x25(%ebp),%eax
c010133e:	66 0f af 45 e4       	imul   -0x1c(%ebp),%ax
c0101343:	0f b7 c0             	movzwl %ax,%eax
c0101346:	89 45 d4             	mov    %eax,-0x2c(%ebp)
c0101349:	a1 04 80 10 c0       	mov    0xc0108004,%eax
c010134e:	89 c2                	mov    %eax,%edx
c0101350:	0f b7 45 e6          	movzwl -0x1a(%ebp),%eax
c0101354:	01 d0                	add    %edx,%eax
c0101356:	0f b6 00             	movzbl (%eax),%eax
c0101359:	0f be c0             	movsbl %al,%eax
c010135c:	83 ec 08             	sub    $0x8,%esp
c010135f:	57                   	push   %edi
c0101360:	56                   	push   %esi
c0101361:	53                   	push   %ebx
c0101362:	51                   	push   %ecx
c0101363:	ff 75 d4             	push   -0x2c(%ebp)
c0101366:	50                   	push   %eax
c0101367:	e8 bc 18 00 00       	call   c0102c28 <fb_put_glyph>
c010136c:	83 c4 20             	add    $0x20,%esp
c010136f:	0f b7 45 e6          	movzwl -0x1a(%ebp),%eax
c0101373:	83 c0 01             	add    $0x1,%eax
c0101376:	66 89 45 e6          	mov    %ax,-0x1a(%ebp)
c010137a:	0f b7 45 e4          	movzwl -0x1c(%ebp),%eax
c010137e:	83 c0 01             	add    $0x1,%eax
c0101381:	66 89 45 e4          	mov    %ax,-0x1c(%ebp)
c0101385:	8b 15 04 80 10 c0    	mov    0xc0108004,%edx
c010138b:	0f b7 45 e6          	movzwl -0x1a(%ebp),%eax
c010138f:	01 d0                	add    %edx,%eax
c0101391:	0f b6 00             	movzbl (%eax),%eax
c0101394:	84 c0                	test   %al,%al
c0101396:	0f 85 cc fe ff ff    	jne    c0101268 <draw_text_buffer+0x3a>
c010139c:	90                   	nop
c010139d:	90                   	nop
c010139e:	8d 65 f4             	lea    -0xc(%ebp),%esp
c01013a1:	5b                   	pop    %ebx
c01013a2:	5e                   	pop    %esi
c01013a3:	5f                   	pop    %edi
c01013a4:	5d                   	pop    %ebp
c01013a5:	c3                   	ret

c01013a6 <single_shtoi>:
c01013a6:	55                   	push   %ebp
c01013a7:	89 e5                	mov    %esp,%ebp
c01013a9:	83 ec 04             	sub    $0x4,%esp
c01013ac:	8b 45 08             	mov    0x8(%ebp),%eax
c01013af:	88 45 fc             	mov    %al,-0x4(%ebp)
c01013b2:	80 7d fc 2f          	cmpb   $0x2f,-0x4(%ebp)
c01013b6:	7e 0f                	jle    c01013c7 <single_shtoi+0x21>
c01013b8:	80 7d fc 39          	cmpb   $0x39,-0x4(%ebp)
c01013bc:	7f 09                	jg     c01013c7 <single_shtoi+0x21>
c01013be:	0f be 45 fc          	movsbl -0x4(%ebp),%eax
c01013c2:	83 e8 30             	sub    $0x30,%eax
c01013c5:	eb 1a                	jmp    c01013e1 <single_shtoi+0x3b>
c01013c7:	80 7d fc 60          	cmpb   $0x60,-0x4(%ebp)
c01013cb:	7e 0f                	jle    c01013dc <single_shtoi+0x36>
c01013cd:	80 7d fc 66          	cmpb   $0x66,-0x4(%ebp)
c01013d1:	7f 09                	jg     c01013dc <single_shtoi+0x36>
c01013d3:	0f be 45 fc          	movsbl -0x4(%ebp),%eax
c01013d7:	83 e8 57             	sub    $0x57,%eax
c01013da:	eb 05                	jmp    c01013e1 <single_shtoi+0x3b>
c01013dc:	b8 ff ff ff ff       	mov    $0xffffffff,%eax
c01013e1:	c9                   	leave
c01013e2:	c3                   	ret

c01013e3 <parse_color>:
c01013e3:	55                   	push   %ebp
c01013e4:	89 e5                	mov    %esp,%ebp
c01013e6:	57                   	push   %edi
c01013e7:	83 ec 50             	sub    $0x50,%esp
c01013ea:	8d 55 b4             	lea    -0x4c(%ebp),%edx
c01013ed:	b8 00 00 00 00       	mov    $0x0,%eax
c01013f2:	b9 10 00 00 00       	mov    $0x10,%ecx
c01013f7:	89 d7                	mov    %edx,%edi
c01013f9:	f3 ab                	rep stos %eax,%es:(%edi)
c01013fb:	c7 45 b8 00 ff ff ff 	movl   $0xffffff00,-0x48(%ebp)
c0101402:	c7 45 bc 00 00 00 ff 	movl   $0xff000000,-0x44(%ebp)
c0101409:	c7 45 c0 00 00 ff 00 	movl   $0xff0000,-0x40(%ebp)
c0101410:	c7 45 c4 00 ff 00 00 	movl   $0xff00,-0x3c(%ebp)
c0101417:	c7 45 c8 00 00 a0 c4 	movl   $0xc4a00000,-0x38(%ebp)
c010141e:	c7 45 cc 00 7b 50 75 	movl   $0x75507b00,-0x34(%ebp)
c0101425:	c7 45 d0 00 9a 98 06 	movl   $0x6989a00,-0x30(%ebp)
c010142c:	83 45 08 01          	addl   $0x1,0x8(%ebp)
c0101430:	8b 45 08             	mov    0x8(%ebp),%eax
c0101433:	0f b6 00             	movzbl (%eax),%eax
c0101436:	0f be c0             	movsbl %al,%eax
c0101439:	50                   	push   %eax
c010143a:	e8 67 ff ff ff       	call   c01013a6 <single_shtoi>
c010143f:	83 c4 04             	add    $0x4,%esp
c0101442:	89 45 f8             	mov    %eax,-0x8(%ebp)
c0101445:	83 45 08 01          	addl   $0x1,0x8(%ebp)
c0101449:	8b 45 08             	mov    0x8(%ebp),%eax
c010144c:	0f b6 00             	movzbl (%eax),%eax
c010144f:	0f be c0             	movsbl %al,%eax
c0101452:	50                   	push   %eax
c0101453:	e8 4e ff ff ff       	call   c01013a6 <single_shtoi>
c0101458:	83 c4 04             	add    $0x4,%esp
c010145b:	89 45 f4             	mov    %eax,-0xc(%ebp)
c010145e:	8b 45 f8             	mov    -0x8(%ebp),%eax
c0101461:	8b 44 85 b4          	mov    -0x4c(%ebp,%eax,4),%eax
c0101465:	a3 04 60 10 c0       	mov    %eax,0xc0106004
c010146a:	8b 45 f4             	mov    -0xc(%ebp),%eax
c010146d:	8b 44 85 b4          	mov    -0x4c(%ebp,%eax,4),%eax
c0101471:	a3 14 80 10 c0       	mov    %eax,0xc0108014
c0101476:	90                   	nop
c0101477:	8b 7d fc             	mov    -0x4(%ebp),%edi
c010147a:	c9                   	leave
c010147b:	c3                   	ret

c010147c <term_render_hex>:
c010147c:	55                   	push   %ebp
c010147d:	89 e5                	mov    %esp,%ebp
c010147f:	83 ec 68             	sub    $0x68,%esp
c0101482:	83 7d 08 00          	cmpl   $0x0,0x8(%ebp)
c0101486:	75 15                	jne    c010149d <term_render_hex+0x21>
c0101488:	83 ec 0c             	sub    $0xc,%esp
c010148b:	68 13 50 10 c0       	push   $0xc0105013
c0101490:	e8 9c fc ff ff       	call   c0101131 <write_text_buffer>
c0101495:	83 c4 10             	add    $0x10,%esp
c0101498:	e9 cc 00 00 00       	jmp    c0101569 <term_render_hex+0xed>
c010149d:	c6 45 a0 30          	movb   $0x30,-0x60(%ebp)
c01014a1:	c6 45 a1 78          	movb   $0x78,-0x5f(%ebp)
c01014a5:	c7 45 f4 02 00 00 00 	movl   $0x2,-0xc(%ebp)
c01014ac:	8b 45 08             	mov    0x8(%ebp),%eax
c01014af:	89 45 f0             	mov    %eax,-0x10(%ebp)
c01014b2:	eb 42                	jmp    c01014f6 <term_render_hex+0x7a>
c01014b4:	8b 45 f0             	mov    -0x10(%ebp),%eax
c01014b7:	83 e0 0f             	and    $0xf,%eax
c01014ba:	89 45 e0             	mov    %eax,-0x20(%ebp)
c01014bd:	83 7d e0 09          	cmpl   $0x9,-0x20(%ebp)
c01014c1:	77 14                	ja     c01014d7 <term_render_hex+0x5b>
c01014c3:	8b 45 e0             	mov    -0x20(%ebp),%eax
c01014c6:	83 c0 30             	add    $0x30,%eax
c01014c9:	89 c1                	mov    %eax,%ecx
c01014cb:	8d 55 a0             	lea    -0x60(%ebp),%edx
c01014ce:	8b 45 f4             	mov    -0xc(%ebp),%eax
c01014d1:	01 d0                	add    %edx,%eax
c01014d3:	88 08                	mov    %cl,(%eax)
c01014d5:	eb 12                	jmp    c01014e9 <term_render_hex+0x6d>
c01014d7:	8b 45 e0             	mov    -0x20(%ebp),%eax
c01014da:	83 c0 57             	add    $0x57,%eax
c01014dd:	89 c1                	mov    %eax,%ecx
c01014df:	8d 55 a0             	lea    -0x60(%ebp),%edx
c01014e2:	8b 45 f4             	mov    -0xc(%ebp),%eax
c01014e5:	01 d0                	add    %edx,%eax
c01014e7:	88 08                	mov    %cl,(%eax)
c01014e9:	83 45 f4 01          	addl   $0x1,-0xc(%ebp)
c01014ed:	8b 45 f0             	mov    -0x10(%ebp),%eax
c01014f0:	c1 e8 04             	shr    $0x4,%eax
c01014f3:	89 45 f0             	mov    %eax,-0x10(%ebp)
c01014f6:	83 7d f0 00          	cmpl   $0x0,-0x10(%ebp)
c01014fa:	75 b8                	jne    c01014b4 <term_render_hex+0x38>
c01014fc:	c7 45 ec 02 00 00 00 	movl   $0x2,-0x14(%ebp)
c0101503:	8b 45 f4             	mov    -0xc(%ebp),%eax
c0101506:	83 e8 01             	sub    $0x1,%eax
c0101509:	89 45 e8             	mov    %eax,-0x18(%ebp)
c010150c:	eb 39                	jmp    c0101547 <term_render_hex+0xcb>
c010150e:	8d 55 a0             	lea    -0x60(%ebp),%edx
c0101511:	8b 45 e8             	mov    -0x18(%ebp),%eax
c0101514:	01 d0                	add    %edx,%eax
c0101516:	0f b6 00             	movzbl (%eax),%eax
c0101519:	88 45 e7             	mov    %al,-0x19(%ebp)
c010151c:	8d 55 a0             	lea    -0x60(%ebp),%edx
c010151f:	8b 45 ec             	mov    -0x14(%ebp),%eax
c0101522:	01 d0                	add    %edx,%eax
c0101524:	0f b6 00             	movzbl (%eax),%eax
c0101527:	8d 4d a0             	lea    -0x60(%ebp),%ecx
c010152a:	8b 55 e8             	mov    -0x18(%ebp),%edx
c010152d:	01 ca                	add    %ecx,%edx
c010152f:	88 02                	mov    %al,(%edx)
c0101531:	8d 55 a0             	lea    -0x60(%ebp),%edx
c0101534:	8b 45 ec             	mov    -0x14(%ebp),%eax
c0101537:	01 c2                	add    %eax,%edx
c0101539:	0f b6 45 e7          	movzbl -0x19(%ebp),%eax
c010153d:	88 02                	mov    %al,(%edx)
c010153f:	83 45 ec 01          	addl   $0x1,-0x14(%ebp)
c0101543:	83 6d e8 01          	subl   $0x1,-0x18(%ebp)
c0101547:	8b 45 ec             	mov    -0x14(%ebp),%eax
c010154a:	39 45 e8             	cmp    %eax,-0x18(%ebp)
c010154d:	73 bf                	jae    c010150e <term_render_hex+0x92>
c010154f:	8d 55 a0             	lea    -0x60(%ebp),%edx
c0101552:	8b 45 f4             	mov    -0xc(%ebp),%eax
c0101555:	01 d0                	add    %edx,%eax
c0101557:	c6 00 00             	movb   $0x0,(%eax)
c010155a:	83 ec 0c             	sub    $0xc,%esp
c010155d:	8d 45 a0             	lea    -0x60(%ebp),%eax
c0101560:	50                   	push   %eax
c0101561:	e8 cb fb ff ff       	call   c0101131 <write_text_buffer>
c0101566:	83 c4 10             	add    $0x10,%esp
c0101569:	c9                   	leave
c010156a:	c3                   	ret

c010156b <printf>:
c010156b:	55                   	push   %ebp
c010156c:	89 e5                	mov    %esp,%ebp
c010156e:	83 ec 18             	sub    $0x18,%esp
c0101571:	c7 45 f4 01 00 00 00 	movl   $0x1,-0xc(%ebp)
c0101578:	8d 45 0c             	lea    0xc(%ebp),%eax
c010157b:	89 45 ec             	mov    %eax,-0x14(%ebp)
c010157e:	83 ec 08             	sub    $0x8,%esp
c0101581:	ff 75 08             	push   0x8(%ebp)
c0101584:	68 17 50 10 c0       	push   $0xc0105017
c0101589:	e8 88 35 00 00       	call   c0104b16 <logf>
c010158e:	83 c4 10             	add    $0x10,%esp
c0101591:	e9 f3 00 00 00       	jmp    c0101689 <printf+0x11e>
c0101596:	8b 45 08             	mov    0x8(%ebp),%eax
c0101599:	0f b6 00             	movzbl (%eax),%eax
c010159c:	3c 25                	cmp    $0x25,%al
c010159e:	0f 85 bd 00 00 00    	jne    c0101661 <printf+0xf6>
c01015a4:	83 45 08 01          	addl   $0x1,0x8(%ebp)
c01015a8:	8b 45 08             	mov    0x8(%ebp),%eax
c01015ab:	0f b6 00             	movzbl (%eax),%eax
c01015ae:	0f be c0             	movsbl %al,%eax
c01015b1:	83 f8 78             	cmp    $0x78,%eax
c01015b4:	74 31                	je     c01015e7 <printf+0x7c>
c01015b6:	83 f8 78             	cmp    $0x78,%eax
c01015b9:	0f 8f 9c 00 00 00    	jg     c010165b <printf+0xf0>
c01015bf:	83 f8 74             	cmp    $0x74,%eax
c01015c2:	74 4b                	je     c010160f <printf+0xa4>
c01015c4:	83 f8 74             	cmp    $0x74,%eax
c01015c7:	0f 8f 8e 00 00 00    	jg     c010165b <printf+0xf0>
c01015cd:	83 f8 73             	cmp    $0x73,%eax
c01015d0:	74 51                	je     c0101623 <printf+0xb8>
c01015d2:	83 f8 73             	cmp    $0x73,%eax
c01015d5:	0f 8f 80 00 00 00    	jg     c010165b <printf+0xf0>
c01015db:	83 f8 25             	cmp    $0x25,%eax
c01015de:	74 20                	je     c0101600 <printf+0x95>
c01015e0:	83 f8 63             	cmp    $0x63,%eax
c01015e3:	74 57                	je     c010163c <printf+0xd1>
c01015e5:	eb 74                	jmp    c010165b <printf+0xf0>
c01015e7:	8b 45 ec             	mov    -0x14(%ebp),%eax
c01015ea:	8d 50 04             	lea    0x4(%eax),%edx
c01015ed:	89 55 ec             	mov    %edx,-0x14(%ebp)
c01015f0:	8b 00                	mov    (%eax),%eax
c01015f2:	83 ec 0c             	sub    $0xc,%esp
c01015f5:	50                   	push   %eax
c01015f6:	e8 81 fe ff ff       	call   c010147c <term_render_hex>
c01015fb:	83 c4 10             	add    $0x10,%esp
c01015fe:	eb 5b                	jmp    c010165b <printf+0xf0>
c0101600:	83 ec 0c             	sub    $0xc,%esp
c0101603:	6a 25                	push   $0x25
c0101605:	e8 ae fb ff ff       	call   c01011b8 <write_char_text_buffer>
c010160a:	83 c4 10             	add    $0x10,%esp
c010160d:	eb 4c                	jmp    c010165b <printf+0xf0>
c010160f:	83 ec 0c             	sub    $0xc,%esp
c0101612:	ff 75 08             	push   0x8(%ebp)
c0101615:	e8 c9 fd ff ff       	call   c01013e3 <parse_color>
c010161a:	83 c4 10             	add    $0x10,%esp
c010161d:	83 45 08 02          	addl   $0x2,0x8(%ebp)
c0101621:	eb 38                	jmp    c010165b <printf+0xf0>
c0101623:	8b 45 ec             	mov    -0x14(%ebp),%eax
c0101626:	8d 50 04             	lea    0x4(%eax),%edx
c0101629:	89 55 ec             	mov    %edx,-0x14(%ebp)
c010162c:	8b 00                	mov    (%eax),%eax
c010162e:	83 ec 0c             	sub    $0xc,%esp
c0101631:	50                   	push   %eax
c0101632:	e8 fa fa ff ff       	call   c0101131 <write_text_buffer>
c0101637:	83 c4 10             	add    $0x10,%esp
c010163a:	eb 1f                	jmp    c010165b <printf+0xf0>
c010163c:	8b 45 ec             	mov    -0x14(%ebp),%eax
c010163f:	8d 50 04             	lea    0x4(%eax),%edx
c0101642:	89 55 ec             	mov    %edx,-0x14(%ebp)
c0101645:	8b 00                	mov    (%eax),%eax
c0101647:	88 45 f3             	mov    %al,-0xd(%ebp)
c010164a:	0f be 45 f3          	movsbl -0xd(%ebp),%eax
c010164e:	83 ec 0c             	sub    $0xc,%esp
c0101651:	50                   	push   %eax
c0101652:	e8 61 fb ff ff       	call   c01011b8 <write_char_text_buffer>
c0101657:	83 c4 10             	add    $0x10,%esp
c010165a:	90                   	nop
c010165b:	83 45 08 01          	addl   $0x1,0x8(%ebp)
c010165f:	eb 28                	jmp    c0101689 <printf+0x11e>
c0101661:	8b 45 08             	mov    0x8(%ebp),%eax
c0101664:	0f b6 00             	movzbl (%eax),%eax
c0101667:	0f be c0             	movsbl %al,%eax
c010166a:	83 ec 0c             	sub    $0xc,%esp
c010166d:	50                   	push   %eax
c010166e:	e8 45 fb ff ff       	call   c01011b8 <write_char_text_buffer>
c0101673:	83 c4 10             	add    $0x10,%esp
c0101676:	8b 45 08             	mov    0x8(%ebp),%eax
c0101679:	0f b6 00             	movzbl (%eax),%eax
c010167c:	3c 0a                	cmp    $0xa,%al
c010167e:	75 05                	jne    c0101685 <printf+0x11a>
c0101680:	e8 a9 fb ff ff       	call   c010122e <draw_text_buffer>
c0101685:	83 45 08 01          	addl   $0x1,0x8(%ebp)
c0101689:	8b 45 08             	mov    0x8(%ebp),%eax
c010168c:	0f b6 00             	movzbl (%eax),%eax
c010168f:	84 c0                	test   %al,%al
c0101691:	0f 85 ff fe ff ff    	jne    c0101596 <printf+0x2b>
c0101697:	90                   	nop
c0101698:	90                   	nop
c0101699:	c9                   	leave
c010169a:	c3                   	ret

c010169b <tflush>:
c010169b:	55                   	push   %ebp
c010169c:	89 e5                	mov    %esp,%ebp
c010169e:	83 ec 08             	sub    $0x8,%esp
c01016a1:	e8 88 fb ff ff       	call   c010122e <draw_text_buffer>
c01016a6:	90                   	nop
c01016a7:	c9                   	leave
c01016a8:	c3                   	ret

c01016a9 <next_keycode>:
c01016a9:	55                   	push   %ebp
c01016aa:	89 e5                	mov    %esp,%ebp
c01016ac:	83 ec 10             	sub    $0x10,%esp
c01016af:	0f b6 15 00 80 10 c0 	movzbl 0xc0108000,%edx
c01016b6:	0f b6 05 5e 82 10 c0 	movzbl 0xc010825e,%eax
c01016bd:	38 c2                	cmp    %al,%dl
c01016bf:	75 14                	jne    c01016d5 <next_keycode+0x2c>
c01016c1:	c6 45 fc 00          	movb   $0x0,-0x4(%ebp)
c01016c5:	c6 45 fd 00          	movb   $0x0,-0x3(%ebp)
c01016c9:	8b 45 08             	mov    0x8(%ebp),%eax
c01016cc:	0f b7 55 fc          	movzwl -0x4(%ebp),%edx
c01016d0:	66 89 10             	mov    %dx,(%eax)
c01016d3:	eb 57                	jmp    c010172c <next_keycode+0x83>
c01016d5:	0f b6 05 00 80 10 c0 	movzbl 0xc0108000,%eax
c01016dc:	0f b6 c0             	movzbl %al,%eax
c01016df:	8d 48 01             	lea    0x1(%eax),%ecx
c01016e2:	ba 81 80 80 80       	mov    $0x80808081,%edx
c01016e7:	89 c8                	mov    %ecx,%eax
c01016e9:	f7 ea                	imul   %edx
c01016eb:	8d 04 0a             	lea    (%edx,%ecx,1),%eax
c01016ee:	c1 f8 07             	sar    $0x7,%eax
c01016f1:	89 c2                	mov    %eax,%edx
c01016f3:	89 c8                	mov    %ecx,%eax
c01016f5:	c1 f8 1f             	sar    $0x1f,%eax
c01016f8:	29 c2                	sub    %eax,%edx
c01016fa:	89 d0                	mov    %edx,%eax
c01016fc:	c1 e0 08             	shl    $0x8,%eax
c01016ff:	29 d0                	sub    %edx,%eax
c0101701:	29 c1                	sub    %eax,%ecx
c0101703:	89 ca                	mov    %ecx,%edx
c0101705:	89 d0                	mov    %edx,%eax
c0101707:	a2 00 80 10 c0       	mov    %al,0xc0108000
c010170c:	0f b6 05 00 80 10 c0 	movzbl 0xc0108000,%eax
c0101713:	0f b6 c0             	movzbl %al,%eax
c0101716:	0f b7 84 00 60 80 10 	movzwl -0x3fef7fa0(%eax,%eax,1),%eax
c010171d:	c0 
c010171e:	66 89 45 fe          	mov    %ax,-0x2(%ebp)
c0101722:	8b 45 08             	mov    0x8(%ebp),%eax
c0101725:	0f b7 55 fe          	movzwl -0x2(%ebp),%edx
c0101729:	66 89 10             	mov    %dx,(%eax)
c010172c:	8b 45 08             	mov    0x8(%ebp),%eax
c010172f:	c9                   	leave
c0101730:	c2 04 00             	ret    $0x4

c0101733 <terminal_loop>:
c0101733:	55                   	push   %ebp
c0101734:	89 e5                	mov    %esp,%ebp
c0101736:	83 ec 18             	sub    $0x18,%esp
c0101739:	8d 45 f6             	lea    -0xa(%ebp),%eax
c010173c:	50                   	push   %eax
c010173d:	e8 67 ff ff ff       	call   c01016a9 <next_keycode>
c0101742:	0f b6 45 f6          	movzbl -0xa(%ebp),%eax
c0101746:	84 c0                	test   %al,%al
c0101748:	74 3e                	je     c0101788 <terminal_loop+0x55>
c010174a:	0f b6 45 f7          	movzbl -0x9(%ebp),%eax
c010174e:	0f b6 c0             	movzbl %al,%eax
c0101751:	83 e0 08             	and    $0x8,%eax
c0101754:	85 c0                	test   %eax,%eax
c0101756:	74 18                	je     c0101770 <terminal_loop+0x3d>
c0101758:	0f b6 45 f6          	movzbl -0xa(%ebp),%eax
c010175c:	0f b6 c0             	movzbl %al,%eax
c010175f:	83 ec 08             	sub    $0x8,%esp
c0101762:	50                   	push   %eax
c0101763:	68 23 50 10 c0       	push   $0xc0105023
c0101768:	e8 fe fd ff ff       	call   c010156b <printf>
c010176d:	83 c4 10             	add    $0x10,%esp
c0101770:	0f b6 45 f6          	movzbl -0xa(%ebp),%eax
c0101774:	3c 1b                	cmp    $0x1b,%al
c0101776:	75 10                	jne    c0101788 <terminal_loop+0x55>
c0101778:	83 ec 0c             	sub    $0xc,%esp
c010177b:	68 35 50 10 c0       	push   $0xc0105035
c0101780:	e8 e6 fd ff ff       	call   c010156b <printf>
c0101785:	83 c4 10             	add    $0x10,%esp
c0101788:	90                   	nop
c0101789:	c9                   	leave
c010178a:	c3                   	ret

c010178b <init_terminal>:
c010178b:	55                   	push   %ebp
c010178c:	89 e5                	mov    %esp,%ebp
c010178e:	83 ec 18             	sub    $0x18,%esp
c0101791:	0f b7 05 6c 82 10 c0 	movzwl 0xc010826c,%eax
c0101798:	0f b7 c0             	movzwl %ax,%eax
c010179b:	0f b6 15 00 60 10 c0 	movzbl 0xc0106000,%edx
c01017a2:	0f b6 d2             	movzbl %dl,%edx
c01017a5:	8d 0c d5 00 00 00 00 	lea    0x0(,%edx,8),%ecx
c01017ac:	99                   	cltd
c01017ad:	f7 f9                	idiv   %ecx
c01017af:	83 e8 01             	sub    $0x1,%eax
c01017b2:	a3 0c 80 10 c0       	mov    %eax,0xc010800c
c01017b7:	0f b7 05 6e 82 10 c0 	movzwl 0xc010826e,%eax
c01017be:	0f b7 c0             	movzwl %ax,%eax
c01017c1:	0f b6 15 00 60 10 c0 	movzbl 0xc0106000,%edx
c01017c8:	0f b6 d2             	movzbl %dl,%edx
c01017cb:	89 d1                	mov    %edx,%ecx
c01017cd:	c1 e1 04             	shl    $0x4,%ecx
c01017d0:	99                   	cltd
c01017d1:	f7 f9                	idiv   %ecx
c01017d3:	83 e8 01             	sub    $0x1,%eax
c01017d6:	a3 10 80 10 c0       	mov    %eax,0xc0108010
c01017db:	8b 15 0c 80 10 c0    	mov    0xc010800c,%edx
c01017e1:	a1 10 80 10 c0       	mov    0xc0108010,%eax
c01017e6:	0f af c2             	imul   %edx,%eax
c01017e9:	83 ec 0c             	sub    $0xc,%esp
c01017ec:	50                   	push   %eax
c01017ed:	e8 e3 01 00 00       	call   c01019d5 <kalloc>
c01017f2:	83 c4 10             	add    $0x10,%esp
c01017f5:	a3 04 80 10 c0       	mov    %eax,0xc0108004
c01017fa:	0f b7 05 08 80 10 c0 	movzwl 0xc0108008,%eax
c0101801:	0f b7 c0             	movzwl %ax,%eax
c0101804:	89 45 f4             	mov    %eax,-0xc(%ebp)
c0101807:	83 ec 0c             	sub    $0xc,%esp
c010180a:	68 43 50 10 c0       	push   $0xc0105043
c010180f:	e8 1d f9 ff ff       	call   c0101131 <write_text_buffer>
c0101814:	83 c4 10             	add    $0x10,%esp
c0101817:	83 ec 0c             	sub    $0xc,%esp
c010181a:	68 51 50 10 c0       	push   $0xc0105051
c010181f:	e8 0d f9 ff ff       	call   c0101131 <write_text_buffer>
c0101824:	83 c4 10             	add    $0x10,%esp
c0101827:	83 ec 0c             	sub    $0xc,%esp
c010182a:	68 5e 50 10 c0       	push   $0xc010505e
c010182f:	e8 fd f8 ff ff       	call   c0101131 <write_text_buffer>
c0101834:	83 c4 10             	add    $0x10,%esp
c0101837:	e8 5f fe ff ff       	call   c010169b <tflush>
c010183c:	90                   	nop
c010183d:	c9                   	leave
c010183e:	c3                   	ret

c010183f <memcmp>:
c010183f:	55                   	push   %ebp
c0101840:	89 e5                	mov    %esp,%ebp
c0101842:	83 ec 10             	sub    $0x10,%esp
c0101845:	8b 45 08             	mov    0x8(%ebp),%eax
c0101848:	3b 45 0c             	cmp    0xc(%ebp),%eax
c010184b:	75 07                	jne    c0101854 <memcmp+0x15>
c010184d:	b8 00 00 00 00       	mov    $0x0,%eax
c0101852:	eb 52                	jmp    c01018a6 <memcmp+0x67>
c0101854:	c7 45 fc 00 00 00 00 	movl   $0x0,-0x4(%ebp)
c010185b:	eb 0c                	jmp    c0101869 <memcmp+0x2a>
c010185d:	83 45 fc 01          	addl   $0x1,-0x4(%ebp)
c0101861:	83 45 08 01          	addl   $0x1,0x8(%ebp)
c0101865:	83 45 0c 01          	addl   $0x1,0xc(%ebp)
c0101869:	8b 45 fc             	mov    -0x4(%ebp),%eax
c010186c:	3b 45 10             	cmp    0x10(%ebp),%eax
c010186f:	73 10                	jae    c0101881 <memcmp+0x42>
c0101871:	8b 45 08             	mov    0x8(%ebp),%eax
c0101874:	0f b6 10             	movzbl (%eax),%edx
c0101877:	8b 45 0c             	mov    0xc(%ebp),%eax
c010187a:	0f b6 00             	movzbl (%eax),%eax
c010187d:	38 c2                	cmp    %al,%dl
c010187f:	74 dc                	je     c010185d <memcmp+0x1e>
c0101881:	8b 45 fc             	mov    -0x4(%ebp),%eax
c0101884:	3b 45 10             	cmp    0x10(%ebp),%eax
c0101887:	74 18                	je     c01018a1 <memcmp+0x62>
c0101889:	8b 45 08             	mov    0x8(%ebp),%eax
c010188c:	0f b6 00             	movzbl (%eax),%eax
c010188f:	0f b6 c8             	movzbl %al,%ecx
c0101892:	8b 45 0c             	mov    0xc(%ebp),%eax
c0101895:	0f b6 00             	movzbl (%eax),%eax
c0101898:	0f b6 d0             	movzbl %al,%edx
c010189b:	89 c8                	mov    %ecx,%eax
c010189d:	29 d0                	sub    %edx,%eax
c010189f:	eb 05                	jmp    c01018a6 <memcmp+0x67>
c01018a1:	b8 00 00 00 00       	mov    $0x0,%eax
c01018a6:	c9                   	leave
c01018a7:	c3                   	ret

c01018a8 <memcpy>:
c01018a8:	55                   	push   %ebp
c01018a9:	89 e5                	mov    %esp,%ebp
c01018ab:	83 ec 10             	sub    $0x10,%esp
c01018ae:	8b 45 08             	mov    0x8(%ebp),%eax
c01018b1:	89 45 fc             	mov    %eax,-0x4(%ebp)
c01018b4:	8b 45 0c             	mov    0xc(%ebp),%eax
c01018b7:	89 45 f8             	mov    %eax,-0x8(%ebp)
c01018ba:	eb 17                	jmp    c01018d3 <memcpy+0x2b>
c01018bc:	8b 55 f8             	mov    -0x8(%ebp),%edx
c01018bf:	8d 42 01             	lea    0x1(%edx),%eax
c01018c2:	89 45 f8             	mov    %eax,-0x8(%ebp)
c01018c5:	8b 45 fc             	mov    -0x4(%ebp),%eax
c01018c8:	8d 48 01             	lea    0x1(%eax),%ecx
c01018cb:	89 4d fc             	mov    %ecx,-0x4(%ebp)
c01018ce:	0f b6 12             	movzbl (%edx),%edx
c01018d1:	88 10                	mov    %dl,(%eax)
c01018d3:	8b 45 10             	mov    0x10(%ebp),%eax
c01018d6:	8d 50 ff             	lea    -0x1(%eax),%edx
c01018d9:	89 55 10             	mov    %edx,0x10(%ebp)
c01018dc:	85 c0                	test   %eax,%eax
c01018de:	75 dc                	jne    c01018bc <memcpy+0x14>
c01018e0:	8b 45 08             	mov    0x8(%ebp),%eax
c01018e3:	c9                   	leave
c01018e4:	c3                   	ret

c01018e5 <memmove>:
c01018e5:	55                   	push   %ebp
c01018e6:	89 e5                	mov    %esp,%ebp
c01018e8:	ff 75 10             	push   0x10(%ebp)
c01018eb:	ff 75 0c             	push   0xc(%ebp)
c01018ee:	ff 75 08             	push   0x8(%ebp)
c01018f1:	e8 b2 ff ff ff       	call   c01018a8 <memcpy>
c01018f6:	83 c4 0c             	add    $0xc,%esp
c01018f9:	c9                   	leave
c01018fa:	c3                   	ret

c01018fb <memset>:
c01018fb:	55                   	push   %ebp
c01018fc:	89 e5                	mov    %esp,%ebp
c01018fe:	83 ec 10             	sub    $0x10,%esp
c0101901:	8b 45 08             	mov    0x8(%ebp),%eax
c0101904:	89 45 fc             	mov    %eax,-0x4(%ebp)
c0101907:	eb 12                	jmp    c010191b <memset+0x20>
c0101909:	8b 45 0c             	mov    0xc(%ebp),%eax
c010190c:	89 c2                	mov    %eax,%edx
c010190e:	8b 45 fc             	mov    -0x4(%ebp),%eax
c0101911:	88 10                	mov    %dl,(%eax)
c0101913:	83 45 fc 01          	addl   $0x1,-0x4(%ebp)
c0101917:	83 6d 10 01          	subl   $0x1,0x10(%ebp)
c010191b:	83 7d 10 00          	cmpl   $0x0,0x10(%ebp)
c010191f:	75 e8                	jne    c0101909 <memset+0xe>
c0101921:	8b 45 08             	mov    0x8(%ebp),%eax
c0101924:	c9                   	leave
c0101925:	c3                   	ret

c0101926 <strlen>:
c0101926:	55                   	push   %ebp
c0101927:	89 e5                	mov    %esp,%ebp
c0101929:	83 ec 10             	sub    $0x10,%esp
c010192c:	8b 45 08             	mov    0x8(%ebp),%eax
c010192f:	89 45 fc             	mov    %eax,-0x4(%ebp)
c0101932:	eb 04                	jmp    c0101938 <strlen+0x12>
c0101934:	83 45 fc 01          	addl   $0x1,-0x4(%ebp)
c0101938:	8b 45 fc             	mov    -0x4(%ebp),%eax
c010193b:	0f b6 00             	movzbl (%eax),%eax
c010193e:	84 c0                	test   %al,%al
c0101940:	75 f2                	jne    c0101934 <strlen+0xe>
c0101942:	8b 45 fc             	mov    -0x4(%ebp),%eax
c0101945:	2b 45 08             	sub    0x8(%ebp),%eax
c0101948:	c9                   	leave
c0101949:	c3                   	ret

c010194a <strcmp>:
c010194a:	55                   	push   %ebp
c010194b:	89 e5                	mov    %esp,%ebp
c010194d:	83 ec 10             	sub    $0x10,%esp
c0101950:	c7 45 fc 00 00 00 00 	movl   $0x0,-0x4(%ebp)
c0101957:	eb 25                	jmp    c010197e <strcmp+0x34>
c0101959:	8b 55 fc             	mov    -0x4(%ebp),%edx
c010195c:	8b 45 08             	mov    0x8(%ebp),%eax
c010195f:	01 d0                	add    %edx,%eax
c0101961:	0f b6 10             	movzbl (%eax),%edx
c0101964:	8b 4d fc             	mov    -0x4(%ebp),%ecx
c0101967:	8b 45 0c             	mov    0xc(%ebp),%eax
c010196a:	01 c8                	add    %ecx,%eax
c010196c:	0f b6 00             	movzbl (%eax),%eax
c010196f:	38 c2                	cmp    %al,%dl
c0101971:	74 07                	je     c010197a <strcmp+0x30>
c0101973:	b8 00 00 00 00       	mov    $0x0,%eax
c0101978:	eb 11                	jmp    c010198b <strcmp+0x41>
c010197a:	83 45 fc 01          	addl   $0x1,-0x4(%ebp)
c010197e:	8b 45 fc             	mov    -0x4(%ebp),%eax
c0101981:	3b 45 10             	cmp    0x10(%ebp),%eax
c0101984:	72 d3                	jb     c0101959 <strcmp+0xf>
c0101986:	b8 01 00 00 00       	mov    $0x1,%eax
c010198b:	c9                   	leave
c010198c:	c3                   	ret

c010198d <init_heap>:
c010198d:	55                   	push   %ebp
c010198e:	89 e5                	mov    %esp,%ebp
c0101990:	83 ec 08             	sub    $0x8,%esp
c0101993:	83 ec 04             	sub    $0x4,%esp
c0101996:	6a 00                	push   $0x0
c0101998:	6a 03                	push   $0x3
c010199a:	68 00 a0 00 00       	push   $0xa000
c010199f:	e8 83 1b 00 00       	call   c0103527 <page_kalloc>
c01019a4:	83 c4 10             	add    $0x10,%esp
c01019a7:	a3 18 80 10 c0       	mov    %eax,0xc0108018
c01019ac:	a1 18 80 10 c0       	mov    0xc0108018,%eax
c01019b1:	a3 1c 80 10 c0       	mov    %eax,0xc010801c
c01019b6:	83 ec 0c             	sub    $0xc,%esp
c01019b9:	68 6c 50 10 c0       	push   $0xc010506c
c01019be:	e8 53 31 00 00       	call   c0104b16 <logf>
c01019c3:	83 c4 10             	add    $0x10,%esp
c01019c6:	90                   	nop
c01019c7:	c9                   	leave
c01019c8:	c3                   	ret

c01019c9 <malloc>:
c01019c9:	55                   	push   %ebp
c01019ca:	89 e5                	mov    %esp,%ebp
c01019cc:	90                   	nop
c01019cd:	5d                   	pop    %ebp
c01019ce:	c3                   	ret

c01019cf <free>:
c01019cf:	55                   	push   %ebp
c01019d0:	89 e5                	mov    %esp,%ebp
c01019d2:	90                   	nop
c01019d3:	5d                   	pop    %ebp
c01019d4:	c3                   	ret

c01019d5 <kalloc>:
c01019d5:	55                   	push   %ebp
c01019d6:	89 e5                	mov    %esp,%ebp
c01019d8:	83 ec 18             	sub    $0x18,%esp
c01019db:	8b 45 08             	mov    0x8(%ebp),%eax
c01019de:	83 c0 1f             	add    $0x1f,%eax
c01019e1:	83 e0 e0             	and    $0xffffffe0,%eax
c01019e4:	89 45 08             	mov    %eax,0x8(%ebp)
c01019e7:	83 ec 08             	sub    $0x8,%esp
c01019ea:	ff 75 08             	push   0x8(%ebp)
c01019ed:	68 7e 50 10 c0       	push   $0xc010507e
c01019f2:	e8 1f 31 00 00       	call   c0104b16 <logf>
c01019f7:	83 c4 10             	add    $0x10,%esp
c01019fa:	a1 18 80 10 c0       	mov    0xc0108018,%eax
c01019ff:	89 45 f4             	mov    %eax,-0xc(%ebp)
c0101a02:	c7 45 f0 00 00 00 00 	movl   $0x0,-0x10(%ebp)
c0101a09:	e9 df 00 00 00       	jmp    c0101aed <kalloc+0x118>
c0101a0e:	83 ec 08             	sub    $0x8,%esp
c0101a11:	ff 75 f4             	push   -0xc(%ebp)
c0101a14:	68 99 50 10 c0       	push   $0xc0105099
c0101a19:	e8 f8 30 00 00       	call   c0104b16 <logf>
c0101a1e:	83 c4 10             	add    $0x10,%esp
c0101a21:	8b 45 f4             	mov    -0xc(%ebp),%eax
c0101a24:	8b 00                	mov    (%eax),%eax
c0101a26:	3b 45 08             	cmp    0x8(%ebp),%eax
c0101a29:	0f 82 ad 00 00 00    	jb     c0101adc <kalloc+0x107>
c0101a2f:	8b 45 f4             	mov    -0xc(%ebp),%eax
c0101a32:	0f b6 40 04          	movzbl 0x4(%eax),%eax
c0101a36:	84 c0                	test   %al,%al
c0101a38:	0f 85 9e 00 00 00    	jne    c0101adc <kalloc+0x107>
c0101a3e:	8b 45 f4             	mov    -0xc(%ebp),%eax
c0101a41:	8b 00                	mov    (%eax),%eax
c0101a43:	2b 45 08             	sub    0x8(%ebp),%eax
c0101a46:	83 f8 2f             	cmp    $0x2f,%eax
c0101a49:	76 5e                	jbe    c0101aa9 <kalloc+0xd4>
c0101a4b:	8b 45 f4             	mov    -0xc(%ebp),%eax
c0101a4e:	8b 00                	mov    (%eax),%eax
c0101a50:	8d 50 10             	lea    0x10(%eax),%edx
c0101a53:	8b 45 f4             	mov    -0xc(%ebp),%eax
c0101a56:	01 d0                	add    %edx,%eax
c0101a58:	89 45 e8             	mov    %eax,-0x18(%ebp)
c0101a5b:	8b 45 e8             	mov    -0x18(%ebp),%eax
c0101a5e:	c6 40 04 00          	movb   $0x0,0x4(%eax)
c0101a62:	8b 45 f4             	mov    -0xc(%ebp),%eax
c0101a65:	8b 00                	mov    (%eax),%eax
c0101a67:	2b 45 08             	sub    0x8(%ebp),%eax
c0101a6a:	8d 50 f0             	lea    -0x10(%eax),%edx
c0101a6d:	8b 45 e8             	mov    -0x18(%ebp),%eax
c0101a70:	89 10                	mov    %edx,(%eax)
c0101a72:	8b 45 f4             	mov    -0xc(%ebp),%eax
c0101a75:	8b 50 0c             	mov    0xc(%eax),%edx
c0101a78:	8b 45 e8             	mov    -0x18(%ebp),%eax
c0101a7b:	89 50 0c             	mov    %edx,0xc(%eax)
c0101a7e:	8b 45 f4             	mov    -0xc(%ebp),%eax
c0101a81:	8b 50 08             	mov    0x8(%eax),%edx
c0101a84:	8b 45 e8             	mov    -0x18(%ebp),%eax
c0101a87:	89 50 08             	mov    %edx,0x8(%eax)
c0101a8a:	8b 45 f4             	mov    -0xc(%ebp),%eax
c0101a8d:	8b 55 e8             	mov    -0x18(%ebp),%edx
c0101a90:	89 50 0c             	mov    %edx,0xc(%eax)
c0101a93:	83 ec 04             	sub    $0x4,%esp
c0101a96:	ff 75 08             	push   0x8(%ebp)
c0101a99:	ff 75 e8             	push   -0x18(%ebp)
c0101a9c:	68 a8 50 10 c0       	push   $0xc01050a8
c0101aa1:	e8 70 30 00 00       	call   c0104b16 <logf>
c0101aa6:	83 c4 10             	add    $0x10,%esp
c0101aa9:	8b 45 f4             	mov    -0xc(%ebp),%eax
c0101aac:	c6 40 04 01          	movb   $0x1,0x4(%eax)
c0101ab0:	8b 45 f4             	mov    -0xc(%ebp),%eax
c0101ab3:	8b 55 f0             	mov    -0x10(%ebp),%edx
c0101ab6:	89 50 08             	mov    %edx,0x8(%eax)
c0101ab9:	83 7d f0 00          	cmpl   $0x0,-0x10(%ebp)
c0101abd:	74 15                	je     c0101ad4 <kalloc+0xff>
c0101abf:	8b 45 f0             	mov    -0x10(%ebp),%eax
c0101ac2:	8b 50 0c             	mov    0xc(%eax),%edx
c0101ac5:	8b 45 f4             	mov    -0xc(%ebp),%eax
c0101ac8:	89 50 0c             	mov    %edx,0xc(%eax)
c0101acb:	8b 45 f0             	mov    -0x10(%ebp),%eax
c0101ace:	8b 55 f4             	mov    -0xc(%ebp),%edx
c0101ad1:	89 50 0c             	mov    %edx,0xc(%eax)
c0101ad4:	8b 45 f4             	mov    -0xc(%ebp),%eax
c0101ad7:	e9 86 00 00 00       	jmp    c0101b62 <kalloc+0x18d>
c0101adc:	8b 45 f4             	mov    -0xc(%ebp),%eax
c0101adf:	89 45 f0             	mov    %eax,-0x10(%ebp)
c0101ae2:	8b 45 f4             	mov    -0xc(%ebp),%eax
c0101ae5:	8b 00                	mov    (%eax),%eax
c0101ae7:	83 c0 10             	add    $0x10,%eax
c0101aea:	01 45 f4             	add    %eax,-0xc(%ebp)
c0101aed:	a1 1c 80 10 c0       	mov    0xc010801c,%eax
c0101af2:	39 45 f4             	cmp    %eax,-0xc(%ebp)
c0101af5:	0f 82 13 ff ff ff    	jb     c0101a0e <kalloc+0x39>
c0101afb:	a1 1c 80 10 c0       	mov    0xc010801c,%eax
c0101b00:	89 45 f4             	mov    %eax,-0xc(%ebp)
c0101b03:	8b 45 f4             	mov    -0xc(%ebp),%eax
c0101b06:	8b 55 f0             	mov    -0x10(%ebp),%edx
c0101b09:	89 50 08             	mov    %edx,0x8(%eax)
c0101b0c:	83 7d f0 00          	cmpl   $0x0,-0x10(%ebp)
c0101b10:	74 09                	je     c0101b1b <kalloc+0x146>
c0101b12:	8b 45 f0             	mov    -0x10(%ebp),%eax
c0101b15:	8b 55 f4             	mov    -0xc(%ebp),%edx
c0101b18:	89 50 0c             	mov    %edx,0xc(%eax)
c0101b1b:	8b 45 f4             	mov    -0xc(%ebp),%eax
c0101b1e:	8b 55 08             	mov    0x8(%ebp),%edx
c0101b21:	89 10                	mov    %edx,(%eax)
c0101b23:	8b 45 f4             	mov    -0xc(%ebp),%eax
c0101b26:	c6 40 04 01          	movb   $0x1,0x4(%eax)
c0101b2a:	8b 45 f4             	mov    -0xc(%ebp),%eax
c0101b2d:	83 c0 10             	add    $0x10,%eax
c0101b30:	89 45 ec             	mov    %eax,-0x14(%ebp)
c0101b33:	8b 45 f4             	mov    -0xc(%ebp),%eax
c0101b36:	8b 00                	mov    (%eax),%eax
c0101b38:	8d 50 10             	lea    0x10(%eax),%edx
c0101b3b:	8b 45 f4             	mov    -0xc(%ebp),%eax
c0101b3e:	01 d0                	add    %edx,%eax
c0101b40:	a3 1c 80 10 c0       	mov    %eax,0xc010801c
c0101b45:	8b 45 f4             	mov    -0xc(%ebp),%eax
c0101b48:	8b 40 08             	mov    0x8(%eax),%eax
c0101b4b:	83 ec 04             	sub    $0x4,%esp
c0101b4e:	50                   	push   %eax
c0101b4f:	ff 75 f4             	push   -0xc(%ebp)
c0101b52:	68 cc 50 10 c0       	push   $0xc01050cc
c0101b57:	e8 ba 2f 00 00       	call   c0104b16 <logf>
c0101b5c:	83 c4 10             	add    $0x10,%esp
c0101b5f:	8b 45 ec             	mov    -0x14(%ebp),%eax
c0101b62:	c9                   	leave
c0101b63:	c3                   	ret

c0101b64 <kfree>:
c0101b64:	55                   	push   %ebp
c0101b65:	89 e5                	mov    %esp,%ebp
c0101b67:	83 ec 18             	sub    $0x18,%esp
c0101b6a:	8b 45 08             	mov    0x8(%ebp),%eax
c0101b6d:	83 e8 10             	sub    $0x10,%eax
c0101b70:	89 45 f4             	mov    %eax,-0xc(%ebp)
c0101b73:	8b 45 f4             	mov    -0xc(%ebp),%eax
c0101b76:	c6 40 04 00          	movb   $0x0,0x4(%eax)
c0101b7a:	8b 45 f4             	mov    -0xc(%ebp),%eax
c0101b7d:	8b 40 0c             	mov    0xc(%eax),%eax
c0101b80:	89 45 f0             	mov    %eax,-0x10(%ebp)
c0101b83:	8b 45 f4             	mov    -0xc(%ebp),%eax
c0101b86:	8b 40 08             	mov    0x8(%eax),%eax
c0101b89:	89 45 ec             	mov    %eax,-0x14(%ebp)
c0101b8c:	83 ec 08             	sub    $0x8,%esp
c0101b8f:	6a 10                	push   $0x10
c0101b91:	68 ef 50 10 c0       	push   $0xc01050ef
c0101b96:	e8 d0 f9 ff ff       	call   c010156b <printf>
c0101b9b:	83 c4 10             	add    $0x10,%esp
c0101b9e:	83 7d f0 00          	cmpl   $0x0,-0x10(%ebp)
c0101ba2:	74 4d                	je     c0101bf1 <kfree+0x8d>
c0101ba4:	8b 45 f0             	mov    -0x10(%ebp),%eax
c0101ba7:	0f b6 40 04          	movzbl 0x4(%eax),%eax
c0101bab:	84 c0                	test   %al,%al
c0101bad:	75 42                	jne    c0101bf1 <kfree+0x8d>
c0101baf:	8b 45 f4             	mov    -0xc(%ebp),%eax
c0101bb2:	8b 10                	mov    (%eax),%edx
c0101bb4:	8b 45 f0             	mov    -0x10(%ebp),%eax
c0101bb7:	8b 00                	mov    (%eax),%eax
c0101bb9:	01 d0                	add    %edx,%eax
c0101bbb:	8d 50 10             	lea    0x10(%eax),%edx
c0101bbe:	8b 45 f4             	mov    -0xc(%ebp),%eax
c0101bc1:	89 10                	mov    %edx,(%eax)
c0101bc3:	8b 45 f0             	mov    -0x10(%ebp),%eax
c0101bc6:	c7 00 00 00 00 00    	movl   $0x0,(%eax)
c0101bcc:	8b 45 f0             	mov    -0x10(%ebp),%eax
c0101bcf:	8b 50 0c             	mov    0xc(%eax),%edx
c0101bd2:	8b 45 f4             	mov    -0xc(%ebp),%eax
c0101bd5:	89 50 0c             	mov    %edx,0xc(%eax)
c0101bd8:	8b 45 f4             	mov    -0xc(%ebp),%eax
c0101bdb:	8b 00                	mov    (%eax),%eax
c0101bdd:	50                   	push   %eax
c0101bde:	ff 75 f0             	push   -0x10(%ebp)
c0101be1:	ff 75 f4             	push   -0xc(%ebp)
c0101be4:	68 08 51 10 c0       	push   $0xc0105108
c0101be9:	e8 7d f9 ff ff       	call   c010156b <printf>
c0101bee:	83 c4 10             	add    $0x10,%esp
c0101bf1:	83 7d ec 00          	cmpl   $0x0,-0x14(%ebp)
c0101bf5:	74 77                	je     c0101c6e <kfree+0x10a>
c0101bf7:	8b 45 ec             	mov    -0x14(%ebp),%eax
c0101bfa:	0f b6 40 04          	movzbl 0x4(%eax),%eax
c0101bfe:	84 c0                	test   %al,%al
c0101c00:	75 6c                	jne    c0101c6e <kfree+0x10a>
c0101c02:	8b 45 ec             	mov    -0x14(%ebp),%eax
c0101c05:	8b 10                	mov    (%eax),%edx
c0101c07:	8b 45 f4             	mov    -0xc(%ebp),%eax
c0101c0a:	8b 00                	mov    (%eax),%eax
c0101c0c:	01 d0                	add    %edx,%eax
c0101c0e:	8d 50 10             	lea    0x10(%eax),%edx
c0101c11:	8b 45 ec             	mov    -0x14(%ebp),%eax
c0101c14:	89 10                	mov    %edx,(%eax)
c0101c16:	8b 45 f4             	mov    -0xc(%ebp),%eax
c0101c19:	c7 00 00 00 00 00    	movl   $0x0,(%eax)
c0101c1f:	8b 45 f4             	mov    -0xc(%ebp),%eax
c0101c22:	c7 40 08 00 00 00 00 	movl   $0x0,0x8(%eax)
c0101c29:	8b 45 f4             	mov    -0xc(%ebp),%eax
c0101c2c:	8b 50 0c             	mov    0xc(%eax),%edx
c0101c2f:	8b 45 ec             	mov    -0x14(%ebp),%eax
c0101c32:	89 50 0c             	mov    %edx,0xc(%eax)
c0101c35:	8b 45 f4             	mov    -0xc(%ebp),%eax
c0101c38:	8b 40 0c             	mov    0xc(%eax),%eax
c0101c3b:	85 c0                	test   %eax,%eax
c0101c3d:	74 16                	je     c0101c55 <kfree+0xf1>
c0101c3f:	8b 45 f4             	mov    -0xc(%ebp),%eax
c0101c42:	8b 40 0c             	mov    0xc(%eax),%eax
c0101c45:	8b 55 ec             	mov    -0x14(%ebp),%edx
c0101c48:	89 50 08             	mov    %edx,0x8(%eax)
c0101c4b:	8b 45 f4             	mov    -0xc(%ebp),%eax
c0101c4e:	c7 40 0c 00 00 00 00 	movl   $0x0,0xc(%eax)
c0101c55:	8b 45 ec             	mov    -0x14(%ebp),%eax
c0101c58:	8b 00                	mov    (%eax),%eax
c0101c5a:	50                   	push   %eax
c0101c5b:	ff 75 f4             	push   -0xc(%ebp)
c0101c5e:	ff 75 ec             	push   -0x14(%ebp)
c0101c61:	68 08 51 10 c0       	push   $0xc0105108
c0101c66:	e8 00 f9 ff ff       	call   c010156b <printf>
c0101c6b:	83 c4 10             	add    $0x10,%esp
c0101c6e:	90                   	nop
c0101c6f:	c9                   	leave
c0101c70:	c3                   	ret

c0101c71 <isr_frame_as>:
c0101c71:	50                   	push   %eax
c0101c72:	53                   	push   %ebx
c0101c73:	51                   	push   %ecx
c0101c74:	52                   	push   %edx
c0101c75:	56                   	push   %esi
c0101c76:	57                   	push   %edi
c0101c77:	0f 20 c0             	mov    %cr0,%eax
c0101c7a:	50                   	push   %eax
c0101c7b:	0f 20 d0             	mov    %cr2,%eax
c0101c7e:	50                   	push   %eax
c0101c7f:	0f 20 d8             	mov    %cr3,%eax
c0101c82:	50                   	push   %eax
c0101c83:	e8 59 26 00 00       	call   c01042e1 <isr_handler>
c0101c88:	58                   	pop    %eax
c0101c89:	0f 22 d8             	mov    %eax,%cr3
c0101c8c:	58                   	pop    %eax
c0101c8d:	0f 22 d0             	mov    %eax,%cr2
c0101c90:	58                   	pop    %eax
c0101c91:	0f 22 c0             	mov    %eax,%cr0
c0101c94:	5f                   	pop    %edi
c0101c95:	5e                   	pop    %esi
c0101c96:	5a                   	pop    %edx
c0101c97:	59                   	pop    %ecx
c0101c98:	5b                   	pop    %ebx
c0101c99:	58                   	pop    %eax
c0101c9a:	83 c4 08             	add    $0x8,%esp
c0101c9d:	fb                   	sti
c0101c9e:	cf                   	iret

c0101c9f <irq_frame>:
c0101c9f:	e8 e7 25 00 00       	call   c010428b <irq_handler>
c0101ca4:	83 c4 04             	add    $0x4,%esp
c0101ca7:	fb                   	sti
c0101ca8:	cf                   	iret

c0101ca9 <isr_stub_0>:
c0101ca9:	fa                   	cli
c0101caa:	6a 00                	push   $0x0
c0101cac:	6a 00                	push   $0x0
c0101cae:	eb c1                	jmp    c0101c71 <isr_frame_as>

c0101cb0 <isr_stub_1>:
c0101cb0:	fa                   	cli
c0101cb1:	6a 00                	push   $0x0
c0101cb3:	6a 01                	push   $0x1
c0101cb5:	eb ba                	jmp    c0101c71 <isr_frame_as>

c0101cb7 <isr_stub_2>:
c0101cb7:	fa                   	cli
c0101cb8:	6a 00                	push   $0x0
c0101cba:	6a 02                	push   $0x2
c0101cbc:	eb b3                	jmp    c0101c71 <isr_frame_as>

c0101cbe <isr_stub_3>:
c0101cbe:	fa                   	cli
c0101cbf:	6a 00                	push   $0x0
c0101cc1:	6a 03                	push   $0x3
c0101cc3:	eb ac                	jmp    c0101c71 <isr_frame_as>

c0101cc5 <isr_stub_4>:
c0101cc5:	fa                   	cli
c0101cc6:	6a 00                	push   $0x0
c0101cc8:	6a 04                	push   $0x4
c0101cca:	eb a5                	jmp    c0101c71 <isr_frame_as>

c0101ccc <isr_stub_5>:
c0101ccc:	fa                   	cli
c0101ccd:	6a 00                	push   $0x0
c0101ccf:	6a 05                	push   $0x5
c0101cd1:	eb 9e                	jmp    c0101c71 <isr_frame_as>

c0101cd3 <isr_stub_6>:
c0101cd3:	fa                   	cli
c0101cd4:	6a 00                	push   $0x0
c0101cd6:	6a 06                	push   $0x6
c0101cd8:	eb 97                	jmp    c0101c71 <isr_frame_as>

c0101cda <isr_stub_7>:
c0101cda:	fa                   	cli
c0101cdb:	6a 00                	push   $0x0
c0101cdd:	6a 07                	push   $0x7
c0101cdf:	eb 90                	jmp    c0101c71 <isr_frame_as>

c0101ce1 <isr_stub_8>:
c0101ce1:	fa                   	cli
c0101ce2:	6a 08                	push   $0x8
c0101ce4:	eb 8b                	jmp    c0101c71 <isr_frame_as>

c0101ce6 <isr_stub_9>:
c0101ce6:	fa                   	cli
c0101ce7:	6a 00                	push   $0x0
c0101ce9:	6a 09                	push   $0x9
c0101ceb:	eb 84                	jmp    c0101c71 <isr_frame_as>

c0101ced <isr_stub_10>:
c0101ced:	fa                   	cli
c0101cee:	6a 0a                	push   $0xa
c0101cf0:	e9 7c ff ff ff       	jmp    c0101c71 <isr_frame_as>

c0101cf5 <isr_stub_11>:
c0101cf5:	fa                   	cli
c0101cf6:	6a 0b                	push   $0xb
c0101cf8:	e9 74 ff ff ff       	jmp    c0101c71 <isr_frame_as>

c0101cfd <isr_stub_12>:
c0101cfd:	fa                   	cli
c0101cfe:	6a 0c                	push   $0xc
c0101d00:	e9 6c ff ff ff       	jmp    c0101c71 <isr_frame_as>

c0101d05 <isr_stub_13>:
c0101d05:	fa                   	cli
c0101d06:	6a 0d                	push   $0xd
c0101d08:	e9 64 ff ff ff       	jmp    c0101c71 <isr_frame_as>

c0101d0d <isr_stub_14>:
c0101d0d:	fa                   	cli
c0101d0e:	6a 0e                	push   $0xe
c0101d10:	e9 5c ff ff ff       	jmp    c0101c71 <isr_frame_as>

c0101d15 <isr_stub_15>:
c0101d15:	fa                   	cli
c0101d16:	6a 00                	push   $0x0
c0101d18:	6a 0f                	push   $0xf
c0101d1a:	e9 52 ff ff ff       	jmp    c0101c71 <isr_frame_as>

c0101d1f <isr_stub_16>:
c0101d1f:	fa                   	cli
c0101d20:	6a 00                	push   $0x0
c0101d22:	6a 10                	push   $0x10
c0101d24:	e9 48 ff ff ff       	jmp    c0101c71 <isr_frame_as>

c0101d29 <isr_stub_17>:
c0101d29:	fa                   	cli
c0101d2a:	6a 11                	push   $0x11
c0101d2c:	e9 40 ff ff ff       	jmp    c0101c71 <isr_frame_as>

c0101d31 <isr_stub_18>:
c0101d31:	fa                   	cli
c0101d32:	6a 00                	push   $0x0
c0101d34:	6a 12                	push   $0x12
c0101d36:	e9 36 ff ff ff       	jmp    c0101c71 <isr_frame_as>

c0101d3b <isr_stub_19>:
c0101d3b:	fa                   	cli
c0101d3c:	6a 00                	push   $0x0
c0101d3e:	6a 13                	push   $0x13
c0101d40:	e9 2c ff ff ff       	jmp    c0101c71 <isr_frame_as>

c0101d45 <isr_stub_20>:
c0101d45:	fa                   	cli
c0101d46:	6a 00                	push   $0x0
c0101d48:	6a 14                	push   $0x14
c0101d4a:	e9 22 ff ff ff       	jmp    c0101c71 <isr_frame_as>

c0101d4f <isr_stub_21>:
c0101d4f:	fa                   	cli
c0101d50:	6a 00                	push   $0x0
c0101d52:	6a 15                	push   $0x15
c0101d54:	e9 18 ff ff ff       	jmp    c0101c71 <isr_frame_as>

c0101d59 <isr_stub_22>:
c0101d59:	fa                   	cli
c0101d5a:	6a 00                	push   $0x0
c0101d5c:	6a 16                	push   $0x16
c0101d5e:	e9 0e ff ff ff       	jmp    c0101c71 <isr_frame_as>

c0101d63 <isr_stub_23>:
c0101d63:	fa                   	cli
c0101d64:	6a 00                	push   $0x0
c0101d66:	6a 17                	push   $0x17
c0101d68:	e9 04 ff ff ff       	jmp    c0101c71 <isr_frame_as>

c0101d6d <isr_stub_24>:
c0101d6d:	fa                   	cli
c0101d6e:	6a 00                	push   $0x0
c0101d70:	6a 18                	push   $0x18
c0101d72:	e9 fa fe ff ff       	jmp    c0101c71 <isr_frame_as>

c0101d77 <isr_stub_25>:
c0101d77:	fa                   	cli
c0101d78:	6a 00                	push   $0x0
c0101d7a:	6a 19                	push   $0x19
c0101d7c:	e9 f0 fe ff ff       	jmp    c0101c71 <isr_frame_as>

c0101d81 <isr_stub_26>:
c0101d81:	fa                   	cli
c0101d82:	6a 00                	push   $0x0
c0101d84:	6a 1a                	push   $0x1a
c0101d86:	e9 e6 fe ff ff       	jmp    c0101c71 <isr_frame_as>

c0101d8b <isr_stub_27>:
c0101d8b:	fa                   	cli
c0101d8c:	6a 00                	push   $0x0
c0101d8e:	6a 1b                	push   $0x1b
c0101d90:	e9 dc fe ff ff       	jmp    c0101c71 <isr_frame_as>

c0101d95 <isr_stub_28>:
c0101d95:	fa                   	cli
c0101d96:	6a 00                	push   $0x0
c0101d98:	6a 1c                	push   $0x1c
c0101d9a:	e9 d2 fe ff ff       	jmp    c0101c71 <isr_frame_as>

c0101d9f <isr_stub_29>:
c0101d9f:	fa                   	cli
c0101da0:	6a 00                	push   $0x0
c0101da2:	6a 1d                	push   $0x1d
c0101da4:	e9 c8 fe ff ff       	jmp    c0101c71 <isr_frame_as>

c0101da9 <isr_stub_30>:
c0101da9:	fa                   	cli
c0101daa:	6a 1e                	push   $0x1e
c0101dac:	e9 c0 fe ff ff       	jmp    c0101c71 <isr_frame_as>

c0101db1 <isr_stub_31>:
c0101db1:	fa                   	cli
c0101db2:	6a 00                	push   $0x0
c0101db4:	6a 1f                	push   $0x1f
c0101db6:	e9 b6 fe ff ff       	jmp    c0101c71 <isr_frame_as>

c0101dbb <irq_stub_48>:
c0101dbb:	fa                   	cli
c0101dbc:	6a 30                	push   $0x30
c0101dbe:	e9 dc fe ff ff       	jmp    c0101c9f <irq_frame>

c0101dc3 <irq_stub_49>:
c0101dc3:	fa                   	cli
c0101dc4:	6a 31                	push   $0x31
c0101dc6:	e9 d4 fe ff ff       	jmp    c0101c9f <irq_frame>

c0101dcb <irq_stub_50>:
c0101dcb:	fa                   	cli
c0101dcc:	6a 32                	push   $0x32
c0101dce:	e9 cc fe ff ff       	jmp    c0101c9f <irq_frame>

c0101dd3 <io_wait>:
c0101dd3:	55                   	push   %ebp
c0101dd4:	89 e5                	mov    %esp,%ebp
c0101dd6:	83 ec 08             	sub    $0x8,%esp
c0101dd9:	83 ec 08             	sub    $0x8,%esp
c0101ddc:	6a 00                	push   $0x0
c0101dde:	68 80 00 00 00       	push   $0x80
c0101de3:	e8 1c 2a 00 00       	call   c0104804 <outportb>
c0101de8:	83 c4 10             	add    $0x10,%esp
c0101deb:	90                   	nop
c0101dec:	c9                   	leave
c0101ded:	c3                   	ret

c0101dee <get_apic_addr>:
c0101dee:	55                   	push   %ebp
c0101def:	89 e5                	mov    %esp,%ebp
c0101df1:	83 ec 10             	sub    $0x10,%esp
c0101df4:	c7 45 fc 1b 00 00 00 	movl   $0x1b,-0x4(%ebp)
c0101dfb:	c7 45 f8 00 00 00 00 	movl   $0x0,-0x8(%ebp)
c0101e02:	c7 45 f4 00 00 00 00 	movl   $0x0,-0xc(%ebp)
c0101e09:	8b 45 fc             	mov    -0x4(%ebp),%eax
c0101e0c:	89 c1                	mov    %eax,%ecx
c0101e0e:	0f 32                	rdmsr
c0101e10:	89 45 f8             	mov    %eax,-0x8(%ebp)
c0101e13:	89 55 f4             	mov    %edx,-0xc(%ebp)
c0101e16:	8b 45 f8             	mov    -0x8(%ebp),%eax
c0101e19:	25 00 f0 ff ff       	and    $0xfffff000,%eax
c0101e1e:	c9                   	leave
c0101e1f:	c3                   	ret

c0101e20 <get_cpuid>:
c0101e20:	55                   	push   %ebp
c0101e21:	89 e5                	mov    %esp,%ebp
c0101e23:	53                   	push   %ebx
c0101e24:	83 ec 14             	sub    $0x14,%esp
c0101e27:	c7 45 f4 00 00 00 00 	movl   $0x0,-0xc(%ebp)
c0101e2e:	c7 45 f0 00 00 00 00 	movl   $0x0,-0x10(%ebp)
c0101e35:	c7 45 ec 00 00 00 00 	movl   $0x0,-0x14(%ebp)
c0101e3c:	c7 45 e8 00 00 00 00 	movl   $0x0,-0x18(%ebp)
c0101e43:	8b 45 08             	mov    0x8(%ebp),%eax
c0101e46:	89 c0                	mov    %eax,%eax
c0101e48:	0f a2                	cpuid
c0101e4a:	89 45 f4             	mov    %eax,-0xc(%ebp)
c0101e4d:	89 5d f0             	mov    %ebx,-0x10(%ebp)
c0101e50:	89 4d ec             	mov    %ecx,-0x14(%ebp)
c0101e53:	89 55 e8             	mov    %edx,-0x18(%ebp)
c0101e56:	8b 5d e8             	mov    -0x18(%ebp),%ebx
c0101e59:	8b 4d ec             	mov    -0x14(%ebp),%ecx
c0101e5c:	8b 55 f0             	mov    -0x10(%ebp),%edx
c0101e5f:	8b 45 f4             	mov    -0xc(%ebp),%eax
c0101e62:	83 ec 08             	sub    $0x8,%esp
c0101e65:	53                   	push   %ebx
c0101e66:	51                   	push   %ecx
c0101e67:	52                   	push   %edx
c0101e68:	50                   	push   %eax
c0101e69:	ff 75 08             	push   0x8(%ebp)
c0101e6c:	68 44 51 10 c0       	push   $0xc0105144
c0101e71:	e8 a0 2c 00 00       	call   c0104b16 <logf>
c0101e76:	83 c4 20             	add    $0x20,%esp
c0101e79:	90                   	nop
c0101e7a:	8b 5d fc             	mov    -0x4(%ebp),%ebx
c0101e7d:	c9                   	leave
c0101e7e:	c3                   	ret

c0101e7f <read_ioapic_register>:
c0101e7f:	55                   	push   %ebp
c0101e80:	89 e5                	mov    %esp,%ebp
c0101e82:	83 ec 10             	sub    $0x10,%esp
c0101e85:	a1 24 80 10 c0       	mov    0xc0108024,%eax
c0101e8a:	8b 55 08             	mov    0x8(%ebp),%edx
c0101e8d:	89 10                	mov    %edx,(%eax)
c0101e8f:	a1 24 80 10 c0       	mov    0xc0108024,%eax
c0101e94:	83 c0 10             	add    $0x10,%eax
c0101e97:	89 45 fc             	mov    %eax,-0x4(%ebp)
c0101e9a:	8b 45 fc             	mov    -0x4(%ebp),%eax
c0101e9d:	8b 00                	mov    (%eax),%eax
c0101e9f:	c9                   	leave
c0101ea0:	c3                   	ret

c0101ea1 <write_ioapic_register>:
c0101ea1:	55                   	push   %ebp
c0101ea2:	89 e5                	mov    %esp,%ebp
c0101ea4:	83 ec 10             	sub    $0x10,%esp
c0101ea7:	a1 24 80 10 c0       	mov    0xc0108024,%eax
c0101eac:	8b 55 08             	mov    0x8(%ebp),%edx
c0101eaf:	89 10                	mov    %edx,(%eax)
c0101eb1:	a1 24 80 10 c0       	mov    0xc0108024,%eax
c0101eb6:	83 c0 10             	add    $0x10,%eax
c0101eb9:	89 45 fc             	mov    %eax,-0x4(%ebp)
c0101ebc:	8b 45 fc             	mov    -0x4(%ebp),%eax
c0101ebf:	8b 55 0c             	mov    0xc(%ebp),%edx
c0101ec2:	89 10                	mov    %edx,(%eax)
c0101ec4:	90                   	nop
c0101ec5:	c9                   	leave
c0101ec6:	c3                   	ret

c0101ec7 <ioapic_pit_irq>:
c0101ec7:	55                   	push   %ebp
c0101ec8:	89 e5                	mov    %esp,%ebp
c0101eca:	83 ec 18             	sub    $0x18,%esp
c0101ecd:	c6 45 f7 01          	movb   $0x1,-0x9(%ebp)
c0101ed1:	c7 45 f0 00 00 00 00 	movl   $0x0,-0x10(%ebp)
c0101ed8:	0f b6 45 f7          	movzbl -0x9(%ebp),%eax
c0101edc:	83 ec 08             	sub    $0x8,%esp
c0101edf:	50                   	push   %eax
c0101ee0:	6a 02                	push   $0x2
c0101ee2:	e8 be 1a 00 00       	call   c01039a5 <parse_MADT>
c0101ee7:	83 c4 10             	add    $0x10,%esp
c0101eea:	89 45 f0             	mov    %eax,-0x10(%ebp)
c0101eed:	eb 29                	jmp    c0101f18 <ioapic_pit_irq+0x51>
c0101eef:	8b 45 f0             	mov    -0x10(%ebp),%eax
c0101ef2:	0f b6 00             	movzbl (%eax),%eax
c0101ef5:	84 c0                	test   %al,%al
c0101ef7:	74 27                	je     c0101f20 <ioapic_pit_irq+0x59>
c0101ef9:	0f b6 45 f7          	movzbl -0x9(%ebp),%eax
c0101efd:	83 ec 08             	sub    $0x8,%esp
c0101f00:	50                   	push   %eax
c0101f01:	6a 02                	push   $0x2
c0101f03:	e8 9d 1a 00 00       	call   c01039a5 <parse_MADT>
c0101f08:	83 c4 10             	add    $0x10,%esp
c0101f0b:	89 45 f0             	mov    %eax,-0x10(%ebp)
c0101f0e:	0f b6 45 f7          	movzbl -0x9(%ebp),%eax
c0101f12:	83 c0 01             	add    $0x1,%eax
c0101f15:	88 45 f7             	mov    %al,-0x9(%ebp)
c0101f18:	83 7d f0 00          	cmpl   $0x0,-0x10(%ebp)
c0101f1c:	75 d1                	jne    c0101eef <ioapic_pit_irq+0x28>
c0101f1e:	eb 01                	jmp    c0101f21 <ioapic_pit_irq+0x5a>
c0101f20:	90                   	nop
c0101f21:	8b 45 f0             	mov    -0x10(%ebp),%eax
c0101f24:	8b 40 02             	mov    0x2(%eax),%eax
c0101f27:	c9                   	leave
c0101f28:	c3                   	ret

c0101f29 <init_ioapic>:
c0101f29:	55                   	push   %ebp
c0101f2a:	89 e5                	mov    %esp,%ebp
c0101f2c:	83 ec 18             	sub    $0x18,%esp
c0101f2f:	83 ec 08             	sub    $0x8,%esp
c0101f32:	6a 01                	push   $0x1
c0101f34:	6a 01                	push   $0x1
c0101f36:	e8 6a 1a 00 00       	call   c01039a5 <parse_MADT>
c0101f3b:	83 c4 10             	add    $0x10,%esp
c0101f3e:	89 45 f4             	mov    %eax,-0xc(%ebp)
c0101f41:	8b 45 f4             	mov    -0xc(%ebp),%eax
c0101f44:	8b 40 02             	mov    0x2(%eax),%eax
c0101f47:	83 ec 04             	sub    $0x4,%esp
c0101f4a:	50                   	push   %eax
c0101f4b:	68 13 01 00 00       	push   $0x113
c0101f50:	68 00 04 00 00       	push   $0x400
c0101f55:	e8 cd 15 00 00       	call   c0103527 <page_kalloc>
c0101f5a:	83 c4 10             	add    $0x10,%esp
c0101f5d:	a3 24 80 10 c0       	mov    %eax,0xc0108024
c0101f62:	e8 60 ff ff ff       	call   c0101ec7 <ioapic_pit_irq>
c0101f67:	83 c0 08             	add    $0x8,%eax
c0101f6a:	01 c0                	add    %eax,%eax
c0101f6c:	88 45 f3             	mov    %al,-0xd(%ebp)
c0101f6f:	0f b6 45 f3          	movzbl -0xd(%ebp),%eax
c0101f73:	83 ec 08             	sub    $0x8,%esp
c0101f76:	6a 31                	push   $0x31
c0101f78:	50                   	push   %eax
c0101f79:	e8 23 ff ff ff       	call   c0101ea1 <write_ioapic_register>
c0101f7e:	83 c4 10             	add    $0x10,%esp
c0101f81:	0f b6 45 f3          	movzbl -0xd(%ebp),%eax
c0101f85:	83 c0 01             	add    $0x1,%eax
c0101f88:	83 ec 08             	sub    $0x8,%esp
c0101f8b:	6a 00                	push   $0x0
c0101f8d:	50                   	push   %eax
c0101f8e:	e8 0e ff ff ff       	call   c0101ea1 <write_ioapic_register>
c0101f93:	83 c4 10             	add    $0x10,%esp
c0101f96:	90                   	nop
c0101f97:	c9                   	leave
c0101f98:	c3                   	ret

c0101f99 <lapic_write_reg>:
c0101f99:	55                   	push   %ebp
c0101f9a:	89 e5                	mov    %esp,%ebp
c0101f9c:	83 ec 10             	sub    $0x10,%esp
c0101f9f:	a1 20 80 10 c0       	mov    0xc0108020,%eax
c0101fa4:	89 c2                	mov    %eax,%edx
c0101fa6:	8b 45 08             	mov    0x8(%ebp),%eax
c0101fa9:	01 d0                	add    %edx,%eax
c0101fab:	89 45 fc             	mov    %eax,-0x4(%ebp)
c0101fae:	8b 45 fc             	mov    -0x4(%ebp),%eax
c0101fb1:	8b 55 0c             	mov    0xc(%ebp),%edx
c0101fb4:	89 10                	mov    %edx,(%eax)
c0101fb6:	90                   	nop
c0101fb7:	c9                   	leave
c0101fb8:	c3                   	ret

c0101fb9 <lapic_read_reg>:
c0101fb9:	55                   	push   %ebp
c0101fba:	89 e5                	mov    %esp,%ebp
c0101fbc:	83 ec 10             	sub    $0x10,%esp
c0101fbf:	a1 20 80 10 c0       	mov    0xc0108020,%eax
c0101fc4:	89 c2                	mov    %eax,%edx
c0101fc6:	8b 45 08             	mov    0x8(%ebp),%eax
c0101fc9:	01 d0                	add    %edx,%eax
c0101fcb:	89 45 fc             	mov    %eax,-0x4(%ebp)
c0101fce:	8b 45 fc             	mov    -0x4(%ebp),%eax
c0101fd1:	8b 00                	mov    (%eax),%eax
c0101fd3:	c9                   	leave
c0101fd4:	c3                   	ret

c0101fd5 <lapic_timer_init>:
c0101fd5:	55                   	push   %ebp
c0101fd6:	89 e5                	mov    %esp,%ebp
c0101fd8:	83 ec 10             	sub    $0x10,%esp
c0101fdb:	a1 20 80 10 c0       	mov    0xc0108020,%eax
c0101fe0:	05 20 03 00 00       	add    $0x320,%eax
c0101fe5:	89 45 fc             	mov    %eax,-0x4(%ebp)
c0101fe8:	8b 45 fc             	mov    -0x4(%ebp),%eax
c0101feb:	c7 00 30 00 02 00    	movl   $0x20030,(%eax)
c0101ff1:	90                   	nop
c0101ff2:	c9                   	leave
c0101ff3:	c3                   	ret

c0101ff4 <set_initial_lapic_timer_count>:
c0101ff4:	55                   	push   %ebp
c0101ff5:	89 e5                	mov    %esp,%ebp
c0101ff7:	83 ec 10             	sub    $0x10,%esp
c0101ffa:	a1 20 80 10 c0       	mov    0xc0108020,%eax
c0101fff:	05 80 03 00 00       	add    $0x380,%eax
c0102004:	89 45 fc             	mov    %eax,-0x4(%ebp)
c0102007:	8b 45 fc             	mov    -0x4(%ebp),%eax
c010200a:	8b 55 08             	mov    0x8(%ebp),%edx
c010200d:	89 10                	mov    %edx,(%eax)
c010200f:	90                   	nop
c0102010:	c9                   	leave
c0102011:	c3                   	ret

c0102012 <get_lapic_timer_count>:
c0102012:	55                   	push   %ebp
c0102013:	89 e5                	mov    %esp,%ebp
c0102015:	68 90 03 00 00       	push   $0x390
c010201a:	e8 9a ff ff ff       	call   c0101fb9 <lapic_read_reg>
c010201f:	83 c4 04             	add    $0x4,%esp
c0102022:	c9                   	leave
c0102023:	c3                   	ret

c0102024 <send_EOI>:
c0102024:	55                   	push   %ebp
c0102025:	89 e5                	mov    %esp,%ebp
c0102027:	83 ec 10             	sub    $0x10,%esp
c010202a:	8b 45 08             	mov    0x8(%ebp),%eax
c010202d:	05 b0 00 00 00       	add    $0xb0,%eax
c0102032:	89 45 fc             	mov    %eax,-0x4(%ebp)
c0102035:	8b 45 fc             	mov    -0x4(%ebp),%eax
c0102038:	c7 00 00 00 00 00    	movl   $0x0,(%eax)
c010203e:	90                   	nop
c010203f:	c9                   	leave
c0102040:	c3                   	ret

c0102041 <init_apic>:
c0102041:	55                   	push   %ebp
c0102042:	89 e5                	mov    %esp,%ebp
c0102044:	83 ec 18             	sub    $0x18,%esp
c0102047:	83 ec 0c             	sub    $0xc,%esp
c010204a:	68 74 51 10 c0       	push   $0xc0105174
c010204f:	e8 c2 2a 00 00       	call   c0104b16 <logf>
c0102054:	83 c4 10             	add    $0x10,%esp
c0102057:	e8 92 fd ff ff       	call   c0101dee <get_apic_addr>
c010205c:	83 ec 04             	sub    $0x4,%esp
c010205f:	50                   	push   %eax
c0102060:	6a 03                	push   $0x3
c0102062:	68 00 10 00 00       	push   $0x1000
c0102067:	e8 bb 14 00 00       	call   c0103527 <page_kalloc>
c010206c:	83 c4 10             	add    $0x10,%esp
c010206f:	a3 20 80 10 c0       	mov    %eax,0xc0108020
c0102074:	a1 20 80 10 c0       	mov    0xc0108020,%eax
c0102079:	05 f0 00 00 00       	add    $0xf0,%eax
c010207e:	89 45 f4             	mov    %eax,-0xc(%ebp)
c0102081:	8b 45 f4             	mov    -0xc(%ebp),%eax
c0102084:	8b 00                	mov    (%eax),%eax
c0102086:	0d ff 01 00 00       	or     $0x1ff,%eax
c010208b:	89 c2                	mov    %eax,%edx
c010208d:	8b 45 f4             	mov    -0xc(%ebp),%eax
c0102090:	89 10                	mov    %edx,(%eax)
c0102092:	83 ec 0c             	sub    $0xc,%esp
c0102095:	68 9c 51 10 c0       	push   $0xc010519c
c010209a:	e8 77 2a 00 00       	call   c0104b16 <logf>
c010209f:	83 c4 10             	add    $0x10,%esp
c01020a2:	e8 2e ff ff ff       	call   c0101fd5 <lapic_timer_init>
c01020a7:	e8 7d fe ff ff       	call   c0101f29 <init_ioapic>
c01020ac:	e8 03 00 00 00       	call   c01020b4 <calibrate_timer>
c01020b1:	90                   	nop
c01020b2:	c9                   	leave
c01020b3:	c3                   	ret

c01020b4 <calibrate_timer>:
c01020b4:	55                   	push   %ebp
c01020b5:	89 e5                	mov    %esp,%ebp
c01020b7:	83 ec 18             	sub    $0x18,%esp
c01020ba:	c7 45 f4 00 00 00 00 	movl   $0x0,-0xc(%ebp)
c01020c1:	68 00 00 01 00       	push   $0x10000
c01020c6:	68 20 03 00 00       	push   $0x320
c01020cb:	e8 c9 fe ff ff       	call   c0101f99 <lapic_write_reg>
c01020d0:	83 c4 08             	add    $0x8,%esp
c01020d3:	c7 45 f0 00 00 00 00 	movl   $0x0,-0x10(%ebp)
c01020da:	eb 50                	jmp    c010212c <calibrate_timer+0x78>
c01020dc:	c7 05 2c 80 10 c0 01 	movl   $0x1,0xc010802c
c01020e3:	00 00 00 
c01020e6:	83 ec 0c             	sub    $0xc,%esp
c01020e9:	68 c2 2e 00 00       	push   $0x2ec2
c01020ee:	e8 91 00 00 00       	call   c0102184 <set_pit_one_shot>
c01020f3:	83 c4 10             	add    $0x10,%esp
c01020f6:	83 ec 0c             	sub    $0xc,%esp
c01020f9:	6a ff                	push   $0xffffffff
c01020fb:	e8 f4 fe ff ff       	call   c0101ff4 <set_initial_lapic_timer_count>
c0102100:	83 c4 10             	add    $0x10,%esp
c0102103:	90                   	nop
c0102104:	a1 2c 80 10 c0       	mov    0xc010802c,%eax
c0102109:	85 c0                	test   %eax,%eax
c010210b:	75 f7                	jne    c0102104 <calibrate_timer+0x50>
c010210d:	83 ec 0c             	sub    $0xc,%esp
c0102110:	68 90 03 00 00       	push   $0x390
c0102115:	e8 9f fe ff ff       	call   c0101fb9 <lapic_read_reg>
c010211a:	83 c4 10             	add    $0x10,%esp
c010211d:	f7 d0                	not    %eax
c010211f:	89 45 ec             	mov    %eax,-0x14(%ebp)
c0102122:	8b 45 ec             	mov    -0x14(%ebp),%eax
c0102125:	01 45 f4             	add    %eax,-0xc(%ebp)
c0102128:	83 45 f0 01          	addl   $0x1,-0x10(%ebp)
c010212c:	83 7d f0 09          	cmpl   $0x9,-0x10(%ebp)
c0102130:	7e aa                	jle    c01020dc <calibrate_timer+0x28>
c0102132:	8b 45 f4             	mov    -0xc(%ebp),%eax
c0102135:	ba 1f 85 eb 51       	mov    $0x51eb851f,%edx
c010213a:	f7 e2                	mul    %edx
c010213c:	89 d0                	mov    %edx,%eax
c010213e:	c1 e8 05             	shr    $0x5,%eax
c0102141:	a3 28 80 10 c0       	mov    %eax,0xc0108028
c0102146:	a1 28 80 10 c0       	mov    0xc0108028,%eax
c010214b:	83 ec 08             	sub    $0x8,%esp
c010214e:	50                   	push   %eax
c010214f:	68 b8 51 10 c0       	push   $0xc01051b8
c0102154:	e8 bd 29 00 00       	call   c0104b16 <logf>
c0102159:	83 c4 10             	add    $0x10,%esp
c010215c:	83 ec 08             	sub    $0x8,%esp
c010215f:	68 30 00 02 00       	push   $0x20030
c0102164:	68 20 03 00 00       	push   $0x320
c0102169:	e8 2b fe ff ff       	call   c0101f99 <lapic_write_reg>
c010216e:	83 c4 10             	add    $0x10,%esp
c0102171:	90                   	nop
c0102172:	c9                   	leave
c0102173:	c3                   	ret

c0102174 <end_calibration>:
c0102174:	55                   	push   %ebp
c0102175:	89 e5                	mov    %esp,%ebp
c0102177:	c7 05 2c 80 10 c0 00 	movl   $0x0,0xc010802c
c010217e:	00 00 00 
c0102181:	90                   	nop
c0102182:	5d                   	pop    %ebp
c0102183:	c3                   	ret

c0102184 <set_pit_one_shot>:
c0102184:	55                   	push   %ebp
c0102185:	89 e5                	mov    %esp,%ebp
c0102187:	83 ec 18             	sub    $0x18,%esp
c010218a:	8b 45 08             	mov    0x8(%ebp),%eax
c010218d:	66 89 45 f4          	mov    %ax,-0xc(%ebp)
c0102191:	83 ec 08             	sub    $0x8,%esp
c0102194:	6a 30                	push   $0x30
c0102196:	6a 43                	push   $0x43
c0102198:	e8 67 26 00 00       	call   c0104804 <outportb>
c010219d:	83 c4 10             	add    $0x10,%esp
c01021a0:	0f b7 45 f4          	movzwl -0xc(%ebp),%eax
c01021a4:	0f b6 c0             	movzbl %al,%eax
c01021a7:	83 ec 08             	sub    $0x8,%esp
c01021aa:	50                   	push   %eax
c01021ab:	6a 40                	push   $0x40
c01021ad:	e8 52 26 00 00       	call   c0104804 <outportb>
c01021b2:	83 c4 10             	add    $0x10,%esp
c01021b5:	0f b7 45 f4          	movzwl -0xc(%ebp),%eax
c01021b9:	66 c1 e8 08          	shr    $0x8,%ax
c01021bd:	0f b6 c0             	movzbl %al,%eax
c01021c0:	83 ec 08             	sub    $0x8,%esp
c01021c3:	50                   	push   %eax
c01021c4:	6a 40                	push   $0x40
c01021c6:	e8 39 26 00 00       	call   c0104804 <outportb>
c01021cb:	83 c4 10             	add    $0x10,%esp
c01021ce:	90                   	nop
c01021cf:	c9                   	leave
c01021d0:	c3                   	ret

c01021d1 <disable_pic>:
c01021d1:	55                   	push   %ebp
c01021d2:	89 e5                	mov    %esp,%ebp
c01021d4:	83 ec 08             	sub    $0x8,%esp
c01021d7:	83 ec 08             	sub    $0x8,%esp
c01021da:	6a 11                	push   $0x11
c01021dc:	6a 20                	push   $0x20
c01021de:	e8 21 26 00 00       	call   c0104804 <outportb>
c01021e3:	83 c4 10             	add    $0x10,%esp
c01021e6:	e8 e8 fb ff ff       	call   c0101dd3 <io_wait>
c01021eb:	83 ec 08             	sub    $0x8,%esp
c01021ee:	6a 11                	push   $0x11
c01021f0:	68 a0 00 00 00       	push   $0xa0
c01021f5:	e8 0a 26 00 00       	call   c0104804 <outportb>
c01021fa:	83 c4 10             	add    $0x10,%esp
c01021fd:	e8 d1 fb ff ff       	call   c0101dd3 <io_wait>
c0102202:	83 ec 08             	sub    $0x8,%esp
c0102205:	6a 20                	push   $0x20
c0102207:	6a 21                	push   $0x21
c0102209:	e8 f6 25 00 00       	call   c0104804 <outportb>
c010220e:	83 c4 10             	add    $0x10,%esp
c0102211:	e8 bd fb ff ff       	call   c0101dd3 <io_wait>
c0102216:	83 ec 08             	sub    $0x8,%esp
c0102219:	6a 28                	push   $0x28
c010221b:	68 a1 00 00 00       	push   $0xa1
c0102220:	e8 df 25 00 00       	call   c0104804 <outportb>
c0102225:	83 c4 10             	add    $0x10,%esp
c0102228:	e8 a6 fb ff ff       	call   c0101dd3 <io_wait>
c010222d:	83 ec 08             	sub    $0x8,%esp
c0102230:	6a 02                	push   $0x2
c0102232:	6a 21                	push   $0x21
c0102234:	e8 cb 25 00 00       	call   c0104804 <outportb>
c0102239:	83 c4 10             	add    $0x10,%esp
c010223c:	e8 92 fb ff ff       	call   c0101dd3 <io_wait>
c0102241:	83 ec 08             	sub    $0x8,%esp
c0102244:	6a 04                	push   $0x4
c0102246:	68 a1 00 00 00       	push   $0xa1
c010224b:	e8 b4 25 00 00       	call   c0104804 <outportb>
c0102250:	83 c4 10             	add    $0x10,%esp
c0102253:	e8 7b fb ff ff       	call   c0101dd3 <io_wait>
c0102258:	83 ec 08             	sub    $0x8,%esp
c010225b:	6a 01                	push   $0x1
c010225d:	6a 21                	push   $0x21
c010225f:	e8 a0 25 00 00       	call   c0104804 <outportb>
c0102264:	83 c4 10             	add    $0x10,%esp
c0102267:	e8 67 fb ff ff       	call   c0101dd3 <io_wait>
c010226c:	83 ec 08             	sub    $0x8,%esp
c010226f:	6a 01                	push   $0x1
c0102271:	68 a1 00 00 00       	push   $0xa1
c0102276:	e8 89 25 00 00       	call   c0104804 <outportb>
c010227b:	83 c4 10             	add    $0x10,%esp
c010227e:	e8 50 fb ff ff       	call   c0101dd3 <io_wait>
c0102283:	83 ec 08             	sub    $0x8,%esp
c0102286:	68 ff 00 00 00       	push   $0xff
c010228b:	6a 21                	push   $0x21
c010228d:	e8 72 25 00 00       	call   c0104804 <outportb>
c0102292:	83 c4 10             	add    $0x10,%esp
c0102295:	e8 39 fb ff ff       	call   c0101dd3 <io_wait>
c010229a:	83 ec 08             	sub    $0x8,%esp
c010229d:	68 ff 00 00 00       	push   $0xff
c01022a2:	68 a1 00 00 00       	push   $0xa1
c01022a7:	e8 58 25 00 00       	call   c0104804 <outportb>
c01022ac:	83 c4 10             	add    $0x10,%esp
c01022af:	90                   	nop
c01022b0:	c9                   	leave
c01022b1:	c3                   	ret

c01022b2 <polled_sleep>:
c01022b2:	55                   	push   %ebp
c01022b3:	89 e5                	mov    %esp,%ebp
c01022b5:	83 ec 28             	sub    $0x28,%esp
c01022b8:	e8 55 fd ff ff       	call   c0102012 <get_lapic_timer_count>
c01022bd:	89 45 f4             	mov    %eax,-0xc(%ebp)
c01022c0:	c7 45 f0 00 00 00 00 	movl   $0x0,-0x10(%ebp)
c01022c7:	a1 28 80 10 c0       	mov    0xc0108028,%eax
c01022cc:	8b 55 08             	mov    0x8(%ebp),%edx
c01022cf:	0f af c2             	imul   %edx,%eax
c01022d2:	89 45 ec             	mov    %eax,-0x14(%ebp)
c01022d5:	c7 45 e8 00 00 00 00 	movl   $0x0,-0x18(%ebp)
c01022dc:	c7 45 e4 00 00 00 00 	movl   $0x0,-0x1c(%ebp)
c01022e3:	83 ec 0c             	sub    $0xc,%esp
c01022e6:	ff 75 ec             	push   -0x14(%ebp)
c01022e9:	e8 1e 00 00 00       	call   c010230c <arm_interrupt_timer>
c01022ee:	83 c4 10             	add    $0x10,%esp
c01022f1:	90                   	nop
c01022f2:	e8 08 00 00 00       	call   c01022ff <poll_timer>
c01022f7:	85 c0                	test   %eax,%eax
c01022f9:	75 f7                	jne    c01022f2 <polled_sleep+0x40>
c01022fb:	90                   	nop
c01022fc:	90                   	nop
c01022fd:	c9                   	leave
c01022fe:	c3                   	ret

c01022ff <poll_timer>:
c01022ff:	55                   	push   %ebp
c0102300:	89 e5                	mov    %esp,%ebp
c0102302:	83 ec 08             	sub    $0x8,%esp
c0102305:	e8 08 fd ff ff       	call   c0102012 <get_lapic_timer_count>
c010230a:	c9                   	leave
c010230b:	c3                   	ret

c010230c <arm_interrupt_timer>:
c010230c:	55                   	push   %ebp
c010230d:	89 e5                	mov    %esp,%ebp
c010230f:	83 ec 08             	sub    $0x8,%esp
c0102312:	83 ec 0c             	sub    $0xc,%esp
c0102315:	68 20 03 00 00       	push   $0x320
c010231a:	e8 9a fc ff ff       	call   c0101fb9 <lapic_read_reg>
c010231f:	83 c4 10             	add    $0x10,%esp
c0102322:	0f b6 c0             	movzbl %al,%eax
c0102325:	83 ec 08             	sub    $0x8,%esp
c0102328:	50                   	push   %eax
c0102329:	68 20 03 00 00       	push   $0x320
c010232e:	e8 66 fc ff ff       	call   c0101f99 <lapic_write_reg>
c0102333:	83 c4 10             	add    $0x10,%esp
c0102336:	83 ec 0c             	sub    $0xc,%esp
c0102339:	ff 75 08             	push   0x8(%ebp)
c010233c:	e8 b3 fc ff ff       	call   c0101ff4 <set_initial_lapic_timer_count>
c0102341:	83 c4 10             	add    $0x10,%esp
c0102344:	90                   	nop
c0102345:	c9                   	leave
c0102346:	c3                   	ret

c0102347 <io_wait>:
c0102347:	55                   	push   %ebp
c0102348:	89 e5                	mov    %esp,%ebp
c010234a:	83 ec 08             	sub    $0x8,%esp
c010234d:	83 ec 08             	sub    $0x8,%esp
c0102350:	6a 00                	push   $0x0
c0102352:	68 80 00 00 00       	push   $0x80
c0102357:	e8 a8 24 00 00       	call   c0104804 <outportb>
c010235c:	83 c4 10             	add    $0x10,%esp
c010235f:	90                   	nop
c0102360:	c9                   	leave
c0102361:	c3                   	ret

c0102362 <handle_masks>:
c0102362:	55                   	push   %ebp
c0102363:	89 e5                	mov    %esp,%ebp
c0102365:	83 7d 08 08          	cmpl   $0x8,0x8(%ebp)
c0102369:	74 1b                	je     c0102386 <handle_masks+0x24>
c010236b:	83 7d 08 08          	cmpl   $0x8,0x8(%ebp)
c010236f:	0f 87 98 00 00 00    	ja     c010240d <handle_masks+0xab>
c0102375:	83 7d 08 06          	cmpl   $0x6,0x8(%ebp)
c0102379:	74 65                	je     c01023e0 <handle_masks+0x7e>
c010237b:	83 7d 08 07          	cmpl   $0x7,0x8(%ebp)
c010237f:	74 32                	je     c01023b3 <handle_masks+0x51>
c0102381:	e9 87 00 00 00       	jmp    c010240d <handle_masks+0xab>
c0102386:	0f b6 05 5e 82 10 c0 	movzbl 0xc010825e,%eax
c010238d:	0f b6 c0             	movzbl %al,%eax
c0102390:	0f b6 94 00 61 80 10 	movzbl -0x3fef7f9f(%eax,%eax,1),%edx
c0102397:	c0 
c0102398:	0f b6 05 5e 82 10 c0 	movzbl 0xc010825e,%eax
c010239f:	0f b6 c0             	movzbl %al,%eax
c01023a2:	83 ca 02             	or     $0x2,%edx
c01023a5:	88 94 00 61 80 10 c0 	mov    %dl,-0x3fef7f9f(%eax,%eax,1)
c01023ac:	b8 01 00 00 00       	mov    $0x1,%eax
c01023b1:	eb 5f                	jmp    c0102412 <handle_masks+0xb0>
c01023b3:	0f b6 05 5e 82 10 c0 	movzbl 0xc010825e,%eax
c01023ba:	0f b6 c0             	movzbl %al,%eax
c01023bd:	0f b6 94 00 61 80 10 	movzbl -0x3fef7f9f(%eax,%eax,1),%edx
c01023c4:	c0 
c01023c5:	0f b6 05 5e 82 10 c0 	movzbl 0xc010825e,%eax
c01023cc:	0f b6 c0             	movzbl %al,%eax
c01023cf:	83 ca 01             	or     $0x1,%edx
c01023d2:	88 94 00 61 80 10 c0 	mov    %dl,-0x3fef7f9f(%eax,%eax,1)
c01023d9:	b8 01 00 00 00       	mov    $0x1,%eax
c01023de:	eb 32                	jmp    c0102412 <handle_masks+0xb0>
c01023e0:	0f b6 05 5e 82 10 c0 	movzbl 0xc010825e,%eax
c01023e7:	0f b6 c0             	movzbl %al,%eax
c01023ea:	0f b6 94 00 61 80 10 	movzbl -0x3fef7f9f(%eax,%eax,1),%edx
c01023f1:	c0 
c01023f2:	0f b6 05 5e 82 10 c0 	movzbl 0xc010825e,%eax
c01023f9:	0f b6 c0             	movzbl %al,%eax
c01023fc:	83 ca 04             	or     $0x4,%edx
c01023ff:	88 94 00 61 80 10 c0 	mov    %dl,-0x3fef7f9f(%eax,%eax,1)
c0102406:	b8 01 00 00 00       	mov    $0x1,%eax
c010240b:	eb 05                	jmp    c0102412 <handle_masks+0xb0>
c010240d:	b8 00 00 00 00       	mov    $0x0,%eax
c0102412:	5d                   	pop    %ebp
c0102413:	c3                   	ret

c0102414 <handle_keychange>:
c0102414:	55                   	push   %ebp
c0102415:	89 e5                	mov    %esp,%ebp
c0102417:	83 ec 18             	sub    $0x18,%esp
c010241a:	a1 44 80 10 c0       	mov    0xc0108044,%eax
c010241f:	83 ec 04             	sub    $0x4,%esp
c0102422:	6a 04                	push   $0x4
c0102424:	6a 00                	push   $0x0
c0102426:	50                   	push   %eax
c0102427:	e8 cf f4 ff ff       	call   c01018fb <memset>
c010242c:	83 c4 10             	add    $0x10,%esp
c010242f:	c7 45 f4 00 00 00 00 	movl   $0x0,-0xc(%ebp)
c0102436:	eb 2b                	jmp    c0102463 <handle_keychange+0x4f>
c0102438:	83 ec 0c             	sub    $0xc,%esp
c010243b:	6a 60                	push   $0x60
c010243d:	e8 a9 23 00 00       	call   c01047eb <inportb>
c0102442:	83 c4 10             	add    $0x10,%esp
c0102445:	88 45 f3             	mov    %al,-0xd(%ebp)
c0102448:	8b 15 44 80 10 c0    	mov    0xc0108044,%edx
c010244e:	8b 45 f4             	mov    -0xc(%ebp),%eax
c0102451:	01 c2                	add    %eax,%edx
c0102453:	0f b6 45 f3          	movzbl -0xd(%ebp),%eax
c0102457:	88 02                	mov    %al,(%edx)
c0102459:	80 7d f3 e0          	cmpb   $0xe0,-0xd(%ebp)
c010245d:	75 0c                	jne    c010246b <handle_keychange+0x57>
c010245f:	83 45 f4 01          	addl   $0x1,-0xc(%ebp)
c0102463:	83 7d f4 03          	cmpl   $0x3,-0xc(%ebp)
c0102467:	7e cf                	jle    c0102438 <handle_keychange+0x24>
c0102469:	eb 01                	jmp    c010246c <handle_keychange+0x58>
c010246b:	90                   	nop
c010246c:	0f b6 05 5e 82 10 c0 	movzbl 0xc010825e,%eax
c0102473:	0f b6 c0             	movzbl %al,%eax
c0102476:	8d 48 01             	lea    0x1(%eax),%ecx
c0102479:	ba 81 80 80 80       	mov    $0x80808081,%edx
c010247e:	89 c8                	mov    %ecx,%eax
c0102480:	f7 ea                	imul   %edx
c0102482:	8d 04 0a             	lea    (%edx,%ecx,1),%eax
c0102485:	c1 f8 07             	sar    $0x7,%eax
c0102488:	89 c2                	mov    %eax,%edx
c010248a:	89 c8                	mov    %ecx,%eax
c010248c:	c1 f8 1f             	sar    $0x1f,%eax
c010248f:	29 c2                	sub    %eax,%edx
c0102491:	89 d0                	mov    %edx,%eax
c0102493:	c1 e0 08             	shl    $0x8,%eax
c0102496:	29 d0                	sub    %edx,%eax
c0102498:	29 c1                	sub    %eax,%ecx
c010249a:	89 ca                	mov    %ecx,%edx
c010249c:	89 d0                	mov    %edx,%eax
c010249e:	a2 5e 82 10 c0       	mov    %al,0xc010825e
c01024a3:	8b 15 44 80 10 c0    	mov    0xc0108044,%edx
c01024a9:	8b 45 f4             	mov    -0xc(%ebp),%eax
c01024ac:	01 d0                	add    %edx,%eax
c01024ae:	0f b6 00             	movzbl (%eax),%eax
c01024b1:	0f b6 c0             	movzbl %al,%eax
c01024b4:	83 e0 7f             	and    $0x7f,%eax
c01024b7:	8b 14 85 20 60 10 c0 	mov    -0x3fef9fe0(,%eax,4),%edx
c01024be:	0f b6 05 5e 82 10 c0 	movzbl 0xc010825e,%eax
c01024c5:	0f b6 c0             	movzbl %al,%eax
c01024c8:	88 94 00 60 80 10 c0 	mov    %dl,-0x3fef7fa0(%eax,%eax,1)
c01024cf:	8b 15 44 80 10 c0    	mov    0xc0108044,%edx
c01024d5:	8b 45 f4             	mov    -0xc(%ebp),%eax
c01024d8:	01 d0                	add    %edx,%eax
c01024da:	0f b6 00             	movzbl (%eax),%eax
c01024dd:	3c 80                	cmp    $0x80,%al
c01024df:	76 26                	jbe    c0102507 <handle_keychange+0xf3>
c01024e1:	0f b6 05 5e 82 10 c0 	movzbl 0xc010825e,%eax
c01024e8:	0f b6 c0             	movzbl %al,%eax
c01024eb:	0f b6 94 00 61 80 10 	movzbl -0x3fef7f9f(%eax,%eax,1),%edx
c01024f2:	c0 
c01024f3:	0f b6 05 5e 82 10 c0 	movzbl 0xc010825e,%eax
c01024fa:	0f b6 c0             	movzbl %al,%eax
c01024fd:	83 ca 08             	or     $0x8,%edx
c0102500:	88 94 00 61 80 10 c0 	mov    %dl,-0x3fef7f9f(%eax,%eax,1)
c0102507:	90                   	nop
c0102508:	c9                   	leave
c0102509:	c3                   	ret

c010250a <recieve_scancode>:
c010250a:	55                   	push   %ebp
c010250b:	89 e5                	mov    %esp,%ebp
c010250d:	83 ec 14             	sub    $0x14,%esp
c0102510:	8b 45 08             	mov    0x8(%ebp),%eax
c0102513:	88 45 ec             	mov    %al,-0x14(%ebp)
c0102516:	80 7d ec e0          	cmpb   $0xe0,-0x14(%ebp)
c010251a:	74 0a                	je     c0102526 <recieve_scancode+0x1c>
c010251c:	80 7d ec 55          	cmpb   $0x55,-0x14(%ebp)
c0102520:	0f 87 bd 00 00 00    	ja     c01025e3 <recieve_scancode+0xd9>
c0102526:	0f b6 05 5f 82 10 c0 	movzbl 0xc010825f,%eax
c010252d:	84 c0                	test   %al,%al
c010252f:	0f 85 81 00 00 00    	jne    c01025b6 <recieve_scancode+0xac>
c0102535:	80 7d ec e0          	cmpb   $0xe0,-0x14(%ebp)
c0102539:	75 0c                	jne    c0102547 <recieve_scancode+0x3d>
c010253b:	c6 05 5f 82 10 c0 01 	movb   $0x1,0xc010825f
c0102542:	e9 a0 00 00 00       	jmp    c01025e7 <recieve_scancode+0xdd>
c0102547:	0f b6 45 ec          	movzbl -0x14(%ebp),%eax
c010254b:	8b 04 85 20 60 10 c0 	mov    -0x3fef9fe0(,%eax,4),%eax
c0102552:	50                   	push   %eax
c0102553:	e8 0a fe ff ff       	call   c0102362 <handle_masks>
c0102558:	83 c4 04             	add    $0x4,%esp
c010255b:	84 c0                	test   %al,%al
c010255d:	0f 85 83 00 00 00    	jne    c01025e6 <recieve_scancode+0xdc>
c0102563:	0f b6 05 5e 82 10 c0 	movzbl 0xc010825e,%eax
c010256a:	0f b6 c0             	movzbl %al,%eax
c010256d:	8d 48 01             	lea    0x1(%eax),%ecx
c0102570:	ba 81 80 80 80       	mov    $0x80808081,%edx
c0102575:	89 c8                	mov    %ecx,%eax
c0102577:	f7 ea                	imul   %edx
c0102579:	8d 04 0a             	lea    (%edx,%ecx,1),%eax
c010257c:	c1 f8 07             	sar    $0x7,%eax
c010257f:	89 c2                	mov    %eax,%edx
c0102581:	89 c8                	mov    %ecx,%eax
c0102583:	c1 f8 1f             	sar    $0x1f,%eax
c0102586:	29 c2                	sub    %eax,%edx
c0102588:	89 d0                	mov    %edx,%eax
c010258a:	c1 e0 08             	shl    $0x8,%eax
c010258d:	29 d0                	sub    %edx,%eax
c010258f:	29 c1                	sub    %eax,%ecx
c0102591:	89 ca                	mov    %ecx,%edx
c0102593:	89 d0                	mov    %edx,%eax
c0102595:	a2 5e 82 10 c0       	mov    %al,0xc010825e
c010259a:	0f b6 45 ec          	movzbl -0x14(%ebp),%eax
c010259e:	8b 14 85 20 60 10 c0 	mov    -0x3fef9fe0(,%eax,4),%edx
c01025a5:	0f b6 05 5e 82 10 c0 	movzbl 0xc010825e,%eax
c01025ac:	0f b6 c0             	movzbl %al,%eax
c01025af:	88 94 00 60 80 10 c0 	mov    %dl,-0x3fef7fa0(%eax,%eax,1)
c01025b6:	0f b6 05 5f 82 10 c0 	movzbl 0xc010825f,%eax
c01025bd:	3c 01                	cmp    $0x1,%al
c01025bf:	75 26                	jne    c01025e7 <recieve_scancode+0xdd>
c01025c1:	c6 05 5f 82 10 c0 00 	movb   $0x0,0xc010825f
c01025c8:	0f b6 45 ec          	movzbl -0x14(%ebp),%eax
c01025cc:	8b 04 85 20 60 10 c0 	mov    -0x3fef9fe0(,%eax,4),%eax
c01025d3:	89 45 fc             	mov    %eax,-0x4(%ebp)
c01025d6:	ff 75 fc             	push   -0x4(%ebp)
c01025d9:	e8 84 fd ff ff       	call   c0102362 <handle_masks>
c01025de:	83 c4 04             	add    $0x4,%esp
c01025e1:	eb 04                	jmp    c01025e7 <recieve_scancode+0xdd>
c01025e3:	90                   	nop
c01025e4:	eb 01                	jmp    c01025e7 <recieve_scancode+0xdd>
c01025e6:	90                   	nop
c01025e7:	c9                   	leave
c01025e8:	c3                   	ret

c01025e9 <get_printable_char>:
c01025e9:	55                   	push   %ebp
c01025ea:	89 e5                	mov    %esp,%ebp
c01025ec:	83 ec 10             	sub    $0x10,%esp
c01025ef:	0f b6 45 09          	movzbl 0x9(%ebp),%eax
c01025f3:	83 e0 04             	and    $0x4,%eax
c01025f6:	88 45 ff             	mov    %al,-0x1(%ebp)
c01025f9:	0f b6 45 08          	movzbl 0x8(%ebp),%eax
c01025fd:	0f b6 c0             	movzbl %al,%eax
c0102600:	83 f8 45             	cmp    $0x45,%eax
c0102603:	0f 87 cd 04 00 00    	ja     c0102ad6 <get_printable_char+0x4ed>
c0102609:	8b 04 85 e0 51 10 c0 	mov    -0x3fefae20(,%eax,4),%eax
c0102610:	ff e0                	jmp    *%eax
c0102612:	80 7d ff 00          	cmpb   $0x0,-0x1(%ebp)
c0102616:	74 0a                	je     c0102622 <get_printable_char+0x39>
c0102618:	b8 41 00 00 00       	mov    $0x41,%eax
c010261d:	e9 b9 04 00 00       	jmp    c0102adb <get_printable_char+0x4f2>
c0102622:	b8 61 00 00 00       	mov    $0x61,%eax
c0102627:	e9 af 04 00 00       	jmp    c0102adb <get_printable_char+0x4f2>
c010262c:	80 7d ff 00          	cmpb   $0x0,-0x1(%ebp)
c0102630:	74 0a                	je     c010263c <get_printable_char+0x53>
c0102632:	b8 42 00 00 00       	mov    $0x42,%eax
c0102637:	e9 9f 04 00 00       	jmp    c0102adb <get_printable_char+0x4f2>
c010263c:	b8 62 00 00 00       	mov    $0x62,%eax
c0102641:	e9 95 04 00 00       	jmp    c0102adb <get_printable_char+0x4f2>
c0102646:	80 7d ff 00          	cmpb   $0x0,-0x1(%ebp)
c010264a:	74 0a                	je     c0102656 <get_printable_char+0x6d>
c010264c:	b8 43 00 00 00       	mov    $0x43,%eax
c0102651:	e9 85 04 00 00       	jmp    c0102adb <get_printable_char+0x4f2>
c0102656:	b8 63 00 00 00       	mov    $0x63,%eax
c010265b:	e9 7b 04 00 00       	jmp    c0102adb <get_printable_char+0x4f2>
c0102660:	80 7d ff 00          	cmpb   $0x0,-0x1(%ebp)
c0102664:	74 0a                	je     c0102670 <get_printable_char+0x87>
c0102666:	b8 44 00 00 00       	mov    $0x44,%eax
c010266b:	e9 6b 04 00 00       	jmp    c0102adb <get_printable_char+0x4f2>
c0102670:	b8 64 00 00 00       	mov    $0x64,%eax
c0102675:	e9 61 04 00 00       	jmp    c0102adb <get_printable_char+0x4f2>
c010267a:	80 7d ff 00          	cmpb   $0x0,-0x1(%ebp)
c010267e:	74 0a                	je     c010268a <get_printable_char+0xa1>
c0102680:	b8 45 00 00 00       	mov    $0x45,%eax
c0102685:	e9 51 04 00 00       	jmp    c0102adb <get_printable_char+0x4f2>
c010268a:	b8 65 00 00 00       	mov    $0x65,%eax
c010268f:	e9 47 04 00 00       	jmp    c0102adb <get_printable_char+0x4f2>
c0102694:	80 7d ff 00          	cmpb   $0x0,-0x1(%ebp)
c0102698:	74 0a                	je     c01026a4 <get_printable_char+0xbb>
c010269a:	b8 46 00 00 00       	mov    $0x46,%eax
c010269f:	e9 37 04 00 00       	jmp    c0102adb <get_printable_char+0x4f2>
c01026a4:	b8 66 00 00 00       	mov    $0x66,%eax
c01026a9:	e9 2d 04 00 00       	jmp    c0102adb <get_printable_char+0x4f2>
c01026ae:	80 7d ff 00          	cmpb   $0x0,-0x1(%ebp)
c01026b2:	74 0a                	je     c01026be <get_printable_char+0xd5>
c01026b4:	b8 47 00 00 00       	mov    $0x47,%eax
c01026b9:	e9 1d 04 00 00       	jmp    c0102adb <get_printable_char+0x4f2>
c01026be:	b8 67 00 00 00       	mov    $0x67,%eax
c01026c3:	e9 13 04 00 00       	jmp    c0102adb <get_printable_char+0x4f2>
c01026c8:	80 7d ff 00          	cmpb   $0x0,-0x1(%ebp)
c01026cc:	74 0a                	je     c01026d8 <get_printable_char+0xef>
c01026ce:	b8 48 00 00 00       	mov    $0x48,%eax
c01026d3:	e9 03 04 00 00       	jmp    c0102adb <get_printable_char+0x4f2>
c01026d8:	b8 68 00 00 00       	mov    $0x68,%eax
c01026dd:	e9 f9 03 00 00       	jmp    c0102adb <get_printable_char+0x4f2>
c01026e2:	80 7d ff 00          	cmpb   $0x0,-0x1(%ebp)
c01026e6:	74 0a                	je     c01026f2 <get_printable_char+0x109>
c01026e8:	b8 49 00 00 00       	mov    $0x49,%eax
c01026ed:	e9 e9 03 00 00       	jmp    c0102adb <get_printable_char+0x4f2>
c01026f2:	b8 69 00 00 00       	mov    $0x69,%eax
c01026f7:	e9 df 03 00 00       	jmp    c0102adb <get_printable_char+0x4f2>
c01026fc:	80 7d ff 00          	cmpb   $0x0,-0x1(%ebp)
c0102700:	74 0a                	je     c010270c <get_printable_char+0x123>
c0102702:	b8 4a 00 00 00       	mov    $0x4a,%eax
c0102707:	e9 cf 03 00 00       	jmp    c0102adb <get_printable_char+0x4f2>
c010270c:	b8 6a 00 00 00       	mov    $0x6a,%eax
c0102711:	e9 c5 03 00 00       	jmp    c0102adb <get_printable_char+0x4f2>
c0102716:	80 7d ff 00          	cmpb   $0x0,-0x1(%ebp)
c010271a:	74 0a                	je     c0102726 <get_printable_char+0x13d>
c010271c:	b8 4b 00 00 00       	mov    $0x4b,%eax
c0102721:	e9 b5 03 00 00       	jmp    c0102adb <get_printable_char+0x4f2>
c0102726:	b8 6b 00 00 00       	mov    $0x6b,%eax
c010272b:	e9 ab 03 00 00       	jmp    c0102adb <get_printable_char+0x4f2>
c0102730:	80 7d ff 00          	cmpb   $0x0,-0x1(%ebp)
c0102734:	74 0a                	je     c0102740 <get_printable_char+0x157>
c0102736:	b8 4c 00 00 00       	mov    $0x4c,%eax
c010273b:	e9 9b 03 00 00       	jmp    c0102adb <get_printable_char+0x4f2>
c0102740:	b8 6c 00 00 00       	mov    $0x6c,%eax
c0102745:	e9 91 03 00 00       	jmp    c0102adb <get_printable_char+0x4f2>
c010274a:	80 7d ff 00          	cmpb   $0x0,-0x1(%ebp)
c010274e:	74 0a                	je     c010275a <get_printable_char+0x171>
c0102750:	b8 4d 00 00 00       	mov    $0x4d,%eax
c0102755:	e9 81 03 00 00       	jmp    c0102adb <get_printable_char+0x4f2>
c010275a:	b8 6d 00 00 00       	mov    $0x6d,%eax
c010275f:	e9 77 03 00 00       	jmp    c0102adb <get_printable_char+0x4f2>
c0102764:	80 7d ff 00          	cmpb   $0x0,-0x1(%ebp)
c0102768:	74 0a                	je     c0102774 <get_printable_char+0x18b>
c010276a:	b8 4e 00 00 00       	mov    $0x4e,%eax
c010276f:	e9 67 03 00 00       	jmp    c0102adb <get_printable_char+0x4f2>
c0102774:	b8 6e 00 00 00       	mov    $0x6e,%eax
c0102779:	e9 5d 03 00 00       	jmp    c0102adb <get_printable_char+0x4f2>
c010277e:	80 7d ff 00          	cmpb   $0x0,-0x1(%ebp)
c0102782:	74 0a                	je     c010278e <get_printable_char+0x1a5>
c0102784:	b8 4f 00 00 00       	mov    $0x4f,%eax
c0102789:	e9 4d 03 00 00       	jmp    c0102adb <get_printable_char+0x4f2>
c010278e:	b8 6f 00 00 00       	mov    $0x6f,%eax
c0102793:	e9 43 03 00 00       	jmp    c0102adb <get_printable_char+0x4f2>
c0102798:	80 7d ff 00          	cmpb   $0x0,-0x1(%ebp)
c010279c:	74 0a                	je     c01027a8 <get_printable_char+0x1bf>
c010279e:	b8 50 00 00 00       	mov    $0x50,%eax
c01027a3:	e9 33 03 00 00       	jmp    c0102adb <get_printable_char+0x4f2>
c01027a8:	b8 70 00 00 00       	mov    $0x70,%eax
c01027ad:	e9 29 03 00 00       	jmp    c0102adb <get_printable_char+0x4f2>
c01027b2:	80 7d ff 00          	cmpb   $0x0,-0x1(%ebp)
c01027b6:	74 0a                	je     c01027c2 <get_printable_char+0x1d9>
c01027b8:	b8 51 00 00 00       	mov    $0x51,%eax
c01027bd:	e9 19 03 00 00       	jmp    c0102adb <get_printable_char+0x4f2>
c01027c2:	b8 71 00 00 00       	mov    $0x71,%eax
c01027c7:	e9 0f 03 00 00       	jmp    c0102adb <get_printable_char+0x4f2>
c01027cc:	80 7d ff 00          	cmpb   $0x0,-0x1(%ebp)
c01027d0:	74 0a                	je     c01027dc <get_printable_char+0x1f3>
c01027d2:	b8 52 00 00 00       	mov    $0x52,%eax
c01027d7:	e9 ff 02 00 00       	jmp    c0102adb <get_printable_char+0x4f2>
c01027dc:	b8 72 00 00 00       	mov    $0x72,%eax
c01027e1:	e9 f5 02 00 00       	jmp    c0102adb <get_printable_char+0x4f2>
c01027e6:	80 7d ff 00          	cmpb   $0x0,-0x1(%ebp)
c01027ea:	74 0a                	je     c01027f6 <get_printable_char+0x20d>
c01027ec:	b8 53 00 00 00       	mov    $0x53,%eax
c01027f1:	e9 e5 02 00 00       	jmp    c0102adb <get_printable_char+0x4f2>
c01027f6:	b8 73 00 00 00       	mov    $0x73,%eax
c01027fb:	e9 db 02 00 00       	jmp    c0102adb <get_printable_char+0x4f2>
c0102800:	80 7d ff 00          	cmpb   $0x0,-0x1(%ebp)
c0102804:	74 0a                	je     c0102810 <get_printable_char+0x227>
c0102806:	b8 54 00 00 00       	mov    $0x54,%eax
c010280b:	e9 cb 02 00 00       	jmp    c0102adb <get_printable_char+0x4f2>
c0102810:	b8 74 00 00 00       	mov    $0x74,%eax
c0102815:	e9 c1 02 00 00       	jmp    c0102adb <get_printable_char+0x4f2>
c010281a:	80 7d ff 00          	cmpb   $0x0,-0x1(%ebp)
c010281e:	74 0a                	je     c010282a <get_printable_char+0x241>
c0102820:	b8 55 00 00 00       	mov    $0x55,%eax
c0102825:	e9 b1 02 00 00       	jmp    c0102adb <get_printable_char+0x4f2>
c010282a:	b8 75 00 00 00       	mov    $0x75,%eax
c010282f:	e9 a7 02 00 00       	jmp    c0102adb <get_printable_char+0x4f2>
c0102834:	80 7d ff 00          	cmpb   $0x0,-0x1(%ebp)
c0102838:	74 0a                	je     c0102844 <get_printable_char+0x25b>
c010283a:	b8 56 00 00 00       	mov    $0x56,%eax
c010283f:	e9 97 02 00 00       	jmp    c0102adb <get_printable_char+0x4f2>
c0102844:	b8 76 00 00 00       	mov    $0x76,%eax
c0102849:	e9 8d 02 00 00       	jmp    c0102adb <get_printable_char+0x4f2>
c010284e:	80 7d ff 00          	cmpb   $0x0,-0x1(%ebp)
c0102852:	74 0a                	je     c010285e <get_printable_char+0x275>
c0102854:	b8 57 00 00 00       	mov    $0x57,%eax
c0102859:	e9 7d 02 00 00       	jmp    c0102adb <get_printable_char+0x4f2>
c010285e:	b8 77 00 00 00       	mov    $0x77,%eax
c0102863:	e9 73 02 00 00       	jmp    c0102adb <get_printable_char+0x4f2>
c0102868:	80 7d ff 00          	cmpb   $0x0,-0x1(%ebp)
c010286c:	74 0a                	je     c0102878 <get_printable_char+0x28f>
c010286e:	b8 58 00 00 00       	mov    $0x58,%eax
c0102873:	e9 63 02 00 00       	jmp    c0102adb <get_printable_char+0x4f2>
c0102878:	b8 78 00 00 00       	mov    $0x78,%eax
c010287d:	e9 59 02 00 00       	jmp    c0102adb <get_printable_char+0x4f2>
c0102882:	80 7d ff 00          	cmpb   $0x0,-0x1(%ebp)
c0102886:	74 0a                	je     c0102892 <get_printable_char+0x2a9>
c0102888:	b8 59 00 00 00       	mov    $0x59,%eax
c010288d:	e9 49 02 00 00       	jmp    c0102adb <get_printable_char+0x4f2>
c0102892:	b8 79 00 00 00       	mov    $0x79,%eax
c0102897:	e9 3f 02 00 00       	jmp    c0102adb <get_printable_char+0x4f2>
c010289c:	80 7d ff 00          	cmpb   $0x0,-0x1(%ebp)
c01028a0:	74 0a                	je     c01028ac <get_printable_char+0x2c3>
c01028a2:	b8 5a 00 00 00       	mov    $0x5a,%eax
c01028a7:	e9 2f 02 00 00       	jmp    c0102adb <get_printable_char+0x4f2>
c01028ac:	b8 7a 00 00 00       	mov    $0x7a,%eax
c01028b1:	e9 25 02 00 00       	jmp    c0102adb <get_printable_char+0x4f2>
c01028b6:	80 7d ff 00          	cmpb   $0x0,-0x1(%ebp)
c01028ba:	74 0a                	je     c01028c6 <get_printable_char+0x2dd>
c01028bc:	b8 21 00 00 00       	mov    $0x21,%eax
c01028c1:	e9 15 02 00 00       	jmp    c0102adb <get_printable_char+0x4f2>
c01028c6:	b8 31 00 00 00       	mov    $0x31,%eax
c01028cb:	e9 0b 02 00 00       	jmp    c0102adb <get_printable_char+0x4f2>
c01028d0:	80 7d ff 00          	cmpb   $0x0,-0x1(%ebp)
c01028d4:	74 0a                	je     c01028e0 <get_printable_char+0x2f7>
c01028d6:	b8 40 00 00 00       	mov    $0x40,%eax
c01028db:	e9 fb 01 00 00       	jmp    c0102adb <get_printable_char+0x4f2>
c01028e0:	b8 32 00 00 00       	mov    $0x32,%eax
c01028e5:	e9 f1 01 00 00       	jmp    c0102adb <get_printable_char+0x4f2>
c01028ea:	80 7d ff 00          	cmpb   $0x0,-0x1(%ebp)
c01028ee:	74 0a                	je     c01028fa <get_printable_char+0x311>
c01028f0:	b8 23 00 00 00       	mov    $0x23,%eax
c01028f5:	e9 e1 01 00 00       	jmp    c0102adb <get_printable_char+0x4f2>
c01028fa:	b8 33 00 00 00       	mov    $0x33,%eax
c01028ff:	e9 d7 01 00 00       	jmp    c0102adb <get_printable_char+0x4f2>
c0102904:	80 7d ff 00          	cmpb   $0x0,-0x1(%ebp)
c0102908:	74 0a                	je     c0102914 <get_printable_char+0x32b>
c010290a:	b8 24 00 00 00       	mov    $0x24,%eax
c010290f:	e9 c7 01 00 00       	jmp    c0102adb <get_printable_char+0x4f2>
c0102914:	b8 34 00 00 00       	mov    $0x34,%eax
c0102919:	e9 bd 01 00 00       	jmp    c0102adb <get_printable_char+0x4f2>
c010291e:	80 7d ff 00          	cmpb   $0x0,-0x1(%ebp)
c0102922:	74 0a                	je     c010292e <get_printable_char+0x345>
c0102924:	b8 25 00 00 00       	mov    $0x25,%eax
c0102929:	e9 ad 01 00 00       	jmp    c0102adb <get_printable_char+0x4f2>
c010292e:	b8 35 00 00 00       	mov    $0x35,%eax
c0102933:	e9 a3 01 00 00       	jmp    c0102adb <get_printable_char+0x4f2>
c0102938:	80 7d ff 00          	cmpb   $0x0,-0x1(%ebp)
c010293c:	74 0a                	je     c0102948 <get_printable_char+0x35f>
c010293e:	b8 5e 00 00 00       	mov    $0x5e,%eax
c0102943:	e9 93 01 00 00       	jmp    c0102adb <get_printable_char+0x4f2>
c0102948:	b8 36 00 00 00       	mov    $0x36,%eax
c010294d:	e9 89 01 00 00       	jmp    c0102adb <get_printable_char+0x4f2>
c0102952:	80 7d ff 00          	cmpb   $0x0,-0x1(%ebp)
c0102956:	74 0a                	je     c0102962 <get_printable_char+0x379>
c0102958:	b8 26 00 00 00       	mov    $0x26,%eax
c010295d:	e9 79 01 00 00       	jmp    c0102adb <get_printable_char+0x4f2>
c0102962:	b8 37 00 00 00       	mov    $0x37,%eax
c0102967:	e9 6f 01 00 00       	jmp    c0102adb <get_printable_char+0x4f2>
c010296c:	80 7d ff 00          	cmpb   $0x0,-0x1(%ebp)
c0102970:	74 0a                	je     c010297c <get_printable_char+0x393>
c0102972:	b8 2a 00 00 00       	mov    $0x2a,%eax
c0102977:	e9 5f 01 00 00       	jmp    c0102adb <get_printable_char+0x4f2>
c010297c:	b8 38 00 00 00       	mov    $0x38,%eax
c0102981:	e9 55 01 00 00       	jmp    c0102adb <get_printable_char+0x4f2>
c0102986:	80 7d ff 00          	cmpb   $0x0,-0x1(%ebp)
c010298a:	74 0a                	je     c0102996 <get_printable_char+0x3ad>
c010298c:	b8 28 00 00 00       	mov    $0x28,%eax
c0102991:	e9 45 01 00 00       	jmp    c0102adb <get_printable_char+0x4f2>
c0102996:	b8 39 00 00 00       	mov    $0x39,%eax
c010299b:	e9 3b 01 00 00       	jmp    c0102adb <get_printable_char+0x4f2>
c01029a0:	80 7d ff 00          	cmpb   $0x0,-0x1(%ebp)
c01029a4:	74 0a                	je     c01029b0 <get_printable_char+0x3c7>
c01029a6:	b8 29 00 00 00       	mov    $0x29,%eax
c01029ab:	e9 2b 01 00 00       	jmp    c0102adb <get_printable_char+0x4f2>
c01029b0:	b8 30 00 00 00       	mov    $0x30,%eax
c01029b5:	e9 21 01 00 00       	jmp    c0102adb <get_printable_char+0x4f2>
c01029ba:	80 7d ff 00          	cmpb   $0x0,-0x1(%ebp)
c01029be:	74 0a                	je     c01029ca <get_printable_char+0x3e1>
c01029c0:	b8 7b 00 00 00       	mov    $0x7b,%eax
c01029c5:	e9 11 01 00 00       	jmp    c0102adb <get_printable_char+0x4f2>
c01029ca:	b8 5b 00 00 00       	mov    $0x5b,%eax
c01029cf:	e9 07 01 00 00       	jmp    c0102adb <get_printable_char+0x4f2>
c01029d4:	80 7d ff 00          	cmpb   $0x0,-0x1(%ebp)
c01029d8:	74 0a                	je     c01029e4 <get_printable_char+0x3fb>
c01029da:	b8 7d 00 00 00       	mov    $0x7d,%eax
c01029df:	e9 f7 00 00 00       	jmp    c0102adb <get_printable_char+0x4f2>
c01029e4:	b8 5d 00 00 00       	mov    $0x5d,%eax
c01029e9:	e9 ed 00 00 00       	jmp    c0102adb <get_printable_char+0x4f2>
c01029ee:	80 7d ff 00          	cmpb   $0x0,-0x1(%ebp)
c01029f2:	74 0a                	je     c01029fe <get_printable_char+0x415>
c01029f4:	b8 3f 00 00 00       	mov    $0x3f,%eax
c01029f9:	e9 dd 00 00 00       	jmp    c0102adb <get_printable_char+0x4f2>
c01029fe:	b8 2f 00 00 00       	mov    $0x2f,%eax
c0102a03:	e9 d3 00 00 00       	jmp    c0102adb <get_printable_char+0x4f2>
c0102a08:	80 7d ff 00          	cmpb   $0x0,-0x1(%ebp)
c0102a0c:	74 0a                	je     c0102a18 <get_printable_char+0x42f>
c0102a0e:	b8 7c 00 00 00       	mov    $0x7c,%eax
c0102a13:	e9 c3 00 00 00       	jmp    c0102adb <get_printable_char+0x4f2>
c0102a18:	b8 5c 00 00 00       	mov    $0x5c,%eax
c0102a1d:	e9 b9 00 00 00       	jmp    c0102adb <get_printable_char+0x4f2>
c0102a22:	80 7d ff 00          	cmpb   $0x0,-0x1(%ebp)
c0102a26:	74 0a                	je     c0102a32 <get_printable_char+0x449>
c0102a28:	b8 22 00 00 00       	mov    $0x22,%eax
c0102a2d:	e9 a9 00 00 00       	jmp    c0102adb <get_printable_char+0x4f2>
c0102a32:	b8 27 00 00 00       	mov    $0x27,%eax
c0102a37:	e9 9f 00 00 00       	jmp    c0102adb <get_printable_char+0x4f2>
c0102a3c:	80 7d ff 00          	cmpb   $0x0,-0x1(%ebp)
c0102a40:	74 0a                	je     c0102a4c <get_printable_char+0x463>
c0102a42:	b8 3a 00 00 00       	mov    $0x3a,%eax
c0102a47:	e9 8f 00 00 00       	jmp    c0102adb <get_printable_char+0x4f2>
c0102a4c:	b8 3b 00 00 00       	mov    $0x3b,%eax
c0102a51:	e9 85 00 00 00       	jmp    c0102adb <get_printable_char+0x4f2>
c0102a56:	80 7d ff 00          	cmpb   $0x0,-0x1(%ebp)
c0102a5a:	74 07                	je     c0102a63 <get_printable_char+0x47a>
c0102a5c:	b8 3e 00 00 00       	mov    $0x3e,%eax
c0102a61:	eb 78                	jmp    c0102adb <get_printable_char+0x4f2>
c0102a63:	b8 2e 00 00 00       	mov    $0x2e,%eax
c0102a68:	eb 71                	jmp    c0102adb <get_printable_char+0x4f2>
c0102a6a:	80 7d ff 00          	cmpb   $0x0,-0x1(%ebp)
c0102a6e:	74 07                	je     c0102a77 <get_printable_char+0x48e>
c0102a70:	b8 3c 00 00 00       	mov    $0x3c,%eax
c0102a75:	eb 64                	jmp    c0102adb <get_printable_char+0x4f2>
c0102a77:	b8 2c 00 00 00       	mov    $0x2c,%eax
c0102a7c:	eb 5d                	jmp    c0102adb <get_printable_char+0x4f2>
c0102a7e:	80 7d ff 00          	cmpb   $0x0,-0x1(%ebp)
c0102a82:	74 07                	je     c0102a8b <get_printable_char+0x4a2>
c0102a84:	b8 2b 00 00 00       	mov    $0x2b,%eax
c0102a89:	eb 50                	jmp    c0102adb <get_printable_char+0x4f2>
c0102a8b:	b8 3d 00 00 00       	mov    $0x3d,%eax
c0102a90:	eb 49                	jmp    c0102adb <get_printable_char+0x4f2>
c0102a92:	80 7d ff 00          	cmpb   $0x0,-0x1(%ebp)
c0102a96:	74 07                	je     c0102a9f <get_printable_char+0x4b6>
c0102a98:	b8 5f 00 00 00       	mov    $0x5f,%eax
c0102a9d:	eb 3c                	jmp    c0102adb <get_printable_char+0x4f2>
c0102a9f:	b8 2d 00 00 00       	mov    $0x2d,%eax
c0102aa4:	eb 35                	jmp    c0102adb <get_printable_char+0x4f2>
c0102aa6:	80 7d ff 00          	cmpb   $0x0,-0x1(%ebp)
c0102aaa:	74 07                	je     c0102ab3 <get_printable_char+0x4ca>
c0102aac:	b8 7e 00 00 00       	mov    $0x7e,%eax
c0102ab1:	eb 28                	jmp    c0102adb <get_printable_char+0x4f2>
c0102ab3:	b8 60 00 00 00       	mov    $0x60,%eax
c0102ab8:	eb 21                	jmp    c0102adb <get_printable_char+0x4f2>
c0102aba:	b8 20 00 00 00       	mov    $0x20,%eax
c0102abf:	eb 1a                	jmp    c0102adb <get_printable_char+0x4f2>
c0102ac1:	b8 09 00 00 00       	mov    $0x9,%eax
c0102ac6:	eb 13                	jmp    c0102adb <get_printable_char+0x4f2>
c0102ac8:	b8 08 00 00 00       	mov    $0x8,%eax
c0102acd:	eb 0c                	jmp    c0102adb <get_printable_char+0x4f2>
c0102acf:	b8 0a 00 00 00       	mov    $0xa,%eax
c0102ad4:	eb 05                	jmp    c0102adb <get_printable_char+0x4f2>
c0102ad6:	b8 00 00 00 00       	mov    $0x0,%eax
c0102adb:	c9                   	leave
c0102adc:	c3                   	ret

c0102add <init_keyboard>:
c0102add:	55                   	push   %ebp
c0102ade:	89 e5                	mov    %esp,%ebp
c0102ae0:	83 ec 18             	sub    $0x18,%esp
c0102ae3:	83 ec 08             	sub    $0x8,%esp
c0102ae6:	6a 20                	push   $0x20
c0102ae8:	6a 64                	push   $0x64
c0102aea:	e8 15 1d 00 00       	call   c0104804 <outportb>
c0102aef:	83 c4 10             	add    $0x10,%esp
c0102af2:	83 ec 0c             	sub    $0xc,%esp
c0102af5:	6a 60                	push   $0x60
c0102af7:	e8 ef 1c 00 00       	call   c01047eb <inportb>
c0102afc:	83 c4 10             	add    $0x10,%esp
c0102aff:	88 45 f7             	mov    %al,-0x9(%ebp)
c0102b02:	e8 40 f8 ff ff       	call   c0102347 <io_wait>
c0102b07:	0f b6 45 f7          	movzbl -0x9(%ebp),%eax
c0102b0b:	83 ec 08             	sub    $0x8,%esp
c0102b0e:	50                   	push   %eax
c0102b0f:	68 f8 52 10 c0       	push   $0xc01052f8
c0102b14:	e8 fd 1f 00 00       	call   c0104b16 <logf>
c0102b19:	83 c4 10             	add    $0x10,%esp
c0102b1c:	83 ec 08             	sub    $0x8,%esp
c0102b1f:	68 f0 00 00 00       	push   $0xf0
c0102b24:	6a 60                	push   $0x60
c0102b26:	e8 d9 1c 00 00       	call   c0104804 <outportb>
c0102b2b:	83 c4 10             	add    $0x10,%esp
c0102b2e:	e8 14 f8 ff ff       	call   c0102347 <io_wait>
c0102b33:	83 ec 08             	sub    $0x8,%esp
c0102b36:	6a 02                	push   $0x2
c0102b38:	6a 60                	push   $0x60
c0102b3a:	e8 c5 1c 00 00       	call   c0104804 <outportb>
c0102b3f:	83 c4 10             	add    $0x10,%esp
c0102b42:	e8 00 f8 ff ff       	call   c0102347 <io_wait>
c0102b47:	83 ec 0c             	sub    $0xc,%esp
c0102b4a:	6a 60                	push   $0x60
c0102b4c:	e8 9a 1c 00 00       	call   c01047eb <inportb>
c0102b51:	83 c4 10             	add    $0x10,%esp
c0102b54:	88 45 f6             	mov    %al,-0xa(%ebp)
c0102b57:	e8 eb f7 ff ff       	call   c0102347 <io_wait>
c0102b5c:	83 ec 0c             	sub    $0xc,%esp
c0102b5f:	6a 60                	push   $0x60
c0102b61:	e8 85 1c 00 00       	call   c01047eb <inportb>
c0102b66:	83 c4 10             	add    $0x10,%esp
c0102b69:	88 45 f5             	mov    %al,-0xb(%ebp)
c0102b6c:	0f b6 55 f5          	movzbl -0xb(%ebp),%edx
c0102b70:	0f b6 45 f6          	movzbl -0xa(%ebp),%eax
c0102b74:	83 ec 04             	sub    $0x4,%esp
c0102b77:	52                   	push   %edx
c0102b78:	50                   	push   %eax
c0102b79:	68 08 53 10 c0       	push   $0xc0105308
c0102b7e:	e8 e8 e9 ff ff       	call   c010156b <printf>
c0102b83:	83 c4 10             	add    $0x10,%esp
c0102b86:	0f b6 45 f7          	movzbl -0x9(%ebp),%eax
c0102b8a:	c0 e8 06             	shr    $0x6,%al
c0102b8d:	84 c0                	test   %al,%al
c0102b8f:	75 18                	jne    c0102ba9 <init_keyboard+0xcc>
c0102b91:	80 7d f5 43          	cmpb   $0x43,-0xb(%ebp)
c0102b95:	74 12                	je     c0102ba9 <init_keyboard+0xcc>
c0102b97:	83 ec 0c             	sub    $0xc,%esp
c0102b9a:	68 2c 53 10 c0       	push   $0xc010532c
c0102b9f:	e8 eb 20 00 00       	call   c0104c8f <panic>
c0102ba4:	83 c4 10             	add    $0x10,%esp
c0102ba7:	eb 10                	jmp    c0102bb9 <init_keyboard+0xdc>
c0102ba9:	83 ec 0c             	sub    $0xc,%esp
c0102bac:	68 54 53 10 c0       	push   $0xc0105354
c0102bb1:	e8 60 1f 00 00       	call   c0104b16 <logf>
c0102bb6:	83 c4 10             	add    $0x10,%esp
c0102bb9:	83 ec 0c             	sub    $0xc,%esp
c0102bbc:	6a 04                	push   $0x4
c0102bbe:	e8 12 ee ff ff       	call   c01019d5 <kalloc>
c0102bc3:	83 c4 10             	add    $0x10,%esp
c0102bc6:	a3 44 80 10 c0       	mov    %eax,0xc0108044
c0102bcb:	c6 45 f4 12          	movb   $0x12,-0xc(%ebp)
c0102bcf:	0f b6 45 f4          	movzbl -0xc(%ebp),%eax
c0102bd3:	83 ec 08             	sub    $0x8,%esp
c0102bd6:	6a 32                	push   $0x32
c0102bd8:	50                   	push   %eax
c0102bd9:	e8 c3 f2 ff ff       	call   c0101ea1 <write_ioapic_register>
c0102bde:	83 c4 10             	add    $0x10,%esp
c0102be1:	83 ec 0c             	sub    $0xc,%esp
c0102be4:	68 78 53 10 c0       	push   $0xc0105378
c0102be9:	e8 7d e9 ff ff       	call   c010156b <printf>
c0102bee:	83 c4 10             	add    $0x10,%esp
c0102bf1:	90                   	nop
c0102bf2:	c9                   	leave
c0102bf3:	c3                   	ret

c0102bf4 <fb_set_width>:
c0102bf4:	55                   	push   %ebp
c0102bf5:	89 e5                	mov    %esp,%ebp
c0102bf7:	83 ec 04             	sub    $0x4,%esp
c0102bfa:	8b 45 08             	mov    0x8(%ebp),%eax
c0102bfd:	66 89 45 fc          	mov    %ax,-0x4(%ebp)
c0102c01:	0f b7 45 fc          	movzwl -0x4(%ebp),%eax
c0102c05:	66 a3 6c 82 10 c0    	mov    %ax,0xc010826c
c0102c0b:	90                   	nop
c0102c0c:	c9                   	leave
c0102c0d:	c3                   	ret

c0102c0e <fb_set_height>:
c0102c0e:	55                   	push   %ebp
c0102c0f:	89 e5                	mov    %esp,%ebp
c0102c11:	83 ec 04             	sub    $0x4,%esp
c0102c14:	8b 45 08             	mov    0x8(%ebp),%eax
c0102c17:	66 89 45 fc          	mov    %ax,-0x4(%ebp)
c0102c1b:	0f b7 45 fc          	movzwl -0x4(%ebp),%eax
c0102c1f:	66 a3 6e 82 10 c0    	mov    %ax,0xc010826e
c0102c25:	90                   	nop
c0102c26:	c9                   	leave
c0102c27:	c3                   	ret

c0102c28 <fb_put_glyph>:
c0102c28:	55                   	push   %ebp
c0102c29:	89 e5                	mov    %esp,%ebp
c0102c2b:	56                   	push   %esi
c0102c2c:	53                   	push   %ebx
c0102c2d:	83 ec 30             	sub    $0x30,%esp
c0102c30:	8b 5d 08             	mov    0x8(%ebp),%ebx
c0102c33:	8b 4d 0c             	mov    0xc(%ebp),%ecx
c0102c36:	8b 55 10             	mov    0x10(%ebp),%edx
c0102c39:	8b 45 1c             	mov    0x1c(%ebp),%eax
c0102c3c:	88 5d d4             	mov    %bl,-0x2c(%ebp)
c0102c3f:	66 89 4d d0          	mov    %cx,-0x30(%ebp)
c0102c43:	66 89 55 cc          	mov    %dx,-0x34(%ebp)
c0102c47:	66 89 45 c8          	mov    %ax,-0x38(%ebp)
c0102c4b:	0f be 45 d4          	movsbl -0x2c(%ebp),%eax
c0102c4f:	83 ec 0c             	sub    $0xc,%esp
c0102c52:	50                   	push   %eax
c0102c53:	e8 1c 01 00 00       	call   c0102d74 <get_glyph>
c0102c58:	83 c4 10             	add    $0x10,%esp
c0102c5b:	89 45 f4             	mov    %eax,-0xc(%ebp)
c0102c5e:	8b 45 14             	mov    0x14(%ebp),%eax
c0102c61:	c1 e8 18             	shr    $0x18,%eax
c0102c64:	88 45 e7             	mov    %al,-0x19(%ebp)
c0102c67:	8b 45 14             	mov    0x14(%ebp),%eax
c0102c6a:	c1 e8 10             	shr    $0x10,%eax
c0102c6d:	88 45 e6             	mov    %al,-0x1a(%ebp)
c0102c70:	8b 45 14             	mov    0x14(%ebp),%eax
c0102c73:	c1 e8 08             	shr    $0x8,%eax
c0102c76:	88 45 e5             	mov    %al,-0x1b(%ebp)
c0102c79:	8b 45 18             	mov    0x18(%ebp),%eax
c0102c7c:	c1 e8 18             	shr    $0x18,%eax
c0102c7f:	88 45 e4             	mov    %al,-0x1c(%ebp)
c0102c82:	8b 45 18             	mov    0x18(%ebp),%eax
c0102c85:	c1 e8 10             	shr    $0x10,%eax
c0102c88:	88 45 e3             	mov    %al,-0x1d(%ebp)
c0102c8b:	8b 45 18             	mov    0x18(%ebp),%eax
c0102c8e:	c1 e8 08             	shr    $0x8,%eax
c0102c91:	88 45 e2             	mov    %al,-0x1e(%ebp)
c0102c94:	c7 45 f0 00 00 00 00 	movl   $0x0,-0x10(%ebp)
c0102c9b:	e9 b6 00 00 00       	jmp    c0102d56 <fb_put_glyph+0x12e>
c0102ca0:	0f b7 55 cc          	movzwl -0x34(%ebp),%edx
c0102ca4:	0f b7 45 d0          	movzwl -0x30(%ebp),%eax
c0102ca8:	83 ec 08             	sub    $0x8,%esp
c0102cab:	52                   	push   %edx
c0102cac:	50                   	push   %eax
c0102cad:	e8 e0 0b 00 00       	call   c0103892 <get_pixel_addr>
c0102cb2:	83 c4 10             	add    $0x10,%esp
c0102cb5:	89 45 ec             	mov    %eax,-0x14(%ebp)
c0102cb8:	c7 45 e8 07 00 00 00 	movl   $0x7,-0x18(%ebp)
c0102cbf:	eb 7b                	jmp    c0102d3c <fb_put_glyph+0x114>
c0102cc1:	8b 45 f4             	mov    -0xc(%ebp),%eax
c0102cc4:	0f b6 00             	movzbl (%eax),%eax
c0102cc7:	0f b6 d0             	movzbl %al,%edx
c0102cca:	8b 45 e8             	mov    -0x18(%ebp),%eax
c0102ccd:	89 c1                	mov    %eax,%ecx
c0102ccf:	d3 fa                	sar    %cl,%edx
c0102cd1:	89 d0                	mov    %edx,%eax
c0102cd3:	83 e0 01             	and    $0x1,%eax
c0102cd6:	85 c0                	test   %eax,%eax
c0102cd8:	74 2b                	je     c0102d05 <fb_put_glyph+0xdd>
c0102cda:	0f b6 75 e5          	movzbl -0x1b(%ebp),%esi
c0102cde:	0f b6 5d e6          	movzbl -0x1a(%ebp),%ebx
c0102ce2:	0f b6 4d e7          	movzbl -0x19(%ebp),%ecx
c0102ce6:	0f b7 55 c8          	movzwl -0x38(%ebp),%edx
c0102cea:	0f b7 45 c8          	movzwl -0x38(%ebp),%eax
c0102cee:	83 ec 04             	sub    $0x4,%esp
c0102cf1:	6a 00                	push   $0x0
c0102cf3:	56                   	push   %esi
c0102cf4:	53                   	push   %ebx
c0102cf5:	51                   	push   %ecx
c0102cf6:	52                   	push   %edx
c0102cf7:	50                   	push   %eax
c0102cf8:	ff 75 ec             	push   -0x14(%ebp)
c0102cfb:	e8 9a 00 00 00       	call   c0102d9a <fill_square>
c0102d00:	83 c4 20             	add    $0x20,%esp
c0102d03:	eb 29                	jmp    c0102d2e <fb_put_glyph+0x106>
c0102d05:	0f b6 75 e2          	movzbl -0x1e(%ebp),%esi
c0102d09:	0f b6 5d e3          	movzbl -0x1d(%ebp),%ebx
c0102d0d:	0f b6 4d e4          	movzbl -0x1c(%ebp),%ecx
c0102d11:	0f b7 55 c8          	movzwl -0x38(%ebp),%edx
c0102d15:	0f b7 45 c8          	movzwl -0x38(%ebp),%eax
c0102d19:	83 ec 04             	sub    $0x4,%esp
c0102d1c:	6a 00                	push   $0x0
c0102d1e:	56                   	push   %esi
c0102d1f:	53                   	push   %ebx
c0102d20:	51                   	push   %ecx
c0102d21:	52                   	push   %edx
c0102d22:	50                   	push   %eax
c0102d23:	ff 75 ec             	push   -0x14(%ebp)
c0102d26:	e8 6f 00 00 00       	call   c0102d9a <fill_square>
c0102d2b:	83 c4 20             	add    $0x20,%esp
c0102d2e:	0f b7 45 c8          	movzwl -0x38(%ebp),%eax
c0102d32:	c1 e0 02             	shl    $0x2,%eax
c0102d35:	01 45 ec             	add    %eax,-0x14(%ebp)
c0102d38:	83 6d e8 01          	subl   $0x1,-0x18(%ebp)
c0102d3c:	83 7d e8 00          	cmpl   $0x0,-0x18(%ebp)
c0102d40:	0f 89 7b ff ff ff    	jns    c0102cc1 <fb_put_glyph+0x99>
c0102d46:	0f b7 45 c8          	movzwl -0x38(%ebp),%eax
c0102d4a:	66 01 45 cc          	add    %ax,-0x34(%ebp)
c0102d4e:	83 45 f4 01          	addl   $0x1,-0xc(%ebp)
c0102d52:	83 45 f0 01          	addl   $0x1,-0x10(%ebp)
c0102d56:	a1 64 82 10 c0       	mov    0xc0108264,%eax
c0102d5b:	0f b6 40 03          	movzbl 0x3(%eax),%eax
c0102d5f:	0f b6 c0             	movzbl %al,%eax
c0102d62:	39 45 f0             	cmp    %eax,-0x10(%ebp)
c0102d65:	0f 8c 35 ff ff ff    	jl     c0102ca0 <fb_put_glyph+0x78>
c0102d6b:	90                   	nop
c0102d6c:	90                   	nop
c0102d6d:	8d 65 f8             	lea    -0x8(%ebp),%esp
c0102d70:	5b                   	pop    %ebx
c0102d71:	5e                   	pop    %esi
c0102d72:	5d                   	pop    %ebp
c0102d73:	c3                   	ret

c0102d74 <get_glyph>:
c0102d74:	55                   	push   %ebp
c0102d75:	89 e5                	mov    %esp,%ebp
c0102d77:	83 ec 10             	sub    $0x10,%esp
c0102d7a:	a1 64 82 10 c0       	mov    0xc0108264,%eax
c0102d7f:	0f b6 40 03          	movzbl 0x3(%eax),%eax
c0102d83:	0f b6 c0             	movzbl %al,%eax
c0102d86:	0f af 45 08          	imul   0x8(%ebp),%eax
c0102d8a:	83 c0 04             	add    $0x4,%eax
c0102d8d:	05 90 61 10 c0       	add    $0xc0106190,%eax
c0102d92:	89 45 fc             	mov    %eax,-0x4(%ebp)
c0102d95:	8b 45 fc             	mov    -0x4(%ebp),%eax
c0102d98:	c9                   	leave
c0102d99:	c3                   	ret

c0102d9a <fill_square>:
c0102d9a:	55                   	push   %ebp
c0102d9b:	89 e5                	mov    %esp,%ebp
c0102d9d:	57                   	push   %edi
c0102d9e:	56                   	push   %esi
c0102d9f:	53                   	push   %ebx
c0102da0:	83 ec 28             	sub    $0x28,%esp
c0102da3:	8b 7d 0c             	mov    0xc(%ebp),%edi
c0102da6:	8b 75 10             	mov    0x10(%ebp),%esi
c0102da9:	8b 5d 14             	mov    0x14(%ebp),%ebx
c0102dac:	8b 4d 18             	mov    0x18(%ebp),%ecx
c0102daf:	8b 55 1c             	mov    0x1c(%ebp),%edx
c0102db2:	8b 45 20             	mov    0x20(%ebp),%eax
c0102db5:	66 89 7d e0          	mov    %di,-0x20(%ebp)
c0102db9:	66 89 75 dc          	mov    %si,-0x24(%ebp)
c0102dbd:	88 5d d8             	mov    %bl,-0x28(%ebp)
c0102dc0:	88 4d d4             	mov    %cl,-0x2c(%ebp)
c0102dc3:	88 55 d0             	mov    %dl,-0x30(%ebp)
c0102dc6:	88 45 cc             	mov    %al,-0x34(%ebp)
c0102dc9:	8b 45 08             	mov    0x8(%ebp),%eax
c0102dcc:	89 45 f0             	mov    %eax,-0x10(%ebp)
c0102dcf:	c6 45 e7 04          	movb   $0x4,-0x19(%ebp)
c0102dd3:	c7 45 ec 00 00 00 00 	movl   $0x0,-0x14(%ebp)
c0102dda:	eb 66                	jmp    c0102e42 <fill_square+0xa8>
c0102ddc:	c7 45 e8 00 00 00 00 	movl   $0x0,-0x18(%ebp)
c0102de3:	eb 45                	jmp    c0102e2a <fill_square+0x90>
c0102de5:	0f b6 45 e7          	movzbl -0x19(%ebp),%eax
c0102de9:	0f af 45 e8          	imul   -0x18(%ebp),%eax
c0102ded:	89 c2                	mov    %eax,%edx
c0102def:	8b 45 f0             	mov    -0x10(%ebp),%eax
c0102df2:	01 c2                	add    %eax,%edx
c0102df4:	0f b6 45 d0          	movzbl -0x30(%ebp),%eax
c0102df8:	88 02                	mov    %al,(%edx)
c0102dfa:	0f b6 45 e7          	movzbl -0x19(%ebp),%eax
c0102dfe:	0f af 45 e8          	imul   -0x18(%ebp),%eax
c0102e02:	8d 50 01             	lea    0x1(%eax),%edx
c0102e05:	8b 45 f0             	mov    -0x10(%ebp),%eax
c0102e08:	01 c2                	add    %eax,%edx
c0102e0a:	0f b6 45 d4          	movzbl -0x2c(%ebp),%eax
c0102e0e:	88 02                	mov    %al,(%edx)
c0102e10:	0f b6 45 e7          	movzbl -0x19(%ebp),%eax
c0102e14:	0f af 45 e8          	imul   -0x18(%ebp),%eax
c0102e18:	8d 50 02             	lea    0x2(%eax),%edx
c0102e1b:	8b 45 f0             	mov    -0x10(%ebp),%eax
c0102e1e:	01 c2                	add    %eax,%edx
c0102e20:	0f b6 45 d8          	movzbl -0x28(%ebp),%eax
c0102e24:	88 02                	mov    %al,(%edx)
c0102e26:	83 45 e8 01          	addl   $0x1,-0x18(%ebp)
c0102e2a:	0f b7 45 e0          	movzwl -0x20(%ebp),%eax
c0102e2e:	39 45 e8             	cmp    %eax,-0x18(%ebp)
c0102e31:	7c b2                	jl     c0102de5 <fill_square+0x4b>
c0102e33:	a1 1c b0 10 c0       	mov    0xc010b01c,%eax
c0102e38:	8b 40 10             	mov    0x10(%eax),%eax
c0102e3b:	01 45 f0             	add    %eax,-0x10(%ebp)
c0102e3e:	83 45 ec 01          	addl   $0x1,-0x14(%ebp)
c0102e42:	0f b7 45 dc          	movzwl -0x24(%ebp),%eax
c0102e46:	39 45 ec             	cmp    %eax,-0x14(%ebp)
c0102e49:	7c 91                	jl     c0102ddc <fill_square+0x42>
c0102e4b:	90                   	nop
c0102e4c:	90                   	nop
c0102e4d:	83 c4 28             	add    $0x28,%esp
c0102e50:	5b                   	pop    %ebx
c0102e51:	5e                   	pop    %esi
c0102e52:	5f                   	pop    %edi
c0102e53:	5d                   	pop    %ebp
c0102e54:	c3                   	ret

c0102e55 <init_font>:
c0102e55:	55                   	push   %ebp
c0102e56:	89 e5                	mov    %esp,%ebp
c0102e58:	83 ec 08             	sub    $0x8,%esp
c0102e5b:	c7 05 64 82 10 c0 90 	movl   $0xc0106190,0xc0108264
c0102e62:	61 10 c0 
c0102e65:	a1 64 82 10 c0       	mov    0xc0108264,%eax
c0102e6a:	0f b6 00             	movzbl (%eax),%eax
c0102e6d:	3c 36                	cmp    $0x36,%al
c0102e6f:	75 39                	jne    c0102eaa <init_font+0x55>
c0102e71:	a1 64 82 10 c0       	mov    0xc0108264,%eax
c0102e76:	0f b6 40 01          	movzbl 0x1(%eax),%eax
c0102e7a:	3c 04                	cmp    $0x4,%al
c0102e7c:	75 2c                	jne    c0102eaa <init_font+0x55>
c0102e7e:	a1 64 82 10 c0       	mov    0xc0108264,%eax
c0102e83:	0f b6 40 03          	movzbl 0x3(%eax),%eax
c0102e87:	0f b6 d0             	movzbl %al,%edx
c0102e8a:	a1 64 82 10 c0       	mov    0xc0108264,%eax
c0102e8f:	0f b6 40 02          	movzbl 0x2(%eax),%eax
c0102e93:	0f b6 c0             	movzbl %al,%eax
c0102e96:	83 ec 04             	sub    $0x4,%esp
c0102e99:	52                   	push   %edx
c0102e9a:	50                   	push   %eax
c0102e9b:	68 98 53 10 c0       	push   $0xc0105398
c0102ea0:	e8 71 1c 00 00       	call   c0104b16 <logf>
c0102ea5:	83 c4 10             	add    $0x10,%esp
c0102ea8:	eb 01                	jmp    c0102eab <init_font+0x56>
c0102eaa:	90                   	nop
c0102eab:	c9                   	leave
c0102eac:	c3                   	ret

c0102ead <put_pixel>:
c0102ead:	55                   	push   %ebp
c0102eae:	89 e5                	mov    %esp,%ebp
c0102eb0:	83 ec 18             	sub    $0x18,%esp
c0102eb3:	83 ec 08             	sub    $0x8,%esp
c0102eb6:	ff 75 0c             	push   0xc(%ebp)
c0102eb9:	ff 75 08             	push   0x8(%ebp)
c0102ebc:	e8 d1 09 00 00       	call   c0103892 <get_pixel_addr>
c0102ec1:	83 c4 10             	add    $0x10,%esp
c0102ec4:	89 45 f4             	mov    %eax,-0xc(%ebp)
c0102ec7:	8b 45 f4             	mov    -0xc(%ebp),%eax
c0102eca:	8b 55 10             	mov    0x10(%ebp),%edx
c0102ecd:	89 10                	mov    %edx,(%eax)
c0102ecf:	90                   	nop
c0102ed0:	c9                   	leave
c0102ed1:	c3                   	ret
c0102ed2:	c7 05 00 90 10 c0 00 	movl   $0x0,0xc0109000
c0102ed9:	00 00 00 
c0102edc:	0f 20 d9             	mov    %cr3,%ecx
c0102edf:	0f 22 d9             	mov    %ecx,%cr3
c0102ee2:	53                   	push   %ebx
c0102ee3:	68 00 90 10 c0       	push   $0xc0109000
c0102ee8:	e8 ba 1d 00 00       	call   c0104ca7 <kernel_main>
c0102eed:	fa                   	cli
c0102eee:	f4                   	hlt
c0102eef:	eb fd                	jmp    c0102eee <put_pixel+0x41>

c0102ef1 <load_directory>:
c0102ef1:	55                   	push   %ebp
c0102ef2:	89 e5                	mov    %esp,%ebp
c0102ef4:	8b 45 08             	mov    0x8(%ebp),%eax
c0102ef7:	0f 22 d8             	mov    %eax,%cr3
c0102efa:	89 ec                	mov    %ebp,%esp
c0102efc:	5d                   	pop    %ebp
c0102efd:	c3                   	ret

c0102efe <enable_paging>:
c0102efe:	55                   	push   %ebp
c0102eff:	89 e5                	mov    %esp,%ebp
c0102f01:	0f 20 c0             	mov    %cr0,%eax
c0102f04:	0d 00 00 00 80       	or     $0x80000000,%eax
c0102f09:	0f 22 c0             	mov    %eax,%cr0
c0102f0c:	89 ec                	mov    %ebp,%esp
c0102f0e:	5d                   	pop    %ebp
c0102f0f:	c3                   	ret

c0102f10 <flush_gdt>:
c0102f10:	8b 44 24 04          	mov    0x4(%esp),%eax
c0102f14:	fa                   	cli
c0102f15:	0f 01 10             	lgdtl  (%eax)
c0102f18:	66 b8 10 00          	mov    $0x10,%ax
c0102f1c:	8e d8                	mov    %eax,%ds
c0102f1e:	8e c0                	mov    %eax,%es
c0102f20:	8e e0                	mov    %eax,%fs
c0102f22:	8e e8                	mov    %eax,%gs
c0102f24:	8e d0                	mov    %eax,%ss
c0102f26:	ea 2d 2f 10 c0 08 00 	ljmp   $0x8,$0xc0102f2d

c0102f2d <flush>:
c0102f2d:	c3                   	ret

c0102f2e <set_memory_map>:
c0102f2e:	55                   	push   %ebp
c0102f2f:	89 e5                	mov    %esp,%ebp
c0102f31:	53                   	push   %ebx
c0102f32:	83 ec 24             	sub    $0x24,%esp
c0102f35:	8b 45 08             	mov    0x8(%ebp),%eax
c0102f38:	8b 40 04             	mov    0x4(%eax),%eax
c0102f3b:	8d 48 f0             	lea    -0x10(%eax),%ecx
c0102f3e:	8b 45 08             	mov    0x8(%ebp),%eax
c0102f41:	8b 58 08             	mov    0x8(%eax),%ebx
c0102f44:	89 c8                	mov    %ecx,%eax
c0102f46:	ba 00 00 00 00       	mov    $0x0,%edx
c0102f4b:	f7 f3                	div    %ebx
c0102f4d:	89 45 f0             	mov    %eax,-0x10(%ebp)
c0102f50:	c7 45 f4 00 00 00 00 	movl   $0x0,-0xc(%ebp)
c0102f57:	e9 80 00 00 00       	jmp    c0102fdc <set_memory_map+0xae>
c0102f5c:	8b 4d 08             	mov    0x8(%ebp),%ecx
c0102f5f:	8b 55 f4             	mov    -0xc(%ebp),%edx
c0102f62:	89 d0                	mov    %edx,%eax
c0102f64:	01 c0                	add    %eax,%eax
c0102f66:	01 d0                	add    %edx,%eax
c0102f68:	c1 e0 03             	shl    $0x3,%eax
c0102f6b:	01 c8                	add    %ecx,%eax
c0102f6d:	83 c0 10             	add    $0x10,%eax
c0102f70:	8b 10                	mov    (%eax),%edx
c0102f72:	89 55 d8             	mov    %edx,-0x28(%ebp)
c0102f75:	8b 50 04             	mov    0x4(%eax),%edx
c0102f78:	89 55 dc             	mov    %edx,-0x24(%ebp)
c0102f7b:	8b 50 08             	mov    0x8(%eax),%edx
c0102f7e:	89 55 e0             	mov    %edx,-0x20(%ebp)
c0102f81:	8b 50 0c             	mov    0xc(%eax),%edx
c0102f84:	89 55 e4             	mov    %edx,-0x1c(%ebp)
c0102f87:	8b 50 10             	mov    0x10(%eax),%edx
c0102f8a:	89 55 e8             	mov    %edx,-0x18(%ebp)
c0102f8d:	8b 40 14             	mov    0x14(%eax),%eax
c0102f90:	89 45 ec             	mov    %eax,-0x14(%ebp)
c0102f93:	8b 45 e8             	mov    -0x18(%ebp),%eax
c0102f96:	83 f8 01             	cmp    $0x1,%eax
c0102f99:	75 3d                	jne    c0102fd8 <set_memory_map+0xaa>
c0102f9b:	8b 45 d8             	mov    -0x28(%ebp),%eax
c0102f9e:	8b 55 dc             	mov    -0x24(%ebp),%edx
c0102fa1:	a3 88 61 10 c0       	mov    %eax,0xc0106188
c0102fa6:	8b 45 d8             	mov    -0x28(%ebp),%eax
c0102fa9:	8b 55 dc             	mov    -0x24(%ebp),%edx
c0102fac:	89 c1                	mov    %eax,%ecx
c0102fae:	8b 45 e0             	mov    -0x20(%ebp),%eax
c0102fb1:	8b 55 e4             	mov    -0x1c(%ebp),%edx
c0102fb4:	01 c8                	add    %ecx,%eax
c0102fb6:	a3 84 61 10 c0       	mov    %eax,0xc0106184
c0102fbb:	8b 15 84 61 10 c0    	mov    0xc0106184,%edx
c0102fc1:	a1 88 61 10 c0       	mov    0xc0106188,%eax
c0102fc6:	83 ec 04             	sub    $0x4,%esp
c0102fc9:	52                   	push   %edx
c0102fca:	50                   	push   %eax
c0102fcb:	68 b8 53 10 c0       	push   $0xc01053b8
c0102fd0:	e8 41 1b 00 00       	call   c0104b16 <logf>
c0102fd5:	83 c4 10             	add    $0x10,%esp
c0102fd8:	83 45 f4 01          	addl   $0x1,-0xc(%ebp)
c0102fdc:	8b 45 f4             	mov    -0xc(%ebp),%eax
c0102fdf:	3b 45 f0             	cmp    -0x10(%ebp),%eax
c0102fe2:	0f 8c 74 ff ff ff    	jl     c0102f5c <set_memory_map+0x2e>
c0102fe8:	90                   	nop
c0102fe9:	90                   	nop
c0102fea:	8b 5d fc             	mov    -0x4(%ebp),%ebx
c0102fed:	c9                   	leave
c0102fee:	c3                   	ret

c0102fef <pre_malloc>:
c0102fef:	55                   	push   %ebp
c0102ff0:	89 e5                	mov    %esp,%ebp
c0102ff2:	83 ec 10             	sub    $0x10,%esp
c0102ff5:	a1 8c 61 10 c0       	mov    0xc010618c,%eax
c0102ffa:	05 ff 03 00 00       	add    $0x3ff,%eax
c0102fff:	25 00 fc ff ff       	and    $0xfffffc00,%eax
c0103004:	89 45 fc             	mov    %eax,-0x4(%ebp)
c0103007:	8b 45 08             	mov    0x8(%ebp),%eax
c010300a:	05 ff 03 00 00       	add    $0x3ff,%eax
c010300f:	25 00 fc ff ff       	and    $0xfffffc00,%eax
c0103014:	89 c2                	mov    %eax,%edx
c0103016:	a1 8c 61 10 c0       	mov    0xc010618c,%eax
c010301b:	01 d0                	add    %edx,%eax
c010301d:	a3 8c 61 10 c0       	mov    %eax,0xc010618c
c0103022:	83 7d 0c 00          	cmpl   $0x0,0xc(%ebp)
c0103026:	74 0e                	je     c0103036 <pre_malloc+0x47>
c0103028:	8b 45 fc             	mov    -0x4(%ebp),%eax
c010302b:	8d 90 00 00 00 40    	lea    0x40000000(%eax),%edx
c0103031:	8b 45 0c             	mov    0xc(%ebp),%eax
c0103034:	89 10                	mov    %edx,(%eax)
c0103036:	8b 45 fc             	mov    -0x4(%ebp),%eax
c0103039:	c9                   	leave
c010303a:	c3                   	ret

c010303b <get_first_frame>:
c010303b:	55                   	push   %ebp
c010303c:	89 e5                	mov    %esp,%ebp
c010303e:	83 ec 10             	sub    $0x10,%esp
c0103041:	c7 45 fc 00 00 00 00 	movl   $0x0,-0x4(%ebp)
c0103048:	eb 6b                	jmp    c01030b5 <get_first_frame+0x7a>
c010304a:	a1 00 b0 10 c0       	mov    0xc010b000,%eax
c010304f:	8b 55 fc             	mov    -0x4(%ebp),%edx
c0103052:	c1 e2 02             	shl    $0x2,%edx
c0103055:	01 d0                	add    %edx,%eax
c0103057:	8b 00                	mov    (%eax),%eax
c0103059:	83 f8 ff             	cmp    $0xffffffff,%eax
c010305c:	74 53                	je     c01030b1 <get_first_frame+0x76>
c010305e:	c7 45 f8 00 00 00 00 	movl   $0x0,-0x8(%ebp)
c0103065:	eb 44                	jmp    c01030ab <get_first_frame+0x70>
c0103067:	8b 45 f8             	mov    -0x8(%ebp),%eax
c010306a:	ba 01 00 00 00       	mov    $0x1,%edx
c010306f:	89 c1                	mov    %eax,%ecx
c0103071:	d3 e2                	shl    %cl,%edx
c0103073:	89 d0                	mov    %edx,%eax
c0103075:	89 45 f4             	mov    %eax,-0xc(%ebp)
c0103078:	a1 00 b0 10 c0       	mov    0xc010b000,%eax
c010307d:	8b 55 fc             	mov    -0x4(%ebp),%edx
c0103080:	c1 e2 02             	shl    $0x2,%edx
c0103083:	01 d0                	add    %edx,%eax
c0103085:	8b 00                	mov    (%eax),%eax
c0103087:	23 45 f4             	and    -0xc(%ebp),%eax
c010308a:	85 c0                	test   %eax,%eax
c010308c:	75 19                	jne    c01030a7 <get_first_frame+0x6c>
c010308e:	8b 45 fc             	mov    -0x4(%ebp),%eax
c0103091:	c1 e0 05             	shl    $0x5,%eax
c0103094:	89 c2                	mov    %eax,%edx
c0103096:	8b 45 f8             	mov    -0x8(%ebp),%eax
c0103099:	01 d0                	add    %edx,%eax
c010309b:	a3 08 b0 10 c0       	mov    %eax,0xc010b008
c01030a0:	a1 08 b0 10 c0       	mov    0xc010b008,%eax
c01030a5:	eb 1d                	jmp    c01030c4 <get_first_frame+0x89>
c01030a7:	83 45 f8 01          	addl   $0x1,-0x8(%ebp)
c01030ab:	83 7d f8 1f          	cmpl   $0x1f,-0x8(%ebp)
c01030af:	7e b6                	jle    c0103067 <get_first_frame+0x2c>
c01030b1:	83 45 fc 01          	addl   $0x1,-0x4(%ebp)
c01030b5:	a1 04 b0 10 c0       	mov    0xc010b004,%eax
c01030ba:	39 45 fc             	cmp    %eax,-0x4(%ebp)
c01030bd:	72 8b                	jb     c010304a <get_first_frame+0xf>
c01030bf:	b8 ff ff ff ff       	mov    $0xffffffff,%eax
c01030c4:	c9                   	leave
c01030c5:	c3                   	ret

c01030c6 <clear_frame>:
c01030c6:	55                   	push   %ebp
c01030c7:	89 e5                	mov    %esp,%ebp
c01030c9:	53                   	push   %ebx
c01030ca:	8b 0d 00 b0 10 c0    	mov    0xc010b000,%ecx
c01030d0:	8b 45 08             	mov    0x8(%ebp),%eax
c01030d3:	c1 e8 05             	shr    $0x5,%eax
c01030d6:	8d 14 85 00 00 00 00 	lea    0x0(,%eax,4),%edx
c01030dd:	01 ca                	add    %ecx,%edx
c01030df:	8b 12                	mov    (%edx),%edx
c01030e1:	8b 4d 08             	mov    0x8(%ebp),%ecx
c01030e4:	83 e1 1f             	and    $0x1f,%ecx
c01030e7:	bb 01 00 00 00       	mov    $0x1,%ebx
c01030ec:	d3 e3                	shl    %cl,%ebx
c01030ee:	89 d9                	mov    %ebx,%ecx
c01030f0:	f7 d1                	not    %ecx
c01030f2:	89 cb                	mov    %ecx,%ebx
c01030f4:	8b 0d 00 b0 10 c0    	mov    0xc010b000,%ecx
c01030fa:	c1 e0 02             	shl    $0x2,%eax
c01030fd:	01 c8                	add    %ecx,%eax
c01030ff:	21 da                	and    %ebx,%edx
c0103101:	89 10                	mov    %edx,(%eax)
c0103103:	90                   	nop
c0103104:	8b 5d fc             	mov    -0x4(%ebp),%ebx
c0103107:	c9                   	leave
c0103108:	c3                   	ret

c0103109 <set_frame>:
c0103109:	55                   	push   %ebp
c010310a:	89 e5                	mov    %esp,%ebp
c010310c:	53                   	push   %ebx
c010310d:	83 ec 10             	sub    $0x10,%esp
c0103110:	8b 45 08             	mov    0x8(%ebp),%eax
c0103113:	c1 e8 05             	shr    $0x5,%eax
c0103116:	89 45 f8             	mov    %eax,-0x8(%ebp)
c0103119:	8b 45 08             	mov    0x8(%ebp),%eax
c010311c:	83 e0 1f             	and    $0x1f,%eax
c010311f:	89 45 f4             	mov    %eax,-0xc(%ebp)
c0103122:	a1 00 b0 10 c0       	mov    0xc010b000,%eax
c0103127:	8b 55 f8             	mov    -0x8(%ebp),%edx
c010312a:	c1 e2 02             	shl    $0x2,%edx
c010312d:	01 d0                	add    %edx,%eax
c010312f:	8b 10                	mov    (%eax),%edx
c0103131:	8b 45 f4             	mov    -0xc(%ebp),%eax
c0103134:	bb 01 00 00 00       	mov    $0x1,%ebx
c0103139:	89 c1                	mov    %eax,%ecx
c010313b:	d3 e3                	shl    %cl,%ebx
c010313d:	89 d8                	mov    %ebx,%eax
c010313f:	89 c3                	mov    %eax,%ebx
c0103141:	a1 00 b0 10 c0       	mov    0xc010b000,%eax
c0103146:	8b 4d f8             	mov    -0x8(%ebp),%ecx
c0103149:	c1 e1 02             	shl    $0x2,%ecx
c010314c:	01 c8                	add    %ecx,%eax
c010314e:	09 da                	or     %ebx,%edx
c0103150:	89 10                	mov    %edx,(%eax)
c0103152:	90                   	nop
c0103153:	8b 5d fc             	mov    -0x4(%ebp),%ebx
c0103156:	c9                   	leave
c0103157:	c3                   	ret

c0103158 <frame_to_physical>:
c0103158:	55                   	push   %ebp
c0103159:	89 e5                	mov    %esp,%ebp
c010315b:	8b 45 08             	mov    0x8(%ebp),%eax
c010315e:	05 00 01 00 00       	add    $0x100,%eax
c0103163:	c1 e0 0c             	shl    $0xc,%eax
c0103166:	5d                   	pop    %ebp
c0103167:	c3                   	ret

c0103168 <physical_to_frame>:
c0103168:	55                   	push   %ebp
c0103169:	89 e5                	mov    %esp,%ebp
c010316b:	8b 45 08             	mov    0x8(%ebp),%eax
c010316e:	2d 00 00 10 00       	sub    $0x100000,%eax
c0103173:	c1 e8 0c             	shr    $0xc,%eax
c0103176:	5d                   	pop    %ebp
c0103177:	c3                   	ret

c0103178 <alloc_phys_page>:
c0103178:	55                   	push   %ebp
c0103179:	89 e5                	mov    %esp,%ebp
c010317b:	83 ec 18             	sub    $0x18,%esp
c010317e:	e8 b8 fe ff ff       	call   c010303b <get_first_frame>
c0103183:	89 45 f4             	mov    %eax,-0xc(%ebp)
c0103186:	83 7d f4 ff          	cmpl   $0xffffffff,-0xc(%ebp)
c010318a:	75 07                	jne    c0103193 <alloc_phys_page+0x1b>
c010318c:	b8 00 00 00 00       	mov    $0x0,%eax
c0103191:	eb 3b                	jmp    c01031ce <alloc_phys_page+0x56>
c0103193:	ff 75 f4             	push   -0xc(%ebp)
c0103196:	e8 6e ff ff ff       	call   c0103109 <set_frame>
c010319b:	83 c4 04             	add    $0x4,%esp
c010319e:	ff 75 f4             	push   -0xc(%ebp)
c01031a1:	e8 b2 ff ff ff       	call   c0103158 <frame_to_physical>
c01031a6:	83 c4 04             	add    $0x4,%esp
c01031a9:	3d 00 00 00 01       	cmp    $0x1000000,%eax
c01031ae:	76 10                	jbe    c01031c0 <alloc_phys_page+0x48>
c01031b0:	83 ec 0c             	sub    $0xc,%esp
c01031b3:	68 d8 53 10 c0       	push   $0xc01053d8
c01031b8:	e8 d2 1a 00 00       	call   c0104c8f <panic>
c01031bd:	83 c4 10             	add    $0x10,%esp
c01031c0:	83 ec 0c             	sub    $0xc,%esp
c01031c3:	ff 75 f4             	push   -0xc(%ebp)
c01031c6:	e8 8d ff ff ff       	call   c0103158 <frame_to_physical>
c01031cb:	83 c4 10             	add    $0x10,%esp
c01031ce:	c9                   	leave
c01031cf:	c3                   	ret

c01031d0 <transfer_dynamic>:
c01031d0:	55                   	push   %ebp
c01031d1:	89 e5                	mov    %esp,%ebp
c01031d3:	83 ec 18             	sub    $0x18,%esp
c01031d6:	a1 04 b0 10 c0       	mov    0xc010b004,%eax
c01031db:	83 ec 04             	sub    $0x4,%esp
c01031de:	6a 00                	push   $0x0
c01031e0:	6a 03                	push   $0x3
c01031e2:	50                   	push   %eax
c01031e3:	e8 3f 03 00 00       	call   c0103527 <page_kalloc>
c01031e8:	83 c4 10             	add    $0x10,%esp
c01031eb:	89 45 f4             	mov    %eax,-0xc(%ebp)
c01031ee:	a1 00 b0 10 c0       	mov    0xc010b000,%eax
c01031f3:	83 ec 08             	sub    $0x8,%esp
c01031f6:	50                   	push   %eax
c01031f7:	68 e7 53 10 c0       	push   $0xc01053e7
c01031fc:	e8 15 19 00 00       	call   c0104b16 <logf>
c0103201:	83 c4 10             	add    $0x10,%esp
c0103204:	8b 15 04 b0 10 c0    	mov    0xc010b004,%edx
c010320a:	a1 00 b0 10 c0       	mov    0xc010b000,%eax
c010320f:	83 ec 04             	sub    $0x4,%esp
c0103212:	52                   	push   %edx
c0103213:	50                   	push   %eax
c0103214:	ff 75 f4             	push   -0xc(%ebp)
c0103217:	e8 8c e6 ff ff       	call   c01018a8 <memcpy>
c010321c:	83 c4 10             	add    $0x10,%esp
c010321f:	8b 45 f4             	mov    -0xc(%ebp),%eax
c0103222:	a3 00 b0 10 c0       	mov    %eax,0xc010b000
c0103227:	a1 00 b0 10 c0       	mov    0xc010b000,%eax
c010322c:	83 ec 08             	sub    $0x8,%esp
c010322f:	50                   	push   %eax
c0103230:	68 00 54 10 c0       	push   $0xc0105400
c0103235:	e8 dc 18 00 00       	call   c0104b16 <logf>
c010323a:	83 c4 10             	add    $0x10,%esp
c010323d:	90                   	nop
c010323e:	c9                   	leave
c010323f:	c3                   	ret

c0103240 <kinit>:
c0103240:	55                   	push   %ebp
c0103241:	89 e5                	mov    %esp,%ebp
c0103243:	83 ec 18             	sub    $0x18,%esp
c0103246:	83 ec 08             	sub    $0x8,%esp
c0103249:	ff 75 08             	push   0x8(%ebp)
c010324c:	68 19 54 10 c0       	push   $0xc0105419
c0103251:	e8 c0 18 00 00       	call   c0104b16 <logf>
c0103256:	83 c4 10             	add    $0x10,%esp
c0103259:	81 7d 08 10 f0 10 c0 	cmpl   $0xc010f010,0x8(%ebp)
c0103260:	72 10                	jb     c0103272 <kinit+0x32>
c0103262:	8b 15 8c 61 10 c0    	mov    0xc010618c,%edx
c0103268:	8b 45 08             	mov    0x8(%ebp),%eax
c010326b:	01 d0                	add    %edx,%eax
c010326d:	a3 8c 61 10 c0       	mov    %eax,0xc010618c
c0103272:	8b 15 8c 61 10 c0    	mov    0xc010618c,%edx
c0103278:	8b 45 08             	mov    0x8(%ebp),%eax
c010327b:	52                   	push   %edx
c010327c:	50                   	push   %eax
c010327d:	68 10 f0 10 c0       	push   $0xc010f010
c0103282:	68 28 54 10 c0       	push   $0xc0105428
c0103287:	e8 8a 18 00 00       	call   c0104b16 <logf>
c010328c:	83 c4 10             	add    $0x10,%esp
c010328f:	83 ec 08             	sub    $0x8,%esp
c0103292:	68 00 0a 00 00       	push   $0xa00
c0103297:	68 4a 54 10 c0       	push   $0xc010544a
c010329c:	e8 75 18 00 00       	call   c0104b16 <logf>
c01032a1:	83 c4 10             	add    $0x10,%esp
c01032a4:	c7 05 04 b0 10 c0 04 	movl   $0x4,0xc010b004
c01032ab:	00 00 00 
c01032ae:	a1 04 b0 10 c0       	mov    0xc010b004,%eax
c01032b3:	83 ec 08             	sub    $0x8,%esp
c01032b6:	6a 00                	push   $0x0
c01032b8:	50                   	push   %eax
c01032b9:	e8 31 fd ff ff       	call   c0102fef <pre_malloc>
c01032be:	83 c4 10             	add    $0x10,%esp
c01032c1:	a3 00 b0 10 c0       	mov    %eax,0xc010b000
c01032c6:	8b 15 04 b0 10 c0    	mov    0xc010b004,%edx
c01032cc:	a1 00 b0 10 c0       	mov    0xc010b000,%eax
c01032d1:	83 ec 04             	sub    $0x4,%esp
c01032d4:	52                   	push   %edx
c01032d5:	6a 00                	push   $0x0
c01032d7:	50                   	push   %eax
c01032d8:	e8 1e e6 ff ff       	call   c01018fb <memset>
c01032dd:	83 c4 10             	add    $0x10,%esp
c01032e0:	c7 45 f4 00 00 00 00 	movl   $0x0,-0xc(%ebp)
c01032e7:	eb 13                	jmp    c01032fc <kinit+0xbc>
c01032e9:	8b 45 f4             	mov    -0xc(%ebp),%eax
c01032ec:	83 ec 0c             	sub    $0xc,%esp
c01032ef:	50                   	push   %eax
c01032f0:	e8 14 fe ff ff       	call   c0103109 <set_frame>
c01032f5:	83 c4 10             	add    $0x10,%esp
c01032f8:	83 45 f4 01          	addl   $0x1,-0xc(%ebp)
c01032fc:	83 7d f4 2f          	cmpl   $0x2f,-0xc(%ebp)
c0103300:	7e e7                	jle    c01032e9 <kinit+0xa9>
c0103302:	a1 8c 61 10 c0       	mov    0xc010618c,%eax
c0103307:	c9                   	leave
c0103308:	c3                   	ret

c0103309 <convert_x86_32_vm_flags>:
c0103309:	55                   	push   %ebp
c010330a:	89 e5                	mov    %esp,%ebp
c010330c:	83 ec 10             	sub    $0x10,%esp
c010330f:	c7 45 fc 01 00 00 00 	movl   $0x1,-0x4(%ebp)
c0103316:	8b 45 08             	mov    0x8(%ebp),%eax
c0103319:	83 e0 02             	and    $0x2,%eax
c010331c:	85 c0                	test   %eax,%eax
c010331e:	74 04                	je     c0103324 <convert_x86_32_vm_flags+0x1b>
c0103320:	83 4d fc 02          	orl    $0x2,-0x4(%ebp)
c0103324:	8b 45 08             	mov    0x8(%ebp),%eax
c0103327:	83 e0 04             	and    $0x4,%eax
c010332a:	85 c0                	test   %eax,%eax
c010332c:	74 04                	je     c0103332 <convert_x86_32_vm_flags+0x29>
c010332e:	83 4d fc 04          	orl    $0x4,-0x4(%ebp)
c0103332:	8b 45 fc             	mov    -0x4(%ebp),%eax
c0103335:	c9                   	leave
c0103336:	c3                   	ret

c0103337 <create_vmm>:
c0103337:	55                   	push   %ebp
c0103338:	89 e5                	mov    %esp,%ebp
c010333a:	83 ec 18             	sub    $0x18,%esp
c010333d:	e8 36 fe ff ff       	call   c0103178 <alloc_phys_page>
c0103342:	6a 03                	push   $0x3
c0103344:	68 00 00 00 ff       	push   $0xff000000
c0103349:	50                   	push   %eax
c010334a:	ff 75 08             	push   0x8(%ebp)
c010334d:	e8 c7 0f 00 00       	call   c0104319 <memory_map>
c0103352:	83 c4 10             	add    $0x10,%esp
c0103355:	83 ec 04             	sub    $0x4,%esp
c0103358:	68 00 10 00 00       	push   $0x1000
c010335d:	6a 00                	push   $0x0
c010335f:	68 00 00 00 ff       	push   $0xff000000
c0103364:	e8 92 e5 ff ff       	call   c01018fb <memset>
c0103369:	83 c4 10             	add    $0x10,%esp
c010336c:	c7 45 f4 00 00 00 ff 	movl   $0xff000000,-0xc(%ebp)
c0103373:	8b 45 f4             	mov    -0xc(%ebp),%eax
c0103376:	8b 55 08             	mov    0x8(%ebp),%edx
c0103379:	89 10                	mov    %edx,(%eax)
c010337b:	8b 45 f4             	mov    -0xc(%ebp),%eax
c010337e:	c7 40 04 00 00 00 00 	movl   $0x0,0x4(%eax)
c0103385:	8b 45 f4             	mov    -0xc(%ebp),%eax
c0103388:	c7 40 08 14 00 00 ff 	movl   $0xff000014,0x8(%eax)
c010338f:	8b 45 0c             	mov    0xc(%ebp),%eax
c0103392:	05 ff 0f 00 00       	add    $0xfff,%eax
c0103397:	25 00 f0 ff ff       	and    $0xfffff000,%eax
c010339c:	83 ec 04             	sub    $0x4,%esp
c010339f:	ff 75 10             	push   0x10(%ebp)
c01033a2:	50                   	push   %eax
c01033a3:	68 5c 54 10 c0       	push   $0xc010545c
c01033a8:	e8 69 17 00 00       	call   c0104b16 <logf>
c01033ad:	83 c4 10             	add    $0x10,%esp
c01033b0:	8b 45 0c             	mov    0xc(%ebp),%eax
c01033b3:	05 ff 0f 00 00       	add    $0xfff,%eax
c01033b8:	25 00 f0 ff ff       	and    $0xfffff000,%eax
c01033bd:	89 c2                	mov    %eax,%edx
c01033bf:	8b 45 f4             	mov    -0xc(%ebp),%eax
c01033c2:	89 50 0c             	mov    %edx,0xc(%eax)
c01033c5:	8b 45 f4             	mov    -0xc(%ebp),%eax
c01033c8:	8b 55 10             	mov    0x10(%ebp),%edx
c01033cb:	89 50 10             	mov    %edx,0x10(%eax)
c01033ce:	8b 45 f4             	mov    -0xc(%ebp),%eax
c01033d1:	c9                   	leave
c01033d2:	c3                   	ret

c01033d3 <vmm_transfer_dynamic>:
c01033d3:	55                   	push   %ebp
c01033d4:	89 e5                	mov    %esp,%ebp
c01033d6:	83 ec 18             	sub    $0x18,%esp
c01033d9:	83 ec 04             	sub    $0x4,%esp
c01033dc:	6a 00                	push   $0x0
c01033de:	6a 03                	push   $0x3
c01033e0:	68 00 10 00 00       	push   $0x1000
c01033e5:	e8 3d 01 00 00       	call   c0103527 <page_kalloc>
c01033ea:	83 c4 10             	add    $0x10,%esp
c01033ed:	89 45 f4             	mov    %eax,-0xc(%ebp)
c01033f0:	a1 0c b0 10 c0       	mov    0xc010b00c,%eax
c01033f5:	83 ec 04             	sub    $0x4,%esp
c01033f8:	68 00 10 00 00       	push   $0x1000
c01033fd:	50                   	push   %eax
c01033fe:	ff 75 f4             	push   -0xc(%ebp)
c0103401:	e8 a2 e4 ff ff       	call   c01018a8 <memcpy>
c0103406:	83 c4 10             	add    $0x10,%esp
c0103409:	a1 0c b0 10 c0       	mov    0xc010b00c,%eax
c010340e:	83 ec 04             	sub    $0x4,%esp
c0103411:	ff 75 f4             	push   -0xc(%ebp)
c0103414:	50                   	push   %eax
c0103415:	68 88 54 10 c0       	push   $0xc0105488
c010341a:	e8 f7 16 00 00       	call   c0104b16 <logf>
c010341f:	83 c4 10             	add    $0x10,%esp
c0103422:	a1 0c b0 10 c0       	mov    0xc010b00c,%eax
c0103427:	89 45 f0             	mov    %eax,-0x10(%ebp)
c010342a:	8b 45 f4             	mov    -0xc(%ebp),%eax
c010342d:	a3 0c b0 10 c0       	mov    %eax,0xc010b00c
c0103432:	a1 0c b0 10 c0       	mov    0xc010b00c,%eax
c0103437:	8b 40 08             	mov    0x8(%eax),%eax
c010343a:	25 ff 03 00 00       	and    $0x3ff,%eax
c010343f:	89 c2                	mov    %eax,%edx
c0103441:	a1 0c b0 10 c0       	mov    0xc010b00c,%eax
c0103446:	89 c1                	mov    %eax,%ecx
c0103448:	a1 0c b0 10 c0       	mov    0xc010b00c,%eax
c010344d:	01 ca                	add    %ecx,%edx
c010344f:	89 50 08             	mov    %edx,0x8(%eax)
c0103452:	83 ec 08             	sub    $0x8,%esp
c0103455:	ff 75 f0             	push   -0x10(%ebp)
c0103458:	ff 75 08             	push   0x8(%ebp)
c010345b:	e8 41 0f 00 00       	call   c01043a1 <memory_unmap>
c0103460:	83 c4 10             	add    $0x10,%esp
c0103463:	90                   	nop
c0103464:	c9                   	leave
c0103465:	c3                   	ret

c0103466 <set_current_vmm>:
c0103466:	55                   	push   %ebp
c0103467:	89 e5                	mov    %esp,%ebp
c0103469:	8b 45 08             	mov    0x8(%ebp),%eax
c010346c:	a3 0c b0 10 c0       	mov    %eax,0xc010b00c
c0103471:	90                   	nop
c0103472:	5d                   	pop    %ebp
c0103473:	c3                   	ret

c0103474 <alloc_vm_obj>:
c0103474:	55                   	push   %ebp
c0103475:	89 e5                	mov    %esp,%ebp
c0103477:	83 ec 28             	sub    $0x28,%esp
c010347a:	a1 0c b0 10 c0       	mov    0xc010b00c,%eax
c010347f:	89 45 f4             	mov    %eax,-0xc(%ebp)
c0103482:	8b 45 f4             	mov    -0xc(%ebp),%eax
c0103485:	05 00 10 00 00       	add    $0x1000,%eax
c010348a:	89 45 ec             	mov    %eax,-0x14(%ebp)
c010348d:	83 45 f4 14          	addl   $0x14,-0xc(%ebp)
c0103491:	a1 0c b0 10 c0       	mov    0xc010b00c,%eax
c0103496:	8b 40 08             	mov    0x8(%eax),%eax
c0103499:	89 45 e8             	mov    %eax,-0x18(%ebp)
c010349c:	8b 45 e8             	mov    -0x18(%ebp),%eax
c010349f:	3b 45 ec             	cmp    -0x14(%ebp),%eax
c01034a2:	73 2b                	jae    c01034cf <alloc_vm_obj+0x5b>
c01034a4:	a1 0c b0 10 c0       	mov    0xc010b00c,%eax
c01034a9:	8b 50 08             	mov    0x8(%eax),%edx
c01034ac:	a1 0c b0 10 c0       	mov    0xc010b00c,%eax
c01034b1:	83 c2 10             	add    $0x10,%edx
c01034b4:	89 50 08             	mov    %edx,0x8(%eax)
c01034b7:	83 ec 08             	sub    $0x8,%esp
c01034ba:	ff 75 e8             	push   -0x18(%ebp)
c01034bd:	68 b2 54 10 c0       	push   $0xc01054b2
c01034c2:	e8 4f 16 00 00       	call   c0104b16 <logf>
c01034c7:	83 c4 10             	add    $0x10,%esp
c01034ca:	8b 45 e8             	mov    -0x18(%ebp),%eax
c01034cd:	eb 56                	jmp    c0103525 <alloc_vm_obj+0xb1>
c01034cf:	c7 45 f0 00 00 00 00 	movl   $0x0,-0x10(%ebp)
c01034d6:	eb 2c                	jmp    c0103504 <alloc_vm_obj+0x90>
c01034d8:	8b 45 f4             	mov    -0xc(%ebp),%eax
c01034db:	89 45 e4             	mov    %eax,-0x1c(%ebp)
c01034de:	8b 45 e4             	mov    -0x1c(%ebp),%eax
c01034e1:	8b 00                	mov    (%eax),%eax
c01034e3:	83 e0 01             	and    $0x1,%eax
c01034e6:	85 c0                	test   %eax,%eax
c01034e8:	75 16                	jne    c0103500 <alloc_vm_obj+0x8c>
c01034ea:	8b 45 e4             	mov    -0x1c(%ebp),%eax
c01034ed:	89 45 f0             	mov    %eax,-0x10(%ebp)
c01034f0:	a1 0c b0 10 c0       	mov    0xc010b00c,%eax
c01034f5:	8b 55 f0             	mov    -0x10(%ebp),%edx
c01034f8:	83 c2 10             	add    $0x10,%edx
c01034fb:	89 50 08             	mov    %edx,0x8(%eax)
c01034fe:	eb 0c                	jmp    c010350c <alloc_vm_obj+0x98>
c0103500:	83 45 f4 10          	addl   $0x10,-0xc(%ebp)
c0103504:	8b 45 ec             	mov    -0x14(%ebp),%eax
c0103507:	39 45 f4             	cmp    %eax,-0xc(%ebp)
c010350a:	72 cc                	jb     c01034d8 <alloc_vm_obj+0x64>
c010350c:	83 7d f0 00          	cmpl   $0x0,-0x10(%ebp)
c0103510:	75 10                	jne    c0103522 <alloc_vm_obj+0xae>
c0103512:	83 ec 0c             	sub    $0xc,%esp
c0103515:	68 cc 54 10 c0       	push   $0xc01054cc
c010351a:	e8 70 17 00 00       	call   c0104c8f <panic>
c010351f:	83 c4 10             	add    $0x10,%esp
c0103522:	8b 45 f0             	mov    -0x10(%ebp),%eax
c0103525:	c9                   	leave
c0103526:	c3                   	ret

c0103527 <page_kalloc>:
c0103527:	55                   	push   %ebp
c0103528:	89 e5                	mov    %esp,%ebp
c010352a:	53                   	push   %ebx
c010352b:	83 ec 34             	sub    $0x34,%esp
c010352e:	c7 45 e0 fe ff ff ff 	movl   $0xfffffffe,-0x20(%ebp)
c0103535:	a1 0c b0 10 c0       	mov    0xc010b00c,%eax
c010353a:	8b 40 04             	mov    0x4(%eax),%eax
c010353d:	89 45 f4             	mov    %eax,-0xc(%ebp)
c0103540:	c7 45 f0 00 00 00 00 	movl   $0x0,-0x10(%ebp)
c0103547:	8b 45 08             	mov    0x8(%ebp),%eax
c010354a:	05 ff 0f 00 00       	add    $0xfff,%eax
c010354f:	25 00 f0 ff ff       	and    $0xfffff000,%eax
c0103554:	89 45 08             	mov    %eax,0x8(%ebp)
c0103557:	c7 45 ec 00 00 00 00 	movl   $0x0,-0x14(%ebp)
c010355e:	a1 0c b0 10 c0       	mov    0xc010b00c,%eax
c0103563:	8b 50 10             	mov    0x10(%eax),%edx
c0103566:	a1 0c b0 10 c0       	mov    0xc010b00c,%eax
c010356b:	8b 40 0c             	mov    0xc(%eax),%eax
c010356e:	29 c2                	sub    %eax,%edx
c0103570:	3b 55 08             	cmp    0x8(%ebp),%edx
c0103573:	73 2c                	jae    c01035a1 <page_kalloc+0x7a>
c0103575:	a1 0c b0 10 c0       	mov    0xc010b00c,%eax
c010357a:	8b 50 0c             	mov    0xc(%eax),%edx
c010357d:	a1 0c b0 10 c0       	mov    0xc010b00c,%eax
c0103582:	8b 40 10             	mov    0x10(%eax),%eax
c0103585:	83 ec 04             	sub    $0x4,%esp
c0103588:	52                   	push   %edx
c0103589:	50                   	push   %eax
c010358a:	68 e8 54 10 c0       	push   $0xc01054e8
c010358f:	e8 82 15 00 00       	call   c0104b16 <logf>
c0103594:	83 c4 10             	add    $0x10,%esp
c0103597:	b8 00 00 00 00       	mov    $0x0,%eax
c010359c:	e9 fe 01 00 00       	jmp    c010379f <page_kalloc+0x278>
c01035a1:	83 7d f4 00          	cmpl   $0x0,-0xc(%ebp)
c01035a5:	0f 85 a6 00 00 00    	jne    c0103651 <page_kalloc+0x12a>
c01035ab:	a1 0c b0 10 c0       	mov    0xc010b00c,%eax
c01035b0:	8b 40 0c             	mov    0xc(%eax),%eax
c01035b3:	89 45 ec             	mov    %eax,-0x14(%ebp)
c01035b6:	e8 b9 fe ff ff       	call   c0103474 <alloc_vm_obj>
c01035bb:	89 45 d0             	mov    %eax,-0x30(%ebp)
c01035be:	8b 45 ec             	mov    -0x14(%ebp),%eax
c01035c1:	83 c8 01             	or     $0x1,%eax
c01035c4:	89 c2                	mov    %eax,%edx
c01035c6:	8b 45 d0             	mov    -0x30(%ebp),%eax
c01035c9:	89 10                	mov    %edx,(%eax)
c01035cb:	8b 45 d0             	mov    -0x30(%ebp),%eax
c01035ce:	8b 55 08             	mov    0x8(%ebp),%edx
c01035d1:	89 50 04             	mov    %edx,0x4(%eax)
c01035d4:	8b 45 d0             	mov    -0x30(%ebp),%eax
c01035d7:	8b 55 0c             	mov    0xc(%ebp),%edx
c01035da:	89 50 08             	mov    %edx,0x8(%eax)
c01035dd:	8b 45 d0             	mov    -0x30(%ebp),%eax
c01035e0:	c7 40 0c 00 00 00 00 	movl   $0x0,0xc(%eax)
c01035e7:	a1 0c b0 10 c0       	mov    0xc010b00c,%eax
c01035ec:	8b 55 d0             	mov    -0x30(%ebp),%edx
c01035ef:	89 50 04             	mov    %edx,0x4(%eax)
c01035f2:	e9 f9 00 00 00       	jmp    c01036f0 <page_kalloc+0x1c9>
c01035f7:	83 7d f4 00          	cmpl   $0x0,-0xc(%ebp)
c01035fb:	74 5c                	je     c0103659 <page_kalloc+0x132>
c01035fd:	83 7d f0 00          	cmpl   $0x0,-0x10(%ebp)
c0103601:	75 0a                	jne    c010360d <page_kalloc+0xe6>
c0103603:	a1 0c b0 10 c0       	mov    0xc010b00c,%eax
c0103608:	8b 40 10             	mov    0x10(%eax),%eax
c010360b:	eb 08                	jmp    c0103615 <page_kalloc+0xee>
c010360d:	8b 45 f0             	mov    -0x10(%ebp),%eax
c0103610:	8b 00                	mov    (%eax),%eax
c0103612:	23 45 e0             	and    -0x20(%ebp),%eax
c0103615:	89 45 dc             	mov    %eax,-0x24(%ebp)
c0103618:	8b 45 f4             	mov    -0xc(%ebp),%eax
c010361b:	8b 00                	mov    (%eax),%eax
c010361d:	23 45 e0             	and    -0x20(%ebp),%eax
c0103620:	89 c2                	mov    %eax,%edx
c0103622:	8b 45 f4             	mov    -0xc(%ebp),%eax
c0103625:	8b 40 04             	mov    0x4(%eax),%eax
c0103628:	01 d0                	add    %edx,%eax
c010362a:	89 45 d8             	mov    %eax,-0x28(%ebp)
c010362d:	8b 55 d8             	mov    -0x28(%ebp),%edx
c0103630:	8b 45 08             	mov    0x8(%ebp),%eax
c0103633:	01 d0                	add    %edx,%eax
c0103635:	39 45 dc             	cmp    %eax,-0x24(%ebp)
c0103638:	72 08                	jb     c0103642 <page_kalloc+0x11b>
c010363a:	8b 45 d8             	mov    -0x28(%ebp),%eax
c010363d:	89 45 ec             	mov    %eax,-0x14(%ebp)
c0103640:	eb 18                	jmp    c010365a <page_kalloc+0x133>
c0103642:	8b 45 f4             	mov    -0xc(%ebp),%eax
c0103645:	89 45 f0             	mov    %eax,-0x10(%ebp)
c0103648:	8b 45 f4             	mov    -0xc(%ebp),%eax
c010364b:	8b 40 0c             	mov    0xc(%eax),%eax
c010364e:	89 45 f4             	mov    %eax,-0xc(%ebp)
c0103651:	83 7d f4 00          	cmpl   $0x0,-0xc(%ebp)
c0103655:	75 a0                	jne    c01035f7 <page_kalloc+0xd0>
c0103657:	eb 01                	jmp    c010365a <page_kalloc+0x133>
c0103659:	90                   	nop
c010365a:	83 7d f4 00          	cmpl   $0x0,-0xc(%ebp)
c010365e:	75 24                	jne    c0103684 <page_kalloc+0x15d>
c0103660:	a1 0c b0 10 c0       	mov    0xc010b00c,%eax
c0103665:	8b 50 0c             	mov    0xc(%eax),%edx
c0103668:	8b 45 08             	mov    0x8(%ebp),%eax
c010366b:	01 c2                	add    %eax,%edx
c010366d:	8b 45 f0             	mov    -0x10(%ebp),%eax
c0103670:	8b 00                	mov    (%eax),%eax
c0103672:	23 45 e0             	and    -0x20(%ebp),%eax
c0103675:	39 d0                	cmp    %edx,%eax
c0103677:	72 0b                	jb     c0103684 <page_kalloc+0x15d>
c0103679:	a1 0c b0 10 c0       	mov    0xc010b00c,%eax
c010367e:	8b 40 0c             	mov    0xc(%eax),%eax
c0103681:	89 45 ec             	mov    %eax,-0x14(%ebp)
c0103684:	83 7d ec 00          	cmpl   $0x0,-0x14(%ebp)
c0103688:	75 1a                	jne    c01036a4 <page_kalloc+0x17d>
c010368a:	83 ec 0c             	sub    $0xc,%esp
c010368d:	68 0e 55 10 c0       	push   $0xc010550e
c0103692:	e8 7f 14 00 00       	call   c0104b16 <logf>
c0103697:	83 c4 10             	add    $0x10,%esp
c010369a:	b8 00 00 00 00       	mov    $0x0,%eax
c010369f:	e9 fb 00 00 00       	jmp    c010379f <page_kalloc+0x278>
c01036a4:	e8 cb fd ff ff       	call   c0103474 <alloc_vm_obj>
c01036a9:	89 45 d4             	mov    %eax,-0x2c(%ebp)
c01036ac:	8b 45 ec             	mov    -0x14(%ebp),%eax
c01036af:	83 c8 01             	or     $0x1,%eax
c01036b2:	89 c2                	mov    %eax,%edx
c01036b4:	8b 45 d4             	mov    -0x2c(%ebp),%eax
c01036b7:	89 10                	mov    %edx,(%eax)
c01036b9:	8b 45 d4             	mov    -0x2c(%ebp),%eax
c01036bc:	8b 55 08             	mov    0x8(%ebp),%edx
c01036bf:	89 50 04             	mov    %edx,0x4(%eax)
c01036c2:	8b 45 d4             	mov    -0x2c(%ebp),%eax
c01036c5:	8b 55 0c             	mov    0xc(%ebp),%edx
c01036c8:	89 50 08             	mov    %edx,0x8(%eax)
c01036cb:	8b 45 d4             	mov    -0x2c(%ebp),%eax
c01036ce:	8b 55 f4             	mov    -0xc(%ebp),%edx
c01036d1:	89 50 0c             	mov    %edx,0xc(%eax)
c01036d4:	83 7d f0 00          	cmpl   $0x0,-0x10(%ebp)
c01036d8:	74 0b                	je     c01036e5 <page_kalloc+0x1be>
c01036da:	8b 45 f0             	mov    -0x10(%ebp),%eax
c01036dd:	8b 55 d4             	mov    -0x2c(%ebp),%edx
c01036e0:	89 50 0c             	mov    %edx,0xc(%eax)
c01036e3:	eb 0b                	jmp    c01036f0 <page_kalloc+0x1c9>
c01036e5:	a1 0c b0 10 c0       	mov    0xc010b00c,%eax
c01036ea:	8b 55 d4             	mov    -0x2c(%ebp),%edx
c01036ed:	89 50 04             	mov    %edx,0x4(%eax)
c01036f0:	83 7d 10 00          	cmpl   $0x0,0x10(%ebp)
c01036f4:	75 3f                	jne    c0103735 <page_kalloc+0x20e>
c01036f6:	c7 45 e8 00 00 00 00 	movl   $0x0,-0x18(%ebp)
c01036fd:	eb 2c                	jmp    c010372b <page_kalloc+0x204>
c01036ff:	8b 55 e8             	mov    -0x18(%ebp),%edx
c0103702:	8b 45 ec             	mov    -0x14(%ebp),%eax
c0103705:	01 d0                	add    %edx,%eax
c0103707:	89 c3                	mov    %eax,%ebx
c0103709:	e8 6a fa ff ff       	call   c0103178 <alloc_phys_page>
c010370e:	8b 15 0c b0 10 c0    	mov    0xc010b00c,%edx
c0103714:	8b 12                	mov    (%edx),%edx
c0103716:	ff 75 0c             	push   0xc(%ebp)
c0103719:	53                   	push   %ebx
c010371a:	50                   	push   %eax
c010371b:	52                   	push   %edx
c010371c:	e8 f8 0b 00 00       	call   c0104319 <memory_map>
c0103721:	83 c4 10             	add    $0x10,%esp
c0103724:	81 45 e8 00 10 00 00 	addl   $0x1000,-0x18(%ebp)
c010372b:	8b 45 e8             	mov    -0x18(%ebp),%eax
c010372e:	3b 45 08             	cmp    0x8(%ebp),%eax
c0103731:	72 cc                	jb     c01036ff <page_kalloc+0x1d8>
c0103733:	eb 48                	jmp    c010377d <page_kalloc+0x256>
c0103735:	c7 45 e4 00 00 00 00 	movl   $0x0,-0x1c(%ebp)
c010373c:	eb 37                	jmp    c0103775 <page_kalloc+0x24e>
c010373e:	8b 55 e4             	mov    -0x1c(%ebp),%edx
c0103741:	8b 45 ec             	mov    -0x14(%ebp),%eax
c0103744:	01 d0                	add    %edx,%eax
c0103746:	89 c1                	mov    %eax,%ecx
c0103748:	8b 45 10             	mov    0x10(%ebp),%eax
c010374b:	25 00 f0 ff ff       	and    $0xfffff000,%eax
c0103750:	89 c2                	mov    %eax,%edx
c0103752:	8b 45 e4             	mov    -0x1c(%ebp),%eax
c0103755:	01 d0                	add    %edx,%eax
c0103757:	89 c2                	mov    %eax,%edx
c0103759:	a1 0c b0 10 c0       	mov    0xc010b00c,%eax
c010375e:	8b 00                	mov    (%eax),%eax
c0103760:	ff 75 0c             	push   0xc(%ebp)
c0103763:	51                   	push   %ecx
c0103764:	52                   	push   %edx
c0103765:	50                   	push   %eax
c0103766:	e8 ae 0b 00 00       	call   c0104319 <memory_map>
c010376b:	83 c4 10             	add    $0x10,%esp
c010376e:	81 45 e4 00 10 00 00 	addl   $0x1000,-0x1c(%ebp)
c0103775:	8b 45 e4             	mov    -0x1c(%ebp),%eax
c0103778:	3b 45 08             	cmp    0x8(%ebp),%eax
c010377b:	72 c1                	jb     c010373e <page_kalloc+0x217>
c010377d:	83 ec 08             	sub    $0x8,%esp
c0103780:	ff 75 10             	push   0x10(%ebp)
c0103783:	68 19 55 10 c0       	push   $0xc0105519
c0103788:	e8 89 13 00 00       	call   c0104b16 <logf>
c010378d:	83 c4 10             	add    $0x10,%esp
c0103790:	8b 45 10             	mov    0x10(%ebp),%eax
c0103793:	25 ff 0f 00 00       	and    $0xfff,%eax
c0103798:	89 c2                	mov    %eax,%edx
c010379a:	8b 45 ec             	mov    -0x14(%ebp),%eax
c010379d:	01 d0                	add    %edx,%eax
c010379f:	8b 5d fc             	mov    -0x4(%ebp),%ebx
c01037a2:	c9                   	leave
c01037a3:	c3                   	ret

c01037a4 <page_free>:
c01037a4:	55                   	push   %ebp
c01037a5:	89 e5                	mov    %esp,%ebp
c01037a7:	83 ec 18             	sub    $0x18,%esp
c01037aa:	a1 0c b0 10 c0       	mov    0xc010b00c,%eax
c01037af:	8b 40 04             	mov    0x4(%eax),%eax
c01037b2:	89 45 f4             	mov    %eax,-0xc(%ebp)
c01037b5:	c7 45 f0 00 00 00 00 	movl   $0x0,-0x10(%ebp)
c01037bc:	83 ec 0c             	sub    $0xc,%esp
c01037bf:	68 2c 55 10 c0       	push   $0xc010552c
c01037c4:	e8 4d 13 00 00       	call   c0104b16 <logf>
c01037c9:	83 c4 10             	add    $0x10,%esp
c01037cc:	eb 22                	jmp    c01037f0 <page_free+0x4c>
c01037ce:	83 7d f4 00          	cmpl   $0x0,-0xc(%ebp)
c01037d2:	74 24                	je     c01037f8 <page_free+0x54>
c01037d4:	8b 45 f4             	mov    -0xc(%ebp),%eax
c01037d7:	8b 00                	mov    (%eax),%eax
c01037d9:	83 e0 fe             	and    $0xfffffffe,%eax
c01037dc:	39 45 08             	cmp    %eax,0x8(%ebp)
c01037df:	74 1a                	je     c01037fb <page_free+0x57>
c01037e1:	8b 45 f4             	mov    -0xc(%ebp),%eax
c01037e4:	89 45 f0             	mov    %eax,-0x10(%ebp)
c01037e7:	8b 45 f4             	mov    -0xc(%ebp),%eax
c01037ea:	8b 40 0c             	mov    0xc(%eax),%eax
c01037ed:	89 45 f4             	mov    %eax,-0xc(%ebp)
c01037f0:	83 7d f4 00          	cmpl   $0x0,-0xc(%ebp)
c01037f4:	75 d8                	jne    c01037ce <page_free+0x2a>
c01037f6:	eb 04                	jmp    c01037fc <page_free+0x58>
c01037f8:	90                   	nop
c01037f9:	eb 01                	jmp    c01037fc <page_free+0x58>
c01037fb:	90                   	nop
c01037fc:	83 7d f4 00          	cmpl   $0x0,-0xc(%ebp)
c0103800:	75 15                	jne    c0103817 <page_free+0x73>
c0103802:	83 ec 08             	sub    $0x8,%esp
c0103805:	ff 75 08             	push   0x8(%ebp)
c0103808:	68 52 55 10 c0       	push   $0xc0105552
c010380d:	e8 04 13 00 00       	call   c0104b16 <logf>
c0103812:	83 c4 10             	add    $0x10,%esp
c0103815:	eb 6d                	jmp    c0103884 <page_free+0xe0>
c0103817:	83 7d f0 00          	cmpl   $0x0,-0x10(%ebp)
c010381b:	74 0e                	je     c010382b <page_free+0x87>
c010381d:	8b 45 f4             	mov    -0xc(%ebp),%eax
c0103820:	8b 50 0c             	mov    0xc(%eax),%edx
c0103823:	8b 45 f0             	mov    -0x10(%ebp),%eax
c0103826:	89 50 0c             	mov    %edx,0xc(%eax)
c0103829:	eb 0e                	jmp    c0103839 <page_free+0x95>
c010382b:	a1 0c b0 10 c0       	mov    0xc010b00c,%eax
c0103830:	8b 55 f4             	mov    -0xc(%ebp),%edx
c0103833:	8b 52 0c             	mov    0xc(%edx),%edx
c0103836:	89 50 04             	mov    %edx,0x4(%eax)
c0103839:	c7 45 ec 00 00 00 00 	movl   $0x0,-0x14(%ebp)
c0103840:	eb 23                	jmp    c0103865 <page_free+0xc1>
c0103842:	8b 55 ec             	mov    -0x14(%ebp),%edx
c0103845:	8b 45 08             	mov    0x8(%ebp),%eax
c0103848:	01 c2                	add    %eax,%edx
c010384a:	a1 0c b0 10 c0       	mov    0xc010b00c,%eax
c010384f:	8b 00                	mov    (%eax),%eax
c0103851:	83 ec 08             	sub    $0x8,%esp
c0103854:	52                   	push   %edx
c0103855:	50                   	push   %eax
c0103856:	e8 46 0b 00 00       	call   c01043a1 <memory_unmap>
c010385b:	83 c4 10             	add    $0x10,%esp
c010385e:	81 45 ec 00 10 00 00 	addl   $0x1000,-0x14(%ebp)
c0103865:	8b 45 f4             	mov    -0xc(%ebp),%eax
c0103868:	8b 40 04             	mov    0x4(%eax),%eax
c010386b:	8b 55 ec             	mov    -0x14(%ebp),%edx
c010386e:	39 c2                	cmp    %eax,%edx
c0103870:	72 d0                	jb     c0103842 <page_free+0x9e>
c0103872:	83 ec 04             	sub    $0x4,%esp
c0103875:	6a 10                	push   $0x10
c0103877:	6a 00                	push   $0x0
c0103879:	ff 75 f4             	push   -0xc(%ebp)
c010387c:	e8 7a e0 ff ff       	call   c01018fb <memset>
c0103881:	83 c4 10             	add    $0x10,%esp
c0103884:	c9                   	leave
c0103885:	c3                   	ret

c0103886 <test1>:
c0103886:	55                   	push   %ebp
c0103887:	89 e5                	mov    %esp,%ebp
c0103889:	90                   	nop
c010388a:	5d                   	pop    %ebp
c010388b:	c3                   	ret

c010388c <test2>:
c010388c:	55                   	push   %ebp
c010388d:	89 e5                	mov    %esp,%ebp
c010388f:	90                   	nop
c0103890:	5d                   	pop    %ebp
c0103891:	c3                   	ret

c0103892 <get_pixel_addr>:
c0103892:	55                   	push   %ebp
c0103893:	89 e5                	mov    %esp,%ebp
c0103895:	83 ec 10             	sub    $0x10,%esp
c0103898:	a1 1c b0 10 c0       	mov    0xc010b01c,%eax
c010389d:	8b 40 14             	mov    0x14(%eax),%eax
c01038a0:	3b 45 08             	cmp    0x8(%ebp),%eax
c01038a3:	73 0b                	jae    c01038b0 <get_pixel_addr+0x1e>
c01038a5:	a1 1c b0 10 c0       	mov    0xc010b01c,%eax
c01038aa:	8b 40 14             	mov    0x14(%eax),%eax
c01038ad:	89 45 08             	mov    %eax,0x8(%ebp)
c01038b0:	a1 1c b0 10 c0       	mov    0xc010b01c,%eax
c01038b5:	8b 40 18             	mov    0x18(%eax),%eax
c01038b8:	3b 45 0c             	cmp    0xc(%ebp),%eax
c01038bb:	73 0b                	jae    c01038c8 <get_pixel_addr+0x36>
c01038bd:	a1 1c b0 10 c0       	mov    0xc010b01c,%eax
c01038c2:	8b 40 18             	mov    0x18(%eax),%eax
c01038c5:	89 45 0c             	mov    %eax,0xc(%ebp)
c01038c8:	a1 1c b0 10 c0       	mov    0xc010b01c,%eax
c01038cd:	8b 40 10             	mov    0x10(%eax),%eax
c01038d0:	8b 55 0c             	mov    0xc(%ebp),%edx
c01038d3:	0f af c2             	imul   %edx,%eax
c01038d6:	89 45 fc             	mov    %eax,-0x4(%ebp)
c01038d9:	a1 2c b0 10 c0       	mov    0xc010b02c,%eax
c01038de:	8b 55 08             	mov    0x8(%ebp),%edx
c01038e1:	0f af c2             	imul   %edx,%eax
c01038e4:	89 45 f8             	mov    %eax,-0x8(%ebp)
c01038e7:	a1 60 82 10 c0       	mov    0xc0108260,%eax
c01038ec:	89 c2                	mov    %eax,%edx
c01038ee:	8b 45 fc             	mov    -0x4(%ebp),%eax
c01038f1:	01 c2                	add    %eax,%edx
c01038f3:	8b 45 f8             	mov    -0x8(%ebp),%eax
c01038f6:	01 d0                	add    %edx,%eax
c01038f8:	89 45 f4             	mov    %eax,-0xc(%ebp)
c01038fb:	8b 45 f4             	mov    -0xc(%ebp),%eax
c01038fe:	c9                   	leave
c01038ff:	c3                   	ret

c0103900 <init_framebuffer>:
c0103900:	55                   	push   %ebp
c0103901:	89 e5                	mov    %esp,%ebp
c0103903:	83 ec 18             	sub    $0x18,%esp
c0103906:	a1 1c b0 10 c0       	mov    0xc010b01c,%eax
c010390b:	8b 50 0c             	mov    0xc(%eax),%edx
c010390e:	8b 40 08             	mov    0x8(%eax),%eax
c0103911:	89 45 f4             	mov    %eax,-0xc(%ebp)
c0103914:	a1 1c b0 10 c0       	mov    0xc010b01c,%eax
c0103919:	8b 50 10             	mov    0x10(%eax),%edx
c010391c:	a1 1c b0 10 c0       	mov    0xc010b01c,%eax
c0103921:	8b 40 18             	mov    0x18(%eax),%eax
c0103924:	0f af c2             	imul   %edx,%eax
c0103927:	89 45 f0             	mov    %eax,-0x10(%ebp)
c010392a:	a1 1c b0 10 c0       	mov    0xc010b01c,%eax
c010392f:	0f b6 40 1d          	movzbl 0x1d(%eax),%eax
c0103933:	0f b6 c0             	movzbl %al,%eax
c0103936:	83 ec 08             	sub    $0x8,%esp
c0103939:	50                   	push   %eax
c010393a:	68 70 55 10 c0       	push   $0xc0105570
c010393f:	e8 d2 11 00 00       	call   c0104b16 <logf>
c0103944:	83 c4 10             	add    $0x10,%esp
c0103947:	8b 45 f4             	mov    -0xc(%ebp),%eax
c010394a:	83 ec 04             	sub    $0x4,%esp
c010394d:	50                   	push   %eax
c010394e:	6a 03                	push   $0x3
c0103950:	ff 75 f0             	push   -0x10(%ebp)
c0103953:	e8 cf fb ff ff       	call   c0103527 <page_kalloc>
c0103958:	83 c4 10             	add    $0x10,%esp
c010395b:	a3 60 82 10 c0       	mov    %eax,0xc0108260
c0103960:	a1 1c b0 10 c0       	mov    0xc010b01c,%eax
c0103965:	0f b6 40 1c          	movzbl 0x1c(%eax),%eax
c0103969:	c0 e8 03             	shr    $0x3,%al
c010396c:	0f b6 c0             	movzbl %al,%eax
c010396f:	a3 2c b0 10 c0       	mov    %eax,0xc010b02c
c0103974:	a1 1c b0 10 c0       	mov    0xc010b01c,%eax
c0103979:	8b 40 14             	mov    0x14(%eax),%eax
c010397c:	0f b7 c0             	movzwl %ax,%eax
c010397f:	83 ec 0c             	sub    $0xc,%esp
c0103982:	50                   	push   %eax
c0103983:	e8 6c f2 ff ff       	call   c0102bf4 <fb_set_width>
c0103988:	83 c4 10             	add    $0x10,%esp
c010398b:	a1 1c b0 10 c0       	mov    0xc010b01c,%eax
c0103990:	8b 40 18             	mov    0x18(%eax),%eax
c0103993:	0f b7 c0             	movzwl %ax,%eax
c0103996:	83 ec 0c             	sub    $0xc,%esp
c0103999:	50                   	push   %eax
c010399a:	e8 6f f2 ff ff       	call   c0102c0e <fb_set_height>
c010399f:	83 c4 10             	add    $0x10,%esp
c01039a2:	90                   	nop
c01039a3:	c9                   	leave
c01039a4:	c3                   	ret

c01039a5 <parse_MADT>:
c01039a5:	55                   	push   %ebp
c01039a6:	89 e5                	mov    %esp,%ebp
c01039a8:	83 ec 38             	sub    $0x38,%esp
c01039ab:	8b 55 08             	mov    0x8(%ebp),%edx
c01039ae:	8b 45 0c             	mov    0xc(%ebp),%eax
c01039b1:	88 55 d4             	mov    %dl,-0x2c(%ebp)
c01039b4:	88 45 d0             	mov    %al,-0x30(%ebp)
c01039b7:	83 ec 0c             	sub    $0xc,%esp
c01039ba:	68 89 55 10 c0       	push   $0xc0105589
c01039bf:	e8 cf 00 00 00       	call   c0103a93 <get_sdt_by_signature>
c01039c4:	83 c4 10             	add    $0x10,%esp
c01039c7:	89 45 e8             	mov    %eax,-0x18(%ebp)
c01039ca:	66 c7 45 f6 2c 00    	movw   $0x2c,-0xa(%ebp)
c01039d0:	0f b7 55 f6          	movzwl -0xa(%ebp),%edx
c01039d4:	8b 45 e8             	mov    -0x18(%ebp),%eax
c01039d7:	01 d0                	add    %edx,%eax
c01039d9:	89 45 f0             	mov    %eax,-0x10(%ebp)
c01039dc:	c6 45 ef 00          	movb   $0x0,-0x11(%ebp)
c01039e0:	eb 47                	jmp    c0103a29 <parse_MADT+0x84>
c01039e2:	8b 45 f0             	mov    -0x10(%ebp),%eax
c01039e5:	89 45 e4             	mov    %eax,-0x1c(%ebp)
c01039e8:	8b 45 e4             	mov    -0x1c(%ebp),%eax
c01039eb:	0f b6 00             	movzbl (%eax),%eax
c01039ee:	38 45 d4             	cmp    %al,-0x2c(%ebp)
c01039f1:	75 1b                	jne    c0103a0e <parse_MADT+0x69>
c01039f3:	0f b6 45 ef          	movzbl -0x11(%ebp),%eax
c01039f7:	83 c0 01             	add    $0x1,%eax
c01039fa:	88 45 ef             	mov    %al,-0x11(%ebp)
c01039fd:	0f b6 45 ef          	movzbl -0x11(%ebp),%eax
c0103a01:	3a 45 d0             	cmp    -0x30(%ebp),%al
c0103a04:	75 08                	jne    c0103a0e <parse_MADT+0x69>
c0103a06:	8b 45 f0             	mov    -0x10(%ebp),%eax
c0103a09:	83 c0 02             	add    $0x2,%eax
c0103a0c:	eb 43                	jmp    c0103a51 <parse_MADT+0xac>
c0103a0e:	8b 45 e4             	mov    -0x1c(%ebp),%eax
c0103a11:	0f b6 40 01          	movzbl 0x1(%eax),%eax
c0103a15:	0f b6 c0             	movzbl %al,%eax
c0103a18:	66 01 45 f6          	add    %ax,-0xa(%ebp)
c0103a1c:	8b 45 e4             	mov    -0x1c(%ebp),%eax
c0103a1f:	0f b6 40 01          	movzbl 0x1(%eax),%eax
c0103a23:	0f b6 c0             	movzbl %al,%eax
c0103a26:	01 45 f0             	add    %eax,-0x10(%ebp)
c0103a29:	0f b7 45 f6          	movzwl -0xa(%ebp),%eax
c0103a2d:	8b 55 e8             	mov    -0x18(%ebp),%edx
c0103a30:	8b 52 04             	mov    0x4(%edx),%edx
c0103a33:	39 c2                	cmp    %eax,%edx
c0103a35:	73 ab                	jae    c01039e2 <parse_MADT+0x3d>
c0103a37:	0f b6 45 d4          	movzbl -0x2c(%ebp),%eax
c0103a3b:	83 ec 08             	sub    $0x8,%esp
c0103a3e:	50                   	push   %eax
c0103a3f:	68 90 55 10 c0       	push   $0xc0105590
c0103a44:	e8 cd 10 00 00       	call   c0104b16 <logf>
c0103a49:	83 c4 10             	add    $0x10,%esp
c0103a4c:	b8 00 00 00 00       	mov    $0x0,%eax
c0103a51:	c9                   	leave
c0103a52:	c3                   	ret

c0103a53 <validate_RSDP>:
c0103a53:	55                   	push   %ebp
c0103a54:	89 e5                	mov    %esp,%ebp
c0103a56:	83 ec 10             	sub    $0x10,%esp
c0103a59:	c7 45 fc 00 00 00 00 	movl   $0x0,-0x4(%ebp)
c0103a60:	c7 45 f8 00 00 00 00 	movl   $0x0,-0x8(%ebp)
c0103a67:	eb 15                	jmp    c0103a7e <validate_RSDP+0x2b>
c0103a69:	8b 55 f8             	mov    -0x8(%ebp),%edx
c0103a6c:	8b 45 08             	mov    0x8(%ebp),%eax
c0103a6f:	01 d0                	add    %edx,%eax
c0103a71:	0f b6 00             	movzbl (%eax),%eax
c0103a74:	0f be c0             	movsbl %al,%eax
c0103a77:	01 45 fc             	add    %eax,-0x4(%ebp)
c0103a7a:	83 45 f8 01          	addl   $0x1,-0x8(%ebp)
c0103a7e:	8b 45 f8             	mov    -0x8(%ebp),%eax
c0103a81:	3b 45 0c             	cmp    0xc(%ebp),%eax
c0103a84:	72 e3                	jb     c0103a69 <validate_RSDP+0x16>
c0103a86:	8b 45 fc             	mov    -0x4(%ebp),%eax
c0103a89:	0f b6 c0             	movzbl %al,%eax
c0103a8c:	85 c0                	test   %eax,%eax
c0103a8e:	0f 94 c0             	sete   %al
c0103a91:	c9                   	leave
c0103a92:	c3                   	ret

c0103a93 <get_sdt_by_signature>:
c0103a93:	55                   	push   %ebp
c0103a94:	89 e5                	mov    %esp,%ebp
c0103a96:	83 ec 28             	sub    $0x28,%esp
c0103a99:	a1 18 b0 10 c0       	mov    0xc010b018,%eax
c0103a9e:	8b 40 04             	mov    0x4(%eax),%eax
c0103aa1:	83 e8 24             	sub    $0x24,%eax
c0103aa4:	c1 e8 02             	shr    $0x2,%eax
c0103aa7:	83 e8 01             	sub    $0x1,%eax
c0103aaa:	89 45 f0             	mov    %eax,-0x10(%ebp)
c0103aad:	a1 18 b0 10 c0       	mov    0xc010b018,%eax
c0103ab2:	89 45 ec             	mov    %eax,-0x14(%ebp)
c0103ab5:	8b 45 ec             	mov    -0x14(%ebp),%eax
c0103ab8:	8b 40 04             	mov    0x4(%eax),%eax
c0103abb:	83 e8 24             	sub    $0x24,%eax
c0103abe:	c1 e8 02             	shr    $0x2,%eax
c0103ac1:	89 45 e8             	mov    %eax,-0x18(%ebp)
c0103ac4:	c7 45 f4 00 00 00 00 	movl   $0x0,-0xc(%ebp)
c0103acb:	eb 31                	jmp    c0103afe <get_sdt_by_signature+0x6b>
c0103acd:	8b 45 ec             	mov    -0x14(%ebp),%eax
c0103ad0:	8b 55 f4             	mov    -0xc(%ebp),%edx
c0103ad3:	83 c2 08             	add    $0x8,%edx
c0103ad6:	8b 44 90 04          	mov    0x4(%eax,%edx,4),%eax
c0103ada:	89 45 e4             	mov    %eax,-0x1c(%ebp)
c0103add:	8b 45 e4             	mov    -0x1c(%ebp),%eax
c0103ae0:	83 ec 04             	sub    $0x4,%esp
c0103ae3:	6a 04                	push   $0x4
c0103ae5:	50                   	push   %eax
c0103ae6:	ff 75 08             	push   0x8(%ebp)
c0103ae9:	e8 5c de ff ff       	call   c010194a <strcmp>
c0103aee:	83 c4 10             	add    $0x10,%esp
c0103af1:	84 c0                	test   %al,%al
c0103af3:	74 05                	je     c0103afa <get_sdt_by_signature+0x67>
c0103af5:	8b 45 e4             	mov    -0x1c(%ebp),%eax
c0103af8:	eb 21                	jmp    c0103b1b <get_sdt_by_signature+0x88>
c0103afa:	83 45 f4 01          	addl   $0x1,-0xc(%ebp)
c0103afe:	8b 45 f4             	mov    -0xc(%ebp),%eax
c0103b01:	3b 45 e8             	cmp    -0x18(%ebp),%eax
c0103b04:	7c c7                	jl     c0103acd <get_sdt_by_signature+0x3a>
c0103b06:	83 ec 0c             	sub    $0xc,%esp
c0103b09:	68 b4 55 10 c0       	push   $0xc01055b4
c0103b0e:	e8 7c 11 00 00       	call   c0104c8f <panic>
c0103b13:	83 c4 10             	add    $0x10,%esp
c0103b16:	b8 00 00 00 00       	mov    $0x0,%eax
c0103b1b:	c9                   	leave
c0103b1c:	c3                   	ret

c0103b1d <init_rsdt_v1>:
c0103b1d:	55                   	push   %ebp
c0103b1e:	89 e5                	mov    %esp,%ebp
c0103b20:	83 ec 18             	sub    $0x18,%esp
c0103b23:	a1 20 b0 10 c0       	mov    0xc010b020,%eax
c0103b28:	85 c0                	test   %eax,%eax
c0103b2a:	74 69                	je     c0103b95 <init_rsdt_v1+0x78>
c0103b2c:	a1 20 b0 10 c0       	mov    0xc010b020,%eax
c0103b31:	83 c0 08             	add    $0x8,%eax
c0103b34:	89 45 f4             	mov    %eax,-0xc(%ebp)
c0103b37:	6a 04                	push   $0x4
c0103b39:	ff 75 f4             	push   -0xc(%ebp)
c0103b3c:	e8 12 ff ff ff       	call   c0103a53 <validate_RSDP>
c0103b41:	83 c4 08             	add    $0x8,%esp
c0103b44:	84 c0                	test   %al,%al
c0103b46:	74 12                	je     c0103b5a <init_rsdt_v1+0x3d>
c0103b48:	83 ec 0c             	sub    $0xc,%esp
c0103b4b:	68 d8 55 10 c0       	push   $0xc01055d8
c0103b50:	e8 c1 0f 00 00       	call   c0104b16 <logf>
c0103b55:	83 c4 10             	add    $0x10,%esp
c0103b58:	eb 3c                	jmp    c0103b96 <init_rsdt_v1+0x79>
c0103b5a:	8b 45 f4             	mov    -0xc(%ebp),%eax
c0103b5d:	8b 40 10             	mov    0x10(%eax),%eax
c0103b60:	25 00 f0 ff ff       	and    $0xfffff000,%eax
c0103b65:	89 c1                	mov    %eax,%ecx
c0103b67:	8b 45 f4             	mov    -0xc(%ebp),%eax
c0103b6a:	8b 40 10             	mov    0x10(%eax),%eax
c0103b6d:	25 00 f0 ff ff       	and    $0xfffff000,%eax
c0103b72:	89 c2                	mov    %eax,%edx
c0103b74:	a1 0c b0 10 c0       	mov    0xc010b00c,%eax
c0103b79:	8b 00                	mov    (%eax),%eax
c0103b7b:	6a 01                	push   $0x1
c0103b7d:	51                   	push   %ecx
c0103b7e:	52                   	push   %edx
c0103b7f:	50                   	push   %eax
c0103b80:	e8 94 07 00 00       	call   c0104319 <memory_map>
c0103b85:	83 c4 10             	add    $0x10,%esp
c0103b88:	8b 45 f4             	mov    -0xc(%ebp),%eax
c0103b8b:	8b 40 10             	mov    0x10(%eax),%eax
c0103b8e:	a3 18 b0 10 c0       	mov    %eax,0xc010b018
c0103b93:	eb 01                	jmp    c0103b96 <init_rsdt_v1+0x79>
c0103b95:	90                   	nop
c0103b96:	c9                   	leave
c0103b97:	c3                   	ret

c0103b98 <init_multiboot>:
c0103b98:	55                   	push   %ebp
c0103b99:	89 e5                	mov    %esp,%ebp
c0103b9b:	83 ec 28             	sub    $0x28,%esp
c0103b9e:	c7 45 e4 00 00 00 00 	movl   $0x0,-0x1c(%ebp)
c0103ba5:	c7 45 e8 00 00 00 00 	movl   $0x0,-0x18(%ebp)
c0103bac:	c7 45 ec 00 00 00 00 	movl   $0x0,-0x14(%ebp)
c0103bb3:	8b 45 0c             	mov    0xc(%ebp),%eax
c0103bb6:	8b 00                	mov    (%eax),%eax
c0103bb8:	89 45 f0             	mov    %eax,-0x10(%ebp)
c0103bbb:	8b 45 0c             	mov    0xc(%ebp),%eax
c0103bbe:	83 c0 08             	add    $0x8,%eax
c0103bc1:	89 45 f4             	mov    %eax,-0xc(%ebp)
c0103bc4:	eb 5d                	jmp    c0103c23 <init_multiboot+0x8b>
c0103bc6:	8b 45 f4             	mov    -0xc(%ebp),%eax
c0103bc9:	8b 00                	mov    (%eax),%eax
c0103bcb:	83 f8 0f             	cmp    $0xf,%eax
c0103bce:	74 43                	je     c0103c13 <init_multiboot+0x7b>
c0103bd0:	83 f8 0f             	cmp    $0xf,%eax
c0103bd3:	77 3f                	ja     c0103c14 <init_multiboot+0x7c>
c0103bd5:	83 f8 0e             	cmp    $0xe,%eax
c0103bd8:	74 31                	je     c0103c0b <init_multiboot+0x73>
c0103bda:	83 f8 0e             	cmp    $0xe,%eax
c0103bdd:	77 35                	ja     c0103c14 <init_multiboot+0x7c>
c0103bdf:	83 f8 06             	cmp    $0x6,%eax
c0103be2:	74 07                	je     c0103beb <init_multiboot+0x53>
c0103be4:	83 f8 08             	cmp    $0x8,%eax
c0103be7:	74 1a                	je     c0103c03 <init_multiboot+0x6b>
c0103be9:	eb 29                	jmp    c0103c14 <init_multiboot+0x7c>
c0103beb:	83 ec 0c             	sub    $0xc,%esp
c0103bee:	68 f2 55 10 c0       	push   $0xc01055f2
c0103bf3:	e8 1e 0f 00 00       	call   c0104b16 <logf>
c0103bf8:	83 c4 10             	add    $0x10,%esp
c0103bfb:	8b 45 f4             	mov    -0xc(%ebp),%eax
c0103bfe:	89 45 e4             	mov    %eax,-0x1c(%ebp)
c0103c01:	eb 11                	jmp    c0103c14 <init_multiboot+0x7c>
c0103c03:	8b 45 f4             	mov    -0xc(%ebp),%eax
c0103c06:	89 45 e8             	mov    %eax,-0x18(%ebp)
c0103c09:	eb 09                	jmp    c0103c14 <init_multiboot+0x7c>
c0103c0b:	8b 45 f4             	mov    -0xc(%ebp),%eax
c0103c0e:	89 45 ec             	mov    %eax,-0x14(%ebp)
c0103c11:	eb 01                	jmp    c0103c14 <init_multiboot+0x7c>
c0103c13:	90                   	nop
c0103c14:	8b 45 f4             	mov    -0xc(%ebp),%eax
c0103c17:	8b 40 04             	mov    0x4(%eax),%eax
c0103c1a:	83 c0 07             	add    $0x7,%eax
c0103c1d:	83 e0 f8             	and    $0xfffffff8,%eax
c0103c20:	01 45 f4             	add    %eax,-0xc(%ebp)
c0103c23:	8b 45 f4             	mov    -0xc(%ebp),%eax
c0103c26:	8b 00                	mov    (%eax),%eax
c0103c28:	85 c0                	test   %eax,%eax
c0103c2a:	75 9a                	jne    c0103bc6 <init_multiboot+0x2e>
c0103c2c:	8b 45 e8             	mov    -0x18(%ebp),%eax
c0103c2f:	a3 1c b0 10 c0       	mov    %eax,0xc010b01c
c0103c34:	8b 45 ec             	mov    -0x14(%ebp),%eax
c0103c37:	a3 20 b0 10 c0       	mov    %eax,0xc010b020
c0103c3c:	a1 20 b0 10 c0       	mov    0xc010b020,%eax
c0103c41:	85 c0                	test   %eax,%eax
c0103c43:	74 05                	je     c0103c4a <init_multiboot+0xb2>
c0103c45:	e8 d3 fe ff ff       	call   c0103b1d <init_rsdt_v1>
c0103c4a:	8b 45 08             	mov    0x8(%ebp),%eax
c0103c4d:	8b 55 e4             	mov    -0x1c(%ebp),%edx
c0103c50:	89 10                	mov    %edx,(%eax)
c0103c52:	8b 55 e8             	mov    -0x18(%ebp),%edx
c0103c55:	89 50 04             	mov    %edx,0x4(%eax)
c0103c58:	8b 55 ec             	mov    -0x14(%ebp),%edx
c0103c5b:	89 50 08             	mov    %edx,0x8(%eax)
c0103c5e:	8b 45 08             	mov    0x8(%ebp),%eax
c0103c61:	c9                   	leave
c0103c62:	c2 04 00             	ret    $0x4

c0103c65 <gdt_set_gate>:
c0103c65:	55                   	push   %ebp
c0103c66:	89 e5                	mov    %esp,%ebp
c0103c68:	83 ec 08             	sub    $0x8,%esp
c0103c6b:	8b 55 14             	mov    0x14(%ebp),%edx
c0103c6e:	8b 45 18             	mov    0x18(%ebp),%eax
c0103c71:	88 55 fc             	mov    %dl,-0x4(%ebp)
c0103c74:	88 45 f8             	mov    %al,-0x8(%ebp)
c0103c77:	8b 45 0c             	mov    0xc(%ebp),%eax
c0103c7a:	89 c2                	mov    %eax,%edx
c0103c7c:	8b 45 08             	mov    0x8(%ebp),%eax
c0103c7f:	66 89 14 c5 42 b0 10 	mov    %dx,-0x3fef4fbe(,%eax,8)
c0103c86:	c0 
c0103c87:	8b 45 0c             	mov    0xc(%ebp),%eax
c0103c8a:	c1 e8 10             	shr    $0x10,%eax
c0103c8d:	89 c2                	mov    %eax,%edx
c0103c8f:	8b 45 08             	mov    0x8(%ebp),%eax
c0103c92:	88 14 c5 44 b0 10 c0 	mov    %dl,-0x3fef4fbc(,%eax,8)
c0103c99:	8b 45 0c             	mov    0xc(%ebp),%eax
c0103c9c:	c1 e8 18             	shr    $0x18,%eax
c0103c9f:	89 c2                	mov    %eax,%edx
c0103ca1:	8b 45 08             	mov    0x8(%ebp),%eax
c0103ca4:	88 14 c5 47 b0 10 c0 	mov    %dl,-0x3fef4fb9(,%eax,8)
c0103cab:	8b 45 10             	mov    0x10(%ebp),%eax
c0103cae:	89 c2                	mov    %eax,%edx
c0103cb0:	8b 45 08             	mov    0x8(%ebp),%eax
c0103cb3:	66 89 14 c5 40 b0 10 	mov    %dx,-0x3fef4fc0(,%eax,8)
c0103cba:	c0 
c0103cbb:	8b 45 10             	mov    0x10(%ebp),%eax
c0103cbe:	c1 e8 10             	shr    $0x10,%eax
c0103cc1:	83 e0 0f             	and    $0xf,%eax
c0103cc4:	89 c2                	mov    %eax,%edx
c0103cc6:	8b 45 08             	mov    0x8(%ebp),%eax
c0103cc9:	88 14 c5 46 b0 10 c0 	mov    %dl,-0x3fef4fba(,%eax,8)
c0103cd0:	8b 45 08             	mov    0x8(%ebp),%eax
c0103cd3:	0f b6 04 c5 46 b0 10 	movzbl -0x3fef4fba(,%eax,8),%eax
c0103cda:	c0 
c0103cdb:	89 c2                	mov    %eax,%edx
c0103cdd:	0f b6 45 f8          	movzbl -0x8(%ebp),%eax
c0103ce1:	83 e0 f0             	and    $0xfffffff0,%eax
c0103ce4:	09 d0                	or     %edx,%eax
c0103ce6:	89 c2                	mov    %eax,%edx
c0103ce8:	8b 45 08             	mov    0x8(%ebp),%eax
c0103ceb:	88 14 c5 46 b0 10 c0 	mov    %dl,-0x3fef4fba(,%eax,8)
c0103cf2:	8b 45 08             	mov    0x8(%ebp),%eax
c0103cf5:	0f b6 55 fc          	movzbl -0x4(%ebp),%edx
c0103cf9:	88 14 c5 45 b0 10 c0 	mov    %dl,-0x3fef4fbb(,%eax,8)
c0103d00:	90                   	nop
c0103d01:	c9                   	leave
c0103d02:	c3                   	ret

c0103d03 <gdt_install>:
c0103d03:	55                   	push   %ebp
c0103d04:	89 e5                	mov    %esp,%ebp
c0103d06:	83 ec 08             	sub    $0x8,%esp
c0103d09:	66 c7 05 68 b0 10 c0 	movw   $0x27,0xc010b068
c0103d10:	27 00 
c0103d12:	b8 40 b0 10 c0       	mov    $0xc010b040,%eax
c0103d17:	a3 6a b0 10 c0       	mov    %eax,0xc010b06a
c0103d1c:	6a 00                	push   $0x0
c0103d1e:	6a 00                	push   $0x0
c0103d20:	6a 00                	push   $0x0
c0103d22:	6a 00                	push   $0x0
c0103d24:	6a 00                	push   $0x0
c0103d26:	e8 3a ff ff ff       	call   c0103c65 <gdt_set_gate>
c0103d2b:	83 c4 14             	add    $0x14,%esp
c0103d2e:	68 cf 00 00 00       	push   $0xcf
c0103d33:	68 9a 00 00 00       	push   $0x9a
c0103d38:	6a ff                	push   $0xffffffff
c0103d3a:	6a 00                	push   $0x0
c0103d3c:	6a 01                	push   $0x1
c0103d3e:	e8 22 ff ff ff       	call   c0103c65 <gdt_set_gate>
c0103d43:	83 c4 14             	add    $0x14,%esp
c0103d46:	68 cf 00 00 00       	push   $0xcf
c0103d4b:	68 92 00 00 00       	push   $0x92
c0103d50:	6a ff                	push   $0xffffffff
c0103d52:	6a 00                	push   $0x0
c0103d54:	6a 02                	push   $0x2
c0103d56:	e8 0a ff ff ff       	call   c0103c65 <gdt_set_gate>
c0103d5b:	83 c4 14             	add    $0x14,%esp
c0103d5e:	68 cf 00 00 00       	push   $0xcf
c0103d63:	68 fa 00 00 00       	push   $0xfa
c0103d68:	6a ff                	push   $0xffffffff
c0103d6a:	6a 00                	push   $0x0
c0103d6c:	6a 03                	push   $0x3
c0103d6e:	e8 f2 fe ff ff       	call   c0103c65 <gdt_set_gate>
c0103d73:	83 c4 14             	add    $0x14,%esp
c0103d76:	68 cf 00 00 00       	push   $0xcf
c0103d7b:	68 f2 00 00 00       	push   $0xf2
c0103d80:	6a ff                	push   $0xffffffff
c0103d82:	6a 00                	push   $0x0
c0103d84:	6a 04                	push   $0x4
c0103d86:	e8 da fe ff ff       	call   c0103c65 <gdt_set_gate>
c0103d8b:	83 c4 14             	add    $0x14,%esp
c0103d8e:	b8 68 b0 10 c0       	mov    $0xc010b068,%eax
c0103d93:	83 ec 0c             	sub    $0xc,%esp
c0103d96:	50                   	push   %eax
c0103d97:	e8 74 f1 ff ff       	call   c0102f10 <flush_gdt>
c0103d9c:	83 c4 10             	add    $0x10,%esp
c0103d9f:	90                   	nop
c0103da0:	c9                   	leave
c0103da1:	c3                   	ret

c0103da2 <idt_set_gate>:
c0103da2:	55                   	push   %ebp
c0103da3:	89 e5                	mov    %esp,%ebp
c0103da5:	83 ec 08             	sub    $0x8,%esp
c0103da8:	8b 55 08             	mov    0x8(%ebp),%edx
c0103dab:	8b 45 10             	mov    0x10(%ebp),%eax
c0103dae:	88 55 fc             	mov    %dl,-0x4(%ebp)
c0103db1:	88 45 f8             	mov    %al,-0x8(%ebp)
c0103db4:	0f b6 45 fc          	movzbl -0x4(%ebp),%eax
c0103db8:	8b 55 0c             	mov    0xc(%ebp),%edx
c0103dbb:	66 89 14 c5 70 b0 10 	mov    %dx,-0x3fef4f90(,%eax,8)
c0103dc2:	c0 
c0103dc3:	0f b6 45 fc          	movzbl -0x4(%ebp),%eax
c0103dc7:	66 c7 04 c5 72 b0 10 	movw   $0x8,-0x3fef4f8e(,%eax,8)
c0103dce:	c0 08 00 
c0103dd1:	0f b6 45 fc          	movzbl -0x4(%ebp),%eax
c0103dd5:	0f b6 55 f8          	movzbl -0x8(%ebp),%edx
c0103dd9:	88 14 c5 75 b0 10 c0 	mov    %dl,-0x3fef4f8b(,%eax,8)
c0103de0:	8b 45 0c             	mov    0xc(%ebp),%eax
c0103de3:	c1 e8 10             	shr    $0x10,%eax
c0103de6:	89 c2                	mov    %eax,%edx
c0103de8:	0f b6 45 fc          	movzbl -0x4(%ebp),%eax
c0103dec:	66 89 14 c5 76 b0 10 	mov    %dx,-0x3fef4f8a(,%eax,8)
c0103df3:	c0 
c0103df4:	0f b6 45 fc          	movzbl -0x4(%ebp),%eax
c0103df8:	c6 04 c5 74 b0 10 c0 	movb   $0x0,-0x3fef4f8c(,%eax,8)
c0103dff:	00 
c0103e00:	90                   	nop
c0103e01:	c9                   	leave
c0103e02:	c3                   	ret

c0103e03 <init_idt>:
c0103e03:	55                   	push   %ebp
c0103e04:	89 e5                	mov    %esp,%ebp
c0103e06:	83 ec 08             	sub    $0x8,%esp
c0103e09:	b8 70 b0 10 c0       	mov    $0xc010b070,%eax
c0103e0e:	a3 72 b8 10 c0       	mov    %eax,0xc010b872
c0103e13:	66 c7 05 70 b8 10 c0 	movw   $0x7ff,0xc010b870
c0103e1a:	ff 07 
c0103e1c:	83 ec 04             	sub    $0x4,%esp
c0103e1f:	68 ff 07 00 00       	push   $0x7ff
c0103e24:	6a 00                	push   $0x0
c0103e26:	68 70 b0 10 c0       	push   $0xc010b070
c0103e2b:	e8 cb da ff ff       	call   c01018fb <memset>
c0103e30:	83 c4 10             	add    $0x10,%esp
c0103e33:	b8 a9 1c 10 c0       	mov    $0xc0101ca9,%eax
c0103e38:	83 ec 04             	sub    $0x4,%esp
c0103e3b:	68 8e 00 00 00       	push   $0x8e
c0103e40:	50                   	push   %eax
c0103e41:	6a 00                	push   $0x0
c0103e43:	e8 5a ff ff ff       	call   c0103da2 <idt_set_gate>
c0103e48:	83 c4 10             	add    $0x10,%esp
c0103e4b:	b8 b0 1c 10 c0       	mov    $0xc0101cb0,%eax
c0103e50:	83 ec 04             	sub    $0x4,%esp
c0103e53:	68 8e 00 00 00       	push   $0x8e
c0103e58:	50                   	push   %eax
c0103e59:	6a 01                	push   $0x1
c0103e5b:	e8 42 ff ff ff       	call   c0103da2 <idt_set_gate>
c0103e60:	83 c4 10             	add    $0x10,%esp
c0103e63:	b8 b7 1c 10 c0       	mov    $0xc0101cb7,%eax
c0103e68:	83 ec 04             	sub    $0x4,%esp
c0103e6b:	68 8e 00 00 00       	push   $0x8e
c0103e70:	50                   	push   %eax
c0103e71:	6a 02                	push   $0x2
c0103e73:	e8 2a ff ff ff       	call   c0103da2 <idt_set_gate>
c0103e78:	83 c4 10             	add    $0x10,%esp
c0103e7b:	b8 be 1c 10 c0       	mov    $0xc0101cbe,%eax
c0103e80:	83 ec 04             	sub    $0x4,%esp
c0103e83:	68 8e 00 00 00       	push   $0x8e
c0103e88:	50                   	push   %eax
c0103e89:	6a 03                	push   $0x3
c0103e8b:	e8 12 ff ff ff       	call   c0103da2 <idt_set_gate>
c0103e90:	83 c4 10             	add    $0x10,%esp
c0103e93:	b8 c5 1c 10 c0       	mov    $0xc0101cc5,%eax
c0103e98:	83 ec 04             	sub    $0x4,%esp
c0103e9b:	68 8e 00 00 00       	push   $0x8e
c0103ea0:	50                   	push   %eax
c0103ea1:	6a 04                	push   $0x4
c0103ea3:	e8 fa fe ff ff       	call   c0103da2 <idt_set_gate>
c0103ea8:	83 c4 10             	add    $0x10,%esp
c0103eab:	b8 cc 1c 10 c0       	mov    $0xc0101ccc,%eax
c0103eb0:	83 ec 04             	sub    $0x4,%esp
c0103eb3:	68 8e 00 00 00       	push   $0x8e
c0103eb8:	50                   	push   %eax
c0103eb9:	6a 05                	push   $0x5
c0103ebb:	e8 e2 fe ff ff       	call   c0103da2 <idt_set_gate>
c0103ec0:	83 c4 10             	add    $0x10,%esp
c0103ec3:	b8 d3 1c 10 c0       	mov    $0xc0101cd3,%eax
c0103ec8:	83 ec 04             	sub    $0x4,%esp
c0103ecb:	68 8e 00 00 00       	push   $0x8e
c0103ed0:	50                   	push   %eax
c0103ed1:	6a 06                	push   $0x6
c0103ed3:	e8 ca fe ff ff       	call   c0103da2 <idt_set_gate>
c0103ed8:	83 c4 10             	add    $0x10,%esp
c0103edb:	b8 da 1c 10 c0       	mov    $0xc0101cda,%eax
c0103ee0:	83 ec 04             	sub    $0x4,%esp
c0103ee3:	68 8e 00 00 00       	push   $0x8e
c0103ee8:	50                   	push   %eax
c0103ee9:	6a 07                	push   $0x7
c0103eeb:	e8 b2 fe ff ff       	call   c0103da2 <idt_set_gate>
c0103ef0:	83 c4 10             	add    $0x10,%esp
c0103ef3:	b8 e1 1c 10 c0       	mov    $0xc0101ce1,%eax
c0103ef8:	83 ec 04             	sub    $0x4,%esp
c0103efb:	68 8e 00 00 00       	push   $0x8e
c0103f00:	50                   	push   %eax
c0103f01:	6a 08                	push   $0x8
c0103f03:	e8 9a fe ff ff       	call   c0103da2 <idt_set_gate>
c0103f08:	83 c4 10             	add    $0x10,%esp
c0103f0b:	b8 e6 1c 10 c0       	mov    $0xc0101ce6,%eax
c0103f10:	83 ec 04             	sub    $0x4,%esp
c0103f13:	68 8e 00 00 00       	push   $0x8e
c0103f18:	50                   	push   %eax
c0103f19:	6a 09                	push   $0x9
c0103f1b:	e8 82 fe ff ff       	call   c0103da2 <idt_set_gate>
c0103f20:	83 c4 10             	add    $0x10,%esp
c0103f23:	b8 ed 1c 10 c0       	mov    $0xc0101ced,%eax
c0103f28:	83 ec 04             	sub    $0x4,%esp
c0103f2b:	68 8e 00 00 00       	push   $0x8e
c0103f30:	50                   	push   %eax
c0103f31:	6a 0a                	push   $0xa
c0103f33:	e8 6a fe ff ff       	call   c0103da2 <idt_set_gate>
c0103f38:	83 c4 10             	add    $0x10,%esp
c0103f3b:	b8 f5 1c 10 c0       	mov    $0xc0101cf5,%eax
c0103f40:	83 ec 04             	sub    $0x4,%esp
c0103f43:	68 8e 00 00 00       	push   $0x8e
c0103f48:	50                   	push   %eax
c0103f49:	6a 0b                	push   $0xb
c0103f4b:	e8 52 fe ff ff       	call   c0103da2 <idt_set_gate>
c0103f50:	83 c4 10             	add    $0x10,%esp
c0103f53:	b8 fd 1c 10 c0       	mov    $0xc0101cfd,%eax
c0103f58:	83 ec 04             	sub    $0x4,%esp
c0103f5b:	68 8e 00 00 00       	push   $0x8e
c0103f60:	50                   	push   %eax
c0103f61:	6a 0c                	push   $0xc
c0103f63:	e8 3a fe ff ff       	call   c0103da2 <idt_set_gate>
c0103f68:	83 c4 10             	add    $0x10,%esp
c0103f6b:	b8 05 1d 10 c0       	mov    $0xc0101d05,%eax
c0103f70:	83 ec 04             	sub    $0x4,%esp
c0103f73:	68 8e 00 00 00       	push   $0x8e
c0103f78:	50                   	push   %eax
c0103f79:	6a 0d                	push   $0xd
c0103f7b:	e8 22 fe ff ff       	call   c0103da2 <idt_set_gate>
c0103f80:	83 c4 10             	add    $0x10,%esp
c0103f83:	b8 0d 1d 10 c0       	mov    $0xc0101d0d,%eax
c0103f88:	83 ec 04             	sub    $0x4,%esp
c0103f8b:	68 8e 00 00 00       	push   $0x8e
c0103f90:	50                   	push   %eax
c0103f91:	6a 0e                	push   $0xe
c0103f93:	e8 0a fe ff ff       	call   c0103da2 <idt_set_gate>
c0103f98:	83 c4 10             	add    $0x10,%esp
c0103f9b:	b8 15 1d 10 c0       	mov    $0xc0101d15,%eax
c0103fa0:	83 ec 04             	sub    $0x4,%esp
c0103fa3:	68 8e 00 00 00       	push   $0x8e
c0103fa8:	50                   	push   %eax
c0103fa9:	6a 0f                	push   $0xf
c0103fab:	e8 f2 fd ff ff       	call   c0103da2 <idt_set_gate>
c0103fb0:	83 c4 10             	add    $0x10,%esp
c0103fb3:	b8 1f 1d 10 c0       	mov    $0xc0101d1f,%eax
c0103fb8:	83 ec 04             	sub    $0x4,%esp
c0103fbb:	68 8e 00 00 00       	push   $0x8e
c0103fc0:	50                   	push   %eax
c0103fc1:	6a 10                	push   $0x10
c0103fc3:	e8 da fd ff ff       	call   c0103da2 <idt_set_gate>
c0103fc8:	83 c4 10             	add    $0x10,%esp
c0103fcb:	b8 29 1d 10 c0       	mov    $0xc0101d29,%eax
c0103fd0:	83 ec 04             	sub    $0x4,%esp
c0103fd3:	68 8e 00 00 00       	push   $0x8e
c0103fd8:	50                   	push   %eax
c0103fd9:	6a 11                	push   $0x11
c0103fdb:	e8 c2 fd ff ff       	call   c0103da2 <idt_set_gate>
c0103fe0:	83 c4 10             	add    $0x10,%esp
c0103fe3:	b8 31 1d 10 c0       	mov    $0xc0101d31,%eax
c0103fe8:	83 ec 04             	sub    $0x4,%esp
c0103feb:	68 8e 00 00 00       	push   $0x8e
c0103ff0:	50                   	push   %eax
c0103ff1:	6a 12                	push   $0x12
c0103ff3:	e8 aa fd ff ff       	call   c0103da2 <idt_set_gate>
c0103ff8:	83 c4 10             	add    $0x10,%esp
c0103ffb:	b8 3b 1d 10 c0       	mov    $0xc0101d3b,%eax
c0104000:	83 ec 04             	sub    $0x4,%esp
c0104003:	68 8e 00 00 00       	push   $0x8e
c0104008:	50                   	push   %eax
c0104009:	6a 13                	push   $0x13
c010400b:	e8 92 fd ff ff       	call   c0103da2 <idt_set_gate>
c0104010:	83 c4 10             	add    $0x10,%esp
c0104013:	b8 45 1d 10 c0       	mov    $0xc0101d45,%eax
c0104018:	83 ec 04             	sub    $0x4,%esp
c010401b:	68 8e 00 00 00       	push   $0x8e
c0104020:	50                   	push   %eax
c0104021:	6a 14                	push   $0x14
c0104023:	e8 7a fd ff ff       	call   c0103da2 <idt_set_gate>
c0104028:	83 c4 10             	add    $0x10,%esp
c010402b:	b8 4f 1d 10 c0       	mov    $0xc0101d4f,%eax
c0104030:	83 ec 04             	sub    $0x4,%esp
c0104033:	68 8e 00 00 00       	push   $0x8e
c0104038:	50                   	push   %eax
c0104039:	6a 15                	push   $0x15
c010403b:	e8 62 fd ff ff       	call   c0103da2 <idt_set_gate>
c0104040:	83 c4 10             	add    $0x10,%esp
c0104043:	b8 59 1d 10 c0       	mov    $0xc0101d59,%eax
c0104048:	83 ec 04             	sub    $0x4,%esp
c010404b:	68 8e 00 00 00       	push   $0x8e
c0104050:	50                   	push   %eax
c0104051:	6a 16                	push   $0x16
c0104053:	e8 4a fd ff ff       	call   c0103da2 <idt_set_gate>
c0104058:	83 c4 10             	add    $0x10,%esp
c010405b:	b8 63 1d 10 c0       	mov    $0xc0101d63,%eax
c0104060:	83 ec 04             	sub    $0x4,%esp
c0104063:	68 8e 00 00 00       	push   $0x8e
c0104068:	50                   	push   %eax
c0104069:	6a 17                	push   $0x17
c010406b:	e8 32 fd ff ff       	call   c0103da2 <idt_set_gate>
c0104070:	83 c4 10             	add    $0x10,%esp
c0104073:	b8 6d 1d 10 c0       	mov    $0xc0101d6d,%eax
c0104078:	83 ec 04             	sub    $0x4,%esp
c010407b:	68 8e 00 00 00       	push   $0x8e
c0104080:	50                   	push   %eax
c0104081:	6a 18                	push   $0x18
c0104083:	e8 1a fd ff ff       	call   c0103da2 <idt_set_gate>
c0104088:	83 c4 10             	add    $0x10,%esp
c010408b:	b8 77 1d 10 c0       	mov    $0xc0101d77,%eax
c0104090:	83 ec 04             	sub    $0x4,%esp
c0104093:	68 8e 00 00 00       	push   $0x8e
c0104098:	50                   	push   %eax
c0104099:	6a 19                	push   $0x19
c010409b:	e8 02 fd ff ff       	call   c0103da2 <idt_set_gate>
c01040a0:	83 c4 10             	add    $0x10,%esp
c01040a3:	b8 81 1d 10 c0       	mov    $0xc0101d81,%eax
c01040a8:	83 ec 04             	sub    $0x4,%esp
c01040ab:	68 8e 00 00 00       	push   $0x8e
c01040b0:	50                   	push   %eax
c01040b1:	6a 1a                	push   $0x1a
c01040b3:	e8 ea fc ff ff       	call   c0103da2 <idt_set_gate>
c01040b8:	83 c4 10             	add    $0x10,%esp
c01040bb:	b8 8b 1d 10 c0       	mov    $0xc0101d8b,%eax
c01040c0:	83 ec 04             	sub    $0x4,%esp
c01040c3:	68 8e 00 00 00       	push   $0x8e
c01040c8:	50                   	push   %eax
c01040c9:	6a 1b                	push   $0x1b
c01040cb:	e8 d2 fc ff ff       	call   c0103da2 <idt_set_gate>
c01040d0:	83 c4 10             	add    $0x10,%esp
c01040d3:	b8 95 1d 10 c0       	mov    $0xc0101d95,%eax
c01040d8:	83 ec 04             	sub    $0x4,%esp
c01040db:	68 8e 00 00 00       	push   $0x8e
c01040e0:	50                   	push   %eax
c01040e1:	6a 1c                	push   $0x1c
c01040e3:	e8 ba fc ff ff       	call   c0103da2 <idt_set_gate>
c01040e8:	83 c4 10             	add    $0x10,%esp
c01040eb:	b8 9f 1d 10 c0       	mov    $0xc0101d9f,%eax
c01040f0:	83 ec 04             	sub    $0x4,%esp
c01040f3:	68 8e 00 00 00       	push   $0x8e
c01040f8:	50                   	push   %eax
c01040f9:	6a 1d                	push   $0x1d
c01040fb:	e8 a2 fc ff ff       	call   c0103da2 <idt_set_gate>
c0104100:	83 c4 10             	add    $0x10,%esp
c0104103:	b8 a9 1d 10 c0       	mov    $0xc0101da9,%eax
c0104108:	83 ec 04             	sub    $0x4,%esp
c010410b:	68 8e 00 00 00       	push   $0x8e
c0104110:	50                   	push   %eax
c0104111:	6a 1e                	push   $0x1e
c0104113:	e8 8a fc ff ff       	call   c0103da2 <idt_set_gate>
c0104118:	83 c4 10             	add    $0x10,%esp
c010411b:	b8 b1 1d 10 c0       	mov    $0xc0101db1,%eax
c0104120:	83 ec 04             	sub    $0x4,%esp
c0104123:	68 8e 00 00 00       	push   $0x8e
c0104128:	50                   	push   %eax
c0104129:	6a 1f                	push   $0x1f
c010412b:	e8 72 fc ff ff       	call   c0103da2 <idt_set_gate>
c0104130:	83 c4 10             	add    $0x10,%esp
c0104133:	b8 bb 1d 10 c0       	mov    $0xc0101dbb,%eax
c0104138:	83 ec 04             	sub    $0x4,%esp
c010413b:	68 8e 00 00 00       	push   $0x8e
c0104140:	50                   	push   %eax
c0104141:	6a 30                	push   $0x30
c0104143:	e8 5a fc ff ff       	call   c0103da2 <idt_set_gate>
c0104148:	83 c4 10             	add    $0x10,%esp
c010414b:	b8 c3 1d 10 c0       	mov    $0xc0101dc3,%eax
c0104150:	83 ec 04             	sub    $0x4,%esp
c0104153:	68 8e 00 00 00       	push   $0x8e
c0104158:	50                   	push   %eax
c0104159:	6a 31                	push   $0x31
c010415b:	e8 42 fc ff ff       	call   c0103da2 <idt_set_gate>
c0104160:	83 c4 10             	add    $0x10,%esp
c0104163:	b8 cb 1d 10 c0       	mov    $0xc0101dcb,%eax
c0104168:	83 ec 04             	sub    $0x4,%esp
c010416b:	68 8e 00 00 00       	push   $0x8e
c0104170:	50                   	push   %eax
c0104171:	6a 32                	push   $0x32
c0104173:	e8 2a fc ff ff       	call   c0103da2 <idt_set_gate>
c0104178:	83 c4 10             	add    $0x10,%esp
c010417b:	83 ec 0c             	sub    $0xc,%esp
c010417e:	68 10 56 10 c0       	push   $0xc0105610
c0104183:	e8 54 07 00 00       	call   c01048dc <log_to_serial>
c0104188:	83 c4 10             	add    $0x10,%esp
c010418b:	0f 01 1d 70 b8 10 c0 	lidtl  0xc010b870
c0104192:	fb                   	sti
c0104193:	90                   	nop
c0104194:	c9                   	leave
c0104195:	c3                   	ret

c0104196 <exc_print>:
c0104196:	55                   	push   %ebp
c0104197:	89 e5                	mov    %esp,%ebp
c0104199:	83 ec 18             	sub    $0x18,%esp
c010419c:	c7 45 f4 01 00 00 00 	movl   $0x1,-0xc(%ebp)
c01041a3:	8b 45 08             	mov    0x8(%ebp),%eax
c01041a6:	8b 40 24             	mov    0x24(%eax),%eax
c01041a9:	83 f8 0e             	cmp    $0xe,%eax
c01041ac:	74 6a                	je     c0104218 <exc_print+0x82>
c01041ae:	83 f8 0e             	cmp    $0xe,%eax
c01041b1:	77 7b                	ja     c010422e <exc_print+0x98>
c01041b3:	83 f8 0d             	cmp    $0xd,%eax
c01041b6:	74 37                	je     c01041ef <exc_print+0x59>
c01041b8:	83 f8 0d             	cmp    $0xd,%eax
c01041bb:	77 71                	ja     c010422e <exc_print+0x98>
c01041bd:	85 c0                	test   %eax,%eax
c01041bf:	74 07                	je     c01041c8 <exc_print+0x32>
c01041c1:	83 f8 06             	cmp    $0x6,%eax
c01041c4:	74 17                	je     c01041dd <exc_print+0x47>
c01041c6:	eb 66                	jmp    c010422e <exc_print+0x98>
c01041c8:	83 ec 0c             	sub    $0xc,%esp
c01041cb:	68 1c 56 10 c0       	push   $0xc010561c
c01041d0:	e8 07 07 00 00       	call   c01048dc <log_to_serial>
c01041d5:	83 c4 10             	add    $0x10,%esp
c01041d8:	e9 80 00 00 00       	jmp    c010425d <exc_print+0xc7>
c01041dd:	83 ec 0c             	sub    $0xc,%esp
c01041e0:	68 40 56 10 c0       	push   $0xc0105640
c01041e5:	e8 f2 06 00 00       	call   c01048dc <log_to_serial>
c01041ea:	83 c4 10             	add    $0x10,%esp
c01041ed:	eb 6e                	jmp    c010425d <exc_print+0xc7>
c01041ef:	8b 45 08             	mov    0x8(%ebp),%eax
c01041f2:	8b 40 28             	mov    0x28(%eax),%eax
c01041f5:	83 ec 08             	sub    $0x8,%esp
c01041f8:	50                   	push   %eax
c01041f9:	68 61 56 10 c0       	push   $0xc0105661
c01041fe:	e8 13 09 00 00       	call   c0104b16 <logf>
c0104203:	83 c4 10             	add    $0x10,%esp
c0104206:	83 ec 0c             	sub    $0xc,%esp
c0104209:	68 70 56 10 c0       	push   $0xc0105670
c010420e:	e8 c9 06 00 00       	call   c01048dc <log_to_serial>
c0104213:	83 c4 10             	add    $0x10,%esp
c0104216:	eb 45                	jmp    c010425d <exc_print+0xc7>
c0104218:	83 ec 0c             	sub    $0xc,%esp
c010421b:	ff 75 08             	push   0x8(%ebp)
c010421e:	e8 f6 03 00 00       	call   c0104619 <handle_exception>
c0104223:	83 c4 10             	add    $0x10,%esp
c0104226:	0f b6 c0             	movzbl %al,%eax
c0104229:	89 45 f4             	mov    %eax,-0xc(%ebp)
c010422c:	eb 2f                	jmp    c010425d <exc_print+0xc7>
c010422e:	8b 45 08             	mov    0x8(%ebp),%eax
c0104231:	8b 50 24             	mov    0x24(%eax),%edx
c0104234:	8b 45 08             	mov    0x8(%ebp),%eax
c0104237:	8b 40 28             	mov    0x28(%eax),%eax
c010423a:	83 ec 04             	sub    $0x4,%esp
c010423d:	52                   	push   %edx
c010423e:	50                   	push   %eax
c010423f:	68 90 56 10 c0       	push   $0xc0105690
c0104244:	e8 cd 08 00 00       	call   c0104b16 <logf>
c0104249:	83 c4 10             	add    $0x10,%esp
c010424c:	83 ec 0c             	sub    $0xc,%esp
c010424f:	68 b3 56 10 c0       	push   $0xc01056b3
c0104254:	e8 83 06 00 00       	call   c01048dc <log_to_serial>
c0104259:	83 c4 10             	add    $0x10,%esp
c010425c:	90                   	nop
c010425d:	8b 45 f4             	mov    -0xc(%ebp),%eax
c0104260:	c9                   	leave
c0104261:	c3                   	ret

c0104262 <handle_keyboard>:
c0104262:	55                   	push   %ebp
c0104263:	89 e5                	mov    %esp,%ebp
c0104265:	83 ec 18             	sub    $0x18,%esp
c0104268:	83 ec 0c             	sub    $0xc,%esp
c010426b:	6a 60                	push   $0x60
c010426d:	e8 79 05 00 00       	call   c01047eb <inportb>
c0104272:	83 c4 10             	add    $0x10,%esp
c0104275:	88 45 f7             	mov    %al,-0x9(%ebp)
c0104278:	0f b6 45 f7          	movzbl -0x9(%ebp),%eax
c010427c:	83 ec 0c             	sub    $0xc,%esp
c010427f:	50                   	push   %eax
c0104280:	e8 85 e2 ff ff       	call   c010250a <recieve_scancode>
c0104285:	83 c4 10             	add    $0x10,%esp
c0104288:	90                   	nop
c0104289:	c9                   	leave
c010428a:	c3                   	ret

c010428b <irq_handler>:
c010428b:	55                   	push   %ebp
c010428c:	89 e5                	mov    %esp,%ebp
c010428e:	83 ec 08             	sub    $0x8,%esp
c0104291:	81 7d 08 80 00 00 00 	cmpl   $0x80,0x8(%ebp)
c0104298:	74 2f                	je     c01042c9 <irq_handler+0x3e>
c010429a:	81 7d 08 80 00 00 00 	cmpl   $0x80,0x8(%ebp)
c01042a1:	7f 2a                	jg     c01042cd <irq_handler+0x42>
c01042a3:	83 7d 08 32          	cmpl   $0x32,0x8(%ebp)
c01042a7:	74 19                	je     c01042c2 <irq_handler+0x37>
c01042a9:	83 7d 08 32          	cmpl   $0x32,0x8(%ebp)
c01042ad:	7f 1e                	jg     c01042cd <irq_handler+0x42>
c01042af:	83 7d 08 30          	cmpl   $0x30,0x8(%ebp)
c01042b3:	74 17                	je     c01042cc <irq_handler+0x41>
c01042b5:	83 7d 08 31          	cmpl   $0x31,0x8(%ebp)
c01042b9:	75 12                	jne    c01042cd <irq_handler+0x42>
c01042bb:	e8 b4 de ff ff       	call   c0102174 <end_calibration>
c01042c0:	eb 0b                	jmp    c01042cd <irq_handler+0x42>
c01042c2:	e8 4d e1 ff ff       	call   c0102414 <handle_keychange>
c01042c7:	eb 04                	jmp    c01042cd <irq_handler+0x42>
c01042c9:	90                   	nop
c01042ca:	eb 01                	jmp    c01042cd <irq_handler+0x42>
c01042cc:	90                   	nop
c01042cd:	a1 20 80 10 c0       	mov    0xc0108020,%eax
c01042d2:	83 ec 0c             	sub    $0xc,%esp
c01042d5:	50                   	push   %eax
c01042d6:	e8 49 dd ff ff       	call   c0102024 <send_EOI>
c01042db:	83 c4 10             	add    $0x10,%esp
c01042de:	90                   	nop
c01042df:	c9                   	leave
c01042e0:	c3                   	ret

c01042e1 <isr_handler>:
c01042e1:	55                   	push   %ebp
c01042e2:	89 e5                	mov    %esp,%ebp
c01042e4:	83 ec 08             	sub    $0x8,%esp
c01042e7:	8b 45 2c             	mov    0x2c(%ebp),%eax
c01042ea:	83 f8 1f             	cmp    $0x1f,%eax
c01042ed:	77 13                	ja     c0104302 <isr_handler+0x21>
c01042ef:	83 ec 0c             	sub    $0xc,%esp
c01042f2:	8d 45 08             	lea    0x8(%ebp),%eax
c01042f5:	50                   	push   %eax
c01042f6:	e8 9b fe ff ff       	call   c0104196 <exc_print>
c01042fb:	83 c4 10             	add    $0x10,%esp
c01042fe:	84 c0                	test   %al,%al
c0104300:	74 14                	je     c0104316 <isr_handler+0x35>
c0104302:	83 ec 0c             	sub    $0xc,%esp
c0104305:	68 b8 56 10 c0       	push   $0xc01056b8
c010430a:	e8 07 08 00 00       	call   c0104b16 <logf>
c010430f:	83 c4 10             	add    $0x10,%esp
c0104312:	fa                   	cli
c0104313:	f4                   	hlt
c0104314:	eb 01                	jmp    c0104317 <isr_handler+0x36>
c0104316:	90                   	nop
c0104317:	c9                   	leave
c0104318:	c3                   	ret

c0104319 <memory_map>:
c0104319:	55                   	push   %ebp
c010431a:	89 e5                	mov    %esp,%ebp
c010431c:	83 ec 18             	sub    $0x18,%esp
c010431f:	8b 45 10             	mov    0x10(%ebp),%eax
c0104322:	c1 e8 16             	shr    $0x16,%eax
c0104325:	89 45 f4             	mov    %eax,-0xc(%ebp)
c0104328:	8b 45 10             	mov    0x10(%ebp),%eax
c010432b:	c1 e8 0c             	shr    $0xc,%eax
c010432e:	25 ff 03 00 00       	and    $0x3ff,%eax
c0104333:	89 45 f0             	mov    %eax,-0x10(%ebp)
c0104336:	8b 45 f4             	mov    -0xc(%ebp),%eax
c0104339:	8d 14 85 00 00 00 00 	lea    0x0(,%eax,4),%edx
c0104340:	8b 45 08             	mov    0x8(%ebp),%eax
c0104343:	01 d0                	add    %edx,%eax
c0104345:	8b 00                	mov    (%eax),%eax
c0104347:	85 c0                	test   %eax,%eax
c0104349:	75 11                	jne    c010435c <memory_map+0x43>
c010434b:	83 ec 08             	sub    $0x8,%esp
c010434e:	ff 75 f4             	push   -0xc(%ebp)
c0104351:	ff 75 08             	push   0x8(%ebp)
c0104354:	e8 f4 00 00 00       	call   c010444d <create_new_pt>
c0104359:	83 c4 10             	add    $0x10,%esp
c010435c:	8b 45 f4             	mov    -0xc(%ebp),%eax
c010435f:	c1 e0 0c             	shl    $0xc,%eax
c0104362:	0d 00 00 c0 ff       	or     $0xffc00000,%eax
c0104367:	89 45 ec             	mov    %eax,-0x14(%ebp)
c010436a:	8b 45 0c             	mov    0xc(%ebp),%eax
c010436d:	25 ff 03 00 00       	and    $0x3ff,%eax
c0104372:	85 c0                	test   %eax,%eax
c0104374:	74 12                	je     c0104388 <memory_map+0x6f>
c0104376:	83 ec 0c             	sub    $0xc,%esp
c0104379:	68 dc 56 10 c0       	push   $0xc01056dc
c010437e:	e8 59 05 00 00       	call   c01048dc <log_to_serial>
c0104383:	83 c4 10             	add    $0x10,%esp
c0104386:	eb 17                	jmp    c010439f <memory_map+0x86>
c0104388:	8b 45 0c             	mov    0xc(%ebp),%eax
c010438b:	8b 55 f0             	mov    -0x10(%ebp),%edx
c010438e:	8d 0c 95 00 00 00 00 	lea    0x0(,%edx,4),%ecx
c0104395:	8b 55 ec             	mov    -0x14(%ebp),%edx
c0104398:	01 ca                	add    %ecx,%edx
c010439a:	0b 45 14             	or     0x14(%ebp),%eax
c010439d:	89 02                	mov    %eax,(%edx)
c010439f:	c9                   	leave
c01043a0:	c3                   	ret

c01043a1 <memory_unmap>:
c01043a1:	55                   	push   %ebp
c01043a2:	89 e5                	mov    %esp,%ebp
c01043a4:	83 ec 18             	sub    $0x18,%esp
c01043a7:	8b 45 0c             	mov    0xc(%ebp),%eax
c01043aa:	c1 e8 16             	shr    $0x16,%eax
c01043ad:	89 45 f4             	mov    %eax,-0xc(%ebp)
c01043b0:	8b 45 0c             	mov    0xc(%ebp),%eax
c01043b3:	c1 e8 0c             	shr    $0xc,%eax
c01043b6:	25 ff 03 00 00       	and    $0x3ff,%eax
c01043bb:	89 45 f0             	mov    %eax,-0x10(%ebp)
c01043be:	8b 45 f4             	mov    -0xc(%ebp),%eax
c01043c1:	c1 e0 0c             	shl    $0xc,%eax
c01043c4:	0d 00 00 c0 ff       	or     $0xffc00000,%eax
c01043c9:	89 45 ec             	mov    %eax,-0x14(%ebp)
c01043cc:	8b 45 f4             	mov    -0xc(%ebp),%eax
c01043cf:	8d 14 85 00 00 00 00 	lea    0x0(,%eax,4),%edx
c01043d6:	8b 45 08             	mov    0x8(%ebp),%eax
c01043d9:	01 d0                	add    %edx,%eax
c01043db:	8b 00                	mov    (%eax),%eax
c01043dd:	85 c0                	test   %eax,%eax
c01043df:	74 69                	je     c010444a <memory_unmap+0xa9>
c01043e1:	8b 45 0c             	mov    0xc(%ebp),%eax
c01043e4:	25 ff 03 00 00       	and    $0x3ff,%eax
c01043e9:	85 c0                	test   %eax,%eax
c01043eb:	74 12                	je     c01043ff <memory_unmap+0x5e>
c01043ed:	83 ec 0c             	sub    $0xc,%esp
c01043f0:	68 dc 56 10 c0       	push   $0xc01056dc
c01043f5:	e8 e2 04 00 00       	call   c01048dc <log_to_serial>
c01043fa:	83 c4 10             	add    $0x10,%esp
c01043fd:	eb 4c                	jmp    c010444b <memory_unmap+0xaa>
c01043ff:	8b 45 f0             	mov    -0x10(%ebp),%eax
c0104402:	8d 14 85 00 00 00 00 	lea    0x0(,%eax,4),%edx
c0104409:	8b 45 ec             	mov    -0x14(%ebp),%eax
c010440c:	01 d0                	add    %edx,%eax
c010440e:	8b 00                	mov    (%eax),%eax
c0104410:	25 00 f0 ff ff       	and    $0xfffff000,%eax
c0104415:	89 45 e8             	mov    %eax,-0x18(%ebp)
c0104418:	8b 45 e8             	mov    -0x18(%ebp),%eax
c010441b:	83 ec 0c             	sub    $0xc,%esp
c010441e:	50                   	push   %eax
c010441f:	e8 44 ed ff ff       	call   c0103168 <physical_to_frame>
c0104424:	83 c4 10             	add    $0x10,%esp
c0104427:	83 ec 0c             	sub    $0xc,%esp
c010442a:	50                   	push   %eax
c010442b:	e8 96 ec ff ff       	call   c01030c6 <clear_frame>
c0104430:	83 c4 10             	add    $0x10,%esp
c0104433:	8b 45 f0             	mov    -0x10(%ebp),%eax
c0104436:	8d 14 85 00 00 00 00 	lea    0x0(,%eax,4),%edx
c010443d:	8b 45 ec             	mov    -0x14(%ebp),%eax
c0104440:	01 d0                	add    %edx,%eax
c0104442:	c7 00 00 00 00 00    	movl   $0x0,(%eax)
c0104448:	eb 01                	jmp    c010444b <memory_unmap+0xaa>
c010444a:	90                   	nop
c010444b:	c9                   	leave
c010444c:	c3                   	ret

c010444d <create_new_pt>:
c010444d:	55                   	push   %ebp
c010444e:	89 e5                	mov    %esp,%ebp
c0104450:	83 ec 18             	sub    $0x18,%esp
c0104453:	83 ec 0c             	sub    $0xc,%esp
c0104456:	68 ff 56 10 c0       	push   $0xc01056ff
c010445b:	e8 7c 04 00 00       	call   c01048dc <log_to_serial>
c0104460:	83 c4 10             	add    $0x10,%esp
c0104463:	8b 45 08             	mov    0x8(%ebp),%eax
c0104466:	05 fc 0f 00 00       	add    $0xffc,%eax
c010446b:	8b 00                	mov    (%eax),%eax
c010446d:	2d 00 00 00 40       	sub    $0x40000000,%eax
c0104472:	89 45 f4             	mov    %eax,-0xc(%ebp)
c0104475:	e8 fe ec ff ff       	call   c0103178 <alloc_phys_page>
c010447a:	89 45 f0             	mov    %eax,-0x10(%ebp)
c010447d:	8b 55 f0             	mov    -0x10(%ebp),%edx
c0104480:	8b 45 0c             	mov    0xc(%ebp),%eax
c0104483:	8d 0c 85 00 00 00 00 	lea    0x0(,%eax,4),%ecx
c010448a:	8b 45 f4             	mov    -0xc(%ebp),%eax
c010448d:	01 c8                	add    %ecx,%eax
c010448f:	83 ca 03             	or     $0x3,%edx
c0104492:	89 10                	mov    %edx,(%eax)
c0104494:	8b 55 f0             	mov    -0x10(%ebp),%edx
c0104497:	8b 45 0c             	mov    0xc(%ebp),%eax
c010449a:	8d 0c 85 00 00 00 00 	lea    0x0(,%eax,4),%ecx
c01044a1:	8b 45 08             	mov    0x8(%ebp),%eax
c01044a4:	01 c8                	add    %ecx,%eax
c01044a6:	83 ca 03             	or     $0x3,%edx
c01044a9:	89 10                	mov    %edx,(%eax)
c01044ab:	8b 45 0c             	mov    0xc(%ebp),%eax
c01044ae:	c1 e0 0c             	shl    $0xc,%eax
c01044b1:	0d 00 00 c0 ff       	or     $0xffc00000,%eax
c01044b6:	89 45 ec             	mov    %eax,-0x14(%ebp)
c01044b9:	83 ec 04             	sub    $0x4,%esp
c01044bc:	68 00 04 00 00       	push   $0x400
c01044c1:	6a 00                	push   $0x0
c01044c3:	ff 75 ec             	push   -0x14(%ebp)
c01044c6:	e8 30 d4 ff ff       	call   c01018fb <memset>
c01044cb:	83 c4 10             	add    $0x10,%esp
c01044ce:	83 ec 08             	sub    $0x8,%esp
c01044d1:	ff 75 0c             	push   0xc(%ebp)
c01044d4:	68 10 57 10 c0       	push   $0xc0105710
c01044d9:	e8 38 06 00 00       	call   c0104b16 <logf>
c01044de:	83 c4 10             	add    $0x10,%esp
c01044e1:	8b 45 ec             	mov    -0x14(%ebp),%eax
c01044e4:	c9                   	leave
c01044e5:	c3                   	ret

c01044e6 <copy_kernel_map>:
c01044e6:	55                   	push   %ebp
c01044e7:	89 e5                	mov    %esp,%ebp
c01044e9:	83 ec 08             	sub    $0x8,%esp
c01044ec:	83 ec 04             	sub    $0x4,%esp
c01044ef:	68 00 10 00 00       	push   $0x1000
c01044f4:	68 00 c0 10 c0       	push   $0xc010c000
c01044f9:	ff 75 08             	push   0x8(%ebp)
c01044fc:	e8 a7 d3 ff ff       	call   c01018a8 <memcpy>
c0104501:	83 c4 10             	add    $0x10,%esp
c0104504:	90                   	nop
c0104505:	c9                   	leave
c0104506:	c3                   	ret

c0104507 <newinit_pd>:
c0104507:	55                   	push   %ebp
c0104508:	89 e5                	mov    %esp,%ebp
c010450a:	83 ec 10             	sub    $0x10,%esp
c010450d:	c7 45 fc 00 00 00 00 	movl   $0x0,-0x4(%ebp)
c0104514:	eb 19                	jmp    c010452f <newinit_pd+0x28>
c0104516:	8b 45 fc             	mov    -0x4(%ebp),%eax
c0104519:	8d 14 85 00 00 00 00 	lea    0x0(,%eax,4),%edx
c0104520:	8b 45 08             	mov    0x8(%ebp),%eax
c0104523:	01 d0                	add    %edx,%eax
c0104525:	c7 00 02 00 00 00    	movl   $0x2,(%eax)
c010452b:	83 45 fc 01          	addl   $0x1,-0x4(%ebp)
c010452f:	81 7d fc ff 03 00 00 	cmpl   $0x3ff,-0x4(%ebp)
c0104536:	7e de                	jle    c0104516 <newinit_pd+0xf>
c0104538:	8b 55 08             	mov    0x8(%ebp),%edx
c010453b:	8b 45 08             	mov    0x8(%ebp),%eax
c010453e:	05 fc 0f 00 00       	add    $0xffc,%eax
c0104543:	83 ca 03             	or     $0x3,%edx
c0104546:	89 10                	mov    %edx,(%eax)
c0104548:	90                   	nop
c0104549:	c9                   	leave
c010454a:	c3                   	ret

c010454b <init_kpt>:
c010454b:	55                   	push   %ebp
c010454c:	89 e5                	mov    %esp,%ebp
c010454e:	83 ec 18             	sub    $0x18,%esp
c0104551:	c7 45 f4 00 00 00 00 	movl   $0x0,-0xc(%ebp)
c0104558:	c7 45 f0 03 00 00 00 	movl   $0x3,-0x10(%ebp)
c010455f:	b8 10 f0 10 c0       	mov    $0xc010f010,%eax
c0104564:	8d 90 00 0c f0 3f    	lea    0x3ff00c00(%eax),%edx
c010456a:	8b 45 0c             	mov    0xc(%ebp),%eax
c010456d:	01 d0                	add    %edx,%eax
c010456f:	c1 e8 0c             	shr    $0xc,%eax
c0104572:	89 45 e8             	mov    %eax,-0x18(%ebp)
c0104575:	83 ec 08             	sub    $0x8,%esp
c0104578:	ff 75 e8             	push   -0x18(%ebp)
c010457b:	68 2c 57 10 c0       	push   $0xc010572c
c0104580:	e8 91 05 00 00       	call   c0104b16 <logf>
c0104585:	83 c4 10             	add    $0x10,%esp
c0104588:	c7 45 ec 00 01 00 00 	movl   $0x100,-0x14(%ebp)
c010458f:	eb 53                	jmp    c01045e4 <init_kpt+0x99>
c0104591:	8b 45 e8             	mov    -0x18(%ebp),%eax
c0104594:	05 04 01 00 00       	add    $0x104,%eax
c0104599:	3b 45 ec             	cmp    -0x14(%ebp),%eax
c010459c:	73 07                	jae    c01045a5 <init_kpt+0x5a>
c010459e:	c7 45 f0 02 00 00 00 	movl   $0x2,-0x10(%ebp)
c01045a5:	8b 45 ec             	mov    -0x14(%ebp),%eax
c01045a8:	8d 14 85 00 00 00 00 	lea    0x0(,%eax,4),%edx
c01045af:	8b 45 08             	mov    0x8(%ebp),%eax
c01045b2:	01 d0                	add    %edx,%eax
c01045b4:	8b 00                	mov    (%eax),%eax
c01045b6:	83 e0 03             	and    $0x3,%eax
c01045b9:	85 c0                	test   %eax,%eax
c01045bb:	75 1f                	jne    c01045dc <init_kpt+0x91>
c01045bd:	8b 45 f4             	mov    -0xc(%ebp),%eax
c01045c0:	05 00 01 00 00       	add    $0x100,%eax
c01045c5:	c1 e0 0c             	shl    $0xc,%eax
c01045c8:	8b 55 ec             	mov    -0x14(%ebp),%edx
c01045cb:	8d 0c 95 00 00 00 00 	lea    0x0(,%edx,4),%ecx
c01045d2:	8b 55 08             	mov    0x8(%ebp),%edx
c01045d5:	01 ca                	add    %ecx,%edx
c01045d7:	0b 45 f0             	or     -0x10(%ebp),%eax
c01045da:	89 02                	mov    %eax,(%edx)
c01045dc:	83 45 f4 01          	addl   $0x1,-0xc(%ebp)
c01045e0:	83 45 ec 01          	addl   $0x1,-0x14(%ebp)
c01045e4:	81 7d ec ff 03 00 00 	cmpl   $0x3ff,-0x14(%ebp)
c01045eb:	76 a4                	jbe    c0104591 <init_kpt+0x46>
c01045ed:	90                   	nop
c01045ee:	90                   	nop
c01045ef:	c9                   	leave
c01045f0:	c3                   	ret

c01045f1 <load_page_directory>:
c01045f1:	55                   	push   %ebp
c01045f2:	89 e5                	mov    %esp,%ebp
c01045f4:	8b 45 08             	mov    0x8(%ebp),%eax
c01045f7:	0f 22 d8             	mov    %eax,%cr3
c01045fa:	90                   	nop
c01045fb:	5d                   	pop    %ebp
c01045fc:	c3                   	ret

c01045fd <enable_paging_c>:
c01045fd:	55                   	push   %ebp
c01045fe:	89 e5                	mov    %esp,%ebp
c0104600:	83 ec 10             	sub    $0x10,%esp
c0104603:	0f 20 c0             	mov    %cr0,%eax
c0104606:	89 45 fc             	mov    %eax,-0x4(%ebp)
c0104609:	81 4d fc 00 00 00 80 	orl    $0x80000000,-0x4(%ebp)
c0104610:	8b 45 fc             	mov    -0x4(%ebp),%eax
c0104613:	0f 22 c0             	mov    %eax,%cr0
c0104616:	90                   	nop
c0104617:	c9                   	leave
c0104618:	c3                   	ret

c0104619 <handle_exception>:
c0104619:	55                   	push   %ebp
c010461a:	89 e5                	mov    %esp,%ebp
c010461c:	83 ec 18             	sub    $0x18,%esp
c010461f:	8b 45 08             	mov    0x8(%ebp),%eax
c0104622:	8b 40 28             	mov    0x28(%eax),%eax
c0104625:	89 45 f4             	mov    %eax,-0xc(%ebp)
c0104628:	8b 45 f4             	mov    -0xc(%ebp),%eax
c010462b:	83 e0 01             	and    $0x1,%eax
c010462e:	85 c0                	test   %eax,%eax
c0104630:	74 10                	je     c0104642 <handle_exception+0x29>
c0104632:	83 ec 0c             	sub    $0xc,%esp
c0104635:	68 37 57 10 c0       	push   $0xc0105737
c010463a:	e8 9d 02 00 00       	call   c01048dc <log_to_serial>
c010463f:	83 c4 10             	add    $0x10,%esp
c0104642:	8b 45 f4             	mov    -0xc(%ebp),%eax
c0104645:	83 e0 02             	and    $0x2,%eax
c0104648:	85 c0                	test   %eax,%eax
c010464a:	74 17                	je     c0104663 <handle_exception+0x4a>
c010464c:	8b 45 08             	mov    0x8(%ebp),%eax
c010464f:	8b 40 04             	mov    0x4(%eax),%eax
c0104652:	83 ec 08             	sub    $0x8,%esp
c0104655:	50                   	push   %eax
c0104656:	68 4c 57 10 c0       	push   $0xc010574c
c010465b:	e8 b6 04 00 00       	call   c0104b16 <logf>
c0104660:	83 c4 10             	add    $0x10,%esp
c0104663:	8b 45 f4             	mov    -0xc(%ebp),%eax
c0104666:	83 e0 04             	and    $0x4,%eax
c0104669:	85 c0                	test   %eax,%eax
c010466b:	74 10                	je     c010467d <handle_exception+0x64>
c010466d:	83 ec 0c             	sub    $0xc,%esp
c0104670:	68 60 57 10 c0       	push   $0xc0105760
c0104675:	e8 62 02 00 00       	call   c01048dc <log_to_serial>
c010467a:	83 c4 10             	add    $0x10,%esp
c010467d:	8b 45 f4             	mov    -0xc(%ebp),%eax
c0104680:	83 e0 08             	and    $0x8,%eax
c0104683:	85 c0                	test   %eax,%eax
c0104685:	74 10                	je     c0104697 <handle_exception+0x7e>
c0104687:	83 ec 0c             	sub    $0xc,%esp
c010468a:	68 83 57 10 c0       	push   $0xc0105783
c010468f:	e8 48 02 00 00       	call   c01048dc <log_to_serial>
c0104694:	83 c4 10             	add    $0x10,%esp
c0104697:	8b 45 f4             	mov    -0xc(%ebp),%eax
c010469a:	83 e0 10             	and    $0x10,%eax
c010469d:	85 c0                	test   %eax,%eax
c010469f:	74 10                	je     c01046b1 <handle_exception+0x98>
c01046a1:	83 ec 0c             	sub    $0xc,%esp
c01046a4:	68 93 57 10 c0       	push   $0xc0105793
c01046a9:	e8 2e 02 00 00       	call   c01048dc <log_to_serial>
c01046ae:	83 c4 10             	add    $0x10,%esp
c01046b1:	8b 45 f4             	mov    -0xc(%ebp),%eax
c01046b4:	83 e0 20             	and    $0x20,%eax
c01046b7:	85 c0                	test   %eax,%eax
c01046b9:	74 10                	je     c01046cb <handle_exception+0xb2>
c01046bb:	83 ec 0c             	sub    $0xc,%esp
c01046be:	68 a6 57 10 c0       	push   $0xc01057a6
c01046c3:	e8 14 02 00 00       	call   c01048dc <log_to_serial>
c01046c8:	83 c4 10             	add    $0x10,%esp
c01046cb:	8b 45 f4             	mov    -0xc(%ebp),%eax
c01046ce:	83 e0 40             	and    $0x40,%eax
c01046d1:	85 c0                	test   %eax,%eax
c01046d3:	74 10                	je     c01046e5 <handle_exception+0xcc>
c01046d5:	83 ec 0c             	sub    $0xc,%esp
c01046d8:	68 b8 57 10 c0       	push   $0xc01057b8
c01046dd:	e8 fa 01 00 00       	call   c01048dc <log_to_serial>
c01046e2:	83 c4 10             	add    $0x10,%esp
c01046e5:	8b 45 f4             	mov    -0xc(%ebp),%eax
c01046e8:	83 e0 fd             	and    $0xfffffffd,%eax
c01046eb:	85 c0                	test   %eax,%eax
c01046ed:	75 48                	jne    c0104737 <handle_exception+0x11e>
c01046ef:	8b 45 08             	mov    0x8(%ebp),%eax
c01046f2:	8b 40 04             	mov    0x4(%eax),%eax
c01046f5:	85 c0                	test   %eax,%eax
c01046f7:	75 10                	jne    c0104709 <handle_exception+0xf0>
c01046f9:	83 ec 0c             	sub    $0xc,%esp
c01046fc:	68 c6 57 10 c0       	push   $0xc01057c6
c0104701:	e8 10 04 00 00       	call   c0104b16 <logf>
c0104706:	83 c4 10             	add    $0x10,%esp
c0104709:	8b 45 08             	mov    0x8(%ebp),%eax
c010470c:	8b 40 04             	mov    0x4(%eax),%eax
c010470f:	83 ec 08             	sub    $0x8,%esp
c0104712:	50                   	push   %eax
c0104713:	68 dc 57 10 c0       	push   $0xc01057dc
c0104718:	e8 f9 03 00 00       	call   c0104b16 <logf>
c010471d:	83 c4 10             	add    $0x10,%esp
c0104720:	83 ec 0c             	sub    $0xc,%esp
c0104723:	68 ee 57 10 c0       	push   $0xc01057ee
c0104728:	e8 62 05 00 00       	call   c0104c8f <panic>
c010472d:	83 c4 10             	add    $0x10,%esp
c0104730:	b8 00 00 00 00       	mov    $0x0,%eax
c0104735:	eb 05                	jmp    c010473c <handle_exception+0x123>
c0104737:	b8 01 00 00 00       	mov    $0x1,%eax
c010473c:	c9                   	leave
c010473d:	c3                   	ret

c010473e <pg_init>:
c010473e:	55                   	push   %ebp
c010473f:	89 e5                	mov    %esp,%ebp
c0104741:	83 ec 08             	sub    $0x8,%esp
c0104744:	68 00 c0 10 c0       	push   $0xc010c000
c0104749:	e8 b9 fd ff ff       	call   c0104507 <newinit_pd>
c010474e:	83 c4 04             	add    $0x4,%esp
c0104751:	83 ec 04             	sub    $0x4,%esp
c0104754:	68 00 04 00 00       	push   $0x400
c0104759:	6a 00                	push   $0x0
c010475b:	68 00 c0 10 c0       	push   $0xc010c000
c0104760:	e8 96 d1 ff ff       	call   c01018fb <memset>
c0104765:	83 c4 10             	add    $0x10,%esp
c0104768:	8b 45 08             	mov    0x8(%ebp),%eax
c010476b:	05 00 0c 00 00       	add    $0xc00,%eax
c0104770:	8b 00                	mov    (%eax),%eax
c0104772:	25 00 f0 ff ff       	and    $0xfffff000,%eax
c0104777:	2d 00 00 00 40       	sub    $0x40000000,%eax
c010477c:	83 ec 04             	sub    $0x4,%esp
c010477f:	68 00 10 00 00       	push   $0x1000
c0104784:	50                   	push   %eax
c0104785:	68 00 d0 10 c0       	push   $0xc010d000
c010478a:	e8 19 d1 ff ff       	call   c01018a8 <memcpy>
c010478f:	83 c4 10             	add    $0x10,%esp
c0104792:	83 ec 08             	sub    $0x8,%esp
c0104795:	ff 75 0c             	push   0xc(%ebp)
c0104798:	68 00 d0 10 c0       	push   $0xc010d000
c010479d:	e8 a9 fd ff ff       	call   c010454b <init_kpt>
c01047a2:	83 c4 10             	add    $0x10,%esp
c01047a5:	b8 00 d0 10 c0       	mov    $0xc010d000,%eax
c01047aa:	05 00 00 00 40       	add    $0x40000000,%eax
c01047af:	83 c8 03             	or     $0x3,%eax
c01047b2:	a3 00 cc 10 c0       	mov    %eax,0xc010cc00
c01047b7:	b8 00 c0 10 c0       	mov    $0xc010c000,%eax
c01047bc:	05 00 00 00 40       	add    $0x40000000,%eax
c01047c1:	83 c8 03             	or     $0x3,%eax
c01047c4:	a3 fc cf 10 c0       	mov    %eax,0xc010cffc
c01047c9:	b8 00 c0 10 c0       	mov    $0xc010c000,%eax
c01047ce:	05 00 00 00 40       	add    $0x40000000,%eax
c01047d3:	83 ec 0c             	sub    $0xc,%esp
c01047d6:	50                   	push   %eax
c01047d7:	e8 15 fe ff ff       	call   c01045f1 <load_page_directory>
c01047dc:	83 c4 10             	add    $0x10,%esp
c01047df:	e8 19 fe ff ff       	call   c01045fd <enable_paging_c>
c01047e4:	b8 00 c0 10 c0       	mov    $0xc010c000,%eax
c01047e9:	c9                   	leave
c01047ea:	c3                   	ret

c01047eb <inportb>:
c01047eb:	55                   	push   %ebp
c01047ec:	89 e5                	mov    %esp,%ebp
c01047ee:	83 ec 10             	sub    $0x10,%esp
c01047f1:	c6 45 ff 00          	movb   $0x0,-0x1(%ebp)
c01047f5:	8b 45 08             	mov    0x8(%ebp),%eax
c01047f8:	89 c2                	mov    %eax,%edx
c01047fa:	ec                   	in     (%dx),%al
c01047fb:	88 45 ff             	mov    %al,-0x1(%ebp)
c01047fe:	0f b6 45 ff          	movzbl -0x1(%ebp),%eax
c0104802:	c9                   	leave
c0104803:	c3                   	ret

c0104804 <outportb>:
c0104804:	55                   	push   %ebp
c0104805:	89 e5                	mov    %esp,%ebp
c0104807:	83 ec 04             	sub    $0x4,%esp
c010480a:	8b 45 0c             	mov    0xc(%ebp),%eax
c010480d:	88 45 fc             	mov    %al,-0x4(%ebp)
c0104810:	0f b6 45 fc          	movzbl -0x4(%ebp),%eax
c0104814:	8b 55 08             	mov    0x8(%ebp),%edx
c0104817:	ee                   	out    %al,(%dx)
c0104818:	90                   	nop
c0104819:	c9                   	leave
c010481a:	c3                   	ret

c010481b <init_serial>:
c010481b:	55                   	push   %ebp
c010481c:	89 e5                	mov    %esp,%ebp
c010481e:	6a 00                	push   $0x0
c0104820:	68 f9 03 00 00       	push   $0x3f9
c0104825:	e8 da ff ff ff       	call   c0104804 <outportb>
c010482a:	83 c4 08             	add    $0x8,%esp
c010482d:	68 80 00 00 00       	push   $0x80
c0104832:	68 fb 03 00 00       	push   $0x3fb
c0104837:	e8 c8 ff ff ff       	call   c0104804 <outportb>
c010483c:	83 c4 08             	add    $0x8,%esp
c010483f:	6a 03                	push   $0x3
c0104841:	68 f8 03 00 00       	push   $0x3f8
c0104846:	e8 b9 ff ff ff       	call   c0104804 <outportb>
c010484b:	83 c4 08             	add    $0x8,%esp
c010484e:	6a 00                	push   $0x0
c0104850:	68 f9 03 00 00       	push   $0x3f9
c0104855:	e8 aa ff ff ff       	call   c0104804 <outportb>
c010485a:	83 c4 08             	add    $0x8,%esp
c010485d:	6a 03                	push   $0x3
c010485f:	68 fb 03 00 00       	push   $0x3fb
c0104864:	e8 9b ff ff ff       	call   c0104804 <outportb>
c0104869:	83 c4 08             	add    $0x8,%esp
c010486c:	68 c7 00 00 00       	push   $0xc7
c0104871:	68 fa 03 00 00       	push   $0x3fa
c0104876:	e8 89 ff ff ff       	call   c0104804 <outportb>
c010487b:	83 c4 08             	add    $0x8,%esp
c010487e:	6a 0b                	push   $0xb
c0104880:	68 fc 03 00 00       	push   $0x3fc
c0104885:	e8 7a ff ff ff       	call   c0104804 <outportb>
c010488a:	83 c4 08             	add    $0x8,%esp
c010488d:	6a 1e                	push   $0x1e
c010488f:	68 fc 03 00 00       	push   $0x3fc
c0104894:	e8 6b ff ff ff       	call   c0104804 <outportb>
c0104899:	83 c4 08             	add    $0x8,%esp
c010489c:	68 ae 00 00 00       	push   $0xae
c01048a1:	68 f8 03 00 00       	push   $0x3f8
c01048a6:	e8 59 ff ff ff       	call   c0104804 <outportb>
c01048ab:	83 c4 08             	add    $0x8,%esp
c01048ae:	68 f8 03 00 00       	push   $0x3f8
c01048b3:	e8 33 ff ff ff       	call   c01047eb <inportb>
c01048b8:	83 c4 04             	add    $0x4,%esp
c01048bb:	3c ae                	cmp    $0xae,%al
c01048bd:	74 07                	je     c01048c6 <init_serial+0xab>
c01048bf:	b8 01 00 00 00       	mov    $0x1,%eax
c01048c4:	eb 14                	jmp    c01048da <init_serial+0xbf>
c01048c6:	6a 0f                	push   $0xf
c01048c8:	68 fc 03 00 00       	push   $0x3fc
c01048cd:	e8 32 ff ff ff       	call   c0104804 <outportb>
c01048d2:	83 c4 08             	add    $0x8,%esp
c01048d5:	b8 00 00 00 00       	mov    $0x0,%eax
c01048da:	c9                   	leave
c01048db:	c3                   	ret

c01048dc <log_to_serial>:
c01048dc:	55                   	push   %ebp
c01048dd:	89 e5                	mov    %esp,%ebp
c01048df:	83 ec 10             	sub    $0x10,%esp
c01048e2:	8b 45 08             	mov    0x8(%ebp),%eax
c01048e5:	0f b6 00             	movzbl (%eax),%eax
c01048e8:	88 45 ff             	mov    %al,-0x1(%ebp)
c01048eb:	eb 22                	jmp    c010490f <log_to_serial+0x33>
c01048ed:	0f b6 45 ff          	movzbl -0x1(%ebp),%eax
c01048f1:	0f b6 c0             	movzbl %al,%eax
c01048f4:	50                   	push   %eax
c01048f5:	68 f8 03 00 00       	push   $0x3f8
c01048fa:	e8 05 ff ff ff       	call   c0104804 <outportb>
c01048ff:	83 c4 08             	add    $0x8,%esp
c0104902:	83 45 08 01          	addl   $0x1,0x8(%ebp)
c0104906:	8b 45 08             	mov    0x8(%ebp),%eax
c0104909:	0f b6 00             	movzbl (%eax),%eax
c010490c:	88 45 ff             	mov    %al,-0x1(%ebp)
c010490f:	80 7d ff 00          	cmpb   $0x0,-0x1(%ebp)
c0104913:	75 d8                	jne    c01048ed <log_to_serial+0x11>
c0104915:	90                   	nop
c0104916:	90                   	nop
c0104917:	c9                   	leave
c0104918:	c3                   	ret

c0104919 <log_integer_to_serial>:
c0104919:	55                   	push   %ebp
c010491a:	89 e5                	mov    %esp,%ebp
c010491c:	83 ec 68             	sub    $0x68,%esp
c010491f:	8b 45 08             	mov    0x8(%ebp),%eax
c0104922:	89 45 98             	mov    %eax,-0x68(%ebp)
c0104925:	8b 45 0c             	mov    0xc(%ebp),%eax
c0104928:	89 45 9c             	mov    %eax,-0x64(%ebp)
c010492b:	c7 45 fc 00 00 00 00 	movl   $0x0,-0x4(%ebp)
c0104932:	ba 09 00 00 00       	mov    $0x9,%edx
c0104937:	b8 00 00 00 00       	mov    $0x0,%eax
c010493c:	3b 55 98             	cmp    -0x68(%ebp),%edx
c010493f:	1b 45 9c             	sbb    -0x64(%ebp),%eax
c0104942:	72 1e                	jb     c0104962 <log_integer_to_serial+0x49>
c0104944:	8b 45 98             	mov    -0x68(%ebp),%eax
c0104947:	83 c0 30             	add    $0x30,%eax
c010494a:	88 45 af             	mov    %al,-0x51(%ebp)
c010494d:	c6 45 b0 00          	movb   $0x0,-0x50(%ebp)
c0104951:	8d 45 af             	lea    -0x51(%ebp),%eax
c0104954:	50                   	push   %eax
c0104955:	e8 82 ff ff ff       	call   c01048dc <log_to_serial>
c010495a:	83 c4 04             	add    $0x4,%esp
c010495d:	e9 bb 00 00 00       	jmp    c0104a1d <log_integer_to_serial+0x104>
c0104962:	8b 45 98             	mov    -0x68(%ebp),%eax
c0104965:	89 45 f8             	mov    %eax,-0x8(%ebp)
c0104968:	eb 43                	jmp    c01049ad <log_integer_to_serial+0x94>
c010496a:	8b 4d f8             	mov    -0x8(%ebp),%ecx
c010496d:	ba cd cc cc cc       	mov    $0xcccccccd,%edx
c0104972:	89 c8                	mov    %ecx,%eax
c0104974:	f7 e2                	mul    %edx
c0104976:	c1 ea 03             	shr    $0x3,%edx
c0104979:	89 d0                	mov    %edx,%eax
c010497b:	c1 e0 02             	shl    $0x2,%eax
c010497e:	01 d0                	add    %edx,%eax
c0104980:	01 c0                	add    %eax,%eax
c0104982:	29 c1                	sub    %eax,%ecx
c0104984:	89 ca                	mov    %ecx,%edx
c0104986:	89 d0                	mov    %edx,%eax
c0104988:	83 c0 30             	add    $0x30,%eax
c010498b:	89 c1                	mov    %eax,%ecx
c010498d:	8d 55 af             	lea    -0x51(%ebp),%edx
c0104990:	8b 45 fc             	mov    -0x4(%ebp),%eax
c0104993:	01 d0                	add    %edx,%eax
c0104995:	88 08                	mov    %cl,(%eax)
c0104997:	83 45 fc 01          	addl   $0x1,-0x4(%ebp)
c010499b:	8b 45 f8             	mov    -0x8(%ebp),%eax
c010499e:	ba cd cc cc cc       	mov    $0xcccccccd,%edx
c01049a3:	f7 e2                	mul    %edx
c01049a5:	89 d0                	mov    %edx,%eax
c01049a7:	c1 e8 03             	shr    $0x3,%eax
c01049aa:	89 45 f8             	mov    %eax,-0x8(%ebp)
c01049ad:	83 7d f8 00          	cmpl   $0x0,-0x8(%ebp)
c01049b1:	75 b7                	jne    c010496a <log_integer_to_serial+0x51>
c01049b3:	c7 45 f4 00 00 00 00 	movl   $0x0,-0xc(%ebp)
c01049ba:	8b 45 fc             	mov    -0x4(%ebp),%eax
c01049bd:	83 e8 01             	sub    $0x1,%eax
c01049c0:	89 45 f0             	mov    %eax,-0x10(%ebp)
c01049c3:	eb 39                	jmp    c01049fe <log_integer_to_serial+0xe5>
c01049c5:	8d 55 af             	lea    -0x51(%ebp),%edx
c01049c8:	8b 45 f4             	mov    -0xc(%ebp),%eax
c01049cb:	01 d0                	add    %edx,%eax
c01049cd:	0f b6 00             	movzbl (%eax),%eax
c01049d0:	88 45 ef             	mov    %al,-0x11(%ebp)
c01049d3:	8d 55 af             	lea    -0x51(%ebp),%edx
c01049d6:	8b 45 f0             	mov    -0x10(%ebp),%eax
c01049d9:	01 d0                	add    %edx,%eax
c01049db:	0f b6 00             	movzbl (%eax),%eax
c01049de:	8d 4d af             	lea    -0x51(%ebp),%ecx
c01049e1:	8b 55 f4             	mov    -0xc(%ebp),%edx
c01049e4:	01 ca                	add    %ecx,%edx
c01049e6:	88 02                	mov    %al,(%edx)
c01049e8:	8d 55 af             	lea    -0x51(%ebp),%edx
c01049eb:	8b 45 f0             	mov    -0x10(%ebp),%eax
c01049ee:	01 c2                	add    %eax,%edx
c01049f0:	0f b6 45 ef          	movzbl -0x11(%ebp),%eax
c01049f4:	88 02                	mov    %al,(%edx)
c01049f6:	83 45 f4 01          	addl   $0x1,-0xc(%ebp)
c01049fa:	83 6d f0 01          	subl   $0x1,-0x10(%ebp)
c01049fe:	8b 45 f4             	mov    -0xc(%ebp),%eax
c0104a01:	39 45 f0             	cmp    %eax,-0x10(%ebp)
c0104a04:	73 bf                	jae    c01049c5 <log_integer_to_serial+0xac>
c0104a06:	8d 55 af             	lea    -0x51(%ebp),%edx
c0104a09:	8b 45 fc             	mov    -0x4(%ebp),%eax
c0104a0c:	01 d0                	add    %edx,%eax
c0104a0e:	c6 00 00             	movb   $0x0,(%eax)
c0104a11:	8d 45 af             	lea    -0x51(%ebp),%eax
c0104a14:	50                   	push   %eax
c0104a15:	e8 c2 fe ff ff       	call   c01048dc <log_to_serial>
c0104a1a:	83 c4 04             	add    $0x4,%esp
c0104a1d:	c9                   	leave
c0104a1e:	c3                   	ret

c0104a1f <print_hex>:
c0104a1f:	55                   	push   %ebp
c0104a20:	89 e5                	mov    %esp,%ebp
c0104a22:	83 ec 68             	sub    $0x68,%esp
c0104a25:	8b 45 08             	mov    0x8(%ebp),%eax
c0104a28:	89 45 98             	mov    %eax,-0x68(%ebp)
c0104a2b:	8b 45 0c             	mov    0xc(%ebp),%eax
c0104a2e:	89 45 9c             	mov    %eax,-0x64(%ebp)
c0104a31:	8b 45 98             	mov    -0x68(%ebp),%eax
c0104a34:	0b 45 9c             	or     -0x64(%ebp),%eax
c0104a37:	75 12                	jne    c0104a4b <print_hex+0x2c>
c0104a39:	68 04 58 10 c0       	push   $0xc0105804
c0104a3e:	e8 99 fe ff ff       	call   c01048dc <log_to_serial>
c0104a43:	83 c4 04             	add    $0x4,%esp
c0104a46:	e9 c9 00 00 00       	jmp    c0104b14 <print_hex+0xf5>
c0104a4b:	c6 45 a8 30          	movb   $0x30,-0x58(%ebp)
c0104a4f:	c6 45 a9 78          	movb   $0x78,-0x57(%ebp)
c0104a53:	c7 45 fc 02 00 00 00 	movl   $0x2,-0x4(%ebp)
c0104a5a:	8b 45 98             	mov    -0x68(%ebp),%eax
c0104a5d:	89 45 f8             	mov    %eax,-0x8(%ebp)
c0104a60:	eb 42                	jmp    c0104aa4 <print_hex+0x85>
c0104a62:	8b 45 f8             	mov    -0x8(%ebp),%eax
c0104a65:	83 e0 0f             	and    $0xf,%eax
c0104a68:	89 45 e8             	mov    %eax,-0x18(%ebp)
c0104a6b:	83 7d e8 09          	cmpl   $0x9,-0x18(%ebp)
c0104a6f:	77 14                	ja     c0104a85 <print_hex+0x66>
c0104a71:	8b 45 e8             	mov    -0x18(%ebp),%eax
c0104a74:	83 c0 30             	add    $0x30,%eax
c0104a77:	89 c1                	mov    %eax,%ecx
c0104a79:	8d 55 a8             	lea    -0x58(%ebp),%edx
c0104a7c:	8b 45 fc             	mov    -0x4(%ebp),%eax
c0104a7f:	01 d0                	add    %edx,%eax
c0104a81:	88 08                	mov    %cl,(%eax)
c0104a83:	eb 12                	jmp    c0104a97 <print_hex+0x78>
c0104a85:	8b 45 e8             	mov    -0x18(%ebp),%eax
c0104a88:	83 c0 57             	add    $0x57,%eax
c0104a8b:	89 c1                	mov    %eax,%ecx
c0104a8d:	8d 55 a8             	lea    -0x58(%ebp),%edx
c0104a90:	8b 45 fc             	mov    -0x4(%ebp),%eax
c0104a93:	01 d0                	add    %edx,%eax
c0104a95:	88 08                	mov    %cl,(%eax)
c0104a97:	83 45 fc 01          	addl   $0x1,-0x4(%ebp)
c0104a9b:	8b 45 f8             	mov    -0x8(%ebp),%eax
c0104a9e:	c1 e8 04             	shr    $0x4,%eax
c0104aa1:	89 45 f8             	mov    %eax,-0x8(%ebp)
c0104aa4:	83 7d f8 00          	cmpl   $0x0,-0x8(%ebp)
c0104aa8:	75 b8                	jne    c0104a62 <print_hex+0x43>
c0104aaa:	c7 45 f4 02 00 00 00 	movl   $0x2,-0xc(%ebp)
c0104ab1:	8b 45 fc             	mov    -0x4(%ebp),%eax
c0104ab4:	83 e8 01             	sub    $0x1,%eax
c0104ab7:	89 45 f0             	mov    %eax,-0x10(%ebp)
c0104aba:	eb 39                	jmp    c0104af5 <print_hex+0xd6>
c0104abc:	8d 55 a8             	lea    -0x58(%ebp),%edx
c0104abf:	8b 45 f0             	mov    -0x10(%ebp),%eax
c0104ac2:	01 d0                	add    %edx,%eax
c0104ac4:	0f b6 00             	movzbl (%eax),%eax
c0104ac7:	88 45 ef             	mov    %al,-0x11(%ebp)
c0104aca:	8d 55 a8             	lea    -0x58(%ebp),%edx
c0104acd:	8b 45 f4             	mov    -0xc(%ebp),%eax
c0104ad0:	01 d0                	add    %edx,%eax
c0104ad2:	0f b6 00             	movzbl (%eax),%eax
c0104ad5:	8d 4d a8             	lea    -0x58(%ebp),%ecx
c0104ad8:	8b 55 f0             	mov    -0x10(%ebp),%edx
c0104adb:	01 ca                	add    %ecx,%edx
c0104add:	88 02                	mov    %al,(%edx)
c0104adf:	8d 55 a8             	lea    -0x58(%ebp),%edx
c0104ae2:	8b 45 f4             	mov    -0xc(%ebp),%eax
c0104ae5:	01 c2                	add    %eax,%edx
c0104ae7:	0f b6 45 ef          	movzbl -0x11(%ebp),%eax
c0104aeb:	88 02                	mov    %al,(%edx)
c0104aed:	83 45 f4 01          	addl   $0x1,-0xc(%ebp)
c0104af1:	83 6d f0 01          	subl   $0x1,-0x10(%ebp)
c0104af5:	8b 45 f4             	mov    -0xc(%ebp),%eax
c0104af8:	39 45 f0             	cmp    %eax,-0x10(%ebp)
c0104afb:	73 bf                	jae    c0104abc <print_hex+0x9d>
c0104afd:	8d 55 a8             	lea    -0x58(%ebp),%edx
c0104b00:	8b 45 fc             	mov    -0x4(%ebp),%eax
c0104b03:	01 d0                	add    %edx,%eax
c0104b05:	c6 00 00             	movb   $0x0,(%eax)
c0104b08:	8d 45 a8             	lea    -0x58(%ebp),%eax
c0104b0b:	50                   	push   %eax
c0104b0c:	e8 cb fd ff ff       	call   c01048dc <log_to_serial>
c0104b11:	83 c4 04             	add    $0x4,%esp
c0104b14:	c9                   	leave
c0104b15:	c3                   	ret

c0104b16 <logf>:
c0104b16:	55                   	push   %ebp
c0104b17:	89 e5                	mov    %esp,%ebp
c0104b19:	83 ec 10             	sub    $0x10,%esp
c0104b1c:	8d 45 0c             	lea    0xc(%ebp),%eax
c0104b1f:	89 45 f8             	mov    %eax,-0x8(%ebp)
c0104b22:	e9 56 01 00 00       	jmp    c0104c7d <logf+0x167>
c0104b27:	8b 45 08             	mov    0x8(%ebp),%eax
c0104b2a:	0f b6 00             	movzbl (%eax),%eax
c0104b2d:	3c 25                	cmp    $0x25,%al
c0104b2f:	0f 85 28 01 00 00    	jne    c0104c5d <logf+0x147>
c0104b35:	8b 45 08             	mov    0x8(%ebp),%eax
c0104b38:	83 c0 01             	add    $0x1,%eax
c0104b3b:	89 45 08             	mov    %eax,0x8(%ebp)
c0104b3e:	8b 45 08             	mov    0x8(%ebp),%eax
c0104b41:	0f b6 00             	movzbl (%eax),%eax
c0104b44:	0f be c0             	movsbl %al,%eax
c0104b47:	83 f8 25             	cmp    $0x25,%eax
c0104b4a:	74 4f                	je     c0104b9b <logf+0x85>
c0104b4c:	83 f8 25             	cmp    $0x25,%eax
c0104b4f:	0f 8c c5 00 00 00    	jl     c0104c1a <logf+0x104>
c0104b55:	83 f8 78             	cmp    $0x78,%eax
c0104b58:	0f 8f bc 00 00 00    	jg     c0104c1a <logf+0x104>
c0104b5e:	83 f8 63             	cmp    $0x63,%eax
c0104b61:	0f 8c b3 00 00 00    	jl     c0104c1a <logf+0x104>
c0104b67:	83 e8 63             	sub    $0x63,%eax
c0104b6a:	83 f8 15             	cmp    $0x15,%eax
c0104b6d:	0f 87 a7 00 00 00    	ja     c0104c1a <logf+0x104>
c0104b73:	8b 04 85 1c 58 10 c0 	mov    -0x3fefa7e4(,%eax,4),%eax
c0104b7a:	ff e0                	jmp    *%eax
c0104b7c:	8b 45 f8             	mov    -0x8(%ebp),%eax
c0104b7f:	8d 50 04             	lea    0x4(%eax),%edx
c0104b82:	89 55 f8             	mov    %edx,-0x8(%ebp)
c0104b85:	8b 00                	mov    (%eax),%eax
c0104b87:	ba 00 00 00 00       	mov    $0x0,%edx
c0104b8c:	52                   	push   %edx
c0104b8d:	50                   	push   %eax
c0104b8e:	e8 8c fe ff ff       	call   c0104a1f <print_hex>
c0104b93:	83 c4 08             	add    $0x8,%esp
c0104b96:	e9 b7 00 00 00       	jmp    c0104c52 <logf+0x13c>
c0104b9b:	8b 45 08             	mov    0x8(%ebp),%eax
c0104b9e:	0f b6 00             	movzbl (%eax),%eax
c0104ba1:	0f b6 c0             	movzbl %al,%eax
c0104ba4:	50                   	push   %eax
c0104ba5:	68 f8 03 00 00       	push   $0x3f8
c0104baa:	e8 55 fc ff ff       	call   c0104804 <outportb>
c0104baf:	83 c4 08             	add    $0x8,%esp
c0104bb2:	e9 9b 00 00 00       	jmp    c0104c52 <logf+0x13c>
c0104bb7:	83 45 08 02          	addl   $0x2,0x8(%ebp)
c0104bbb:	e9 92 00 00 00       	jmp    c0104c52 <logf+0x13c>
c0104bc0:	8b 45 f8             	mov    -0x8(%ebp),%eax
c0104bc3:	8d 50 04             	lea    0x4(%eax),%edx
c0104bc6:	89 55 f8             	mov    %edx,-0x8(%ebp)
c0104bc9:	8b 00                	mov    (%eax),%eax
c0104bcb:	ba 00 00 00 00       	mov    $0x0,%edx
c0104bd0:	52                   	push   %edx
c0104bd1:	50                   	push   %eax
c0104bd2:	e8 42 fd ff ff       	call   c0104919 <log_integer_to_serial>
c0104bd7:	83 c4 08             	add    $0x8,%esp
c0104bda:	eb 76                	jmp    c0104c52 <logf+0x13c>
c0104bdc:	8b 45 f8             	mov    -0x8(%ebp),%eax
c0104bdf:	8d 50 04             	lea    0x4(%eax),%edx
c0104be2:	89 55 f8             	mov    %edx,-0x8(%ebp)
c0104be5:	8b 00                	mov    (%eax),%eax
c0104be7:	83 ec 04             	sub    $0x4,%esp
c0104bea:	50                   	push   %eax
c0104beb:	e8 ec fc ff ff       	call   c01048dc <log_to_serial>
c0104bf0:	83 c4 08             	add    $0x8,%esp
c0104bf3:	eb 5d                	jmp    c0104c52 <logf+0x13c>
c0104bf5:	8b 45 f8             	mov    -0x8(%ebp),%eax
c0104bf8:	8d 50 04             	lea    0x4(%eax),%edx
c0104bfb:	89 55 f8             	mov    %edx,-0x8(%ebp)
c0104bfe:	8b 00                	mov    (%eax),%eax
c0104c00:	88 45 ff             	mov    %al,-0x1(%ebp)
c0104c03:	0f b6 45 ff          	movzbl -0x1(%ebp),%eax
c0104c07:	0f b6 c0             	movzbl %al,%eax
c0104c0a:	50                   	push   %eax
c0104c0b:	68 f8 03 00 00       	push   $0x3f8
c0104c10:	e8 ef fb ff ff       	call   c0104804 <outportb>
c0104c15:	83 c4 08             	add    $0x8,%esp
c0104c18:	eb 38                	jmp    c0104c52 <logf+0x13c>
c0104c1a:	83 ec 04             	sub    $0x4,%esp
c0104c1d:	68 08 58 10 c0       	push   $0xc0105808
c0104c22:	e8 b5 fc ff ff       	call   c01048dc <log_to_serial>
c0104c27:	83 c4 08             	add    $0x8,%esp
c0104c2a:	8b 45 08             	mov    0x8(%ebp),%eax
c0104c2d:	0f b6 00             	movzbl (%eax),%eax
c0104c30:	0f b6 c0             	movzbl %al,%eax
c0104c33:	50                   	push   %eax
c0104c34:	68 f8 03 00 00       	push   $0x3f8
c0104c39:	e8 c6 fb ff ff       	call   c0104804 <outportb>
c0104c3e:	83 c4 08             	add    $0x8,%esp
c0104c41:	83 ec 04             	sub    $0x4,%esp
c0104c44:	68 19 58 10 c0       	push   $0xc0105819
c0104c49:	e8 8e fc ff ff       	call   c01048dc <log_to_serial>
c0104c4e:	83 c4 08             	add    $0x8,%esp
c0104c51:	90                   	nop
c0104c52:	8b 45 08             	mov    0x8(%ebp),%eax
c0104c55:	83 c0 01             	add    $0x1,%eax
c0104c58:	89 45 08             	mov    %eax,0x8(%ebp)
c0104c5b:	eb 20                	jmp    c0104c7d <logf+0x167>
c0104c5d:	8b 45 08             	mov    0x8(%ebp),%eax
c0104c60:	0f b6 00             	movzbl (%eax),%eax
c0104c63:	0f b6 c0             	movzbl %al,%eax
c0104c66:	50                   	push   %eax
c0104c67:	68 f8 03 00 00       	push   $0x3f8
c0104c6c:	e8 93 fb ff ff       	call   c0104804 <outportb>
c0104c71:	83 c4 08             	add    $0x8,%esp
c0104c74:	8b 45 08             	mov    0x8(%ebp),%eax
c0104c77:	83 c0 01             	add    $0x1,%eax
c0104c7a:	89 45 08             	mov    %eax,0x8(%ebp)
c0104c7d:	8b 45 08             	mov    0x8(%ebp),%eax
c0104c80:	0f b6 00             	movzbl (%eax),%eax
c0104c83:	84 c0                	test   %al,%al
c0104c85:	0f 85 9c fe ff ff    	jne    c0104b27 <logf+0x11>
c0104c8b:	90                   	nop
c0104c8c:	90                   	nop
c0104c8d:	c9                   	leave
c0104c8e:	c3                   	ret

c0104c8f <panic>:
c0104c8f:	55                   	push   %ebp
c0104c90:	89 e5                	mov    %esp,%ebp
c0104c92:	ff 75 08             	push   0x8(%ebp)
c0104c95:	68 74 58 10 c0       	push   $0xc0105874
c0104c9a:	e8 77 fe ff ff       	call   c0104b16 <logf>
c0104c9f:	83 c4 08             	add    $0x8,%esp
c0104ca2:	fa                   	cli
c0104ca3:	f4                   	hlt
c0104ca4:	90                   	nop
c0104ca5:	c9                   	leave
c0104ca6:	c3                   	ret

c0104ca7 <kernel_main>:
c0104ca7:	55                   	push   %ebp
c0104ca8:	89 e5                	mov    %esp,%ebp
c0104caa:	83 ec 28             	sub    $0x28,%esp
c0104cad:	8b 45 0c             	mov    0xc(%ebp),%eax
c0104cb0:	83 e0 07             	and    $0x7,%eax
c0104cb3:	85 c0                	test   %eax,%eax
c0104cb5:	74 12                	je     c0104cc9 <kernel_main+0x22>
c0104cb7:	68 94 58 10 c0       	push   $0xc0105894
c0104cbc:	e8 1b fc ff ff       	call   c01048dc <log_to_serial>
c0104cc1:	83 c4 04             	add    $0x4,%esp
c0104cc4:	e9 6d 01 00 00       	jmp    c0104e36 <kernel_main+0x18f>
c0104cc9:	8b 45 0c             	mov    0xc(%ebp),%eax
c0104ccc:	2d 00 00 00 40       	sub    $0x40000000,%eax
c0104cd1:	89 45 f4             	mov    %eax,-0xc(%ebp)
c0104cd4:	b8 10 f0 10 c0       	mov    $0xc010f010,%eax
c0104cd9:	ba 00 00 10 00       	mov    $0x100000,%edx
c0104cde:	29 d0                	sub    %edx,%eax
c0104ce0:	05 00 00 00 40       	add    $0x40000000,%eax
c0104ce5:	89 45 f0             	mov    %eax,-0x10(%ebp)
c0104ce8:	8b 45 f4             	mov    -0xc(%ebp),%eax
c0104ceb:	8b 00                	mov    (%eax),%eax
c0104ced:	50                   	push   %eax
c0104cee:	ff 75 0c             	push   0xc(%ebp)
c0104cf1:	ff 75 f0             	push   -0x10(%ebp)
c0104cf4:	68 9c 58 10 c0       	push   $0xc010589c
c0104cf9:	e8 18 fe ff ff       	call   c0104b16 <logf>
c0104cfe:	83 c4 10             	add    $0x10,%esp
c0104d01:	e8 cb d4 ff ff       	call   c01021d1 <disable_pic>
c0104d06:	8b 45 f4             	mov    -0xc(%ebp),%eax
c0104d09:	8b 00                	mov    (%eax),%eax
c0104d0b:	83 ec 08             	sub    $0x8,%esp
c0104d0e:	50                   	push   %eax
c0104d0f:	ff 75 08             	push   0x8(%ebp)
c0104d12:	e8 27 fa ff ff       	call   c010473e <pg_init>
c0104d17:	83 c4 10             	add    $0x10,%esp
c0104d1a:	89 45 ec             	mov    %eax,-0x14(%ebp)
c0104d1d:	e8 e1 ef ff ff       	call   c0103d03 <gdt_install>
c0104d22:	e8 dc f0 ff ff       	call   c0103e03 <init_idt>
c0104d27:	8b 45 f4             	mov    -0xc(%ebp),%eax
c0104d2a:	8b 10                	mov    (%eax),%edx
c0104d2c:	8b 45 0c             	mov    0xc(%ebp),%eax
c0104d2f:	01 d0                	add    %edx,%eax
c0104d31:	83 ec 0c             	sub    $0xc,%esp
c0104d34:	50                   	push   %eax
c0104d35:	e8 06 e5 ff ff       	call   c0103240 <kinit>
c0104d3a:	83 c4 10             	add    $0x10,%esp
c0104d3d:	89 45 e8             	mov    %eax,-0x18(%ebp)
c0104d40:	83 ec 04             	sub    $0x4,%esp
c0104d43:	68 00 00 e0 ff       	push   $0xffe00000
c0104d48:	68 00 00 00 cc       	push   $0xcc000000
c0104d4d:	ff 75 ec             	push   -0x14(%ebp)
c0104d50:	e8 e2 e5 ff ff       	call   c0103337 <create_vmm>
c0104d55:	83 c4 10             	add    $0x10,%esp
c0104d58:	89 45 e4             	mov    %eax,-0x1c(%ebp)
c0104d5b:	83 ec 0c             	sub    $0xc,%esp
c0104d5e:	ff 75 e4             	push   -0x1c(%ebp)
c0104d61:	e8 00 e7 ff ff       	call   c0103466 <set_current_vmm>
c0104d66:	83 c4 10             	add    $0x10,%esp
c0104d69:	0f b6 05 90 61 10 c0 	movzbl 0xc0106190,%eax
c0104d70:	0f be c0             	movsbl %al,%eax
c0104d73:	83 ec 08             	sub    $0x8,%esp
c0104d76:	50                   	push   %eax
c0104d77:	68 cd 58 10 c0       	push   $0xc01058cd
c0104d7c:	e8 95 fd ff ff       	call   c0104b16 <logf>
c0104d81:	83 c4 10             	add    $0x10,%esp
c0104d84:	8b 45 0c             	mov    0xc(%ebp),%eax
c0104d87:	8d 90 00 00 00 c0    	lea    -0x40000000(%eax),%edx
c0104d8d:	8d 45 d8             	lea    -0x28(%ebp),%eax
c0104d90:	83 ec 08             	sub    $0x8,%esp
c0104d93:	52                   	push   %edx
c0104d94:	50                   	push   %eax
c0104d95:	e8 fe ed ff ff       	call   c0103b98 <init_multiboot>
c0104d9a:	83 c4 0c             	add    $0xc,%esp
c0104d9d:	e8 2e e4 ff ff       	call   c01031d0 <transfer_dynamic>
c0104da2:	83 ec 0c             	sub    $0xc,%esp
c0104da5:	ff 75 ec             	push   -0x14(%ebp)
c0104da8:	e8 26 e6 ff ff       	call   c01033d3 <vmm_transfer_dynamic>
c0104dad:	83 c4 10             	add    $0x10,%esp
c0104db0:	83 ec 0c             	sub    $0xc,%esp
c0104db3:	ff 75 e4             	push   -0x1c(%ebp)
c0104db6:	e8 86 d2 ff ff       	call   c0102041 <init_apic>
c0104dbb:	83 c4 10             	add    $0x10,%esp
c0104dbe:	e8 3d eb ff ff       	call   c0103900 <init_framebuffer>
c0104dc3:	e8 8d e0 ff ff       	call   c0102e55 <init_font>
c0104dc8:	ff 75 f0             	push   -0x10(%ebp)
c0104dcb:	68 10 f0 10 c0       	push   $0xc010f010
c0104dd0:	68 00 00 10 00       	push   $0x100000
c0104dd5:	68 dc 58 10 c0       	push   $0xc01058dc
c0104dda:	e8 37 fd ff ff       	call   c0104b16 <logf>
c0104ddf:	83 c4 10             	add    $0x10,%esp
c0104de2:	e8 a6 cb ff ff       	call   c010198d <init_heap>
c0104de7:	e8 9f c9 ff ff       	call   c010178b <init_terminal>
c0104dec:	e8 ec dc ff ff       	call   c0102add <init_keyboard>
c0104df1:	83 ec 0c             	sub    $0xc,%esp
c0104df4:	68 14 59 10 c0       	push   $0xc0105914
c0104df9:	e8 6d c7 ff ff       	call   c010156b <printf>
c0104dfe:	83 c4 10             	add    $0x10,%esp
c0104e01:	83 ec 0c             	sub    $0xc,%esp
c0104e04:	68 3c 59 10 c0       	push   $0xc010593c
c0104e09:	e8 5d c7 ff ff       	call   c010156b <printf>
c0104e0e:	83 c4 10             	add    $0x10,%esp
c0104e11:	83 ec 0c             	sub    $0xc,%esp
c0104e14:	68 70 59 10 c0       	push   $0xc0105970
c0104e19:	e8 4d c7 ff ff       	call   c010156b <printf>
c0104e1e:	83 c4 10             	add    $0x10,%esp
c0104e21:	e8 0d c9 ff ff       	call   c0101733 <terminal_loop>
c0104e26:	83 ec 0c             	sub    $0xc,%esp
c0104e29:	68 93 59 10 c0       	push   $0xc0105993
c0104e2e:	e8 a9 fa ff ff       	call   c01048dc <log_to_serial>
c0104e33:	83 c4 10             	add    $0x10,%esp
c0104e36:	c9                   	leave
c0104e37:	c3                   	ret

Disassembly of section .rodata:

c0105000 <.rodata>:
c0105000:	45                   	inc    %ebp
c0105001:	6e                   	outsb  %ds:(%esi),(%dx)
c0105002:	64 20 66 69          	and    %ah,%fs:0x69(%esi)
c0105006:	72 73                	jb     c010507b <kernel_main+0x3d4>
c0105008:	74 20                	je     c010502a <kernel_main+0x383>
c010500a:	6c                   	insb   (%dx),%es:(%edi)
c010500b:	69 6e 65 20 25 64 0a 	imul   $0xa642520,0x65(%esi),%ebp
c0105012:	00 30                	add    %dh,(%eax)
c0105014:	78 30                	js     c0105046 <kernel_main+0x39f>
c0105016:	00 50 52             	add    %dl,0x52(%eax)
c0105019:	49                   	dec    %ecx
c010501a:	4e                   	dec    %esi
c010501b:	54                   	push   %esp
c010501c:	45                   	inc    %ebp
c010501d:	44                   	inc    %esp
c010501e:	20 25 73 0a 00 4b    	and    %ah,0x4b000a73
c0105024:	65 79 20             	gs jns c0105047 <kernel_main+0x3a0>
c0105027:	25 78 20 52 65       	and    $0x65522078,%eax
c010502c:	6c                   	insb   (%dx),%es:(%edi)
c010502d:	65 61                	gs popa
c010502f:	73 65                	jae    c0105096 <kernel_main+0x3ef>
c0105031:	64 21 0a             	and    %ecx,%fs:(%edx)
c0105034:	00 48 65             	add    %cl,0x65(%eax)
c0105037:	6c                   	insb   (%dx),%es:(%edi)
c0105038:	6c                   	insb   (%dx),%es:(%edi)
c0105039:	6f                   	outsl  %ds:(%esi),(%dx)
c010503a:	20 57 6f             	and    %dl,0x6f(%edi)
c010503d:	72 6c                	jb     c01050ab <kernel_main+0x404>
c010503f:	64 62 0a             	bound  %ecx,%fs:(%edx)
c0105042:	00 48 65             	add    %cl,0x65(%eax)
c0105045:	6c                   	insb   (%dx),%es:(%edi)
c0105046:	6c                   	insb   (%dx),%es:(%edi)
c0105047:	6f                   	outsl  %ds:(%esi),(%dx)
c0105048:	20 57 6f             	and    %dl,0x6f(%edi)
c010504b:	72 6c                	jb     c01050b9 <kernel_main+0x412>
c010504d:	64 21 0a             	and    %ecx,%fs:(%edx)
c0105050:	00 48 65             	add    %cl,0x65(%eax)
c0105053:	6c                   	insb   (%dx),%es:(%edi)
c0105054:	6c                   	insb   (%dx),%es:(%edi)
c0105055:	6f                   	outsl  %ds:(%esi),(%dx)
c0105056:	20 57 6f             	and    %dl,0x6f(%edi)
c0105059:	72 6c                	jb     c01050c7 <kernel_main+0x420>
c010505b:	64 0a 00             	or     %fs:(%eax),%al
c010505e:	48                   	dec    %eax
c010505f:	65 6c                	gs insb (%dx),%es:(%edi)
c0105061:	6c                   	insb   (%dx),%es:(%edi)
c0105062:	6f                   	outsl  %ds:(%esi),(%dx)
c0105063:	20 57 6f             	and    %dl,0x6f(%edi)
c0105066:	72 6c                	jb     c01050d4 <kernel_main+0x42d>
c0105068:	0a 00                	or     (%eax),%al
c010506a:	00 00                	add    %al,(%eax)
c010506c:	48                   	dec    %eax
c010506d:	65 61                	gs popa
c010506f:	70 20                	jo     c0105091 <kernel_main+0x3ea>
c0105071:	69 6e 69 74 69 61 6c 	imul   $0x6c616974,0x69(%esi),%ebp
c0105078:	69 7a 65 64 0a 00 53 	imul   $0x53000a64,0x65(%edx),%edi
c010507f:	69 7a 65 20 6f 66 20 	imul   $0x20666f20,0x65(%edx),%edi
c0105086:	6d                   	insl   (%dx),%es:(%edi)
c0105087:	65 6d                	gs insl (%dx),%es:(%edi)
c0105089:	6f                   	outsl  %ds:(%esi),(%dx)
c010508a:	72 79                	jb     c0105105 <kernel_main+0x45e>
c010508c:	20 61 6c             	and    %ah,0x6c(%ecx)
c010508f:	6c                   	insb   (%dx),%es:(%edi)
c0105090:	6f                   	outsl  %ds:(%esi),(%dx)
c0105091:	63 65 64             	arpl   %esp,0x64(%ebp)
c0105094:	20 25 78 0a 00 43    	and    %ah,0x43000a78
c010509a:	75 72                	jne    c010510e <kernel_main+0x467>
c010509c:	20 6e 6f             	and    %ch,0x6f(%esi)
c010509f:	64 65 20 25 78 0a 00 	fs and %ah,%gs:0xa78
c01050a6:	00 
c01050a7:	00 53 70             	add    %dl,0x70(%ebx)
c01050aa:	6c                   	insb   (%dx),%es:(%edi)
c01050ab:	69 74 20 68 65 61 70 	imul   $0x20706165,0x68(%eax,%eiz,1),%esi
c01050b2:	20 
c01050b3:	6e                   	outsb  %ds:(%esi),(%dx)
c01050b4:	6f                   	outsl  %ds:(%esi),(%dx)
c01050b5:	64 65 3a 20          	fs cmp %gs:(%eax),%ah
c01050b9:	25 78 20 77 69       	and    $0x69772078,%eax
c01050be:	74 68                	je     c0105128 <kernel_main+0x481>
c01050c0:	20 73 69             	and    %dh,0x69(%ebx)
c01050c3:	7a 65                	jp     c010512a <kernel_main+0x483>
c01050c5:	20 25 78 0a 00 00    	and    %ah,0xa78
c01050cb:	00 43 55             	add    %al,0x55(%ebx)
c01050ce:	52                   	push   %edx
c01050cf:	3a 20                	cmp    (%eax),%ah
c01050d1:	25 74 33 30 25       	and    $0x25303374,%eax
c01050d6:	78 20                	js     c01050f8 <kernel_main+0x451>
c01050d8:	25 74 35 61 4e       	and    $0x4e613574,%eax
c01050dd:	4f                   	dec    %edi
c01050de:	44                   	inc    %esp
c01050df:	45                   	inc    %ebp
c01050e0:	20 50 52             	and    %dl,0x52(%eax)
c01050e3:	45                   	inc    %ebp
c01050e4:	56                   	push   %esi
c01050e5:	3a 20                	cmp    (%eax),%ah
c01050e7:	25 78 25 74 31       	and    $0x31742578,%eax
c01050ec:	30 0a                	xor    %cl,(%edx)
c01050ee:	00 53 69             	add    %dl,0x69(%ebx)
c01050f1:	7a 65                	jp     c0105158 <kernel_main+0x4b1>
c01050f3:	6f                   	outsl  %ds:(%esi),(%dx)
c01050f4:	66 20 6d 65          	data16 and %ch,0x65(%ebp)
c01050f8:	6d                   	insl   (%dx),%es:(%edi)
c01050f9:	5f                   	pop    %edi
c01050fa:	68 65 61 64 65       	push   $0x65646165
c01050ff:	72 3a                	jb     c010513b <kernel_main+0x494>
c0105101:	20 25 78 0a 00 00    	and    %ah,0xa78
c0105107:	00 44 65 66          	add    %al,0x66(%ebp,%eiz,2)
c010510b:	72 61                	jb     c010516e <kernel_main+0x4c7>
c010510d:	67 6d                	insl   (%dx),%es:(%di)
c010510f:	65 6e                	outsb  %gs:(%esi),(%dx)
c0105111:	74 65                	je     c0105178 <kernel_main+0x4d1>
c0105113:	64 20 6e 6f          	and    %ch,%fs:0x6f(%esi)
c0105117:	64 65 20 25 74 33 30 	fs and %ah,%gs:0x25303374
c010511e:	25 
c010511f:	78 25                	js     c0105146 <kernel_main+0x49f>
c0105121:	74 31                	je     c0105154 <kernel_main+0x4ad>
c0105123:	30 20                	xor    %ah,(%eax)
c0105125:	77 69                	ja     c0105190 <kernel_main+0x4e9>
c0105127:	74 68                	je     c0105191 <kernel_main+0x4ea>
c0105129:	20 25 74 33 30 25    	and    %ah,0x25303374
c010512f:	78 25                	js     c0105156 <kernel_main+0x4af>
c0105131:	74 31                	je     c0105164 <kernel_main+0x4bd>
c0105133:	30 2e                	xor    %ch,(%esi)
c0105135:	20 4e 65             	and    %cl,0x65(%esi)
c0105138:	77 20                	ja     c010515a <kernel_main+0x4b3>
c010513a:	73 69                	jae    c01051a5 <kernel_main+0x4fe>
c010513c:	7a 65                	jp     c01051a3 <kernel_main+0x4fc>
c010513e:	3a 20                	cmp    (%eax),%ah
c0105140:	25 78 0a 00 43       	and    $0x43000a78,%eax
c0105145:	50                   	push   %eax
c0105146:	55                   	push   %ebp
c0105147:	5f                   	pop    %edi
c0105148:	49                   	dec    %ecx
c0105149:	44                   	inc    %esp
c010514a:	3a 20                	cmp    (%eax),%ah
c010514c:	25 64 20 45 41       	and    $0x41452064,%eax
c0105151:	58                   	pop    %eax
c0105152:	20 45 42             	and    %al,0x42(%ebp)
c0105155:	58                   	pop    %eax
c0105156:	20 45 43             	and    %al,0x43(%ebp)
c0105159:	58                   	pop    %eax
c010515a:	20 45 44             	and    %al,0x44(%ebp)
c010515d:	58                   	pop    %eax
c010515e:	0a 25 78 0a 25 78    	or     0x78250a78,%ah
c0105164:	0a 25 78 0a 25 78    	or     0x78250a78,%ah
c010516a:	0a 45 4e             	or     0x4e(%ebp),%al
c010516d:	44                   	inc    %esp
c010516e:	2e 2e 2e 0a 00       	cs cs or %cs:(%eax),%al
c0105173:	00 0a                	add    %cl,(%edx)
c0105175:	2d 2d 2d 2d 53       	sub    $0x532d2d2d,%eax
c010517a:	74 61                	je     c01051dd <kernel_main+0x536>
c010517c:	72 74                	jb     c01051f2 <kernel_main+0x54b>
c010517e:	69 6e 67 20 41 50 49 	imul   $0x49504120,0x67(%esi),%ebp
c0105185:	43                   	inc    %ebx
c0105186:	20 49 6e             	and    %cl,0x6e(%ecx)
c0105189:	69 74 69 61 6c 69 7a 	imul   $0x617a696c,0x61(%ecx,%ebp,2),%esi
c0105190:	61 
c0105191:	74 69                	je     c01051fc <kernel_main+0x555>
c0105193:	6f                   	outsl  %ds:(%esi),(%dx)
c0105194:	6e                   	outsb  %ds:(%esi),(%dx)
c0105195:	73 2d                	jae    c01051c4 <kernel_main+0x51d>
c0105197:	2d 2d 2d 0a 00       	sub    $0xa2d2d,%eax
c010519c:	4c                   	dec    %esp
c010519d:	41                   	inc    %ecx
c010519e:	50                   	push   %eax
c010519f:	49                   	dec    %ecx
c01051a0:	43                   	inc    %ebx
c01051a1:	20 53 70             	and    %dl,0x70(%ebx)
c01051a4:	75 72                	jne    c0105218 <kernel_main+0x571>
c01051a6:	69 6f 75 73 20 76 65 	imul   $0x65762073,0x75(%edi),%ebp
c01051ad:	63 74 6f 72          	arpl   %esi,0x72(%edi,%ebp,2)
c01051b1:	20 73 65             	and    %dh,0x65(%ebx)
c01051b4:	74 0a                	je     c01051c0 <kernel_main+0x519>
c01051b6:	00 00                	add    %al,(%eax)
c01051b8:	43                   	inc    %ebx
c01051b9:	61                   	popa
c01051ba:	6c                   	insb   (%dx),%es:(%edi)
c01051bb:	69 62 72 61 74 69 6f 	imul   $0x6f697461,0x72(%edx),%esp
c01051c2:	6e                   	outsb  %ds:(%esi),(%dx)
c01051c3:	20 63 6f             	and    %ah,0x6f(%ebx)
c01051c6:	6d                   	insl   (%dx),%es:(%edi)
c01051c7:	70 6c                	jo     c0105235 <kernel_main+0x58e>
c01051c9:	65 74 65             	gs je  c0105231 <kernel_main+0x58a>
c01051cc:	21 20                	and    %esp,(%eax)
c01051ce:	54                   	push   %esp
c01051cf:	69 63 6b 73 20 70 65 	imul   $0x65702073,0x6b(%ebx),%esp
c01051d6:	72 20                	jb     c01051f8 <kernel_main+0x551>
c01051d8:	6d                   	insl   (%dx),%es:(%edi)
c01051d9:	73 3a                	jae    c0105215 <kernel_main+0x56e>
c01051db:	20 25 64 0a 00 d6    	and    %ah,0xd6000a64
c01051e1:	2a 10                	sub    (%eax),%dl
c01051e3:	c0 ba 2a 10 c0 c8 2a 	sarb   $0x2a,-0x373fefd6(%edx)
c01051ea:	10 c0                	adc    %al,%al
c01051ec:	c1 2a 10             	shrl   $0x10,(%edx)
c01051ef:	c0 d6 2a             	rcl    $0x2a,%dh
c01051f2:	10 c0                	adc    %al,%al
c01051f4:	cf                   	iret
c01051f5:	2a 10                	sub    (%eax),%dl
c01051f7:	c0 d6 2a             	rcl    $0x2a,%dh
c01051fa:	10 c0                	adc    %al,%al
c01051fc:	d6                   	(bad)
c01051fd:	2a 10                	sub    (%eax),%dl
c01051ff:	c0 d6 2a             	rcl    $0x2a,%dh
c0105202:	10 c0                	adc    %al,%al
c0105204:	d6                   	(bad)
c0105205:	2a 10                	sub    (%eax),%dl
c0105207:	c0 b6 28 10 c0 d0 28 	shlb   $0x28,-0x2f3fefd8(%esi)
c010520e:	10 c0                	adc    %al,%al
c0105210:	ea 28 10 c0 04 29 10 	ljmp   $0x1029,$0x4c01028
c0105217:	c0 1e 29             	rcrb   $0x29,(%esi)
c010521a:	10 c0                	adc    %al,%al
c010521c:	38 29                	cmp    %ch,(%ecx)
c010521e:	10 c0                	adc    %al,%al
c0105220:	52                   	push   %edx
c0105221:	29 10                	sub    %edx,(%eax)
c0105223:	c0 6c 29 10 c0       	shrb   $0xc0,0x10(%ecx,%ebp,1)
c0105228:	86 29                	xchg   %ch,(%ecx)
c010522a:	10 c0                	adc    %al,%al
c010522c:	a0 29 10 c0 12       	mov    0x12c01029,%al
c0105231:	26 10 c0             	es adc %al,%al
c0105234:	2c 26                	sub    $0x26,%al
c0105236:	10 c0                	adc    %al,%al
c0105238:	46                   	inc    %esi
c0105239:	26 10 c0             	es adc %al,%al
c010523c:	60                   	pusha
c010523d:	26 10 c0             	es adc %al,%al
c0105240:	7a 26                	jp     c0105268 <kernel_main+0x5c1>
c0105242:	10 c0                	adc    %al,%al
c0105244:	94                   	xchg   %eax,%esp
c0105245:	26 10 c0             	es adc %al,%al
c0105248:	ae                   	scas   %es:(%edi),%al
c0105249:	26 10 c0             	es adc %al,%al
c010524c:	c8 26 10 c0          	enter  $0x1026,$0xc0
c0105250:	e2 26                	loop   c0105278 <kernel_main+0x5d1>
c0105252:	10 c0                	adc    %al,%al
c0105254:	fc                   	cld
c0105255:	26 10 c0             	es adc %al,%al
c0105258:	16                   	push   %ss
c0105259:	27                   	daa
c010525a:	10 c0                	adc    %al,%al
c010525c:	30 27                	xor    %ah,(%edi)
c010525e:	10 c0                	adc    %al,%al
c0105260:	4a                   	dec    %edx
c0105261:	27                   	daa
c0105262:	10 c0                	adc    %al,%al
c0105264:	64 27                	fs daa
c0105266:	10 c0                	adc    %al,%al
c0105268:	7e 27                	jle    c0105291 <kernel_main+0x5ea>
c010526a:	10 c0                	adc    %al,%al
c010526c:	98                   	cwtl
c010526d:	27                   	daa
c010526e:	10 c0                	adc    %al,%al
c0105270:	b2 27                	mov    $0x27,%dl
c0105272:	10 c0                	adc    %al,%al
c0105274:	cc                   	int3
c0105275:	27                   	daa
c0105276:	10 c0                	adc    %al,%al
c0105278:	e6 27                	out    %al,$0x27
c010527a:	10 c0                	adc    %al,%al
c010527c:	00 28                	add    %ch,(%eax)
c010527e:	10 c0                	adc    %al,%al
c0105280:	1a 28                	sbb    (%eax),%ch
c0105282:	10 c0                	adc    %al,%al
c0105284:	34 28                	xor    $0x28,%al
c0105286:	10 c0                	adc    %al,%al
c0105288:	4e                   	dec    %esi
c0105289:	28 10                	sub    %dl,(%eax)
c010528b:	c0 68 28 10          	shrb   $0x10,0x28(%eax)
c010528f:	c0 82 28 10 c0 9c 28 	rolb   $0x28,-0x633fefd8(%edx)
c0105296:	10 c0                	adc    %al,%al
c0105298:	d6                   	(bad)
c0105299:	2a 10                	sub    (%eax),%dl
c010529b:	c0 d6 2a             	rcl    $0x2a,%dh
c010529e:	10 c0                	adc    %al,%al
c01052a0:	d6                   	(bad)
c01052a1:	2a 10                	sub    (%eax),%dl
c01052a3:	c0 d6 2a             	rcl    $0x2a,%dh
c01052a6:	10 c0                	adc    %al,%al
c01052a8:	d6                   	(bad)
c01052a9:	2a 10                	sub    (%eax),%dl
c01052ab:	c0 d6 2a             	rcl    $0x2a,%dh
c01052ae:	10 c0                	adc    %al,%al
c01052b0:	d6                   	(bad)
c01052b1:	2a 10                	sub    (%eax),%dl
c01052b3:	c0 d6 2a             	rcl    $0x2a,%dh
c01052b6:	10 c0                	adc    %al,%al
c01052b8:	d6                   	(bad)
c01052b9:	2a 10                	sub    (%eax),%dl
c01052bb:	c0 d6 2a             	rcl    $0x2a,%dh
c01052be:	10 c0                	adc    %al,%al
c01052c0:	d6                   	(bad)
c01052c1:	2a 10                	sub    (%eax),%dl
c01052c3:	c0 d6 2a             	rcl    $0x2a,%dh
c01052c6:	10 c0                	adc    %al,%al
c01052c8:	7e 2a                	jle    c01052f4 <kernel_main+0x64d>
c01052ca:	10 c0                	adc    %al,%al
c01052cc:	92                   	xchg   %eax,%edx
c01052cd:	2a 10                	sub    (%eax),%dl
c01052cf:	c0 d6 2a             	rcl    $0x2a,%dh
c01052d2:	10 c0                	adc    %al,%al
c01052d4:	ee                   	out    %al,(%dx)
c01052d5:	29 10                	sub    %edx,(%eax)
c01052d7:	c0 08 2a             	rorb   $0x2a,(%eax)
c01052da:	10 c0                	adc    %al,%al
c01052dc:	d4 29                	aam    $0x29
c01052de:	10 c0                	adc    %al,%al
c01052e0:	ba 29 10 c0 56       	mov    $0x56c01029,%edx
c01052e5:	2a 10                	sub    (%eax),%dl
c01052e7:	c0 6a 2a 10          	shrb   $0x10,0x2a(%edx)
c01052eb:	c0 a6 2a 10 c0 22 2a 	shlb   $0x2a,0x22c0102a(%esi)
c01052f2:	10 c0                	adc    %al,%al
c01052f4:	3c 2a                	cmp    $0x2a,%al
c01052f6:	10 c0                	adc    %al,%al
c01052f8:	54                   	push   %esp
c01052f9:	72 61                	jb     c010535c <kernel_main+0x6b5>
c01052fb:	6e                   	outsb  %ds:(%esi),(%dx)
c01052fc:	73 20                	jae    c010531e <kernel_main+0x677>
c01052fe:	62 69 74             	bound  %ebp,0x74(%ecx)
c0105301:	20 25 78 0a 00 00    	and    %ah,0xa78
c0105307:	00 52 65             	add    %dl,0x65(%edx)
c010530a:	63 69 65             	arpl   %ebp,0x65(%ecx)
c010530d:	76 65                	jbe    c0105374 <kernel_main+0x6cd>
c010530f:	64 3a 20             	cmp    %fs:(%eax),%ah
c0105312:	25 78 20 7c 20       	and    $0x207c2078,%eax
c0105317:	53                   	push   %ebx
c0105318:	63 61 6e             	arpl   %esp,0x6e(%ecx)
c010531b:	63 6f 64             	arpl   %ebp,0x64(%edi)
c010531e:	65 20 73 65          	and    %dh,%gs:0x65(%ebx)
c0105322:	74 3a                	je     c010535e <kernel_main+0x6b7>
c0105324:	20 20                	and    %ah,(%eax)
c0105326:	25 78 0a 00 00       	and    $0xa78,%eax
c010532b:	00 4b 65             	add    %cl,0x65(%ebx)
c010532e:	79 62                	jns    c0105392 <kernel_main+0x6eb>
c0105330:	6f                   	outsl  %ds:(%esi),(%dx)
c0105331:	61                   	popa
c0105332:	72 64                	jb     c0105398 <kernel_main+0x6f1>
c0105334:	20 74 79 70          	and    %dh,0x70(%ecx,%edi,2)
c0105338:	65 20 6e 6f          	and    %ch,%gs:0x6f(%esi)
c010533c:	74 20                	je     c010535e <kernel_main+0x6b7>
c010533e:	73 75                	jae    c01053b5 <kernel_main+0x70e>
c0105340:	70 70                	jo     c01053b2 <kernel_main+0x70b>
c0105342:	6f                   	outsl  %ds:(%esi),(%dx)
c0105343:	72 74                	jb     c01053b9 <kernel_main+0x712>
c0105345:	65 64 21 20          	gs and %esp,%fs:(%eax)
c0105349:	53                   	push   %ebx
c010534a:	6f                   	outsl  %ds:(%esi),(%dx)
c010534b:	77 77                	ja     c01053c4 <kernel_main+0x71d>
c010534d:	79 20                	jns    c010536f <kernel_main+0x6c8>
c010534f:	3a 33                	cmp    (%ebx),%dh
c0105351:	00 00                	add    %al,(%eax)
c0105353:	00 4b 65             	add    %cl,0x65(%ebx)
c0105356:	79 62                	jns    c01053ba <kernel_main+0x713>
c0105358:	6f                   	outsl  %ds:(%esi),(%dx)
c0105359:	61                   	popa
c010535a:	72 64                	jb     c01053c0 <kernel_main+0x719>
c010535c:	20 74 79 70          	and    %dh,0x70(%ecx,%edi,2)
c0105360:	65 20 73 75          	and    %dh,%gs:0x75(%ebx)
c0105364:	70 70                	jo     c01053d6 <kernel_main+0x72f>
c0105366:	6f                   	outsl  %ds:(%esi),(%dx)
c0105367:	72 74                	jb     c01053dd <kernel_main+0x736>
c0105369:	65 64 21 20          	gs and %esp,%fs:(%eax)
c010536d:	43                   	inc    %ebx
c010536e:	6f                   	outsl  %ds:(%esi),(%dx)
c010536f:	6e                   	outsb  %ds:(%esi),(%dx)
c0105370:	74 69                	je     c01053db <kernel_main+0x734>
c0105372:	6e                   	outsb  %ds:(%esi),(%dx)
c0105373:	75 65                	jne    c01053da <kernel_main+0x733>
c0105375:	21 0a                	and    %ecx,(%edx)
c0105377:	00 4b 65             	add    %cl,0x65(%ebx)
c010537a:	79 62                	jns    c01053de <kernel_main+0x737>
c010537c:	6f                   	outsl  %ds:(%esi),(%dx)
c010537d:	61                   	popa
c010537e:	72 64                	jb     c01053e4 <kernel_main+0x73d>
c0105380:	20 46 75             	and    %al,0x75(%esi)
c0105383:	6e                   	outsb  %ds:(%esi),(%dx)
c0105384:	63 74 69 6f          	arpl   %esi,0x6f(%ecx,%ebp,2)
c0105388:	6e                   	outsb  %ds:(%esi),(%dx)
c0105389:	3a 20                	cmp    (%eax),%ah
c010538b:	25 74 33 30 4f       	and    $0x4f303374,%eax
c0105390:	4b                   	dec    %ebx
c0105391:	21 25 74 31 30 0a    	and    %esp,0xa303174
c0105397:	00 66 6f             	add    %ah,0x6f(%esi)
c010539a:	6e                   	outsb  %ds:(%esi),(%dx)
c010539b:	74 5f                	je     c01053fc <kernel_main+0x755>
c010539d:	6d                   	insl   (%dx),%es:(%edi)
c010539e:	6f                   	outsl  %ds:(%esi),(%dx)
c010539f:	64 65 3a 20          	fs cmp %gs:(%eax),%ah
c01053a3:	25 78 2c 20 63       	and    $0x63202c78,%eax
c01053a8:	68 61 72 5f 73       	push   $0x735f7261
c01053ad:	69 7a 65 3a 20 25 64 	imul   $0x6425203a,0x65(%edx),%edi
c01053b4:	0a 00                	or     (%eax),%al
c01053b6:	00 00                	add    %al,(%eax)
c01053b8:	41                   	inc    %ecx
c01053b9:	76 61                	jbe    c010541c <kernel_main+0x775>
c01053bb:	69 6c 61 62 6c 65 20 	imul   $0x6d20656c,0x62(%ecx,%eiz,2),%ebp
c01053c2:	6d 
c01053c3:	65 6d                	gs insl (%dx),%es:(%edi)
c01053c5:	6f                   	outsl  %ds:(%esi),(%dx)
c01053c6:	72 79                	jb     c0105441 <kernel_main+0x79a>
c01053c8:	20 66 72             	and    %ah,0x72(%esi)
c01053cb:	6f                   	outsl  %ds:(%esi),(%dx)
c01053cc:	6d                   	insl   (%dx),%es:(%edi)
c01053cd:	20 25 78 20 74 6f    	and    %ah,0x6f742078
c01053d3:	20 25 78 0a 00 4f    	and    %ah,0x4f000a78
c01053d9:	75 74                	jne    c010544f <kernel_main+0x7a8>
c01053db:	20 6f 66             	and    %ch,0x66(%edi)
c01053de:	20 6d 65             	and    %ch,0x65(%ebp)
c01053e1:	6d                   	insl   (%dx),%es:(%edi)
c01053e2:	6f                   	outsl  %ds:(%esi),(%dx)
c01053e3:	72 79                	jb     c010545e <kernel_main+0x7b7>
c01053e5:	21 00                	and    %eax,(%eax)
c01053e7:	4f                   	dec    %edi
c01053e8:	6c                   	insb   (%dx),%es:(%edi)
c01053e9:	64 20 46 72          	and    %al,%fs:0x72(%esi)
c01053ed:	61                   	popa
c01053ee:	6d                   	insl   (%dx),%es:(%edi)
c01053ef:	65 20 73 74          	and    %dh,%gs:0x74(%ebx)
c01053f3:	6f                   	outsl  %ds:(%esi),(%dx)
c01053f4:	72 61                	jb     c0105457 <kernel_main+0x7b0>
c01053f6:	67 65 20 61 74       	and    %ah,%gs:0x74(%bx,%di)
c01053fb:	20 25 78 20 00 4e    	and    %ah,0x4e002078
c0105401:	65 77 20             	gs ja  c0105424 <kernel_main+0x77d>
c0105404:	66 72 61             	data16 jb c0105468 <kernel_main+0x7c1>
c0105407:	6d                   	insl   (%dx),%es:(%edi)
c0105408:	65 20 73 74          	and    %dh,%gs:0x74(%ebx)
c010540c:	6f                   	outsl  %ds:(%esi),(%dx)
c010540d:	72 61                	jb     c0105470 <kernel_main+0x7c9>
c010540f:	67 65 20 61 74       	and    %ah,%gs:0x74(%bx,%di)
c0105414:	20 25 78 0a 00 61    	and    %ah,0x61000a78
c010541a:	66 74 65             	data16 je c0105482 <kernel_main+0x7db>
c010541d:	72 5f                	jb     c010547e <kernel_main+0x7d7>
c010541f:	6d                   	insl   (%dx),%es:(%edi)
c0105420:	62 3a                	bound  %edi,(%edx)
c0105422:	20 25 78 0a 00 00    	and    %ah,0xa78
c0105428:	4b                   	dec    %ebx
c0105429:	45                   	inc    %ebp
c010542a:	4e                   	dec    %esi
c010542b:	44                   	inc    %esp
c010542c:	20 25 78 2c 20 61    	and    %ah,0x61202c78
c0105432:	66 74 65             	data16 je c010549a <kernel_main+0x7f3>
c0105435:	72 5f                	jb     c0105496 <kernel_main+0x7ef>
c0105437:	6d                   	insl   (%dx),%es:(%edi)
c0105438:	62 20                	bound  %esp,(%eax)
c010543a:	25 78 2c 20 50       	and    $0x50202c78,%eax
c010543f:	52                   	push   %edx
c0105440:	45                   	inc    %ebp
c0105441:	4d                   	dec    %ebp
c0105442:	45                   	inc    %ebp
c0105443:	4d                   	dec    %ebp
c0105444:	3a 20                	cmp    (%eax),%ah
c0105446:	25 78 0a 00 4e       	and    $0x4e000a78,%eax
c010544b:	55                   	push   %ebp
c010544c:	4d                   	dec    %ebp
c010544d:	20 46 52             	and    %al,0x52(%esi)
c0105450:	41                   	inc    %ecx
c0105451:	4d                   	dec    %ebp
c0105452:	45                   	inc    %ebp
c0105453:	53                   	push   %ebx
c0105454:	20 25 78 0a 00 00    	and    %ah,0xa78
c010545a:	00 00                	add    %al,(%eax)
c010545c:	4c                   	dec    %esp
c010545d:	6f                   	outsl  %ds:(%esi),(%dx)
c010545e:	77 20                	ja     c0105480 <kernel_main+0x7d9>
c0105460:	61                   	popa
c0105461:	64 64 72 20          	fs fs jb c0105485 <kernel_main+0x7de>
c0105465:	6d                   	insl   (%dx),%es:(%edi)
c0105466:	61                   	popa
c0105467:	72 6b                	jb     c01054d4 <kernel_main+0x82d>
c0105469:	65 64 20 61 74       	gs and %ah,%fs:0x74(%ecx)
c010546e:	20 25 78 2e 20 48    	and    %ah,0x48202e78
c0105474:	69 67 68 20 6d 61 72 	imul   $0x72616d20,0x68(%edi),%esp
c010547b:	6b 65 64 20          	imul   $0x20,0x64(%ebp),%esp
c010547f:	61                   	popa
c0105480:	74 20                	je     c01054a2 <kernel_main+0x7fb>
c0105482:	25 78 0a 0a 00       	and    $0xa0a78,%eax
c0105487:	00 4f 6c             	add    %cl,0x6c(%edi)
c010548a:	64 20 56 4d          	and    %dl,%fs:0x4d(%esi)
c010548e:	4d                   	dec    %ebp
c010548f:	20 73 74             	and    %dh,0x74(%ebx)
c0105492:	6f                   	outsl  %ds:(%esi),(%dx)
c0105493:	72 61                	jb     c01054f6 <kernel_main+0x84f>
c0105495:	67 65 3a 20          	cmp    %gs:(%bx,%si),%ah
c0105499:	25 78 2c 20 4e       	and    $0x4e202c78,%eax
c010549e:	65 77 20             	gs ja  c01054c1 <kernel_main+0x81a>
c01054a1:	56                   	push   %esi
c01054a2:	4d                   	dec    %ebp
c01054a3:	4d                   	dec    %ebp
c01054a4:	20 73 74             	and    %dh,0x74(%ebx)
c01054a7:	6f                   	outsl  %ds:(%esi),(%dx)
c01054a8:	72 61                	jb     c010550b <kernel_main+0x864>
c01054aa:	67 65 3a 20          	cmp    %gs:(%bx,%si),%ah
c01054ae:	25 78 0a 00 41       	and    $0x41000a78,%eax
c01054b3:	6c                   	insb   (%dx),%es:(%edi)
c01054b4:	6c                   	insb   (%dx),%es:(%edi)
c01054b5:	6f                   	outsl  %ds:(%esi),(%dx)
c01054b6:	63 61 74             	arpl   %esp,0x74(%ecx)
c01054b9:	65 64 20 76 6d       	gs and %dh,%fs:0x6d(%esi)
c01054be:	20 73 70             	and    %dh,0x70(%ebx)
c01054c1:	61                   	popa
c01054c2:	63 65 20             	arpl   %esp,0x20(%ebp)
c01054c5:	61                   	popa
c01054c6:	74 20                	je     c01054e8 <kernel_main+0x841>
c01054c8:	25 78 0a 00 4f       	and    $0x4f000a78,%eax
c01054cd:	75 74                	jne    c0105543 <kernel_main+0x89c>
c01054cf:	20 6f 66             	and    %ch,0x66(%edi)
c01054d2:	20 56 4d             	and    %dl,0x4d(%esi)
c01054d5:	4d                   	dec    %ebp
c01054d6:	20 73 74             	and    %dh,0x74(%ebx)
c01054d9:	6f                   	outsl  %ds:(%esi),(%dx)
c01054da:	72 61                	jb     c010553d <kernel_main+0x896>
c01054dc:	67 65 20 73 70       	and    %dh,%gs:0x70(%bp,%di)
c01054e1:	61                   	popa
c01054e2:	63 65 21             	arpl   %esp,0x21(%ebp)
c01054e5:	00 00                	add    %al,(%eax)
c01054e7:	00 4e 6f             	add    %cl,0x6f(%esi)
c01054ea:	20 74 68 61          	and    %dh,0x61(%eax,%ebp,2)
c01054ee:	6e                   	outsb  %ds:(%esi),(%dx)
c01054ef:	6b 73 21 20          	imul   $0x20,0x21(%ebx),%esi
c01054f3:	56                   	push   %esi
c01054f4:	4d                   	dec    %ebp
c01054f5:	4d                   	dec    %ebp
c01054f6:	5f                   	pop    %edi
c01054f7:	48                   	dec    %eax
c01054f8:	49                   	dec    %ecx
c01054f9:	47                   	inc    %edi
c01054fa:	48                   	dec    %eax
c01054fb:	3a 20                	cmp    (%eax),%ah
c01054fd:	25 78 2c 20 56       	and    $0x56202c78,%eax
c0105502:	4d                   	dec    %ebp
c0105503:	4d                   	dec    %ebp
c0105504:	5f                   	pop    %edi
c0105505:	4c                   	dec    %esp
c0105506:	4f                   	dec    %edi
c0105507:	57                   	push   %edi
c0105508:	3a 20                	cmp    (%eax),%ah
c010550a:	25 78 0a 00 4e       	and    $0x4e000a78,%eax
c010550f:	6f                   	outsl  %ds:(%esi),(%dx)
c0105510:	20 73 70             	and    %dh,0x70(%ebx)
c0105513:	61                   	popa
c0105514:	63 65 21             	arpl   %esp,0x21(%ebp)
c0105517:	0a 00                	or     (%eax),%al
c0105519:	4d                   	dec    %ebp
c010551a:	61                   	popa
c010551b:	70 70                	jo     c010558d <kernel_main+0x8e6>
c010551d:	65 64 20 70 68       	gs and %dh,%fs:0x68(%eax)
c0105522:	79 73                	jns    c0105597 <kernel_main+0x8f0>
c0105524:	20 69 73             	and    %ch,0x73(%ecx)
c0105527:	20 25 78 0a 00 2d    	and    %ah,0x2d000a78
c010552d:	2d 2d 2d 2d 2d       	sub    $0x2d2d2d2d,%eax
c0105532:	2d 2d 2d 2d 2d       	sub    $0x2d2d2d2d,%eax
c0105537:	2d 2d 2d 46 52       	sub    $0x52462d2d,%eax
c010553c:	45                   	inc    %ebp
c010553d:	45                   	inc    %ebp
c010553e:	44                   	inc    %esp
c010553f:	2d 2d 2d 2d 2d       	sub    $0x2d2d2d2d,%eax
c0105544:	2d 2d 2d 2d 2d       	sub    $0x2d2d2d2d,%eax
c0105549:	2d 2d 2d 2d 2d       	sub    $0x2d2d2d2d,%eax
c010554e:	0a 0a                	or     (%edx),%cl
c0105550:	0a 00                	or     (%eax),%al
c0105552:	4e                   	dec    %esi
c0105553:	6f                   	outsl  %ds:(%esi),(%dx)
c0105554:	20 76 6d             	and    %dh,0x6d(%esi)
c0105557:	20 6f 62             	and    %ch,0x62(%edi)
c010555a:	6a 20                	push   $0x20
c010555c:	66 6f                	outsw  %ds:(%esi),(%dx)
c010555e:	75 6e                	jne    c01055ce <kernel_main+0x927>
c0105560:	64 20 61 74          	and    %ah,%fs:0x74(%ecx)
c0105564:	20 62 61             	and    %ah,0x61(%edx)
c0105567:	73 65                	jae    c01055ce <kernel_main+0x927>
c0105569:	20 25 78 0a 00 00    	and    %ah,0xa78
c010556f:	00 54 79 70          	add    %dl,0x70(%ecx,%edi,2)
c0105573:	65 20 6f 66          	and    %ch,%gs:0x66(%edi)
c0105577:	20 46 72             	and    %al,0x72(%esi)
c010557a:	61                   	popa
c010557b:	6d                   	insl   (%dx),%es:(%edi)
c010557c:	65 42                	gs inc %edx
c010557e:	75 66                	jne    c01055e6 <kernel_main+0x93f>
c0105580:	66 65 72 3a          	data16 gs jb c01055be <kernel_main+0x917>
c0105584:	20 25 64 0a 00 41    	and    %ah,0x41000a64
c010558a:	50                   	push   %eax
c010558b:	49                   	dec    %ecx
c010558c:	43                   	inc    %ebx
c010558d:	00 00                	add    %al,(%eax)
c010558f:	00 4d 41             	add    %cl,0x41(%ebp)
c0105592:	44                   	inc    %esp
c0105593:	54                   	push   %esp
c0105594:	20 65 6e             	and    %ah,0x6e(%ebp)
c0105597:	74 72                	je     c010560b <kernel_main+0x964>
c0105599:	79 20                	jns    c01055bb <kernel_main+0x914>
c010559b:	77 69                	ja     c0105606 <kernel_main+0x95f>
c010559d:	74 68                	je     c0105607 <kernel_main+0x960>
c010559f:	20 69 64             	and    %ch,0x64(%ecx)
c01055a2:	20 25 64 20 4e 4f    	and    %ah,0x4f4e2064
c01055a8:	54                   	push   %esp
c01055a9:	20 46 4f             	and    %al,0x4f(%esi)
c01055ac:	55                   	push   %ebp
c01055ad:	4e                   	dec    %esi
c01055ae:	44                   	inc    %esp
c01055af:	21 0a                	and    %ecx,(%edx)
c01055b1:	00 00                	add    %al,(%eax)
c01055b3:	00 53 69             	add    %dl,0x69(%ebx)
c01055b6:	67 6e                	outsb  %ds:(%si),(%dx)
c01055b8:	61                   	popa
c01055b9:	74 75                	je     c0105630 <kernel_main+0x989>
c01055bb:	72 65                	jb     c0105622 <kernel_main+0x97b>
c01055bd:	20 6e 6f             	and    %ch,0x6f(%esi)
c01055c0:	74 20                	je     c01055e2 <kernel_main+0x93b>
c01055c2:	66 6f                	outsw  %ds:(%esi),(%dx)
c01055c4:	75 6e                	jne    c0105634 <kernel_main+0x98d>
c01055c6:	64 20 69 6e          	and    %ch,%fs:0x6e(%ecx)
c01055ca:	20 41 43             	and    %al,0x43(%ecx)
c01055cd:	50                   	push   %eax
c01055ce:	49                   	dec    %ecx
c01055cf:	20 74 61 62          	and    %dh,0x62(%ecx,%eiz,2)
c01055d3:	6c                   	insb   (%dx),%es:(%edi)
c01055d4:	65 73 0a             	gs jae c01055e1 <kernel_main+0x93a>
c01055d7:	00 52 53             	add    %dl,0x53(%edx)
c01055da:	44                   	inc    %esp
c01055db:	50                   	push   %eax
c01055dc:	20 4e 4f             	and    %cl,0x4f(%esi)
c01055df:	54                   	push   %esp
c01055e0:	20 56 41             	and    %dl,0x41(%esi)
c01055e3:	4c                   	dec    %esp
c01055e4:	49                   	dec    %ecx
c01055e5:	44                   	inc    %esp
c01055e6:	41                   	inc    %ecx
c01055e7:	54                   	push   %esp
c01055e8:	45                   	inc    %ebp
c01055e9:	44                   	inc    %esp
c01055ea:	20 3e                	and    %bh,(%esi)
c01055ec:	3e 3c 3c             	ds cmp $0x3c,%al
c01055ef:	20 0a                	and    %cl,(%edx)
c01055f1:	00 4d 75             	add    %cl,0x75(%ebp)
c01055f4:	6c                   	insb   (%dx),%es:(%edi)
c01055f5:	74 69                	je     c0105660 <kernel_main+0x9b9>
c01055f7:	62 6f 6f             	bound  %ebp,0x6f(%edi)
c01055fa:	74 20                	je     c010561c <kernel_main+0x975>
c01055fc:	4d                   	dec    %ebp
c01055fd:	4d                   	dec    %ebp
c01055fe:	41                   	inc    %ecx
c01055ff:	50                   	push   %eax
c0105600:	20 74 61 67          	and    %dh,0x67(%ecx,%eiz,2)
c0105604:	20 66 6f             	and    %ah,0x6f(%esi)
c0105607:	75 6e                	jne    c0105677 <kernel_main+0x9d0>
c0105609:	64 2e 2e 2e 0a 00    	fs cs cs or %cs:(%eax),%al
c010560f:	00 4c 6f 61          	add    %cl,0x61(%edi,%ebp,2)
c0105613:	64 65 64 20 49 44    	fs gs and %cl,%fs:0x44(%ecx)
c0105619:	54                   	push   %esp
c010561a:	0a 00                	or     (%eax),%al
c010561c:	44                   	inc    %esp
c010561d:	69 76 69 73 69 6f 6e 	imul   $0x6e6f6973,0x69(%esi),%esi
c0105624:	20 62 79             	and    %ah,0x79(%edx)
c0105627:	20 7a 65             	and    %bh,0x65(%edx)
c010562a:	72 6f                	jb     c010569b <kernel_main+0x9f4>
c010562c:	20 69 6e             	and    %ch,0x6e(%ecx)
c010562f:	20 6b 65             	and    %ch,0x65(%ebx)
c0105632:	72 6e                	jb     c01056a2 <kernel_main+0x9fb>
c0105634:	65 6c                	gs insb (%dx),%es:(%edi)
c0105636:	20 73 70             	and    %dh,0x70(%ebx)
c0105639:	61                   	popa
c010563a:	63 65 21             	arpl   %esp,0x21(%ebp)
c010563d:	0a 00                	or     (%eax),%al
c010563f:	00 49 6e             	add    %cl,0x6e(%ecx)
c0105642:	76 61                	jbe    c01056a5 <kernel_main+0x9fe>
c0105644:	6c                   	insb   (%dx),%es:(%edi)
c0105645:	69 64 20 6f 70 63 6f 	imul   $0x646f6370,0x6f(%eax,%eiz,1),%esp
c010564c:	64 
c010564d:	65 20 69 6e          	and    %ch,%gs:0x6e(%ecx)
c0105651:	20 6b 65             	and    %ch,0x65(%ebx)
c0105654:	72 6e                	jb     c01056c4 <kernel_main+0xa1d>
c0105656:	65 6c                	gs insb (%dx),%es:(%edi)
c0105658:	20 73 70             	and    %dh,0x70(%ebx)
c010565b:	61                   	popa
c010565c:	63 65 21             	arpl   %esp,0x21(%ebp)
c010565f:	0a 00                	or     (%eax),%al
c0105661:	45                   	inc    %ebp
c0105662:	72 72                	jb     c01056d6 <kernel_main+0xa2f>
c0105664:	20 63 6f             	and    %ah,0x6f(%ebx)
c0105667:	64 65 3a 20          	fs cmp %gs:(%eax),%ah
c010566b:	25 78 20 00 00       	and    $0x2078,%eax
c0105670:	44                   	inc    %esp
c0105671:	6f                   	outsl  %ds:(%esi),(%dx)
c0105672:	75 62                	jne    c01056d6 <kernel_main+0xa2f>
c0105674:	6c                   	insb   (%dx),%es:(%edi)
c0105675:	65 20 66 61          	and    %ah,%gs:0x61(%esi)
c0105679:	75 6c                	jne    c01056e7 <kernel_main+0xa40>
c010567b:	74 20                	je     c010569d <kernel_main+0x9f6>
c010567d:	69 6e 20 6b 65 72 6e 	imul   $0x6e72656b,0x20(%esi),%ebp
c0105684:	65 6c                	gs insb (%dx),%es:(%edi)
c0105686:	20 73 70             	and    %dh,0x70(%ebx)
c0105689:	61                   	popa
c010568a:	63 65 21             	arpl   %esp,0x21(%ebp)
c010568d:	0a 00                	or     (%eax),%al
c010568f:	00 53 74             	add    %dl,0x74(%ebx)
c0105692:	61                   	popa
c0105693:	63 6b 20             	arpl   %ebp,0x20(%ebx)
c0105696:	61                   	popa
c0105697:	74 20                	je     c01056b9 <kernel_main+0xa12>
c0105699:	25 78 2c 20 49       	and    $0x49202c78,%eax
c010569e:	6e                   	outsb  %ds:(%esi),(%dx)
c010569f:	74 65                	je     c0105706 <kernel_main+0xa5f>
c01056a1:	72 72                	jb     c0105715 <kernel_main+0xa6e>
c01056a3:	75 70                	jne    c0105715 <kernel_main+0xa6e>
c01056a5:	74 20                	je     c01056c7 <kernel_main+0xa20>
c01056a7:	6f                   	outsl  %ds:(%esi),(%dx)
c01056a8:	63 63 75             	arpl   %esp,0x75(%ebx)
c01056ab:	72 65                	jb     c0105712 <kernel_main+0xa6b>
c01056ad:	64 3a 20             	cmp    %fs:(%eax),%ah
c01056b0:	25 64 00 0a 00       	and    $0xa0064,%eax
c01056b5:	00 00                	add    %al,(%eax)
c01056b7:	00 53 69             	add    %dl,0x69(%ebx)
c01056ba:	6c                   	insb   (%dx),%es:(%edi)
c01056bb:	6c                   	insb   (%dx),%es:(%edi)
c01056bc:	79 20                	jns    c01056de <kernel_main+0xa37>
c01056be:	69 6e 74 65 72 72 75 	imul   $0x75727265,0x74(%esi),%ebp
c01056c5:	70 74                	jo     c010573b <kernel_main+0xa94>
c01056c7:	20 68 61             	and    %ch,0x61(%eax)
c01056ca:	70 70                	jo     c010573c <kernel_main+0xa95>
c01056cc:	65 6e                	outsb  %gs:(%esi),(%dx)
c01056ce:	65 64 20 49 20       	gs and %cl,%fs:0x20(%ecx)
c01056d3:	67 75 65             	addr16 jne c010573b <kernel_main+0xa94>
c01056d6:	73 73                	jae    c010574b <kernel_main+0xaa4>
c01056d8:	21 0a                	and    %ecx,(%edx)
c01056da:	00 00                	add    %al,(%eax)
c01056dc:	50                   	push   %eax
c01056dd:	48                   	dec    %eax
c01056de:	59                   	pop    %ecx
c01056df:	53                   	push   %ebx
c01056e0:	49                   	dec    %ecx
c01056e1:	43                   	inc    %ebx
c01056e2:	41                   	inc    %ecx
c01056e3:	4c                   	dec    %esp
c01056e4:	20 41 44             	and    %al,0x44(%ecx)
c01056e7:	44                   	inc    %esp
c01056e8:	52                   	push   %edx
c01056e9:	45                   	inc    %ebp
c01056ea:	53                   	push   %ebx
c01056eb:	53                   	push   %ebx
c01056ec:	20 4e 4f             	and    %cl,0x4f(%esi)
c01056ef:	54                   	push   %esp
c01056f0:	20 50 41             	and    %dl,0x41(%eax)
c01056f3:	47                   	inc    %edi
c01056f4:	45                   	inc    %ebp
c01056f5:	20 41 4c             	and    %al,0x4c(%ecx)
c01056f8:	49                   	dec    %ecx
c01056f9:	47                   	inc    %edi
c01056fa:	4e                   	dec    %esi
c01056fb:	45                   	inc    %ebp
c01056fc:	44                   	inc    %esp
c01056fd:	0a 00                	or     (%eax),%al
c01056ff:	43                   	inc    %ebx
c0105700:	52                   	push   %edx
c0105701:	45                   	inc    %ebp
c0105702:	41                   	inc    %ecx
c0105703:	54                   	push   %esp
c0105704:	49                   	dec    %ecx
c0105705:	4e                   	dec    %esi
c0105706:	47                   	inc    %edi
c0105707:	20 4e 45             	and    %cl,0x45(%esi)
c010570a:	57                   	push   %edi
c010570b:	20 50 54             	and    %dl,0x54(%eax)
c010570e:	0a 00                	or     (%eax),%al
c0105710:	4e                   	dec    %esi
c0105711:	65 77 20             	gs ja  c0105734 <kernel_main+0xa8d>
c0105714:	50                   	push   %eax
c0105715:	54                   	push   %esp
c0105716:	20 63 72             	and    %ah,0x72(%ebx)
c0105719:	65 61                	gs popa
c010571b:	74 65                	je     c0105782 <kernel_main+0xadb>
c010571d:	64 20 61 74          	and    %ah,%fs:0x74(%ecx)
c0105721:	20 65 6e             	and    %ah,0x6e(%ebp)
c0105724:	74 72                	je     c0105798 <kernel_main+0xaf1>
c0105726:	79 20                	jns    c0105748 <kernel_main+0xaa1>
c0105728:	25 64 0a 00 50       	and    $0x50000a64,%eax
c010572d:	41                   	inc    %ecx
c010572e:	47                   	inc    %edi
c010572f:	45                   	inc    %ebp
c0105730:	53                   	push   %ebx
c0105731:	3a 20                	cmp    (%eax),%ah
c0105733:	25 64 0a 00 34       	and    $0x34000a64,%eax
c0105738:	30 34 3a             	xor    %dh,(%edx,%edi,1)
c010573b:	20 50 61             	and    %dl,0x61(%eax)
c010573e:	67 65 20 6e 6f       	and    %ch,%gs:0x6f(%bp)
c0105743:	74 20                	je     c0105765 <kernel_main+0xabe>
c0105745:	66 6f                	outsw  %ds:(%esi),(%dx)
c0105747:	75 6e                	jne    c01057b7 <kernel_main+0xb10>
c0105749:	64 0a 00             	or     %fs:(%eax),%al
c010574c:	57                   	push   %edi
c010574d:	72 69                	jb     c01057b8 <kernel_main+0xb11>
c010574f:	74 65                	je     c01057b6 <kernel_main+0xb0f>
c0105751:	20 61 63             	and    %ah,0x63(%ecx)
c0105754:	63 65 73             	arpl   %esp,0x73(%ebp)
c0105757:	73 20                	jae    c0105779 <kernel_main+0xad2>
c0105759:	61                   	popa
c010575a:	74 20                	je     c010577c <kernel_main+0xad5>
c010575c:	25 78 0a 00 43       	and    $0x43000a78,%eax
c0105761:	50                   	push   %eax
c0105762:	4c                   	dec    %esp
c0105763:	20 3d 20 33 20 65    	and    %bh,0x65203320
c0105769:	72 72                	jb     c01057dd <kernel_main+0xb36>
c010576b:	6f                   	outsl  %ds:(%esi),(%dx)
c010576c:	72 2c                	jb     c010579a <kernel_main+0xaf3>
c010576e:	20 63 6f             	and    %ah,0x6f(%ebx)
c0105771:	75 6c                	jne    c01057df <kernel_main+0xb38>
c0105773:	64 20 62 65          	and    %ah,%fs:0x65(%edx)
c0105777:	20 70 72             	and    %dh,0x72(%eax)
c010577a:	69 76 69 6c 65 67 65 	imul   $0x6567656c,0x69(%esi),%esi
c0105781:	0a 00                	or     (%eax),%al
c0105783:	52                   	push   %edx
c0105784:	65 73 65             	gs jae c01057ec <kernel_main+0xb45>
c0105787:	72 76                	jb     c01057ff <kernel_main+0xb58>
c0105789:	65 64 20 57 72       	gs and %dl,%fs:0x72(%edi)
c010578e:	69 74 65 0a 00 49 6e 	imul   $0x736e4900,0xa(%ebp,%eiz,2),%esi
c0105795:	73 
c0105796:	74 72                	je     c010580a <kernel_main+0xb63>
c0105798:	75 63                	jne    c01057fd <kernel_main+0xb56>
c010579a:	74 69                	je     c0105805 <kernel_main+0xb5e>
c010579c:	6f                   	outsl  %ds:(%esi),(%dx)
c010579d:	6e                   	outsb  %ds:(%esi),(%dx)
c010579e:	20 46 65             	and    %al,0x65(%esi)
c01057a1:	74 63                	je     c0105806 <kernel_main+0xb5f>
c01057a3:	68 0a 00 50 72       	push   $0x7250000a
c01057a8:	6f                   	outsl  %ds:(%esi),(%dx)
c01057a9:	74 65                	je     c0105810 <kernel_main+0xb69>
c01057ab:	63 74 69 6f          	arpl   %esi,0x6f(%ecx,%ebp,2)
c01057af:	6e                   	outsb  %ds:(%esi),(%dx)
c01057b0:	20 46 61             	and    %al,0x61(%esi)
c01057b3:	75 6c                	jne    c0105821 <kernel_main+0xb7a>
c01057b5:	74 0a                	je     c01057c1 <kernel_main+0xb1a>
c01057b7:	00 53 68             	add    %dl,0x68(%ebx)
c01057ba:	61                   	popa
c01057bb:	64 6f                	outsl  %fs:(%esi),(%dx)
c01057bd:	77 20                	ja     c01057df <kernel_main+0xb38>
c01057bf:	53                   	push   %ebx
c01057c0:	74 61                	je     c0105823 <kernel_main+0xb7c>
c01057c2:	63 6b 0a             	arpl   %ebp,0xa(%ebx)
c01057c5:	00 4e 75             	add    %cl,0x75(%esi)
c01057c8:	6c                   	insb   (%dx),%es:(%edi)
c01057c9:	6c                   	insb   (%dx),%es:(%edi)
c01057ca:	20 70 6f             	and    %dh,0x6f(%eax)
c01057cd:	69 6e 74 65 72 20 61 	imul   $0x61207265,0x74(%esi),%ebp
c01057d4:	63 63 65             	arpl   %esp,0x65(%ebx)
c01057d7:	73 73                	jae    c010584c <kernel_main+0xba5>
c01057d9:	3f                   	aas
c01057da:	0a 00                	or     (%eax),%al
c01057dc:	50                   	push   %eax
c01057dd:	61                   	popa
c01057de:	67 65 20 66 61       	and    %ah,%gs:0x61(%bp)
c01057e3:	75 6c                	jne    c0105851 <kernel_main+0xbaa>
c01057e5:	74 20                	je     c0105807 <kernel_main+0xb60>
c01057e7:	61                   	popa
c01057e8:	74 20                	je     c010580a <kernel_main+0xb63>
c01057ea:	25 78 0a 00 4d       	and    $0x4d000a78,%eax
c01057ef:	45                   	inc    %ebp
c01057f0:	4d                   	dec    %ebp
c01057f1:	4f                   	dec    %edi
c01057f2:	52                   	push   %edx
c01057f3:	59                   	pop    %ecx
c01057f4:	20 50 41             	and    %dl,0x41(%eax)
c01057f7:	47                   	inc    %edi
c01057f8:	45                   	inc    %ebp
c01057f9:	20 46 41             	and    %al,0x41(%esi)
c01057fc:	55                   	push   %ebp
c01057fd:	4c                   	dec    %esp
c01057fe:	54                   	push   %esp
c01057ff:	0a 00                	or     (%eax),%al
c0105801:	00 00                	add    %al,(%eax)
c0105803:	00 30                	add    %dh,(%eax)
c0105805:	78 30                	js     c0105837 <kernel_main+0xb90>
c0105807:	00 55 4e             	add    %dl,0x4e(%ebp)
c010580a:	4b                   	dec    %ebx
c010580b:	4e                   	dec    %esi
c010580c:	4f                   	dec    %edi
c010580d:	57                   	push   %edi
c010580e:	4e                   	dec    %esi
c010580f:	20 4f 50             	and    %cl,0x50(%edi)
c0105812:	54                   	push   %esp
c0105813:	49                   	dec    %ecx
c0105814:	4f                   	dec    %edi
c0105815:	4e                   	dec    %esi
c0105816:	20 25 00 21 0a 00    	and    %ah,0xa2100
c010581c:	f5                   	cmc
c010581d:	4b                   	dec    %ebx
c010581e:	10 c0                	adc    %al,%al
c0105820:	c0 4b 10 c0          	rorb   $0xc0,0x10(%ebx)
c0105824:	1a 4c 10 c0          	sbb    -0x40(%eax,%edx,1),%cl
c0105828:	1a 4c 10 c0          	sbb    -0x40(%eax,%edx,1),%cl
c010582c:	1a 4c 10 c0          	sbb    -0x40(%eax,%edx,1),%cl
c0105830:	1a 4c 10 c0          	sbb    -0x40(%eax,%edx,1),%cl
c0105834:	1a 4c 10 c0          	sbb    -0x40(%eax,%edx,1),%cl
c0105838:	1a 4c 10 c0          	sbb    -0x40(%eax,%edx,1),%cl
c010583c:	1a 4c 10 c0          	sbb    -0x40(%eax,%edx,1),%cl
c0105840:	1a 4c 10 c0          	sbb    -0x40(%eax,%edx,1),%cl
c0105844:	1a 4c 10 c0          	sbb    -0x40(%eax,%edx,1),%cl
c0105848:	1a 4c 10 c0          	sbb    -0x40(%eax,%edx,1),%cl
c010584c:	1a 4c 10 c0          	sbb    -0x40(%eax,%edx,1),%cl
c0105850:	1a 4c 10 c0          	sbb    -0x40(%eax,%edx,1),%cl
c0105854:	1a 4c 10 c0          	sbb    -0x40(%eax,%edx,1),%cl
c0105858:	1a 4c 10 c0          	sbb    -0x40(%eax,%edx,1),%cl
c010585c:	dc 4b 10             	fmull  0x10(%ebx)
c010585f:	c0 b7 4b 10 c0 1a 4c 	shlb   $0x4c,0x1ac0104b(%edi)
c0105866:	10 c0                	adc    %al,%al
c0105868:	1a 4c 10 c0          	sbb    -0x40(%eax,%edx,1),%cl
c010586c:	1a 4c 10 c0          	sbb    -0x40(%eax,%edx,1),%cl
c0105870:	7c 4b                	jl     c01058bd <kernel_main+0xc16>
c0105872:	10 c0                	adc    %al,%al
c0105874:	20 3c 3c             	and    %bh,(%esp,%edi,1)
c0105877:	20 4b 45             	and    %cl,0x45(%ebx)
c010587a:	52                   	push   %edx
c010587b:	4e                   	dec    %esi
c010587c:	45                   	inc    %ebp
c010587d:	4c                   	dec    %esp
c010587e:	20 50 41             	and    %dl,0x41(%eax)
c0105881:	4e                   	dec    %esi
c0105882:	49                   	dec    %ecx
c0105883:	43                   	inc    %ebx
c0105884:	20 3e                	and    %bh,(%esi)
c0105886:	3e 20 52 65          	and    %dl,%ds:0x65(%edx)
c010588a:	61                   	popa
c010588b:	73 6f                	jae    c01058fc <kernel_main+0xc55>
c010588d:	6e                   	outsb  %ds:(%esi),(%dx)
c010588e:	3a 20                	cmp    (%eax),%ah
c0105890:	25 73 0a 00 45       	and    $0x45000a73,%eax
c0105895:	52                   	push   %edx
c0105896:	52                   	push   %edx
c0105897:	4f                   	dec    %edi
c0105898:	52                   	push   %edx
c0105899:	0a 00                	or     (%eax),%al
c010589b:	00 4b 65             	add    %cl,0x65(%ebx)
c010589e:	72 6e                	jb     c010590e <kernel_main+0xc67>
c01058a0:	65 6c                	gs insb (%dx),%es:(%edi)
c01058a2:	20 53 69             	and    %dl,0x69(%ebx)
c01058a5:	7a 65                	jp     c010590c <kernel_main+0xc65>
c01058a7:	20 25 78 2c 20 6d    	and    %ah,0x6d202c78
c01058ad:	75 6c                	jne    c010591b <kernel_main+0xc74>
c01058af:	74 69                	je     c010591a <kernel_main+0xc73>
c01058b1:	62 6f 6f             	bound  %ebp,0x6f(%edi)
c01058b4:	74 5f                	je     c0105915 <kernel_main+0xc6e>
c01058b6:	6c                   	insb   (%dx),%es:(%edi)
c01058b7:	6f                   	outsl  %ds:(%esi),(%dx)
c01058b8:	63 3a                	arpl   %edi,(%edx)
c01058ba:	20 25 78 2c 20 74    	and    %ah,0x74202c78
c01058c0:	61                   	popa
c01058c1:	67 5f                	addr16 pop %edi
c01058c3:	73 69                	jae    c010592e <kernel_main+0xc87>
c01058c5:	7a 65                	jp     c010592c <kernel_main+0xc85>
c01058c7:	3a 20                	cmp    (%eax),%ah
c01058c9:	25 78 0a 00 50       	and    $0x50000a78,%eax
c01058ce:	53                   	push   %ebx
c01058cf:	46                   	inc    %esi
c01058d0:	20 53 54             	and    %dl,0x54(%ebx)
c01058d3:	41                   	inc    %ecx
c01058d4:	52                   	push   %edx
c01058d5:	54                   	push   %esp
c01058d6:	3a 20                	cmp    (%eax),%ah
c01058d8:	25 78 0a 00 4b       	and    $0x4b000a78,%eax
c01058dd:	45                   	inc    %ebp
c01058de:	52                   	push   %edx
c01058df:	4e                   	dec    %esi
c01058e0:	45                   	inc    %ebp
c01058e1:	4c                   	dec    %esp
c01058e2:	20 53 54             	and    %dl,0x54(%ebx)
c01058e5:	41                   	inc    %ecx
c01058e6:	52                   	push   %edx
c01058e7:	54                   	push   %esp
c01058e8:	49                   	dec    %ecx
c01058e9:	4e                   	dec    %esi
c01058ea:	47                   	inc    %edi
c01058eb:	20 4c 4f 43          	and    %cl,0x43(%edi,%ecx,2)
c01058ef:	3a 20                	cmp    (%eax),%ah
c01058f1:	25 78 20 4b 45       	and    $0x454b2078,%eax
c01058f6:	52                   	push   %edx
c01058f7:	4e                   	dec    %esi
c01058f8:	45                   	inc    %ebp
c01058f9:	4c                   	dec    %esp
c01058fa:	20 45 4e             	and    %al,0x4e(%ebp)
c01058fd:	44                   	inc    %esp
c01058fe:	49                   	dec    %ecx
c01058ff:	4e                   	dec    %esi
c0105900:	47                   	inc    %edi
c0105901:	20 4c 4f 43          	and    %cl,0x43(%edi,%ecx,2)
c0105905:	3a 20                	cmp    (%eax),%ah
c0105907:	25 78 20 53 49       	and    $0x49532078,%eax
c010590c:	5a                   	pop    %edx
c010590d:	45                   	inc    %ebp
c010590e:	3a 20                	cmp    (%eax),%ah
c0105910:	25 78 0a 00 57       	and    $0x57000a78,%eax
c0105915:	65 6c                	gs insb (%dx),%es:(%edi)
c0105917:	63 6f 6d             	arpl   %ebp,0x6d(%edi)
c010591a:	65 20 74 6f 20       	and    %dh,%gs:0x20(%edi,%ebp,2)
c010591f:	57                   	push   %edi
c0105920:	6f                   	outsl  %ds:(%esi),(%dx)
c0105921:	72 64                	jb     c0105987 <kernel_main+0xce0>
c0105923:	4f                   	dec    %edi
c0105924:	53                   	push   %ebx
c0105925:	2e 20 48 6f          	and    %cl,%cs:0x6f(%eax)
c0105929:	6d                   	insl   (%dx),%es:(%edi)
c010592a:	65 20 6f 66          	and    %ch,%gs:0x66(%edi)
c010592e:	20 74 68 65          	and    %dh,0x65(%eax,%ebp,2)
c0105932:	20 4d 45             	and    %cl,0x45(%ebp)
c0105935:	54                   	push   %esp
c0105936:	53                   	push   %ebx
c0105937:	21 0a                	and    %ecx,(%edx)
c0105939:	00 00                	add    %al,(%eax)
c010593b:	00 46 75             	add    %al,0x75(%esi)
c010593e:	63 6b 20             	arpl   %ebp,0x20(%ebx)
c0105941:	74 68                	je     c01059ab <kernel_main+0xd04>
c0105943:	65 20 79 61          	and    %bh,%gs:0x61(%ecx)
c0105947:	6e                   	outsb  %ds:(%esi),(%dx)
c0105948:	6b 65 65 73          	imul   $0x73,0x65(%ebp),%esp
c010594c:	2e 2e 2e 20 25 74 33 	cs cs and %ah,%cs:0x4d303374
c0105953:	30 4d 
c0105955:	61                   	popa
c0105956:	79 20                	jns    c0105978 <kernel_main+0xcd1>
c0105958:	74 68                	je     c01059c2 <kernel_main+0xd1b>
c010595a:	65 20 64 6f 64       	and    %ah,%gs:0x64(%edi,%ebp,2)
c010595f:	67 65 72 73          	addr16 gs jb c01059d6 <kernel_main+0xd2f>
c0105963:	20 77 69             	and    %dh,0x69(%edi)
c0105966:	6e                   	outsb  %ds:(%esi),(%dx)
c0105967:	21 25 74 31 30 0a    	and    %esp,0xa303174
c010596d:	00 00                	add    %al,(%eax)
c010596f:	00 42 61             	add    %al,0x61(%edx)
c0105972:	73 69                	jae    c01059dd <kernel_main+0xd36>
c0105974:	63 20                	arpl   %esp,(%eax)
c0105976:	6b 65 72 6e          	imul   $0x6e,0x72(%ebp),%esp
c010597a:	65 6c                	gs insb (%dx),%es:(%edi)
c010597c:	20 66 75             	and    %ah,0x75(%esi)
c010597f:	6e                   	outsb  %ds:(%esi),(%dx)
c0105980:	63 74 69 6f          	arpl   %esi,0x6f(%ecx,%ebp,2)
c0105984:	6e                   	outsb  %ds:(%esi),(%dx)
c0105985:	20 25 74 33 30 4f    	and    %ah,0x4f303374
c010598b:	4b                   	dec    %ebx
c010598c:	21 25 74 31 30 0a    	and    %esp,0xa303174
c0105992:	00 0a                	add    %cl,(%edx)
c0105994:	50                   	push   %eax
c0105995:	52                   	push   %edx
c0105996:	4f                   	dec    %edi
c0105997:	47                   	inc    %edi
c0105998:	52                   	push   %edx
c0105999:	41                   	inc    %ecx
c010599a:	4d                   	dec    %ebp
c010599b:	20 54 4f 20          	and    %dl,0x20(%edi,%ecx,2)
c010599f:	48                   	dec    %eax
c01059a0:	41                   	inc    %ecx
c01059a1:	4c                   	dec    %esp
c01059a2:	54                   	push   %esp
c01059a3:	21 20                	and    %esp,(%eax)
c01059a5:	0a 00                	or     (%eax),%al

Disassembly of section .data:

c0106000 <font_size>:
c0106000:	01 00                	add    %eax,(%eax)
	...

c0106004 <term_fg>:
c0106004:	00 f0                	add    %dh,%al
c0106006:	f0 f0 00 00          	lock lock add %al,(%eax)
	...

c0106020 <key_lookup>:
c0106020:	00 00                	add    %al,(%eax)
c0106022:	00 00                	add    %al,(%eax)
c0106024:	04 00                	add    $0x0,%al
c0106026:	00 00                	add    %al,(%eax)
c0106028:	0a 00                	or     (%eax),%al
c010602a:	00 00                	add    %al,(%eax)
c010602c:	0b 00                	or     (%eax),%eax
c010602e:	00 00                	add    %al,(%eax)
c0106030:	0c 00                	or     $0x0,%al
c0106032:	00 00                	add    %al,(%eax)
c0106034:	0d 00 00 00 0e       	or     $0xe000000,%eax
c0106039:	00 00                	add    %al,(%eax)
c010603b:	00 0f                	add    %cl,(%edi)
c010603d:	00 00                	add    %al,(%eax)
c010603f:	00 10                	add    %dl,(%eax)
c0106041:	00 00                	add    %al,(%eax)
c0106043:	00 11                	add    %dl,(%ecx)
c0106045:	00 00                	add    %al,(%eax)
c0106047:	00 12                	add    %dl,(%edx)
c0106049:	00 00                	add    %al,(%eax)
c010604b:	00 13                	add    %dl,(%ebx)
c010604d:	00 00                	add    %al,(%eax)
c010604f:	00 3b                	add    %bh,(%ebx)
c0106051:	00 00                	add    %al,(%eax)
c0106053:	00 3a                	add    %bh,(%edx)
c0106055:	00 00                	add    %al,(%eax)
c0106057:	00 02                	add    %al,(%edx)
c0106059:	00 00                	add    %al,(%eax)
c010605b:	00 03                	add    %al,(%ebx)
c010605d:	00 00                	add    %al,(%eax)
c010605f:	00 24 00             	add    %ah,(%eax,%eax,1)
c0106062:	00 00                	add    %al,(%eax)
c0106064:	2a 00                	sub    (%eax),%al
c0106066:	00 00                	add    %al,(%eax)
c0106068:	18 00                	sbb    %al,(%eax)
c010606a:	00 00                	add    %al,(%eax)
c010606c:	25 00 00 00 27       	and    $0x27000000,%eax
c0106071:	00 00                	add    %al,(%eax)
c0106073:	00 2c 00             	add    %ch,(%eax,%eax,1)
c0106076:	00 00                	add    %al,(%eax)
c0106078:	28 00                	sub    %al,(%eax)
c010607a:	00 00                	add    %al,(%eax)
c010607c:	1c 00                	sbb    $0x0,%al
c010607e:	00 00                	add    %al,(%eax)
c0106080:	22 00                	and    (%eax),%al
c0106082:	00 00                	add    %al,(%eax)
c0106084:	23 00                	and    (%eax),%eax
c0106086:	00 00                	add    %al,(%eax)
c0106088:	40                   	inc    %eax
c0106089:	00 00                	add    %al,(%eax)
c010608b:	00 3f                	add    %bh,(%edi)
c010608d:	00 00                	add    %al,(%eax)
c010608f:	00 05 00 00 00 07    	add    %al,0x7000000
c0106095:	00 00                	add    %al,(%eax)
c0106097:	00 14 00             	add    %dl,(%eax,%eax,1)
c010609a:	00 00                	add    %al,(%eax)
c010609c:	26 00 00             	add    %al,%es:(%eax)
c010609f:	00 17                	add    %dl,(%edi)
c01060a1:	00 00                	add    %al,(%eax)
c01060a3:	00 19                	add    %bl,(%ecx)
c01060a5:	00 00                	add    %al,(%eax)
c01060a7:	00 1a                	add    %bl,(%edx)
c01060a9:	00 00                	add    %al,(%eax)
c01060ab:	00 1b                	add    %bl,(%ebx)
c01060ad:	00 00                	add    %al,(%eax)
c01060af:	00 1d 00 00 00 1e    	add    %bl,0x1e000000
c01060b5:	00 00                	add    %al,(%eax)
c01060b7:	00 1f                	add    %bl,(%edi)
c01060b9:	00 00                	add    %al,(%eax)
c01060bb:	00 45 00             	add    %al,0x0(%ebp)
c01060be:	00 00                	add    %al,(%eax)
c01060c0:	44                   	inc    %esp
c01060c1:	00 00                	add    %al,(%eax)
c01060c3:	00 43 00             	add    %al,0x0(%ebx)
c01060c6:	00 00                	add    %al,(%eax)
c01060c8:	06                   	push   %es
c01060c9:	00 00                	add    %al,(%eax)
c01060cb:	00 3e                	add    %bh,(%esi)
c01060cd:	00 00                	add    %al,(%eax)
c01060cf:	00 2d 00 00 00 2b    	add    %ch,0x2b000000
c01060d5:	00 00                	add    %al,(%eax)
c01060d7:	00 16                	add    %dl,(%esi)
c01060d9:	00 00                	add    %al,(%eax)
c01060db:	00 29                	add    %ch,(%ecx)
c01060dd:	00 00                	add    %al,(%eax)
c01060df:	00 15 00 00 00 21    	add    %dl,0x21000000
c01060e5:	00 00                	add    %al,(%eax)
c01060e7:	00 20                	add    %ah,(%eax)
c01060e9:	00 00                	add    %al,(%eax)
c01060eb:	00 42 00             	add    %al,0x0(%edx)
c01060ee:	00 00                	add    %al,(%eax)
c01060f0:	41                   	inc    %ecx
c01060f1:	00 00                	add    %al,(%eax)
c01060f3:	00 3d 00 00 00 06    	add    %bh,0x6000000
c01060f9:	00 00                	add    %al,(%eax)
c01060fb:	00 00                	add    %al,(%eax)
c01060fd:	00 00                	add    %al,(%eax)
c01060ff:	00 08                	add    %cl,(%eax)
c0106101:	00 00                	add    %al,(%eax)
c0106103:	00 01                	add    %al,(%ecx)
c0106105:	00 00                	add    %al,(%eax)
c0106107:	00 09                	add    %cl,(%ecx)
c0106109:	00 00                	add    %al,(%eax)
c010610b:	00 2e                	add    %ch,(%esi)
c010610d:	00 00                	add    %al,(%eax)
c010610f:	00 2f                	add    %ch,(%edi)
c0106111:	00 00                	add    %al,(%eax)
c0106113:	00 30                	add    %dh,(%eax)
c0106115:	00 00                	add    %al,(%eax)
c0106117:	00 31                	add    %dh,(%ecx)
c0106119:	00 00                	add    %al,(%eax)
c010611b:	00 32                	add    %dh,(%edx)
c010611d:	00 00                	add    %al,(%eax)
c010611f:	00 33                	add    %dh,(%ebx)
c0106121:	00 00                	add    %al,(%eax)
c0106123:	00 34 00             	add    %dh,(%eax,%eax,1)
c0106126:	00 00                	add    %al,(%eax)
c0106128:	35 00 00 00 36       	xor    $0x36000000,%eax
c010612d:	00 00                	add    %al,(%eax)
c010612f:	00 37                	add    %dh,(%edi)
	...
c0106179:	00 00                	add    %al,(%eax)
c010617b:	00 38                	add    %bh,(%eax)
c010617d:	00 00                	add    %al,(%eax)
c010617f:	00 39                	add    %bh,(%ecx)
c0106181:	00 00                	add    %al,(%eax)
	...

c0106184 <mem_top>:
c0106184:	00 00                	add    %al,(%eax)
c0106186:	00 02                	add    %al,(%edx)

c0106188 <mem_bottom>:
c0106188:	00 00                	add    %al,(%eax)
c010618a:	00 01                	add    %al,(%ecx)

c010618c <pre_mem>:
c010618c:	10 f0                	adc    %dh,%al
c010618e:	10 c0                	adc    %al,%al

c0106190 <_binary_font_psf_start>:
c0106190:	36 04 02             	ss add $0x2,%al
c0106193:	10 00                	adc    %al,(%eax)
c0106195:	00 00                	add    %al,(%eax)
c0106197:	3e 63 5d 7d          	arpl   %ebx,%ds:0x7d(%ebp)
c010619b:	7b 77                	jnp    c0106214 <_binary_font_psf_start+0x84>
c010619d:	77 7f                	ja     c010621e <_binary_font_psf_start+0x8e>
c010619f:	77 3e                	ja     c01061df <_binary_font_psf_start+0x4f>
	...
c01061a9:	7e 24                	jle    c01061cf <_binary_font_psf_start+0x3f>
c01061ab:	24 24                	and    $0x24,%al
c01061ad:	24 24                	and    $0x24,%al
c01061af:	24 22                	and    $0x22,%al
c01061b1:	00 00                	add    %al,(%eax)
c01061b3:	00 00                	add    %al,(%eax)
c01061b5:	00 00                	add    %al,(%eax)
c01061b7:	00 01                	add    %al,(%ecx)
c01061b9:	02 7f 04             	add    0x4(%edi),%bh
c01061bc:	08 10                	or     %dl,(%eax)
c01061be:	7f 20                	jg     c01061e0 <_binary_font_psf_start+0x50>
c01061c0:	40                   	inc    %eax
c01061c1:	00 00                	add    %al,(%eax)
c01061c3:	00 00                	add    %al,(%eax)
c01061c5:	00 00                	add    %al,(%eax)
c01061c7:	00 08                	add    %cl,(%eax)
c01061c9:	10 20                	adc    %ah,(%eax)
c01061cb:	40                   	inc    %eax
c01061cc:	20 10                	and    %dl,(%eax)
c01061ce:	08 00                	or     %al,(%eax)
c01061d0:	7c 00                	jl     c01061d2 <_binary_font_psf_start+0x42>
c01061d2:	00 00                	add    %al,(%eax)
c01061d4:	00 00                	add    %al,(%eax)
c01061d6:	00 00                	add    %al,(%eax)
c01061d8:	10 08                	adc    %cl,(%eax)
c01061da:	04 02                	add    $0x2,%al
c01061dc:	04 08                	add    $0x8,%al
c01061de:	10 00                	adc    %al,(%eax)
c01061e0:	3e 00 00             	add    %al,%ds:(%eax)
c01061e3:	00 00                	add    %al,(%eax)
c01061e5:	00 00                	add    %al,(%eax)
c01061e7:	00 00                	add    %al,(%eax)
c01061e9:	7e 7e                	jle    c0106269 <_binary_font_psf_start+0xd9>
c01061eb:	7e 7e                	jle    c010626b <_binary_font_psf_start+0xdb>
c01061ed:	7e 7e                	jle    c010626d <_binary_font_psf_start+0xdd>
c01061ef:	7e 00                	jle    c01061f1 <_binary_font_psf_start+0x61>
	...
c01061f9:	10 38                	adc    %bh,(%eax)
c01061fb:	7c fe                	jl     c01061fb <_binary_font_psf_start+0x6b>
c01061fd:	7c 38                	jl     c0106237 <_binary_font_psf_start+0xa7>
c01061ff:	10 00                	adc    %al,(%eax)
c0106201:	00 00                	add    %al,(%eax)
c0106203:	00 00                	add    %al,(%eax)
c0106205:	00 10                	add    %dl,(%eax)
c0106207:	30 10                	xor    %dl,(%eax)
c0106209:	11 12                	adc    %edx,(%edx)
c010620b:	04 08                	add    $0x8,%al
c010620d:	12 26                	adc    (%esi),%ah
c010620f:	4a                   	dec    %edx
c0106210:	0f 02 02             	lar    (%edx),%eax
c0106213:	00 00                	add    %al,(%eax)
c0106215:	00 10                	add    %dl,(%eax)
c0106217:	30 10                	xor    %dl,(%eax)
c0106219:	11 12                	adc    %edx,(%edx)
c010621b:	04 08                	add    $0x8,%al
c010621d:	10 26                	adc    %ah,(%esi)
c010621f:	49                   	dec    %ecx
c0106220:	02 04 0f             	add    (%edi,%ecx,1),%al
c0106223:	00 00                	add    %al,(%eax)
c0106225:	00 70 08             	add    %dh,0x8(%eax)
c0106228:	30 09                	xor    %cl,(%ecx)
c010622a:	72 04                	jb     c0106230 <_binary_font_psf_start+0xa0>
c010622c:	08 12                	or     %dl,(%edx)
c010622e:	26 4a                	es dec %edx
c0106230:	0f 02 02             	lar    (%edx),%eax
c0106233:	00 00                	add    %al,(%eax)
c0106235:	00 08                	add    %cl,(%eax)
c0106237:	08 08                	or     %cl,(%eax)
c0106239:	08 08                	or     %cl,(%eax)
c010623b:	00 00                	add    %al,(%eax)
c010623d:	08 08                	or     %cl,(%eax)
c010623f:	08 08                	or     %cl,(%eax)
c0106241:	08 00                	or     %al,(%eax)
c0106243:	00 00                	add    %al,(%eax)
c0106245:	24 24                	and    $0x24,%al
	...
c010625f:	00 00                	add    %al,(%eax)
c0106261:	08 08                	or     %cl,(%eax)
c0106263:	30 00                	xor    %al,(%eax)
c0106265:	00 07                	add    %al,(%edi)
c0106267:	08 08                	or     %cl,(%eax)
c0106269:	08 3e                	or     %bh,(%esi)
c010626b:	08 08                	or     %cl,(%eax)
c010626d:	08 08                	or     %cl,(%eax)
c010626f:	08 08                	or     %cl,(%eax)
c0106271:	70 00                	jo     c0106273 <_binary_font_psf_start+0xe3>
c0106273:	00 00                	add    %al,(%eax)
c0106275:	00 00                	add    %al,(%eax)
c0106277:	08 08                	or     %cl,(%eax)
c0106279:	3e 08 08             	or     %cl,%ds:(%eax)
c010627c:	08 08                	or     %cl,(%eax)
c010627e:	08 08                	or     %cl,(%eax)
c0106280:	08 00                	or     %al,(%eax)
c0106282:	00 00                	add    %al,(%eax)
c0106284:	00 00                	add    %al,(%eax)
c0106286:	00 08                	add    %cl,(%eax)
c0106288:	08 3e                	or     %bh,(%esi)
c010628a:	08 08                	or     %cl,(%eax)
c010628c:	08 08                	or     %cl,(%eax)
c010628e:	3e 08 08             	or     %cl,%ds:(%eax)
c0106291:	00 00                	add    %al,(%eax)
c0106293:	00 00                	add    %al,(%eax)
c0106295:	00 00                	add    %al,(%eax)
c0106297:	42                   	inc    %edx
c0106298:	a4                   	movsb  %ds:(%esi),%es:(%edi)
c0106299:	a4                   	movsb  %ds:(%esi),%es:(%edi)
c010629a:	48                   	dec    %eax
c010629b:	10 10                	adc    %dl,(%eax)
c010629d:	2a 55 55             	sub    0x55(%ebp),%dl
c01062a0:	8a 00                	mov    (%eax),%al
c01062a2:	00 00                	add    %al,(%eax)
c01062a4:	00 00                	add    %al,(%eax)
c01062a6:	00 f1                	add    %dh,%cl
c01062a8:	5b                   	pop    %ebx
c01062a9:	55                   	push   %ebp
c01062aa:	51                   	push   %ecx
	...
c01062bf:	49                   	dec    %ecx
c01062c0:	49                   	dec    %ecx
	...
c01062c9:	00 08                	add    %cl,(%eax)
c01062cb:	10 20                	adc    %ah,(%eax)
c01062cd:	10 08                	adc    %cl,(%eax)
	...
c01062d7:	00 00                	add    %al,(%eax)
c01062d9:	00 10                	add    %dl,(%eax)
c01062db:	08 04 08             	or     %al,(%eax,%ecx,1)
c01062de:	10 00                	adc    %al,(%eax)
c01062e0:	00 00                	add    %al,(%eax)
c01062e2:	00 00                	add    %al,(%eax)
c01062e4:	00 24 24             	add    %ah,(%esp)
c01062e7:	24 12                	and    $0x12,%al
	...
c01062f5:	24 24                	and    $0x24,%al
c01062f7:	24 48                	and    $0x48,%al
	...
c010630d:	00 00                	add    %al,(%eax)
c010630f:	24 24                	and    $0x24,%al
c0106311:	24 48                	and    $0x48,%al
	...
c010631f:	24 24                	and    $0x24,%al
c0106321:	24 12                	and    $0x12,%al
	...
c010632f:	10 10                	adc    %dl,(%eax)
c0106331:	10 08                	adc    %cl,(%eax)
c0106333:	00 42 3c             	add    %al,0x3c(%edx)
c0106336:	00 3c 42             	add    %bh,(%edx,%eax,2)
c0106339:	42                   	inc    %edx
c010633a:	40                   	inc    %eax
c010633b:	40                   	inc    %eax
c010633c:	4e                   	dec    %esi
c010633d:	42                   	inc    %edx
c010633e:	42                   	inc    %edx
c010633f:	42                   	inc    %edx
c0106340:	3c 00                	cmp    $0x0,%al
c0106342:	00 00                	add    %al,(%eax)
c0106344:	00 42 3c             	add    %al,0x3c(%edx)
c0106347:	00 00                	add    %al,(%eax)
c0106349:	3a 46 42             	cmp    0x42(%esi),%al
c010634c:	42                   	inc    %edx
c010634d:	42                   	inc    %edx
c010634e:	46                   	inc    %esi
c010634f:	3a 02                	cmp    (%edx),%al
c0106351:	02 42 3c             	add    0x3c(%edx),%al
c0106354:	08 08                	or     %cl,(%eax)
c0106356:	00 3e                	add    %bh,(%esi)
c0106358:	08 08                	or     %cl,(%eax)
c010635a:	08 08                	or     %cl,(%eax)
c010635c:	08 08                	or     %cl,(%eax)
c010635e:	08 08                	or     %cl,(%eax)
c0106360:	3e 00 00             	add    %al,%ds:(%eax)
c0106363:	00 00                	add    %al,(%eax)
c0106365:	00 00                	add    %al,(%eax)
c0106367:	00 00                	add    %al,(%eax)
c0106369:	18 08                	sbb    %cl,(%eax)
c010636b:	08 08                	or     %cl,(%eax)
c010636d:	08 08                	or     %cl,(%eax)
c010636f:	08 3e                	or     %bh,(%esi)
c0106371:	00 00                	add    %al,(%eax)
c0106373:	00 00                	add    %al,(%eax)
c0106375:	00 00                	add    %al,(%eax)
c0106377:	3c 42                	cmp    $0x42,%al
c0106379:	42                   	inc    %edx
c010637a:	40                   	inc    %eax
c010637b:	30 0c 02             	xor    %cl,(%edx,%eax,1)
c010637e:	42                   	inc    %edx
c010637f:	42                   	inc    %edx
c0106380:	3c 08                	cmp    $0x8,%al
c0106382:	08 30                	or     %dh,(%eax)
c0106384:	00 00                	add    %al,(%eax)
c0106386:	00 00                	add    %al,(%eax)
c0106388:	00 3c 42             	add    %bh,(%edx,%eax,2)
c010638b:	40                   	inc    %eax
c010638c:	30 0c 02             	xor    %cl,(%edx,%eax,1)
c010638f:	42                   	inc    %edx
c0106390:	3c 08                	cmp    $0x8,%al
c0106392:	08 30                	or     %dh,(%eax)
	...
c01063a4:	00 00                	add    %al,(%eax)
c01063a6:	00 08                	add    %cl,(%eax)
c01063a8:	08 08                	or     %cl,(%eax)
c01063aa:	08 08                	or     %cl,(%eax)
c01063ac:	08 08                	or     %cl,(%eax)
c01063ae:	00 08                	add    %cl,(%eax)
c01063b0:	08 00                	or     %al,(%eax)
c01063b2:	00 00                	add    %al,(%eax)
c01063b4:	00 24 24             	add    %ah,(%esp)
c01063b7:	24 24                	and    $0x24,%al
	...
c01063c5:	00 00                	add    %al,(%eax)
c01063c7:	24 24                	and    $0x24,%al
c01063c9:	24 7e                	and    $0x7e,%al
c01063cb:	24 24                	and    $0x24,%al
c01063cd:	7e 24                	jle    c01063f3 <_binary_font_psf_start+0x263>
c01063cf:	24 24                	and    $0x24,%al
c01063d1:	00 00                	add    %al,(%eax)
c01063d3:	00 00                	add    %al,(%eax)
c01063d5:	00 08                	add    %cl,(%eax)
c01063d7:	08 3e                	or     %bh,(%esi)
c01063d9:	49                   	dec    %ecx
c01063da:	48                   	dec    %eax
c01063db:	48                   	dec    %eax
c01063dc:	3e 09 09             	or     %ecx,%ds:(%ecx)
c01063df:	49                   	dec    %ecx
c01063e0:	3e 08 08             	or     %cl,%ds:(%eax)
c01063e3:	00 00                	add    %al,(%eax)
c01063e5:	00 00                	add    %al,(%eax)
c01063e7:	31 4a 4a             	xor    %ecx,0x4a(%edx)
c01063ea:	34 08                	xor    $0x8,%al
c01063ec:	08 16                	or     %dl,(%esi)
c01063ee:	29 29                	sub    %ebp,(%ecx)
c01063f0:	46                   	inc    %esi
c01063f1:	00 00                	add    %al,(%eax)
c01063f3:	00 00                	add    %al,(%eax)
c01063f5:	00 00                	add    %al,(%eax)
c01063f7:	18 24 24             	sbb    %ah,(%esp)
c01063fa:	24 18                	and    $0x18,%al
c01063fc:	28 45 42             	sub    %al,0x42(%ebp)
c01063ff:	46                   	inc    %esi
c0106400:	39 00                	cmp    %eax,(%eax)
c0106402:	00 00                	add    %al,(%eax)
c0106404:	00 08                	add    %cl,(%eax)
c0106406:	08 08                	or     %cl,(%eax)
c0106408:	10 00                	adc    %al,(%eax)
	...
c0106416:	04 08                	add    $0x8,%al
c0106418:	08 10                	or     %dl,(%eax)
c010641a:	10 10                	adc    %dl,(%eax)
c010641c:	10 10                	adc    %dl,(%eax)
c010641e:	10 08                	adc    %cl,(%eax)
c0106420:	08 04 00             	or     %al,(%eax,%eax,1)
c0106423:	00 00                	add    %al,(%eax)
c0106425:	00 20                	add    %ah,(%eax)
c0106427:	10 10                	adc    %dl,(%eax)
c0106429:	08 08                	or     %cl,(%eax)
c010642b:	08 08                	or     %cl,(%eax)
c010642d:	08 08                	or     %cl,(%eax)
c010642f:	10 10                	adc    %dl,(%eax)
c0106431:	20 00                	and    %al,(%eax)
c0106433:	00 00                	add    %al,(%eax)
c0106435:	00 00                	add    %al,(%eax)
c0106437:	00 00                	add    %al,(%eax)
c0106439:	08 49 2a             	or     %cl,0x2a(%ecx)
c010643c:	1c 2a                	sbb    $0x2a,%al
c010643e:	49                   	dec    %ecx
c010643f:	08 00                	or     %al,(%eax)
	...
c0106449:	08 08                	or     %cl,(%eax)
c010644b:	08 7f 08             	or     %bh,0x8(%edi)
c010644e:	08 08                	or     %cl,(%eax)
	...
c010645c:	00 00                	add    %al,(%eax)
c010645e:	00 08                	add    %cl,(%eax)
c0106460:	08 08                	or     %cl,(%eax)
c0106462:	10 00                	adc    %al,(%eax)
	...
c010646c:	7e 00                	jle    c010646e <_binary_font_psf_start+0x2de>
	...
c010647e:	00 08                	add    %cl,(%eax)
c0106480:	08 00                	or     %al,(%eax)
c0106482:	00 00                	add    %al,(%eax)
c0106484:	00 00                	add    %al,(%eax)
c0106486:	00 02                	add    %al,(%edx)
c0106488:	02 04 04             	add    (%esp,%eax,1),%al
c010648b:	08 08                	or     %cl,(%eax)
c010648d:	10 10                	adc    %dl,(%eax)
c010648f:	20 20                	and    %ah,(%eax)
c0106491:	00 00                	add    %al,(%eax)
c0106493:	00 00                	add    %al,(%eax)
c0106495:	00 00                	add    %al,(%eax)
c0106497:	3c 42                	cmp    $0x42,%al
c0106499:	42                   	inc    %edx
c010649a:	42                   	inc    %edx
c010649b:	4a                   	dec    %edx
c010649c:	52                   	push   %edx
c010649d:	42                   	inc    %edx
c010649e:	42                   	inc    %edx
c010649f:	42                   	inc    %edx
c01064a0:	3c 00                	cmp    $0x0,%al
c01064a2:	00 00                	add    %al,(%eax)
c01064a4:	00 00                	add    %al,(%eax)
c01064a6:	00 08                	add    %cl,(%eax)
c01064a8:	18 28                	sbb    %ch,(%eax)
c01064aa:	08 08                	or     %cl,(%eax)
c01064ac:	08 08                	or     %cl,(%eax)
c01064ae:	08 08                	or     %cl,(%eax)
c01064b0:	3e 00 00             	add    %al,%ds:(%eax)
c01064b3:	00 00                	add    %al,(%eax)
c01064b5:	00 00                	add    %al,(%eax)
c01064b7:	3c 42                	cmp    $0x42,%al
c01064b9:	42                   	inc    %edx
c01064ba:	02 04 08             	add    (%eax,%ecx,1),%al
c01064bd:	10 20                	adc    %ah,(%eax)
c01064bf:	40                   	inc    %eax
c01064c0:	7e 00                	jle    c01064c2 <_binary_font_psf_start+0x332>
c01064c2:	00 00                	add    %al,(%eax)
c01064c4:	00 00                	add    %al,(%eax)
c01064c6:	00 3c 42             	add    %bh,(%edx,%eax,2)
c01064c9:	42                   	inc    %edx
c01064ca:	02 1c 02             	add    (%edx,%eax,1),%bl
c01064cd:	02 42 42             	add    0x42(%edx),%al
c01064d0:	3c 00                	cmp    $0x0,%al
c01064d2:	00 00                	add    %al,(%eax)
c01064d4:	00 00                	add    %al,(%eax)
c01064d6:	00 04 0c             	add    %al,(%esp,%ecx,1)
c01064d9:	14 24                	adc    $0x24,%al
c01064db:	44                   	inc    %esp
c01064dc:	44                   	inc    %esp
c01064dd:	7e 04                	jle    c01064e3 <_binary_font_psf_start+0x353>
c01064df:	04 04                	add    $0x4,%al
c01064e1:	00 00                	add    %al,(%eax)
c01064e3:	00 00                	add    %al,(%eax)
c01064e5:	00 00                	add    %al,(%eax)
c01064e7:	7e 40                	jle    c0106529 <_binary_font_psf_start+0x399>
c01064e9:	40                   	inc    %eax
c01064ea:	40                   	inc    %eax
c01064eb:	7c 02                	jl     c01064ef <_binary_font_psf_start+0x35f>
c01064ed:	02 02                	add    (%edx),%al
c01064ef:	42                   	inc    %edx
c01064f0:	3c 00                	cmp    $0x0,%al
c01064f2:	00 00                	add    %al,(%eax)
c01064f4:	00 00                	add    %al,(%eax)
c01064f6:	00 1c 20             	add    %bl,(%eax,%eiz,1)
c01064f9:	40                   	inc    %eax
c01064fa:	40                   	inc    %eax
c01064fb:	7c 42                	jl     c010653f <_binary_font_psf_start+0x3af>
c01064fd:	42                   	inc    %edx
c01064fe:	42                   	inc    %edx
c01064ff:	42                   	inc    %edx
c0106500:	3c 00                	cmp    $0x0,%al
c0106502:	00 00                	add    %al,(%eax)
c0106504:	00 00                	add    %al,(%eax)
c0106506:	00 7e 02             	add    %bh,0x2(%esi)
c0106509:	02 04 04             	add    (%esp,%eax,1),%al
c010650c:	08 08                	or     %cl,(%eax)
c010650e:	10 10                	adc    %dl,(%eax)
c0106510:	10 00                	adc    %al,(%eax)
c0106512:	00 00                	add    %al,(%eax)
c0106514:	00 00                	add    %al,(%eax)
c0106516:	00 3c 42             	add    %bh,(%edx,%eax,2)
c0106519:	42                   	inc    %edx
c010651a:	42                   	inc    %edx
c010651b:	3c 42                	cmp    $0x42,%al
c010651d:	42                   	inc    %edx
c010651e:	42                   	inc    %edx
c010651f:	42                   	inc    %edx
c0106520:	3c 00                	cmp    $0x0,%al
c0106522:	00 00                	add    %al,(%eax)
c0106524:	00 00                	add    %al,(%eax)
c0106526:	00 3c 42             	add    %bh,(%edx,%eax,2)
c0106529:	42                   	inc    %edx
c010652a:	42                   	inc    %edx
c010652b:	42                   	inc    %edx
c010652c:	3e 02 02             	add    %ds:(%edx),%al
c010652f:	04 38                	add    $0x38,%al
	...
c0106539:	00 08                	add    %cl,(%eax)
c010653b:	08 00                	or     %al,(%eax)
c010653d:	00 00                	add    %al,(%eax)
c010653f:	08 08                	or     %cl,(%eax)
	...
c0106549:	00 08                	add    %cl,(%eax)
c010654b:	08 00                	or     %al,(%eax)
c010654d:	00 00                	add    %al,(%eax)
c010654f:	08 08                	or     %cl,(%eax)
c0106551:	08 10                	or     %dl,(%eax)
c0106553:	00 00                	add    %al,(%eax)
c0106555:	00 00                	add    %al,(%eax)
c0106557:	00 04 08             	add    %al,(%eax,%ecx,1)
c010655a:	10 20                	adc    %ah,(%eax)
c010655c:	40                   	inc    %eax
c010655d:	20 10                	and    %dl,(%eax)
c010655f:	08 04 00             	or     %al,(%eax,%eax,1)
	...
c010656a:	7e 00                	jle    c010656c <_binary_font_psf_start+0x3dc>
c010656c:	00 00                	add    %al,(%eax)
c010656e:	7e 00                	jle    c0106570 <_binary_font_psf_start+0x3e0>
	...
c0106578:	20 10                	and    %dl,(%eax)
c010657a:	08 04 02             	or     %al,(%edx,%eax,1)
c010657d:	04 08                	add    $0x8,%al
c010657f:	10 20                	adc    %ah,(%eax)
c0106581:	00 00                	add    %al,(%eax)
c0106583:	00 00                	add    %al,(%eax)
c0106585:	00 00                	add    %al,(%eax)
c0106587:	3c 42                	cmp    $0x42,%al
c0106589:	42                   	inc    %edx
c010658a:	02 04 08             	add    (%eax,%ecx,1),%al
c010658d:	08 00                	or     %al,(%eax)
c010658f:	08 08                	or     %cl,(%eax)
c0106591:	00 00                	add    %al,(%eax)
c0106593:	00 00                	add    %al,(%eax)
c0106595:	00 00                	add    %al,(%eax)
c0106597:	1c 22                	sbb    $0x22,%al
c0106599:	4a                   	dec    %edx
c010659a:	56                   	push   %esi
c010659b:	52                   	push   %edx
c010659c:	52                   	push   %edx
c010659d:	52                   	push   %edx
c010659e:	4e                   	dec    %esi
c010659f:	20 1e                	and    %bl,(%esi)
c01065a1:	00 00                	add    %al,(%eax)
c01065a3:	00 00                	add    %al,(%eax)
c01065a5:	00 00                	add    %al,(%eax)
c01065a7:	18 24 24             	sbb    %ah,(%esp)
c01065aa:	42                   	inc    %edx
c01065ab:	42                   	inc    %edx
c01065ac:	7e 42                	jle    c01065f0 <_binary_font_psf_start+0x460>
c01065ae:	42                   	inc    %edx
c01065af:	42                   	inc    %edx
c01065b0:	42                   	inc    %edx
c01065b1:	00 00                	add    %al,(%eax)
c01065b3:	00 00                	add    %al,(%eax)
c01065b5:	00 00                	add    %al,(%eax)
c01065b7:	7c 42                	jl     c01065fb <_binary_font_psf_start+0x46b>
c01065b9:	42                   	inc    %edx
c01065ba:	42                   	inc    %edx
c01065bb:	7c 42                	jl     c01065ff <_binary_font_psf_start+0x46f>
c01065bd:	42                   	inc    %edx
c01065be:	42                   	inc    %edx
c01065bf:	42                   	inc    %edx
c01065c0:	7c 00                	jl     c01065c2 <_binary_font_psf_start+0x432>
c01065c2:	00 00                	add    %al,(%eax)
c01065c4:	00 00                	add    %al,(%eax)
c01065c6:	00 3c 42             	add    %bh,(%edx,%eax,2)
c01065c9:	42                   	inc    %edx
c01065ca:	40                   	inc    %eax
c01065cb:	40                   	inc    %eax
c01065cc:	40                   	inc    %eax
c01065cd:	40                   	inc    %eax
c01065ce:	42                   	inc    %edx
c01065cf:	42                   	inc    %edx
c01065d0:	3c 00                	cmp    $0x0,%al
c01065d2:	00 00                	add    %al,(%eax)
c01065d4:	00 00                	add    %al,(%eax)
c01065d6:	00 78 44             	add    %bh,0x44(%eax)
c01065d9:	42                   	inc    %edx
c01065da:	42                   	inc    %edx
c01065db:	42                   	inc    %edx
c01065dc:	42                   	inc    %edx
c01065dd:	42                   	inc    %edx
c01065de:	42                   	inc    %edx
c01065df:	44                   	inc    %esp
c01065e0:	78 00                	js     c01065e2 <_binary_font_psf_start+0x452>
c01065e2:	00 00                	add    %al,(%eax)
c01065e4:	00 00                	add    %al,(%eax)
c01065e6:	00 7e 40             	add    %bh,0x40(%esi)
c01065e9:	40                   	inc    %eax
c01065ea:	40                   	inc    %eax
c01065eb:	7c 40                	jl     c010662d <_binary_font_psf_start+0x49d>
c01065ed:	40                   	inc    %eax
c01065ee:	40                   	inc    %eax
c01065ef:	40                   	inc    %eax
c01065f0:	7e 00                	jle    c01065f2 <_binary_font_psf_start+0x462>
c01065f2:	00 00                	add    %al,(%eax)
c01065f4:	00 00                	add    %al,(%eax)
c01065f6:	00 7e 40             	add    %bh,0x40(%esi)
c01065f9:	40                   	inc    %eax
c01065fa:	40                   	inc    %eax
c01065fb:	7c 40                	jl     c010663d <_binary_font_psf_start+0x4ad>
c01065fd:	40                   	inc    %eax
c01065fe:	40                   	inc    %eax
c01065ff:	40                   	inc    %eax
c0106600:	40                   	inc    %eax
c0106601:	00 00                	add    %al,(%eax)
c0106603:	00 00                	add    %al,(%eax)
c0106605:	00 00                	add    %al,(%eax)
c0106607:	3c 42                	cmp    $0x42,%al
c0106609:	42                   	inc    %edx
c010660a:	40                   	inc    %eax
c010660b:	40                   	inc    %eax
c010660c:	4e                   	dec    %esi
c010660d:	42                   	inc    %edx
c010660e:	42                   	inc    %edx
c010660f:	42                   	inc    %edx
c0106610:	3c 00                	cmp    $0x0,%al
c0106612:	00 00                	add    %al,(%eax)
c0106614:	00 00                	add    %al,(%eax)
c0106616:	00 42 42             	add    %al,0x42(%edx)
c0106619:	42                   	inc    %edx
c010661a:	42                   	inc    %edx
c010661b:	7e 42                	jle    c010665f <_binary_font_psf_start+0x4cf>
c010661d:	42                   	inc    %edx
c010661e:	42                   	inc    %edx
c010661f:	42                   	inc    %edx
c0106620:	42                   	inc    %edx
c0106621:	00 00                	add    %al,(%eax)
c0106623:	00 00                	add    %al,(%eax)
c0106625:	00 00                	add    %al,(%eax)
c0106627:	3e 08 08             	or     %cl,%ds:(%eax)
c010662a:	08 08                	or     %cl,(%eax)
c010662c:	08 08                	or     %cl,(%eax)
c010662e:	08 08                	or     %cl,(%eax)
c0106630:	3e 00 00             	add    %al,%ds:(%eax)
c0106633:	00 00                	add    %al,(%eax)
c0106635:	00 00                	add    %al,(%eax)
c0106637:	1f                   	pop    %ds
c0106638:	04 04                	add    $0x4,%al
c010663a:	04 04                	add    $0x4,%al
c010663c:	04 04                	add    $0x4,%al
c010663e:	44                   	inc    %esp
c010663f:	44                   	inc    %esp
c0106640:	38 00                	cmp    %al,(%eax)
c0106642:	00 00                	add    %al,(%eax)
c0106644:	00 00                	add    %al,(%eax)
c0106646:	00 42 44             	add    %al,0x44(%edx)
c0106649:	48                   	dec    %eax
c010664a:	50                   	push   %eax
c010664b:	60                   	pusha
c010664c:	60                   	pusha
c010664d:	50                   	push   %eax
c010664e:	48                   	dec    %eax
c010664f:	44                   	inc    %esp
c0106650:	42                   	inc    %edx
c0106651:	00 00                	add    %al,(%eax)
c0106653:	00 00                	add    %al,(%eax)
c0106655:	00 00                	add    %al,(%eax)
c0106657:	40                   	inc    %eax
c0106658:	40                   	inc    %eax
c0106659:	40                   	inc    %eax
c010665a:	40                   	inc    %eax
c010665b:	40                   	inc    %eax
c010665c:	40                   	inc    %eax
c010665d:	40                   	inc    %eax
c010665e:	40                   	inc    %eax
c010665f:	40                   	inc    %eax
c0106660:	7e 00                	jle    c0106662 <_binary_font_psf_start+0x4d2>
c0106662:	00 00                	add    %al,(%eax)
c0106664:	00 00                	add    %al,(%eax)
c0106666:	00 41 63             	add    %al,0x63(%ecx)
c0106669:	63 55 55             	arpl   %edx,0x55(%ebp)
c010666c:	49                   	dec    %ecx
c010666d:	49                   	dec    %ecx
c010666e:	41                   	inc    %ecx
c010666f:	41                   	inc    %ecx
c0106670:	41                   	inc    %ecx
c0106671:	00 00                	add    %al,(%eax)
c0106673:	00 00                	add    %al,(%eax)
c0106675:	00 00                	add    %al,(%eax)
c0106677:	42                   	inc    %edx
c0106678:	62 62 52             	bound  %esp,0x52(%edx)
c010667b:	52                   	push   %edx
c010667c:	4a                   	dec    %edx
c010667d:	4a                   	dec    %edx
c010667e:	46                   	inc    %esi
c010667f:	46                   	inc    %esi
c0106680:	42                   	inc    %edx
c0106681:	00 00                	add    %al,(%eax)
c0106683:	00 00                	add    %al,(%eax)
c0106685:	00 00                	add    %al,(%eax)
c0106687:	3c 42                	cmp    $0x42,%al
c0106689:	42                   	inc    %edx
c010668a:	42                   	inc    %edx
c010668b:	42                   	inc    %edx
c010668c:	42                   	inc    %edx
c010668d:	42                   	inc    %edx
c010668e:	42                   	inc    %edx
c010668f:	42                   	inc    %edx
c0106690:	3c 00                	cmp    $0x0,%al
c0106692:	00 00                	add    %al,(%eax)
c0106694:	00 00                	add    %al,(%eax)
c0106696:	00 7c 42 42          	add    %bh,0x42(%edx,%eax,2)
c010669a:	42                   	inc    %edx
c010669b:	42                   	inc    %edx
c010669c:	7c 40                	jl     c01066de <_binary_font_psf_start+0x54e>
c010669e:	40                   	inc    %eax
c010669f:	40                   	inc    %eax
c01066a0:	40                   	inc    %eax
c01066a1:	00 00                	add    %al,(%eax)
c01066a3:	00 00                	add    %al,(%eax)
c01066a5:	00 00                	add    %al,(%eax)
c01066a7:	3c 42                	cmp    $0x42,%al
c01066a9:	42                   	inc    %edx
c01066aa:	42                   	inc    %edx
c01066ab:	42                   	inc    %edx
c01066ac:	42                   	inc    %edx
c01066ad:	42                   	inc    %edx
c01066ae:	5a                   	pop    %edx
c01066af:	66 3c 03             	data16 cmp $0x3,%al
c01066b2:	00 00                	add    %al,(%eax)
c01066b4:	00 00                	add    %al,(%eax)
c01066b6:	00 7c 42 42          	add    %bh,0x42(%edx,%eax,2)
c01066ba:	42                   	inc    %edx
c01066bb:	7c 48                	jl     c0106705 <_binary_font_psf_start+0x575>
c01066bd:	44                   	inc    %esp
c01066be:	44                   	inc    %esp
c01066bf:	42                   	inc    %edx
c01066c0:	42                   	inc    %edx
c01066c1:	00 00                	add    %al,(%eax)
c01066c3:	00 00                	add    %al,(%eax)
c01066c5:	00 00                	add    %al,(%eax)
c01066c7:	3c 42                	cmp    $0x42,%al
c01066c9:	42                   	inc    %edx
c01066ca:	40                   	inc    %eax
c01066cb:	30 0c 02             	xor    %cl,(%edx,%eax,1)
c01066ce:	42                   	inc    %edx
c01066cf:	42                   	inc    %edx
c01066d0:	3c 00                	cmp    $0x0,%al
c01066d2:	00 00                	add    %al,(%eax)
c01066d4:	00 00                	add    %al,(%eax)
c01066d6:	00 7f 08             	add    %bh,0x8(%edi)
c01066d9:	08 08                	or     %cl,(%eax)
c01066db:	08 08                	or     %cl,(%eax)
c01066dd:	08 08                	or     %cl,(%eax)
c01066df:	08 08                	or     %cl,(%eax)
c01066e1:	00 00                	add    %al,(%eax)
c01066e3:	00 00                	add    %al,(%eax)
c01066e5:	00 00                	add    %al,(%eax)
c01066e7:	42                   	inc    %edx
c01066e8:	42                   	inc    %edx
c01066e9:	42                   	inc    %edx
c01066ea:	42                   	inc    %edx
c01066eb:	42                   	inc    %edx
c01066ec:	42                   	inc    %edx
c01066ed:	42                   	inc    %edx
c01066ee:	42                   	inc    %edx
c01066ef:	42                   	inc    %edx
c01066f0:	3c 00                	cmp    $0x0,%al
c01066f2:	00 00                	add    %al,(%eax)
c01066f4:	00 00                	add    %al,(%eax)
c01066f6:	00 41 41             	add    %al,0x41(%ecx)
c01066f9:	41                   	inc    %ecx
c01066fa:	22 22                	and    (%edx),%ah
c01066fc:	22 14 14             	and    (%esp,%edx,1),%dl
c01066ff:	08 08                	or     %cl,(%eax)
c0106701:	00 00                	add    %al,(%eax)
c0106703:	00 00                	add    %al,(%eax)
c0106705:	00 00                	add    %al,(%eax)
c0106707:	41                   	inc    %ecx
c0106708:	41                   	inc    %ecx
c0106709:	41                   	inc    %ecx
c010670a:	49                   	dec    %ecx
c010670b:	49                   	dec    %ecx
c010670c:	55                   	push   %ebp
c010670d:	55                   	push   %ebp
c010670e:	63 63 41             	arpl   %esp,0x41(%ebx)
c0106711:	00 00                	add    %al,(%eax)
c0106713:	00 00                	add    %al,(%eax)
c0106715:	00 00                	add    %al,(%eax)
c0106717:	42                   	inc    %edx
c0106718:	42                   	inc    %edx
c0106719:	24 24                	and    $0x24,%al
c010671b:	18 18                	sbb    %bl,(%eax)
c010671d:	24 24                	and    $0x24,%al
c010671f:	42                   	inc    %edx
c0106720:	42                   	inc    %edx
c0106721:	00 00                	add    %al,(%eax)
c0106723:	00 00                	add    %al,(%eax)
c0106725:	00 00                	add    %al,(%eax)
c0106727:	41                   	inc    %ecx
c0106728:	41                   	inc    %ecx
c0106729:	22 22                	and    (%edx),%ah
c010672b:	14 08                	adc    $0x8,%al
c010672d:	08 08                	or     %cl,(%eax)
c010672f:	08 08                	or     %cl,(%eax)
c0106731:	00 00                	add    %al,(%eax)
c0106733:	00 00                	add    %al,(%eax)
c0106735:	00 00                	add    %al,(%eax)
c0106737:	7e 02                	jle    c010673b <_binary_font_psf_start+0x5ab>
c0106739:	02 04 08             	add    (%eax,%ecx,1),%al
c010673c:	10 20                	adc    %ah,(%eax)
c010673e:	40                   	inc    %eax
c010673f:	40                   	inc    %eax
c0106740:	7e 00                	jle    c0106742 <_binary_font_psf_start+0x5b2>
c0106742:	00 00                	add    %al,(%eax)
c0106744:	00 00                	add    %al,(%eax)
c0106746:	1c 10                	sbb    $0x10,%al
c0106748:	10 10                	adc    %dl,(%eax)
c010674a:	10 10                	adc    %dl,(%eax)
c010674c:	10 10                	adc    %dl,(%eax)
c010674e:	10 10                	adc    %dl,(%eax)
c0106750:	10 1c 00             	adc    %bl,(%eax,%eax,1)
c0106753:	00 00                	add    %al,(%eax)
c0106755:	00 00                	add    %al,(%eax)
c0106757:	20 20                	and    %ah,(%eax)
c0106759:	10 10                	adc    %dl,(%eax)
c010675b:	08 08                	or     %cl,(%eax)
c010675d:	04 04                	add    $0x4,%al
c010675f:	02 02                	add    (%edx),%al
c0106761:	00 00                	add    %al,(%eax)
c0106763:	00 00                	add    %al,(%eax)
c0106765:	00 38                	add    %bh,(%eax)
c0106767:	08 08                	or     %cl,(%eax)
c0106769:	08 08                	or     %cl,(%eax)
c010676b:	08 08                	or     %cl,(%eax)
c010676d:	08 08                	or     %cl,(%eax)
c010676f:	08 08                	or     %cl,(%eax)
c0106771:	38 00                	cmp    %al,(%eax)
c0106773:	00 00                	add    %al,(%eax)
c0106775:	08 14 22             	or     %dl,(%edx,%eiz,1)
c0106778:	41                   	inc    %ecx
	...
c0106791:	7f 00                	jg     c0106793 <_binary_font_psf_start+0x603>
c0106793:	00 00                	add    %al,(%eax)
c0106795:	10 10                	adc    %dl,(%eax)
c0106797:	10 08                	adc    %cl,(%eax)
	...
c01067a9:	3c 42                	cmp    $0x42,%al
c01067ab:	02 3e                	add    (%esi),%bh
c01067ad:	42                   	inc    %edx
c01067ae:	42                   	inc    %edx
c01067af:	46                   	inc    %esi
c01067b0:	3a 00                	cmp    (%eax),%al
c01067b2:	00 00                	add    %al,(%eax)
c01067b4:	00 00                	add    %al,(%eax)
c01067b6:	40                   	inc    %eax
c01067b7:	40                   	inc    %eax
c01067b8:	40                   	inc    %eax
c01067b9:	5c                   	pop    %esp
c01067ba:	62 42 42             	bound  %eax,0x42(%edx)
c01067bd:	42                   	inc    %edx
c01067be:	42                   	inc    %edx
c01067bf:	62 5c 00 00          	bound  %ebx,0x0(%eax,%eax,1)
c01067c3:	00 00                	add    %al,(%eax)
c01067c5:	00 00                	add    %al,(%eax)
c01067c7:	00 00                	add    %al,(%eax)
c01067c9:	3c 42                	cmp    $0x42,%al
c01067cb:	40                   	inc    %eax
c01067cc:	40                   	inc    %eax
c01067cd:	40                   	inc    %eax
c01067ce:	40                   	inc    %eax
c01067cf:	42                   	inc    %edx
c01067d0:	3c 00                	cmp    $0x0,%al
c01067d2:	00 00                	add    %al,(%eax)
c01067d4:	00 00                	add    %al,(%eax)
c01067d6:	02 02                	add    (%edx),%al
c01067d8:	02 3a                	add    (%edx),%bh
c01067da:	46                   	inc    %esi
c01067db:	42                   	inc    %edx
c01067dc:	42                   	inc    %edx
c01067dd:	42                   	inc    %edx
c01067de:	42                   	inc    %edx
c01067df:	46                   	inc    %esi
c01067e0:	3a 00                	cmp    (%eax),%al
c01067e2:	00 00                	add    %al,(%eax)
c01067e4:	00 00                	add    %al,(%eax)
c01067e6:	00 00                	add    %al,(%eax)
c01067e8:	00 3c 42             	add    %bh,(%edx,%eax,2)
c01067eb:	42                   	inc    %edx
c01067ec:	7e 40                	jle    c010682e <_binary_font_psf_start+0x69e>
c01067ee:	40                   	inc    %eax
c01067ef:	42                   	inc    %edx
c01067f0:	3c 00                	cmp    $0x0,%al
c01067f2:	00 00                	add    %al,(%eax)
c01067f4:	00 00                	add    %al,(%eax)
c01067f6:	0e                   	push   %cs
c01067f7:	10 10                	adc    %dl,(%eax)
c01067f9:	10 7c 10 10          	adc    %bh,0x10(%eax,%edx,1)
c01067fd:	10 10                	adc    %dl,(%eax)
c01067ff:	10 10                	adc    %dl,(%eax)
	...
c0106809:	3a 46 42             	cmp    0x42(%esi),%al
c010680c:	42                   	inc    %edx
c010680d:	42                   	inc    %edx
c010680e:	46                   	inc    %esi
c010680f:	3a 02                	cmp    (%edx),%al
c0106811:	02 42 3c             	add    0x3c(%edx),%al
c0106814:	00 00                	add    %al,(%eax)
c0106816:	40                   	inc    %eax
c0106817:	40                   	inc    %eax
c0106818:	40                   	inc    %eax
c0106819:	5c                   	pop    %esp
c010681a:	62 42 42             	bound  %eax,0x42(%edx)
c010681d:	42                   	inc    %edx
c010681e:	42                   	inc    %edx
c010681f:	42                   	inc    %edx
c0106820:	42                   	inc    %edx
c0106821:	00 00                	add    %al,(%eax)
c0106823:	00 00                	add    %al,(%eax)
c0106825:	00 08                	add    %cl,(%eax)
c0106827:	08 00                	or     %al,(%eax)
c0106829:	18 08                	sbb    %cl,(%eax)
c010682b:	08 08                	or     %cl,(%eax)
c010682d:	08 08                	or     %cl,(%eax)
c010682f:	08 3e                	or     %bh,(%esi)
c0106831:	00 00                	add    %al,(%eax)
c0106833:	00 00                	add    %al,(%eax)
c0106835:	00 04 04             	add    %al,(%esp,%eax,1)
c0106838:	00 0c 04             	add    %cl,(%esp,%eax,1)
c010683b:	04 04                	add    $0x4,%al
c010683d:	04 04                	add    $0x4,%al
c010683f:	04 04                	add    $0x4,%al
c0106841:	04 44                	add    $0x44,%al
c0106843:	38 00                	cmp    %al,(%eax)
c0106845:	00 40 40             	add    %al,0x40(%eax)
c0106848:	40                   	inc    %eax
c0106849:	44                   	inc    %esp
c010684a:	48                   	dec    %eax
c010684b:	50                   	push   %eax
c010684c:	60                   	pusha
c010684d:	50                   	push   %eax
c010684e:	48                   	dec    %eax
c010684f:	44                   	inc    %esp
c0106850:	42                   	inc    %edx
c0106851:	00 00                	add    %al,(%eax)
c0106853:	00 00                	add    %al,(%eax)
c0106855:	00 18                	add    %bl,(%eax)
c0106857:	08 08                	or     %cl,(%eax)
c0106859:	08 08                	or     %cl,(%eax)
c010685b:	08 08                	or     %cl,(%eax)
c010685d:	08 08                	or     %cl,(%eax)
c010685f:	08 3e                	or     %bh,(%esi)
	...
c0106869:	76 49                	jbe    c01068b4 <_binary_font_psf_start+0x724>
c010686b:	49                   	dec    %ecx
c010686c:	49                   	dec    %ecx
c010686d:	49                   	dec    %ecx
c010686e:	49                   	dec    %ecx
c010686f:	49                   	dec    %ecx
c0106870:	49                   	dec    %ecx
	...
c0106879:	5c                   	pop    %esp
c010687a:	62 42 42             	bound  %eax,0x42(%edx)
c010687d:	42                   	inc    %edx
c010687e:	42                   	inc    %edx
c010687f:	42                   	inc    %edx
c0106880:	42                   	inc    %edx
	...
c0106889:	3c 42                	cmp    $0x42,%al
c010688b:	42                   	inc    %edx
c010688c:	42                   	inc    %edx
c010688d:	42                   	inc    %edx
c010688e:	42                   	inc    %edx
c010688f:	42                   	inc    %edx
c0106890:	3c 00                	cmp    $0x0,%al
c0106892:	00 00                	add    %al,(%eax)
c0106894:	00 00                	add    %al,(%eax)
c0106896:	00 00                	add    %al,(%eax)
c0106898:	00 5c 62 42          	add    %bl,0x42(%edx,%eiz,2)
c010689c:	42                   	inc    %edx
c010689d:	42                   	inc    %edx
c010689e:	42                   	inc    %edx
c010689f:	62 5c 40 40          	bound  %ebx,0x40(%eax,%eax,2)
c01068a3:	40                   	inc    %eax
c01068a4:	00 00                	add    %al,(%eax)
c01068a6:	00 00                	add    %al,(%eax)
c01068a8:	00 3a                	add    %bh,(%edx)
c01068aa:	46                   	inc    %esi
c01068ab:	42                   	inc    %edx
c01068ac:	42                   	inc    %edx
c01068ad:	42                   	inc    %edx
c01068ae:	42                   	inc    %edx
c01068af:	46                   	inc    %esi
c01068b0:	3a 02                	cmp    (%edx),%al
c01068b2:	02 02                	add    (%edx),%al
c01068b4:	00 00                	add    %al,(%eax)
c01068b6:	00 00                	add    %al,(%eax)
c01068b8:	00 5c 62 40          	add    %bl,0x40(%edx,%eiz,2)
c01068bc:	40                   	inc    %eax
c01068bd:	40                   	inc    %eax
c01068be:	40                   	inc    %eax
c01068bf:	40                   	inc    %eax
c01068c0:	40                   	inc    %eax
	...
c01068c9:	3c 42                	cmp    $0x42,%al
c01068cb:	40                   	inc    %eax
c01068cc:	30 0c 02             	xor    %cl,(%edx,%eax,1)
c01068cf:	42                   	inc    %edx
c01068d0:	3c 00                	cmp    $0x0,%al
c01068d2:	00 00                	add    %al,(%eax)
c01068d4:	00 00                	add    %al,(%eax)
c01068d6:	10 10                	adc    %dl,(%eax)
c01068d8:	10 10                	adc    %dl,(%eax)
c01068da:	7c 10                	jl     c01068ec <_binary_font_psf_start+0x75c>
c01068dc:	10 10                	adc    %dl,(%eax)
c01068de:	10 10                	adc    %dl,(%eax)
c01068e0:	0e                   	push   %cs
	...
c01068e9:	42                   	inc    %edx
c01068ea:	42                   	inc    %edx
c01068eb:	42                   	inc    %edx
c01068ec:	42                   	inc    %edx
c01068ed:	42                   	inc    %edx
c01068ee:	42                   	inc    %edx
c01068ef:	46                   	inc    %esi
c01068f0:	3a 00                	cmp    (%eax),%al
c01068f2:	00 00                	add    %al,(%eax)
c01068f4:	00 00                	add    %al,(%eax)
c01068f6:	00 00                	add    %al,(%eax)
c01068f8:	00 41 41             	add    %al,0x41(%ecx)
c01068fb:	41                   	inc    %ecx
c01068fc:	22 22                	and    (%edx),%ah
c01068fe:	14 14                	adc    $0x14,%al
c0106900:	08 00                	or     %al,(%eax)
c0106902:	00 00                	add    %al,(%eax)
c0106904:	00 00                	add    %al,(%eax)
c0106906:	00 00                	add    %al,(%eax)
c0106908:	00 41 41             	add    %al,0x41(%ecx)
c010690b:	49                   	dec    %ecx
c010690c:	49                   	dec    %ecx
c010690d:	49                   	dec    %ecx
c010690e:	49                   	dec    %ecx
c010690f:	49                   	dec    %ecx
c0106910:	36 00 00             	add    %al,%ss:(%eax)
c0106913:	00 00                	add    %al,(%eax)
c0106915:	00 00                	add    %al,(%eax)
c0106917:	00 00                	add    %al,(%eax)
c0106919:	42                   	inc    %edx
c010691a:	42                   	inc    %edx
c010691b:	24 18                	and    $0x18,%al
c010691d:	18 24 42             	sbb    %ah,(%edx,%eax,2)
c0106920:	42                   	inc    %edx
	...
c0106929:	42                   	inc    %edx
c010692a:	42                   	inc    %edx
c010692b:	42                   	inc    %edx
c010692c:	42                   	inc    %edx
c010692d:	42                   	inc    %edx
c010692e:	46                   	inc    %esi
c010692f:	3a 02                	cmp    (%edx),%al
c0106931:	02 42 3c             	add    0x3c(%edx),%al
c0106934:	00 00                	add    %al,(%eax)
c0106936:	00 00                	add    %al,(%eax)
c0106938:	00 7e 02             	add    %bh,0x2(%esi)
c010693b:	04 08                	add    $0x8,%al
c010693d:	10 20                	adc    %ah,(%eax)
c010693f:	40                   	inc    %eax
c0106940:	7e 00                	jle    c0106942 <_binary_font_psf_start+0x7b2>
c0106942:	00 00                	add    %al,(%eax)
c0106944:	00 00                	add    %al,(%eax)
c0106946:	06                   	push   %es
c0106947:	08 08                	or     %cl,(%eax)
c0106949:	08 08                	or     %cl,(%eax)
c010694b:	30 08                	xor    %cl,(%eax)
c010694d:	08 08                	or     %cl,(%eax)
c010694f:	08 08                	or     %cl,(%eax)
c0106951:	06                   	push   %es
c0106952:	00 00                	add    %al,(%eax)
c0106954:	00 00                	add    %al,(%eax)
c0106956:	08 08                	or     %cl,(%eax)
c0106958:	08 08                	or     %cl,(%eax)
c010695a:	08 08                	or     %cl,(%eax)
c010695c:	08 08                	or     %cl,(%eax)
c010695e:	08 08                	or     %cl,(%eax)
c0106960:	08 08                	or     %cl,(%eax)
c0106962:	00 00                	add    %al,(%eax)
c0106964:	00 00                	add    %al,(%eax)
c0106966:	30 08                	xor    %cl,(%eax)
c0106968:	08 08                	or     %cl,(%eax)
c010696a:	08 06                	or     %al,(%esi)
c010696c:	08 08                	or     %cl,(%eax)
c010696e:	08 08                	or     %cl,(%eax)
c0106970:	08 30                	or     %dh,(%eax)
c0106972:	00 00                	add    %al,(%eax)
c0106974:	00 31                	add    %dh,(%ecx)
c0106976:	49                   	dec    %ecx
c0106977:	46                   	inc    %esi
	...
c0106988:	00 00                	add    %al,(%eax)
c010698a:	18 3c 3c             	sbb    %bh,(%esp,%edi,1)
c010698d:	18 00                	sbb    %al,(%eax)
c010698f:	00 00                	add    %al,(%eax)
c0106991:	00 00                	add    %al,(%eax)
c0106993:	00 30                	add    %dh,(%eax)
c0106995:	0c 00                	or     $0x0,%al
c0106997:	18 24 24             	sbb    %ah,(%esp)
c010699a:	42                   	inc    %edx
c010699b:	42                   	inc    %edx
c010699c:	7e 42                	jle    c01069e0 <_binary_font_psf_start+0x850>
c010699e:	42                   	inc    %edx
c010699f:	42                   	inc    %edx
c01069a0:	42                   	inc    %edx
c01069a1:	00 00                	add    %al,(%eax)
c01069a3:	00 0c 30             	add    %cl,(%eax,%esi,1)
c01069a6:	00 18                	add    %bl,(%eax)
c01069a8:	24 24                	and    $0x24,%al
c01069aa:	42                   	inc    %edx
c01069ab:	42                   	inc    %edx
c01069ac:	7e 42                	jle    c01069f0 <_binary_font_psf_start+0x860>
c01069ae:	42                   	inc    %edx
c01069af:	42                   	inc    %edx
c01069b0:	42                   	inc    %edx
c01069b1:	00 00                	add    %al,(%eax)
c01069b3:	00 18                	add    %bl,(%eax)
c01069b5:	24 00                	and    $0x0,%al
c01069b7:	18 24 24             	sbb    %ah,(%esp)
c01069ba:	42                   	inc    %edx
c01069bb:	42                   	inc    %edx
c01069bc:	7e 42                	jle    c0106a00 <_binary_font_psf_start+0x870>
c01069be:	42                   	inc    %edx
c01069bf:	42                   	inc    %edx
c01069c0:	42                   	inc    %edx
c01069c1:	00 00                	add    %al,(%eax)
c01069c3:	00 32                	add    %dh,(%edx)
c01069c5:	4c                   	dec    %esp
c01069c6:	00 18                	add    %bl,(%eax)
c01069c8:	24 24                	and    $0x24,%al
c01069ca:	42                   	inc    %edx
c01069cb:	42                   	inc    %edx
c01069cc:	7e 42                	jle    c0106a10 <_binary_font_psf_start+0x880>
c01069ce:	42                   	inc    %edx
c01069cf:	42                   	inc    %edx
c01069d0:	42                   	inc    %edx
c01069d1:	00 00                	add    %al,(%eax)
c01069d3:	00 24 24             	add    %ah,(%esp)
c01069d6:	00 18                	add    %bl,(%eax)
c01069d8:	24 24                	and    $0x24,%al
c01069da:	42                   	inc    %edx
c01069db:	42                   	inc    %edx
c01069dc:	7e 42                	jle    c0106a20 <_binary_font_psf_start+0x890>
c01069de:	42                   	inc    %edx
c01069df:	42                   	inc    %edx
c01069e0:	42                   	inc    %edx
c01069e1:	00 00                	add    %al,(%eax)
c01069e3:	00 18                	add    %bl,(%eax)
c01069e5:	24 24                	and    $0x24,%al
c01069e7:	18 24 24             	sbb    %ah,(%esp)
c01069ea:	42                   	inc    %edx
c01069eb:	42                   	inc    %edx
c01069ec:	7e 42                	jle    c0106a30 <_binary_font_psf_start+0x8a0>
c01069ee:	42                   	inc    %edx
c01069ef:	42                   	inc    %edx
c01069f0:	42                   	inc    %edx
c01069f1:	00 00                	add    %al,(%eax)
c01069f3:	00 00                	add    %al,(%eax)
c01069f5:	00 00                	add    %al,(%eax)
c01069f7:	1f                   	pop    %ds
c01069f8:	28 48 48             	sub    %cl,0x48(%eax)
c01069fb:	7e 48                	jle    c0106a45 <_binary_font_psf_start+0x8b5>
c01069fd:	48                   	dec    %eax
c01069fe:	48                   	dec    %eax
c01069ff:	48                   	dec    %eax
c0106a00:	4f                   	dec    %edi
c0106a01:	00 00                	add    %al,(%eax)
c0106a03:	00 00                	add    %al,(%eax)
c0106a05:	00 00                	add    %al,(%eax)
c0106a07:	3c 42                	cmp    $0x42,%al
c0106a09:	42                   	inc    %edx
c0106a0a:	40                   	inc    %eax
c0106a0b:	40                   	inc    %eax
c0106a0c:	40                   	inc    %eax
c0106a0d:	40                   	inc    %eax
c0106a0e:	42                   	inc    %edx
c0106a0f:	42                   	inc    %edx
c0106a10:	3c 08                	cmp    $0x8,%al
c0106a12:	08 30                	or     %dh,(%eax)
c0106a14:	30 0c 00             	xor    %cl,(%eax,%eax,1)
c0106a17:	7e 40                	jle    c0106a59 <_binary_font_psf_start+0x8c9>
c0106a19:	40                   	inc    %eax
c0106a1a:	40                   	inc    %eax
c0106a1b:	7c 40                	jl     c0106a5d <_binary_font_psf_start+0x8cd>
c0106a1d:	40                   	inc    %eax
c0106a1e:	40                   	inc    %eax
c0106a1f:	40                   	inc    %eax
c0106a20:	7e 00                	jle    c0106a22 <_binary_font_psf_start+0x892>
c0106a22:	00 00                	add    %al,(%eax)
c0106a24:	0c 30                	or     $0x30,%al
c0106a26:	00 7e 40             	add    %bh,0x40(%esi)
c0106a29:	40                   	inc    %eax
c0106a2a:	40                   	inc    %eax
c0106a2b:	7c 40                	jl     c0106a6d <_binary_font_psf_start+0x8dd>
c0106a2d:	40                   	inc    %eax
c0106a2e:	40                   	inc    %eax
c0106a2f:	40                   	inc    %eax
c0106a30:	7e 00                	jle    c0106a32 <_binary_font_psf_start+0x8a2>
c0106a32:	00 00                	add    %al,(%eax)
c0106a34:	18 24 00             	sbb    %ah,(%eax,%eax,1)
c0106a37:	7e 40                	jle    c0106a79 <_binary_font_psf_start+0x8e9>
c0106a39:	40                   	inc    %eax
c0106a3a:	40                   	inc    %eax
c0106a3b:	7c 40                	jl     c0106a7d <_binary_font_psf_start+0x8ed>
c0106a3d:	40                   	inc    %eax
c0106a3e:	40                   	inc    %eax
c0106a3f:	40                   	inc    %eax
c0106a40:	7e 00                	jle    c0106a42 <_binary_font_psf_start+0x8b2>
c0106a42:	00 00                	add    %al,(%eax)
c0106a44:	24 24                	and    $0x24,%al
c0106a46:	00 7e 40             	add    %bh,0x40(%esi)
c0106a49:	40                   	inc    %eax
c0106a4a:	40                   	inc    %eax
c0106a4b:	7c 40                	jl     c0106a8d <_binary_font_psf_start+0x8fd>
c0106a4d:	40                   	inc    %eax
c0106a4e:	40                   	inc    %eax
c0106a4f:	40                   	inc    %eax
c0106a50:	7e 00                	jle    c0106a52 <_binary_font_psf_start+0x8c2>
c0106a52:	00 00                	add    %al,(%eax)
c0106a54:	30 0c 00             	xor    %cl,(%eax,%eax,1)
c0106a57:	3e 08 08             	or     %cl,%ds:(%eax)
c0106a5a:	08 08                	or     %cl,(%eax)
c0106a5c:	08 08                	or     %cl,(%eax)
c0106a5e:	08 08                	or     %cl,(%eax)
c0106a60:	3e 00 00             	add    %al,%ds:(%eax)
c0106a63:	00 06                	add    %al,(%esi)
c0106a65:	18 00                	sbb    %al,(%eax)
c0106a67:	3e 08 08             	or     %cl,%ds:(%eax)
c0106a6a:	08 08                	or     %cl,(%eax)
c0106a6c:	08 08                	or     %cl,(%eax)
c0106a6e:	08 08                	or     %cl,(%eax)
c0106a70:	3e 00 00             	add    %al,%ds:(%eax)
c0106a73:	00 18                	add    %bl,(%eax)
c0106a75:	24 00                	and    $0x0,%al
c0106a77:	3e 08 08             	or     %cl,%ds:(%eax)
c0106a7a:	08 08                	or     %cl,(%eax)
c0106a7c:	08 08                	or     %cl,(%eax)
c0106a7e:	08 08                	or     %cl,(%eax)
c0106a80:	3e 00 00             	add    %al,%ds:(%eax)
c0106a83:	00 22                	add    %ah,(%edx)
c0106a85:	22 00                	and    (%eax),%al
c0106a87:	3e 08 08             	or     %cl,%ds:(%eax)
c0106a8a:	08 08                	or     %cl,(%eax)
c0106a8c:	08 08                	or     %cl,(%eax)
c0106a8e:	08 08                	or     %cl,(%eax)
c0106a90:	3e 00 00             	add    %al,%ds:(%eax)
c0106a93:	00 00                	add    %al,(%eax)
c0106a95:	00 00                	add    %al,(%eax)
c0106a97:	78 44                	js     c0106add <_binary_font_psf_start+0x94d>
c0106a99:	42                   	inc    %edx
c0106a9a:	42                   	inc    %edx
c0106a9b:	f2 42                	repnz inc %edx
c0106a9d:	42                   	inc    %edx
c0106a9e:	42                   	inc    %edx
c0106a9f:	44                   	inc    %esp
c0106aa0:	78 00                	js     c0106aa2 <_binary_font_psf_start+0x912>
c0106aa2:	00 00                	add    %al,(%eax)
c0106aa4:	32 4c 00 42          	xor    0x42(%eax,%eax,1),%cl
c0106aa8:	62 62 52             	bound  %esp,0x52(%edx)
c0106aab:	52                   	push   %edx
c0106aac:	4a                   	dec    %edx
c0106aad:	4a                   	dec    %edx
c0106aae:	46                   	inc    %esi
c0106aaf:	46                   	inc    %esi
c0106ab0:	42                   	inc    %edx
c0106ab1:	00 00                	add    %al,(%eax)
c0106ab3:	00 30                	add    %dh,(%eax)
c0106ab5:	0c 00                	or     $0x0,%al
c0106ab7:	3c 42                	cmp    $0x42,%al
c0106ab9:	42                   	inc    %edx
c0106aba:	42                   	inc    %edx
c0106abb:	42                   	inc    %edx
c0106abc:	42                   	inc    %edx
c0106abd:	42                   	inc    %edx
c0106abe:	42                   	inc    %edx
c0106abf:	42                   	inc    %edx
c0106ac0:	3c 00                	cmp    $0x0,%al
c0106ac2:	00 00                	add    %al,(%eax)
c0106ac4:	0c 30                	or     $0x30,%al
c0106ac6:	00 3c 42             	add    %bh,(%edx,%eax,2)
c0106ac9:	42                   	inc    %edx
c0106aca:	42                   	inc    %edx
c0106acb:	42                   	inc    %edx
c0106acc:	42                   	inc    %edx
c0106acd:	42                   	inc    %edx
c0106ace:	42                   	inc    %edx
c0106acf:	42                   	inc    %edx
c0106ad0:	3c 00                	cmp    $0x0,%al
c0106ad2:	00 00                	add    %al,(%eax)
c0106ad4:	18 24 00             	sbb    %ah,(%eax,%eax,1)
c0106ad7:	3c 42                	cmp    $0x42,%al
c0106ad9:	42                   	inc    %edx
c0106ada:	42                   	inc    %edx
c0106adb:	42                   	inc    %edx
c0106adc:	42                   	inc    %edx
c0106add:	42                   	inc    %edx
c0106ade:	42                   	inc    %edx
c0106adf:	42                   	inc    %edx
c0106ae0:	3c 00                	cmp    $0x0,%al
c0106ae2:	00 00                	add    %al,(%eax)
c0106ae4:	32 4c 00 3c          	xor    0x3c(%eax,%eax,1),%cl
c0106ae8:	42                   	inc    %edx
c0106ae9:	42                   	inc    %edx
c0106aea:	42                   	inc    %edx
c0106aeb:	42                   	inc    %edx
c0106aec:	42                   	inc    %edx
c0106aed:	42                   	inc    %edx
c0106aee:	42                   	inc    %edx
c0106aef:	42                   	inc    %edx
c0106af0:	3c 00                	cmp    $0x0,%al
c0106af2:	00 00                	add    %al,(%eax)
c0106af4:	24 24                	and    $0x24,%al
c0106af6:	00 3c 42             	add    %bh,(%edx,%eax,2)
c0106af9:	42                   	inc    %edx
c0106afa:	42                   	inc    %edx
c0106afb:	42                   	inc    %edx
c0106afc:	42                   	inc    %edx
c0106afd:	42                   	inc    %edx
c0106afe:	42                   	inc    %edx
c0106aff:	42                   	inc    %edx
c0106b00:	3c 00                	cmp    $0x0,%al
	...
c0106b0a:	22 14 08             	and    (%eax,%ecx,1),%dl
c0106b0d:	14 22                	adc    $0x22,%al
c0106b0f:	00 00                	add    %al,(%eax)
c0106b11:	00 00                	add    %al,(%eax)
c0106b13:	00 00                	add    %al,(%eax)
c0106b15:	00 02                	add    %al,(%edx)
c0106b17:	3a 44 46 4a          	cmp    0x4a(%esi,%eax,2),%al
c0106b1b:	4a                   	dec    %edx
c0106b1c:	52                   	push   %edx
c0106b1d:	52                   	push   %edx
c0106b1e:	62 22                	bound  %esp,(%edx)
c0106b20:	5c                   	pop    %esp
c0106b21:	40                   	inc    %eax
c0106b22:	00 00                	add    %al,(%eax)
c0106b24:	30 0c 00             	xor    %cl,(%eax,%eax,1)
c0106b27:	42                   	inc    %edx
c0106b28:	42                   	inc    %edx
c0106b29:	42                   	inc    %edx
c0106b2a:	42                   	inc    %edx
c0106b2b:	42                   	inc    %edx
c0106b2c:	42                   	inc    %edx
c0106b2d:	42                   	inc    %edx
c0106b2e:	42                   	inc    %edx
c0106b2f:	42                   	inc    %edx
c0106b30:	3c 00                	cmp    $0x0,%al
c0106b32:	00 00                	add    %al,(%eax)
c0106b34:	0c 30                	or     $0x30,%al
c0106b36:	00 42 42             	add    %al,0x42(%edx)
c0106b39:	42                   	inc    %edx
c0106b3a:	42                   	inc    %edx
c0106b3b:	42                   	inc    %edx
c0106b3c:	42                   	inc    %edx
c0106b3d:	42                   	inc    %edx
c0106b3e:	42                   	inc    %edx
c0106b3f:	42                   	inc    %edx
c0106b40:	3c 00                	cmp    $0x0,%al
c0106b42:	00 00                	add    %al,(%eax)
c0106b44:	18 24 00             	sbb    %ah,(%eax,%eax,1)
c0106b47:	42                   	inc    %edx
c0106b48:	42                   	inc    %edx
c0106b49:	42                   	inc    %edx
c0106b4a:	42                   	inc    %edx
c0106b4b:	42                   	inc    %edx
c0106b4c:	42                   	inc    %edx
c0106b4d:	42                   	inc    %edx
c0106b4e:	42                   	inc    %edx
c0106b4f:	42                   	inc    %edx
c0106b50:	3c 00                	cmp    $0x0,%al
c0106b52:	00 00                	add    %al,(%eax)
c0106b54:	24 24                	and    $0x24,%al
c0106b56:	00 42 42             	add    %al,0x42(%edx)
c0106b59:	42                   	inc    %edx
c0106b5a:	42                   	inc    %edx
c0106b5b:	42                   	inc    %edx
c0106b5c:	42                   	inc    %edx
c0106b5d:	42                   	inc    %edx
c0106b5e:	42                   	inc    %edx
c0106b5f:	42                   	inc    %edx
c0106b60:	3c 00                	cmp    $0x0,%al
c0106b62:	00 00                	add    %al,(%eax)
c0106b64:	06                   	push   %es
c0106b65:	18 00                	sbb    %al,(%eax)
c0106b67:	41                   	inc    %ecx
c0106b68:	41                   	inc    %ecx
c0106b69:	22 22                	and    (%edx),%ah
c0106b6b:	14 08                	adc    $0x8,%al
c0106b6d:	08 08                	or     %cl,(%eax)
c0106b6f:	08 08                	or     %cl,(%eax)
c0106b71:	00 00                	add    %al,(%eax)
c0106b73:	00 00                	add    %al,(%eax)
c0106b75:	00 00                	add    %al,(%eax)
c0106b77:	40                   	inc    %eax
c0106b78:	40                   	inc    %eax
c0106b79:	7c 42                	jl     c0106bbd <_binary_font_psf_start+0xa2d>
c0106b7b:	42                   	inc    %edx
c0106b7c:	42                   	inc    %edx
c0106b7d:	42                   	inc    %edx
c0106b7e:	7c 40                	jl     c0106bc0 <_binary_font_psf_start+0xa30>
c0106b80:	40                   	inc    %eax
c0106b81:	00 00                	add    %al,(%eax)
c0106b83:	00 00                	add    %al,(%eax)
c0106b85:	00 00                	add    %al,(%eax)
c0106b87:	38 44 4c 50          	cmp    %al,0x50(%esp,%ecx,2)
c0106b8b:	50                   	push   %eax
c0106b8c:	4c                   	dec    %esp
c0106b8d:	42                   	inc    %edx
c0106b8e:	42                   	inc    %edx
c0106b8f:	52                   	push   %edx
c0106b90:	4c                   	dec    %esp
c0106b91:	00 00                	add    %al,(%eax)
c0106b93:	00 aa 55 aa 55 aa    	add    %ch,-0x55aa55ab(%edx)
c0106b99:	55                   	push   %ebp
c0106b9a:	aa                   	stos   %al,%es:(%edi)
c0106b9b:	55                   	push   %ebp
c0106b9c:	aa                   	stos   %al,%es:(%edi)
c0106b9d:	55                   	push   %ebp
c0106b9e:	aa                   	stos   %al,%es:(%edi)
c0106b9f:	55                   	push   %ebp
c0106ba0:	aa                   	stos   %al,%es:(%edi)
c0106ba1:	55                   	push   %ebp
c0106ba2:	aa                   	stos   %al,%es:(%edi)
c0106ba3:	55                   	push   %ebp
c0106ba4:	00 00                	add    %al,(%eax)
c0106ba6:	00 08                	add    %cl,(%eax)
c0106ba8:	08 00                	or     %al,(%eax)
c0106baa:	08 08                	or     %cl,(%eax)
c0106bac:	08 08                	or     %cl,(%eax)
c0106bae:	08 08                	or     %cl,(%eax)
c0106bb0:	08 00                	or     %al,(%eax)
c0106bb2:	00 00                	add    %al,(%eax)
c0106bb4:	00 00                	add    %al,(%eax)
c0106bb6:	00 08                	add    %cl,(%eax)
c0106bb8:	08 3e                	or     %bh,(%esi)
c0106bba:	49                   	dec    %ecx
c0106bbb:	48                   	dec    %eax
c0106bbc:	48                   	dec    %eax
c0106bbd:	48                   	dec    %eax
c0106bbe:	48                   	dec    %eax
c0106bbf:	49                   	dec    %ecx
c0106bc0:	3e 08 08             	or     %cl,%ds:(%eax)
c0106bc3:	00 00                	add    %al,(%eax)
c0106bc5:	00 00                	add    %al,(%eax)
c0106bc7:	1c 20                	sbb    $0x20,%al
c0106bc9:	20 20                	and    %ah,(%eax)
c0106bcb:	78 20                	js     c0106bed <_binary_font_psf_start+0xa5d>
c0106bcd:	20 20                	and    %ah,(%eax)
c0106bcf:	22 7e 00             	and    0x0(%esi),%bh
c0106bd2:	00 00                	add    %al,(%eax)
c0106bd4:	00 00                	add    %al,(%eax)
c0106bd6:	00 00                	add    %al,(%eax)
c0106bd8:	0e                   	push   %cs
c0106bd9:	11 20                	adc    %esp,(%eax)
c0106bdb:	7e 20                	jle    c0106bfd <_binary_font_psf_start+0xa6d>
c0106bdd:	7c 20                	jl     c0106bff <_binary_font_psf_start+0xa6f>
c0106bdf:	11 0e                	adc    %ecx,(%esi)
c0106be1:	00 00                	add    %al,(%eax)
c0106be3:	00 00                	add    %al,(%eax)
c0106be5:	00 00                	add    %al,(%eax)
c0106be7:	41                   	inc    %ecx
c0106be8:	41                   	inc    %ecx
c0106be9:	22 14 08             	and    (%eax,%ecx,1),%dl
c0106bec:	3e 08 3e             	or     %bh,%ds:(%esi)
c0106bef:	08 08                	or     %cl,(%eax)
c0106bf1:	00 00                	add    %al,(%eax)
c0106bf3:	00 24 18             	add    %ah,(%eax,%ebx,1)
c0106bf6:	00 3c 42             	add    %bh,(%edx,%eax,2)
c0106bf9:	42                   	inc    %edx
c0106bfa:	40                   	inc    %eax
c0106bfb:	30 0c 02             	xor    %cl,(%edx,%eax,1)
c0106bfe:	42                   	inc    %edx
c0106bff:	42                   	inc    %edx
c0106c00:	3c 00                	cmp    $0x0,%al
c0106c02:	00 00                	add    %al,(%eax)
c0106c04:	00 00                	add    %al,(%eax)
c0106c06:	1c 22                	sbb    $0x22,%al
c0106c08:	20 18                	and    %bl,(%eax)
c0106c0a:	24 22                	and    $0x22,%al
c0106c0c:	22 12                	and    (%edx),%dl
c0106c0e:	0c 02                	or     $0x2,%al
c0106c10:	22 1c 00             	and    (%eax,%eax,1),%bl
c0106c13:	00 00                	add    %al,(%eax)
c0106c15:	24 18                	and    $0x18,%al
c0106c17:	00 00                	add    %al,(%eax)
c0106c19:	3c 42                	cmp    $0x42,%al
c0106c1b:	40                   	inc    %eax
c0106c1c:	30 0c 02             	xor    %cl,(%edx,%eax,1)
c0106c1f:	42                   	inc    %edx
c0106c20:	3c 00                	cmp    $0x0,%al
c0106c22:	00 00                	add    %al,(%eax)
c0106c24:	00 00                	add    %al,(%eax)
c0106c26:	00 3c 42             	add    %bh,(%edx,%eax,2)
c0106c29:	99                   	cltd
c0106c2a:	a5                   	movsl  %ds:(%esi),%es:(%edi)
c0106c2b:	a1 a1 a5 99 42       	mov    0x4299a5a1,%eax
c0106c30:	3c 00                	cmp    $0x0,%al
c0106c32:	00 00                	add    %al,(%eax)
c0106c34:	00 00                	add    %al,(%eax)
c0106c36:	38 04 3c             	cmp    %al,(%esp,%edi,1)
c0106c39:	44                   	inc    %esp
c0106c3a:	3c 00                	cmp    $0x0,%al
c0106c3c:	7c 00                	jl     c0106c3e <_binary_font_psf_start+0xaae>
	...
c0106c4a:	12 24 48             	adc    (%eax,%ecx,2),%ah
c0106c4d:	24 12                	and    $0x12,%al
	...
c0106c5b:	00 7e 02             	add    %bh,0x2(%esi)
c0106c5e:	02 02                	add    (%edx),%al
	...
c0106c68:	00 22                	add    %ah,(%edx)
c0106c6a:	1c 22                	sbb    $0x22,%al
c0106c6c:	22 22                	and    (%edx),%ah
c0106c6e:	1c 22                	sbb    $0x22,%al
c0106c70:	00 00                	add    %al,(%eax)
c0106c72:	00 00                	add    %al,(%eax)
c0106c74:	00 00                	add    %al,(%eax)
c0106c76:	00 3c 42             	add    %bh,(%edx,%eax,2)
c0106c79:	b9 a5 a5 b9 a9       	mov    $0xa9b9a5a5,%ecx
c0106c7e:	a5                   	movsl  %ds:(%esi),%es:(%edi)
c0106c7f:	42                   	inc    %edx
c0106c80:	3c 00                	cmp    $0x0,%al
c0106c82:	00 00                	add    %al,(%eax)
c0106c84:	00 3c 00             	add    %bh,(%eax,%eax,1)
	...
c0106c93:	00 00                	add    %al,(%eax)
c0106c95:	00 18                	add    %bl,(%eax)
c0106c97:	24 24                	and    $0x24,%al
c0106c99:	18 00                	sbb    %al,(%eax)
	...
c0106ca7:	08 08                	or     %cl,(%eax)
c0106ca9:	08 7f 08             	or     %bh,0x8(%edi)
c0106cac:	08 08                	or     %cl,(%eax)
c0106cae:	00 7f 00             	add    %bh,0x0(%edi)
c0106cb1:	00 00                	add    %al,(%eax)
c0106cb3:	00 00                	add    %al,(%eax)
c0106cb5:	00 38                	add    %bh,(%eax)
c0106cb7:	44                   	inc    %esp
c0106cb8:	04 18                	add    $0x18,%al
c0106cba:	20 40 7c             	and    %al,0x7c(%eax)
	...
c0106cc5:	00 38                	add    %bh,(%eax)
c0106cc7:	44                   	inc    %esp
c0106cc8:	04 38                	add    $0x38,%al
c0106cca:	04 44                	add    $0x44,%al
c0106ccc:	38 00                	cmp    %al,(%eax)
c0106cce:	00 00                	add    %al,(%eax)
c0106cd0:	00 00                	add    %al,(%eax)
c0106cd2:	00 00                	add    %al,(%eax)
c0106cd4:	24 18                	and    $0x18,%al
c0106cd6:	00 7e 02             	add    %bh,0x2(%esi)
c0106cd9:	02 04 08             	add    (%eax,%ecx,1),%al
c0106cdc:	10 20                	adc    %ah,(%eax)
c0106cde:	40                   	inc    %eax
c0106cdf:	40                   	inc    %eax
c0106ce0:	7e 00                	jle    c0106ce2 <_binary_font_psf_start+0xb52>
c0106ce2:	00 00                	add    %al,(%eax)
c0106ce4:	00 00                	add    %al,(%eax)
c0106ce6:	00 00                	add    %al,(%eax)
c0106ce8:	00 42 42             	add    %al,0x42(%edx)
c0106ceb:	42                   	inc    %edx
c0106cec:	42                   	inc    %edx
c0106ced:	42                   	inc    %edx
c0106cee:	42                   	inc    %edx
c0106cef:	66 5a                	pop    %dx
c0106cf1:	40                   	inc    %eax
c0106cf2:	40                   	inc    %eax
c0106cf3:	40                   	inc    %eax
c0106cf4:	00 00                	add    %al,(%eax)
c0106cf6:	00 3e                	add    %bh,(%esi)
c0106cf8:	7a 7a                	jp     c0106d74 <_binary_font_psf_start+0xbe4>
c0106cfa:	7a 7a                	jp     c0106d76 <_binary_font_psf_start+0xbe6>
c0106cfc:	3a 0a                	cmp    (%edx),%cl
c0106cfe:	0a 0a                	or     (%edx),%cl
c0106d00:	0a 00                	or     (%eax),%al
	...
c0106d0a:	00 08                	add    %cl,(%eax)
c0106d0c:	08 00                	or     %al,(%eax)
c0106d0e:	00 00                	add    %al,(%eax)
c0106d10:	00 00                	add    %al,(%eax)
c0106d12:	00 00                	add    %al,(%eax)
c0106d14:	00 24 18             	add    %ah,(%eax,%ebx,1)
c0106d17:	00 00                	add    %al,(%eax)
c0106d19:	7e 02                	jle    c0106d1d <_binary_font_psf_start+0xb8d>
c0106d1b:	04 08                	add    $0x8,%al
c0106d1d:	10 20                	adc    %ah,(%eax)
c0106d1f:	40                   	inc    %eax
c0106d20:	7e 00                	jle    c0106d22 <_binary_font_psf_start+0xb92>
c0106d22:	00 00                	add    %al,(%eax)
c0106d24:	00 00                	add    %al,(%eax)
c0106d26:	10 30                	adc    %dh,(%eax)
c0106d28:	50                   	push   %eax
c0106d29:	10 10                	adc    %dl,(%eax)
c0106d2b:	10 7c 00 00          	adc    %bh,0x0(%eax,%eax,1)
c0106d2f:	00 00                	add    %al,(%eax)
c0106d31:	00 00                	add    %al,(%eax)
c0106d33:	00 00                	add    %al,(%eax)
c0106d35:	00 38                	add    %bh,(%eax)
c0106d37:	44                   	inc    %esp
c0106d38:	44                   	inc    %esp
c0106d39:	44                   	inc    %esp
c0106d3a:	38 00                	cmp    %al,(%eax)
c0106d3c:	7c 00                	jl     c0106d3e <_binary_font_psf_start+0xbae>
	...
c0106d4a:	48                   	dec    %eax
c0106d4b:	24 12                	and    $0x12,%al
c0106d4d:	24 48                	and    $0x48,%al
	...
c0106d57:	37                   	aaa
c0106d58:	48                   	dec    %eax
c0106d59:	48                   	dec    %eax
c0106d5a:	48                   	dec    %eax
c0106d5b:	4e                   	dec    %esi
c0106d5c:	48                   	dec    %eax
c0106d5d:	48                   	dec    %eax
c0106d5e:	48                   	dec    %eax
c0106d5f:	48                   	dec    %eax
c0106d60:	37                   	aaa
	...
c0106d69:	36 49                	ss dec %ecx
c0106d6b:	49                   	dec    %ecx
c0106d6c:	4f                   	dec    %edi
c0106d6d:	48                   	dec    %eax
c0106d6e:	48                   	dec    %eax
c0106d6f:	49                   	dec    %ecx
c0106d70:	36 00 00             	add    %al,%ss:(%eax)
c0106d73:	00 22                	add    %ah,(%edx)
c0106d75:	22 00                	and    (%eax),%al
c0106d77:	41                   	inc    %ecx
c0106d78:	41                   	inc    %ecx
c0106d79:	22 22                	and    (%edx),%ah
c0106d7b:	14 08                	adc    $0x8,%al
c0106d7d:	08 08                	or     %cl,(%eax)
c0106d7f:	08 08                	or     %cl,(%eax)
c0106d81:	00 00                	add    %al,(%eax)
c0106d83:	00 00                	add    %al,(%eax)
c0106d85:	00 00                	add    %al,(%eax)
c0106d87:	10 10                	adc    %dl,(%eax)
c0106d89:	00 10                	add    %dl,(%eax)
c0106d8b:	10 20                	adc    %ah,(%eax)
c0106d8d:	40                   	inc    %eax
c0106d8e:	42                   	inc    %edx
c0106d8f:	42                   	inc    %edx
c0106d90:	3c 00                	cmp    $0x0,%al
	...
c0106d9a:	00 00                	add    %al,(%eax)
c0106d9c:	ff 00                	incl   (%eax)
c0106d9e:	00 00                	add    %al,(%eax)
c0106da0:	00 00                	add    %al,(%eax)
c0106da2:	00 00                	add    %al,(%eax)
c0106da4:	08 08                	or     %cl,(%eax)
c0106da6:	08 08                	or     %cl,(%eax)
c0106da8:	08 08                	or     %cl,(%eax)
c0106daa:	08 08                	or     %cl,(%eax)
c0106dac:	08 08                	or     %cl,(%eax)
c0106dae:	08 08                	or     %cl,(%eax)
c0106db0:	08 08                	or     %cl,(%eax)
c0106db2:	08 08                	or     %cl,(%eax)
	...
c0106dbc:	0f 08                	invd
c0106dbe:	08 08                	or     %cl,(%eax)
c0106dc0:	08 08                	or     %cl,(%eax)
c0106dc2:	08 08                	or     %cl,(%eax)
	...
c0106dcc:	f8                   	clc
c0106dcd:	08 08                	or     %cl,(%eax)
c0106dcf:	08 08                	or     %cl,(%eax)
c0106dd1:	08 08                	or     %cl,(%eax)
c0106dd3:	08 08                	or     %cl,(%eax)
c0106dd5:	08 08                	or     %cl,(%eax)
c0106dd7:	08 08                	or     %cl,(%eax)
c0106dd9:	08 08                	or     %cl,(%eax)
c0106ddb:	08 0f                	or     %cl,(%edi)
c0106ddd:	00 00                	add    %al,(%eax)
c0106ddf:	00 00                	add    %al,(%eax)
c0106de1:	00 00                	add    %al,(%eax)
c0106de3:	00 08                	add    %cl,(%eax)
c0106de5:	08 08                	or     %cl,(%eax)
c0106de7:	08 08                	or     %cl,(%eax)
c0106de9:	08 08                	or     %cl,(%eax)
c0106deb:	08 f8                	or     %bh,%al
c0106ded:	00 00                	add    %al,(%eax)
c0106def:	00 00                	add    %al,(%eax)
c0106df1:	00 00                	add    %al,(%eax)
c0106df3:	00 08                	add    %cl,(%eax)
c0106df5:	08 08                	or     %cl,(%eax)
c0106df7:	08 08                	or     %cl,(%eax)
c0106df9:	08 08                	or     %cl,(%eax)
c0106dfb:	08 0f                	or     %cl,(%edi)
c0106dfd:	08 08                	or     %cl,(%eax)
c0106dff:	08 08                	or     %cl,(%eax)
c0106e01:	08 08                	or     %cl,(%eax)
c0106e03:	08 08                	or     %cl,(%eax)
c0106e05:	08 08                	or     %cl,(%eax)
c0106e07:	08 08                	or     %cl,(%eax)
c0106e09:	08 08                	or     %cl,(%eax)
c0106e0b:	08 f8                	or     %bh,%al
c0106e0d:	08 08                	or     %cl,(%eax)
c0106e0f:	08 08                	or     %cl,(%eax)
c0106e11:	08 08                	or     %cl,(%eax)
c0106e13:	08 00                	or     %al,(%eax)
c0106e15:	00 00                	add    %al,(%eax)
c0106e17:	00 00                	add    %al,(%eax)
c0106e19:	00 00                	add    %al,(%eax)
c0106e1b:	00 ff                	add    %bh,%bh
c0106e1d:	08 08                	or     %cl,(%eax)
c0106e1f:	08 08                	or     %cl,(%eax)
c0106e21:	08 08                	or     %cl,(%eax)
c0106e23:	08 08                	or     %cl,(%eax)
c0106e25:	08 08                	or     %cl,(%eax)
c0106e27:	08 08                	or     %cl,(%eax)
c0106e29:	08 08                	or     %cl,(%eax)
c0106e2b:	08 ff                	or     %bh,%bh
c0106e2d:	00 00                	add    %al,(%eax)
c0106e2f:	00 00                	add    %al,(%eax)
c0106e31:	00 00                	add    %al,(%eax)
c0106e33:	00 08                	add    %cl,(%eax)
c0106e35:	08 08                	or     %cl,(%eax)
c0106e37:	08 08                	or     %cl,(%eax)
c0106e39:	08 08                	or     %cl,(%eax)
c0106e3b:	08 ff                	or     %bh,%bh
c0106e3d:	08 08                	or     %cl,(%eax)
c0106e3f:	08 08                	or     %cl,(%eax)
c0106e41:	08 08                	or     %cl,(%eax)
c0106e43:	08 88 22 88 22 88    	or     %cl,-0x77dd77de(%eax)
c0106e49:	22 88 22 88 22 88    	and    -0x77dd77de(%eax),%cl
c0106e4f:	22 88 22 88 22 ff    	and    -0xdd77de(%eax),%cl
	...
c0106e65:	00 00                	add    %al,(%eax)
c0106e67:	ff 00                	incl   (%eax)
	...
c0106e7d:	00 00                	add    %al,(%eax)
c0106e7f:	00 ff                	add    %bh,%bh
	...
c0106e91:	00 00                	add    %al,(%eax)
c0106e93:	ff 00                	incl   (%eax)
c0106e95:	00 00                	add    %al,(%eax)
c0106e97:	00 00                	add    %al,(%eax)
c0106e99:	00 00                	add    %al,(%eax)
c0106e9b:	ff 00                	incl   (%eax)
c0106e9d:	ff 00                	incl   (%eax)
c0106e9f:	00 00                	add    %al,(%eax)
c0106ea1:	00 00                	add    %al,(%eax)
c0106ea3:	00 14 14             	add    %dl,(%esp,%edx,1)
c0106ea6:	14 14                	adc    $0x14,%al
c0106ea8:	14 14                	adc    $0x14,%al
c0106eaa:	14 14                	adc    $0x14,%al
c0106eac:	14 14                	adc    $0x14,%al
c0106eae:	14 14                	adc    $0x14,%al
c0106eb0:	14 14                	adc    $0x14,%al
c0106eb2:	14 14                	adc    $0x14,%al
c0106eb4:	00 00                	add    %al,(%eax)
c0106eb6:	00 00                	add    %al,(%eax)
c0106eb8:	00 00                	add    %al,(%eax)
c0106eba:	00 1f                	add    %bl,(%edi)
c0106ebc:	10 17                	adc    %dl,(%edi)
c0106ebe:	14 14                	adc    $0x14,%al
c0106ec0:	14 14                	adc    $0x14,%al
c0106ec2:	14 14                	adc    $0x14,%al
c0106ec4:	00 00                	add    %al,(%eax)
c0106ec6:	00 00                	add    %al,(%eax)
c0106ec8:	00 00                	add    %al,(%eax)
c0106eca:	00 fc                	add    %bh,%ah
c0106ecc:	04 f4                	add    $0xf4,%al
c0106ece:	14 14                	adc    $0x14,%al
c0106ed0:	14 14                	adc    $0x14,%al
c0106ed2:	14 14                	adc    $0x14,%al
c0106ed4:	14 14                	adc    $0x14,%al
c0106ed6:	14 14                	adc    $0x14,%al
c0106ed8:	14 14                	adc    $0x14,%al
c0106eda:	14 17                	adc    $0x17,%al
c0106edc:	10 1f                	adc    %bl,(%edi)
c0106ede:	00 00                	add    %al,(%eax)
c0106ee0:	00 00                	add    %al,(%eax)
c0106ee2:	00 00                	add    %al,(%eax)
c0106ee4:	14 14                	adc    $0x14,%al
c0106ee6:	14 14                	adc    $0x14,%al
c0106ee8:	14 14                	adc    $0x14,%al
c0106eea:	14 f4                	adc    $0xf4,%al
c0106eec:	04 fc                	add    $0xfc,%al
c0106eee:	00 00                	add    %al,(%eax)
c0106ef0:	00 00                	add    %al,(%eax)
c0106ef2:	00 00                	add    %al,(%eax)
c0106ef4:	14 14                	adc    $0x14,%al
c0106ef6:	14 14                	adc    $0x14,%al
c0106ef8:	14 14                	adc    $0x14,%al
c0106efa:	14 17                	adc    $0x17,%al
c0106efc:	10 17                	adc    %dl,(%edi)
c0106efe:	14 14                	adc    $0x14,%al
c0106f00:	14 14                	adc    $0x14,%al
c0106f02:	14 14                	adc    $0x14,%al
c0106f04:	14 14                	adc    $0x14,%al
c0106f06:	14 14                	adc    $0x14,%al
c0106f08:	14 14                	adc    $0x14,%al
c0106f0a:	14 f4                	adc    $0xf4,%al
c0106f0c:	04 f4                	add    $0xf4,%al
c0106f0e:	14 14                	adc    $0x14,%al
c0106f10:	14 14                	adc    $0x14,%al
c0106f12:	14 14                	adc    $0x14,%al
c0106f14:	00 00                	add    %al,(%eax)
c0106f16:	00 00                	add    %al,(%eax)
c0106f18:	00 00                	add    %al,(%eax)
c0106f1a:	00 ff                	add    %bh,%bh
c0106f1c:	00 f7                	add    %dh,%bh
c0106f1e:	14 14                	adc    $0x14,%al
c0106f20:	14 14                	adc    $0x14,%al
c0106f22:	14 14                	adc    $0x14,%al
c0106f24:	14 14                	adc    $0x14,%al
c0106f26:	14 14                	adc    $0x14,%al
c0106f28:	14 14                	adc    $0x14,%al
c0106f2a:	14 f7                	adc    $0xf7,%al
c0106f2c:	00 ff                	add    %bh,%bh
c0106f2e:	00 00                	add    %al,(%eax)
c0106f30:	00 00                	add    %al,(%eax)
c0106f32:	00 00                	add    %al,(%eax)
c0106f34:	14 14                	adc    $0x14,%al
c0106f36:	14 14                	adc    $0x14,%al
c0106f38:	14 14                	adc    $0x14,%al
c0106f3a:	14 f7                	adc    $0xf7,%al
c0106f3c:	00 f7                	add    %dh,%bh
c0106f3e:	14 14                	adc    $0x14,%al
c0106f40:	14 14                	adc    $0x14,%al
c0106f42:	14 14                	adc    $0x14,%al
c0106f44:	ff                   	(bad)
c0106f45:	ff                   	(bad)
c0106f46:	ff                   	(bad)
c0106f47:	ff                   	(bad)
c0106f48:	ff                   	(bad)
c0106f49:	ff                   	(bad)
c0106f4a:	ff                   	(bad)
c0106f4b:	ff                   	(bad)
c0106f4c:	ff                   	(bad)
c0106f4d:	ff                   	(bad)
c0106f4e:	ff                   	(bad)
c0106f4f:	ff                   	(bad)
c0106f50:	ff                   	(bad)
c0106f51:	ff                   	(bad)
c0106f52:	ff                   	(bad)
c0106f53:	ff 00                	incl   (%eax)
c0106f55:	00 00                	add    %al,(%eax)
c0106f57:	00 00                	add    %al,(%eax)
c0106f59:	08 1c 2a             	or     %bl,(%edx,%ebp,1)
c0106f5c:	08 08                	or     %cl,(%eax)
c0106f5e:	08 08                	or     %cl,(%eax)
	...
c0106f68:	00 08                	add    %cl,(%eax)
c0106f6a:	08 08                	or     %cl,(%eax)
c0106f6c:	08 2a                	or     %ch,(%edx)
c0106f6e:	1c 08                	sbb    $0x8,%al
	...
c0106f78:	00 00                	add    %al,(%eax)
c0106f7a:	10 20                	adc    %ah,(%eax)
c0106f7c:	7f 20                	jg     c0106f9e <_binary_font_psf_start+0xe0e>
c0106f7e:	10 00                	adc    %al,(%eax)
	...
c0106f88:	00 00                	add    %al,(%eax)
c0106f8a:	08 04 fe             	or     %al,(%esi,%edi,8)
c0106f8d:	04 08                	add    $0x8,%al
c0106f8f:	00 00                	add    %al,(%eax)
c0106f91:	00 00                	add    %al,(%eax)
c0106f93:	00 00                	add    %al,(%eax)
c0106f95:	30 0c 00             	xor    %cl,(%eax,%eax,1)
c0106f98:	00 3c 42             	add    %bh,(%edx,%eax,2)
c0106f9b:	02 3e                	add    (%esi),%bh
c0106f9d:	42                   	inc    %edx
c0106f9e:	42                   	inc    %edx
c0106f9f:	46                   	inc    %esi
c0106fa0:	3a 00                	cmp    (%eax),%al
c0106fa2:	00 00                	add    %al,(%eax)
c0106fa4:	00 0c 30             	add    %cl,(%eax,%esi,1)
c0106fa7:	00 00                	add    %al,(%eax)
c0106fa9:	3c 42                	cmp    $0x42,%al
c0106fab:	02 3e                	add    (%esi),%bh
c0106fad:	42                   	inc    %edx
c0106fae:	42                   	inc    %edx
c0106faf:	46                   	inc    %esi
c0106fb0:	3a 00                	cmp    (%eax),%al
c0106fb2:	00 00                	add    %al,(%eax)
c0106fb4:	00 18                	add    %bl,(%eax)
c0106fb6:	24 00                	and    $0x0,%al
c0106fb8:	00 3c 42             	add    %bh,(%edx,%eax,2)
c0106fbb:	02 3e                	add    (%esi),%bh
c0106fbd:	42                   	inc    %edx
c0106fbe:	42                   	inc    %edx
c0106fbf:	46                   	inc    %esi
c0106fc0:	3a 00                	cmp    (%eax),%al
c0106fc2:	00 00                	add    %al,(%eax)
c0106fc4:	00 32                	add    %dh,(%edx)
c0106fc6:	4c                   	dec    %esp
c0106fc7:	00 00                	add    %al,(%eax)
c0106fc9:	3c 42                	cmp    $0x42,%al
c0106fcb:	02 3e                	add    (%esi),%bh
c0106fcd:	42                   	inc    %edx
c0106fce:	42                   	inc    %edx
c0106fcf:	46                   	inc    %esi
c0106fd0:	3a 00                	cmp    (%eax),%al
c0106fd2:	00 00                	add    %al,(%eax)
c0106fd4:	00 24 24             	add    %ah,(%esp)
c0106fd7:	00 00                	add    %al,(%eax)
c0106fd9:	3c 42                	cmp    $0x42,%al
c0106fdb:	02 3e                	add    (%esi),%bh
c0106fdd:	42                   	inc    %edx
c0106fde:	42                   	inc    %edx
c0106fdf:	46                   	inc    %esi
c0106fe0:	3a 00                	cmp    (%eax),%al
c0106fe2:	00 00                	add    %al,(%eax)
c0106fe4:	18 24 24             	sbb    %ah,(%esp)
c0106fe7:	18 00                	sbb    %al,(%eax)
c0106fe9:	3c 42                	cmp    $0x42,%al
c0106feb:	02 3e                	add    (%esi),%bh
c0106fed:	42                   	inc    %edx
c0106fee:	42                   	inc    %edx
c0106fef:	46                   	inc    %esi
c0106ff0:	3a 00                	cmp    (%eax),%al
c0106ff2:	00 00                	add    %al,(%eax)
c0106ff4:	00 00                	add    %al,(%eax)
c0106ff6:	00 00                	add    %al,(%eax)
c0106ff8:	00 36                	add    %dh,(%esi)
c0106ffa:	49                   	dec    %ecx
c0106ffb:	09 3f                	or     %edi,(%edi)
c0106ffd:	48                   	dec    %eax
c0106ffe:	48                   	dec    %eax
c0106fff:	49                   	dec    %ecx
c0107000:	36 00 00             	add    %al,%ss:(%eax)
c0107003:	00 00                	add    %al,(%eax)
c0107005:	00 00                	add    %al,(%eax)
c0107007:	00 00                	add    %al,(%eax)
c0107009:	3c 42                	cmp    $0x42,%al
c010700b:	40                   	inc    %eax
c010700c:	40                   	inc    %eax
c010700d:	40                   	inc    %eax
c010700e:	40                   	inc    %eax
c010700f:	42                   	inc    %edx
c0107010:	3c 08                	cmp    $0x8,%al
c0107012:	08 30                	or     %dh,(%eax)
c0107014:	00 30                	add    %dh,(%eax)
c0107016:	0c 00                	or     $0x0,%al
c0107018:	00 3c 42             	add    %bh,(%edx,%eax,2)
c010701b:	42                   	inc    %edx
c010701c:	7e 40                	jle    c010705e <_binary_font_psf_start+0xece>
c010701e:	40                   	inc    %eax
c010701f:	42                   	inc    %edx
c0107020:	3c 00                	cmp    $0x0,%al
c0107022:	00 00                	add    %al,(%eax)
c0107024:	00 0c 30             	add    %cl,(%eax,%esi,1)
c0107027:	00 00                	add    %al,(%eax)
c0107029:	3c 42                	cmp    $0x42,%al
c010702b:	42                   	inc    %edx
c010702c:	7e 40                	jle    c010706e <_binary_font_psf_start+0xede>
c010702e:	40                   	inc    %eax
c010702f:	42                   	inc    %edx
c0107030:	3c 00                	cmp    $0x0,%al
c0107032:	00 00                	add    %al,(%eax)
c0107034:	00 18                	add    %bl,(%eax)
c0107036:	24 00                	and    $0x0,%al
c0107038:	00 3c 42             	add    %bh,(%edx,%eax,2)
c010703b:	42                   	inc    %edx
c010703c:	7e 40                	jle    c010707e <_binary_font_psf_start+0xeee>
c010703e:	40                   	inc    %eax
c010703f:	42                   	inc    %edx
c0107040:	3c 00                	cmp    $0x0,%al
c0107042:	00 00                	add    %al,(%eax)
c0107044:	00 24 24             	add    %ah,(%esp)
c0107047:	00 00                	add    %al,(%eax)
c0107049:	3c 42                	cmp    $0x42,%al
c010704b:	42                   	inc    %edx
c010704c:	7e 40                	jle    c010708e <_binary_font_psf_start+0xefe>
c010704e:	40                   	inc    %eax
c010704f:	42                   	inc    %edx
c0107050:	3c 00                	cmp    $0x0,%al
c0107052:	00 00                	add    %al,(%eax)
c0107054:	00 30                	add    %dh,(%eax)
c0107056:	0c 00                	or     $0x0,%al
c0107058:	00 18                	add    %bl,(%eax)
c010705a:	08 08                	or     %cl,(%eax)
c010705c:	08 08                	or     %cl,(%eax)
c010705e:	08 08                	or     %cl,(%eax)
c0107060:	3e 00 00             	add    %al,%ds:(%eax)
c0107063:	00 00                	add    %al,(%eax)
c0107065:	0c 30                	or     $0x30,%al
c0107067:	00 00                	add    %al,(%eax)
c0107069:	18 08                	sbb    %cl,(%eax)
c010706b:	08 08                	or     %cl,(%eax)
c010706d:	08 08                	or     %cl,(%eax)
c010706f:	08 3e                	or     %bh,(%esi)
c0107071:	00 00                	add    %al,(%eax)
c0107073:	00 00                	add    %al,(%eax)
c0107075:	18 24 00             	sbb    %ah,(%eax,%eax,1)
c0107078:	00 18                	add    %bl,(%eax)
c010707a:	08 08                	or     %cl,(%eax)
c010707c:	08 08                	or     %cl,(%eax)
c010707e:	08 08                	or     %cl,(%eax)
c0107080:	3e 00 00             	add    %al,%ds:(%eax)
c0107083:	00 00                	add    %al,(%eax)
c0107085:	24 24                	and    $0x24,%al
c0107087:	00 00                	add    %al,(%eax)
c0107089:	18 08                	sbb    %cl,(%eax)
c010708b:	08 08                	or     %cl,(%eax)
c010708d:	08 08                	or     %cl,(%eax)
c010708f:	08 3e                	or     %bh,(%esi)
c0107091:	00 00                	add    %al,(%eax)
c0107093:	00 00                	add    %al,(%eax)
c0107095:	00 66 18             	add    %ah,0x18(%esi)
c0107098:	64 02 3a             	add    %fs:(%edx),%bh
c010709b:	46                   	inc    %esi
c010709c:	42                   	inc    %edx
c010709d:	42                   	inc    %edx
c010709e:	42                   	inc    %edx
c010709f:	42                   	inc    %edx
c01070a0:	3c 00                	cmp    $0x0,%al
c01070a2:	00 00                	add    %al,(%eax)
c01070a4:	00 32                	add    %dh,(%edx)
c01070a6:	4c                   	dec    %esp
c01070a7:	00 00                	add    %al,(%eax)
c01070a9:	5c                   	pop    %esp
c01070aa:	62 42 42             	bound  %eax,0x42(%edx)
c01070ad:	42                   	inc    %edx
c01070ae:	42                   	inc    %edx
c01070af:	42                   	inc    %edx
c01070b0:	42                   	inc    %edx
c01070b1:	00 00                	add    %al,(%eax)
c01070b3:	00 00                	add    %al,(%eax)
c01070b5:	30 0c 00             	xor    %cl,(%eax,%eax,1)
c01070b8:	00 3c 42             	add    %bh,(%edx,%eax,2)
c01070bb:	42                   	inc    %edx
c01070bc:	42                   	inc    %edx
c01070bd:	42                   	inc    %edx
c01070be:	42                   	inc    %edx
c01070bf:	42                   	inc    %edx
c01070c0:	3c 00                	cmp    $0x0,%al
c01070c2:	00 00                	add    %al,(%eax)
c01070c4:	00 0c 30             	add    %cl,(%eax,%esi,1)
c01070c7:	00 00                	add    %al,(%eax)
c01070c9:	3c 42                	cmp    $0x42,%al
c01070cb:	42                   	inc    %edx
c01070cc:	42                   	inc    %edx
c01070cd:	42                   	inc    %edx
c01070ce:	42                   	inc    %edx
c01070cf:	42                   	inc    %edx
c01070d0:	3c 00                	cmp    $0x0,%al
c01070d2:	00 00                	add    %al,(%eax)
c01070d4:	00 18                	add    %bl,(%eax)
c01070d6:	24 00                	and    $0x0,%al
c01070d8:	00 3c 42             	add    %bh,(%edx,%eax,2)
c01070db:	42                   	inc    %edx
c01070dc:	42                   	inc    %edx
c01070dd:	42                   	inc    %edx
c01070de:	42                   	inc    %edx
c01070df:	42                   	inc    %edx
c01070e0:	3c 00                	cmp    $0x0,%al
c01070e2:	00 00                	add    %al,(%eax)
c01070e4:	00 32                	add    %dh,(%edx)
c01070e6:	4c                   	dec    %esp
c01070e7:	00 00                	add    %al,(%eax)
c01070e9:	3c 42                	cmp    $0x42,%al
c01070eb:	42                   	inc    %edx
c01070ec:	42                   	inc    %edx
c01070ed:	42                   	inc    %edx
c01070ee:	42                   	inc    %edx
c01070ef:	42                   	inc    %edx
c01070f0:	3c 00                	cmp    $0x0,%al
c01070f2:	00 00                	add    %al,(%eax)
c01070f4:	00 24 24             	add    %ah,(%esp)
c01070f7:	00 00                	add    %al,(%eax)
c01070f9:	3c 42                	cmp    $0x42,%al
c01070fb:	42                   	inc    %edx
c01070fc:	42                   	inc    %edx
c01070fd:	42                   	inc    %edx
c01070fe:	42                   	inc    %edx
c01070ff:	42                   	inc    %edx
c0107100:	3c 00                	cmp    $0x0,%al
c0107102:	00 00                	add    %al,(%eax)
c0107104:	00 00                	add    %al,(%eax)
c0107106:	00 00                	add    %al,(%eax)
c0107108:	10 10                	adc    %dl,(%eax)
c010710a:	00 00                	add    %al,(%eax)
c010710c:	7c 00                	jl     c010710e <_binary_font_psf_start+0xf7e>
c010710e:	00 10                	add    %dl,(%eax)
c0107110:	10 00                	adc    %al,(%eax)
c0107112:	00 00                	add    %al,(%eax)
c0107114:	00 00                	add    %al,(%eax)
c0107116:	00 00                	add    %al,(%eax)
c0107118:	02 3c 46             	add    (%esi,%eax,2),%bh
c010711b:	4a                   	dec    %edx
c010711c:	4a                   	dec    %edx
c010711d:	52                   	push   %edx
c010711e:	52                   	push   %edx
c010711f:	62 3c 40             	bound  %edi,(%eax,%eax,2)
c0107122:	00 00                	add    %al,(%eax)
c0107124:	00 30                	add    %dh,(%eax)
c0107126:	0c 00                	or     $0x0,%al
c0107128:	00 42 42             	add    %al,0x42(%edx)
c010712b:	42                   	inc    %edx
c010712c:	42                   	inc    %edx
c010712d:	42                   	inc    %edx
c010712e:	42                   	inc    %edx
c010712f:	46                   	inc    %esi
c0107130:	3a 00                	cmp    (%eax),%al
c0107132:	00 00                	add    %al,(%eax)
c0107134:	00 0c 30             	add    %cl,(%eax,%esi,1)
c0107137:	00 00                	add    %al,(%eax)
c0107139:	42                   	inc    %edx
c010713a:	42                   	inc    %edx
c010713b:	42                   	inc    %edx
c010713c:	42                   	inc    %edx
c010713d:	42                   	inc    %edx
c010713e:	42                   	inc    %edx
c010713f:	46                   	inc    %esi
c0107140:	3a 00                	cmp    (%eax),%al
c0107142:	00 00                	add    %al,(%eax)
c0107144:	00 18                	add    %bl,(%eax)
c0107146:	24 00                	and    $0x0,%al
c0107148:	00 42 42             	add    %al,0x42(%edx)
c010714b:	42                   	inc    %edx
c010714c:	42                   	inc    %edx
c010714d:	42                   	inc    %edx
c010714e:	42                   	inc    %edx
c010714f:	46                   	inc    %esi
c0107150:	3a 00                	cmp    (%eax),%al
c0107152:	00 00                	add    %al,(%eax)
c0107154:	00 24 24             	add    %ah,(%esp)
c0107157:	00 00                	add    %al,(%eax)
c0107159:	42                   	inc    %edx
c010715a:	42                   	inc    %edx
c010715b:	42                   	inc    %edx
c010715c:	42                   	inc    %edx
c010715d:	42                   	inc    %edx
c010715e:	42                   	inc    %edx
c010715f:	46                   	inc    %esi
c0107160:	3a 00                	cmp    (%eax),%al
c0107162:	00 00                	add    %al,(%eax)
c0107164:	00 0c 30             	add    %cl,(%eax,%esi,1)
c0107167:	00 00                	add    %al,(%eax)
c0107169:	42                   	inc    %edx
c010716a:	42                   	inc    %edx
c010716b:	42                   	inc    %edx
c010716c:	42                   	inc    %edx
c010716d:	42                   	inc    %edx
c010716e:	46                   	inc    %esi
c010716f:	3a 02                	cmp    (%edx),%al
c0107171:	02 42 3c             	add    0x3c(%edx),%al
c0107174:	00 00                	add    %al,(%eax)
c0107176:	40                   	inc    %eax
c0107177:	40                   	inc    %eax
c0107178:	40                   	inc    %eax
c0107179:	5c                   	pop    %esp
c010717a:	62 42 42             	bound  %eax,0x42(%edx)
c010717d:	42                   	inc    %edx
c010717e:	42                   	inc    %edx
c010717f:	62 5c 40 40          	bound  %ebx,0x40(%eax,%eax,2)
c0107183:	40                   	inc    %eax
c0107184:	00 24 24             	add    %ah,(%esp)
c0107187:	00 00                	add    %al,(%eax)
c0107189:	42                   	inc    %edx
c010718a:	42                   	inc    %edx
c010718b:	42                   	inc    %edx
c010718c:	42                   	inc    %edx
c010718d:	42                   	inc    %edx
c010718e:	46                   	inc    %esi
c010718f:	3a 02                	cmp    (%edx),%al
c0107191:	02 42 3c             	add    0x3c(%edx),%al
c0107194:	fd                   	std
c0107195:	ff                   	(bad)
c0107196:	ff                   	(bad)
c0107197:	ff c0                	inc    %eax
c0107199:	03 ff                	add    %edi,%edi
c010719b:	ff 60 22             	jmp    *0x22(%eax)
c010719e:	ff                   	(bad)
c010719f:	ff 64 22 ff          	jmp    *-0x1(%edx,%eiz,1)
c01071a3:	ff 65 22             	jmp    *0x22(%ebp)
c01071a6:	ff                   	(bad)
c01071a7:	ff a0 25 ac 25 ae    	jmp    *-0x51da53db(%eax)
c01071ad:	25 fc 25 fe 25       	and    $0x25fe25fc,%eax
c01071b2:	1b 2b                	sbb    (%ebx),%ebp
c01071b4:	0e                   	push   %cs
c01071b5:	22 ff                	and    %bh,%bh
c01071b7:	ff c6                	inc    %esi
c01071b9:	25 66 26 25 2b       	and    $0x2b252666,%eax
c01071be:	27                   	daa
c01071bf:	2b ff                	sub    %edi,%edi
c01071c1:	ff                   	(bad)
c01071c2:	bc 00 ff ff bd       	mov    $0xbdffff00,%esp
c01071c7:	00 ff                	add    %bh,%bh
c01071c9:	ff                   	(bad)
c01071ca:	be 00 ff ff a6       	mov    $0xa6ffff00,%esi
c01071cf:	00 ff                	add    %bh,%bh
c01071d1:	ff a8 00 ff ff b8    	ljmp   *-0x47000100(%eax)
c01071d7:	00 ff                	add    %bh,%bh
c01071d9:	ff 92 01 ff ff 20    	call   *0x20ffff01(%edx)
c01071df:	20 ff                	and    %bh,%bh
c01071e1:	ff 21                	jmp    *(%ecx)
c01071e3:	20 ff                	and    %bh,%bh
c01071e5:	ff 30                	push   (%eax)
c01071e7:	20 ff                	and    %bh,%bh
c01071e9:	ff 22                	jmp    *(%edx)
c01071eb:	21 ff                	and    %edi,%edi
c01071ed:	ff 26                	jmp    *(%esi)
c01071ef:	20 ff                	and    %bh,%bh
c01071f1:	ff                   	(bad)
c01071f2:	39 20                	cmp    %esp,(%eax)
c01071f4:	ff                   	(bad)
c01071f5:	ff                   	(bad)
c01071f6:	3a 20                	cmp    (%eax),%ah
c01071f8:	ff                   	(bad)
c01071f9:	ff 1c 20             	lcall  *(%eax,%eiz,1)
c01071fc:	1f                   	pop    %ds
c01071fd:	20 36                	and    %dh,(%esi)
c01071ff:	20 ff                	and    %bh,%bh
c0107201:	ff 1d 20 ba 02 dd    	lcall  *0xdd02ba20
c0107207:	02 ee                	add    %dh,%ch
c0107209:	02 33                	add    (%ebx),%dh
c010720b:	20 ff                	and    %bh,%bh
c010720d:	ff 1e                	lcall  *(%esi)
c010720f:	20 ff                	and    %bh,%bh
c0107211:	ff 42 2e             	incl   0x2e(%edx)
c0107214:	ff                   	(bad)
c0107215:	ff 41 2e             	incl   0x2e(%ecx)
c0107218:	ce                   	into
c0107219:	02 ff                	add    %bh,%bh
c010721b:	ff 1e                	lcall  *(%esi)
c010721d:	01 ff                	add    %edi,%edi
c010721f:	ff 1f                	lcall  *(%edi)
c0107221:	01 ff                	add    %edi,%edi
c0107223:	ff 30                	push   (%eax)
c0107225:	01 ff                	add    %edi,%edi
c0107227:	ff 31                	push   (%ecx)
c0107229:	01 ff                	add    %edi,%edi
c010722b:	ff 5e 01             	lcall  *0x1(%esi)
c010722e:	ff                   	(bad)
c010722f:	ff 5f 01             	lcall  *0x1(%edi)
c0107232:	ff                   	(bad)
c0107233:	ff 20                	jmp    *(%eax)
c0107235:	00 a0 00 00 20 01    	add    %ah,0x1200000(%eax)
c010723b:	20 02                	and    %al,(%edx)
c010723d:	20 03                	and    %al,(%ebx)
c010723f:	20 04 20             	and    %al,(%eax,%eiz,1)
c0107242:	05 20 06 20 07       	add    $0x7200620,%eax
c0107247:	20 08                	and    %cl,(%eax)
c0107249:	20 09                	and    %cl,(%ecx)
c010724b:	20 0a                	and    %cl,(%edx)
c010724d:	20 2f                	and    %ch,(%edi)
c010724f:	20 5f 20             	and    %bl,0x20(%edi)
c0107252:	ff                   	(bad)
c0107253:	ff 21                	jmp    *(%ecx)
c0107255:	00 ff                	add    %bh,%bh
c0107257:	ff 22                	jmp    *(%edx)
c0107259:	00 ff                	add    %bh,%bh
c010725b:	ff 23                	jmp    *(%ebx)
c010725d:	00 ff                	add    %bh,%bh
c010725f:	ff 24 00             	jmp    *(%eax,%eax,1)
c0107262:	ff                   	(bad)
c0107263:	ff 25 00 ff ff 26    	jmp    *0x26ffff00
c0107269:	00 ff                	add    %bh,%bh
c010726b:	ff 27                	jmp    *(%edi)
c010726d:	00 b4 00 b9 02 bc 02 	add    %dh,0x2bc02b9(%eax,%eax,1)
c0107274:	ca 02 19             	lret   $0x1902
c0107277:	20 32                	and    %dh,(%edx)
c0107279:	20 ff                	and    %bh,%bh
c010727b:	ff 28                	ljmp   *(%eax)
c010727d:	00 ff                	add    %bh,%bh
c010727f:	ff 29                	ljmp   *(%ecx)
c0107281:	00 ff                	add    %bh,%bh
c0107283:	ff 2a                	ljmp   *(%edx)
c0107285:	00 4e 20             	add    %cl,0x20(%esi)
c0107288:	17                   	pop    %ss
c0107289:	22 ff                	and    %bh,%bh
c010728b:	ff 2b                	ljmp   *(%ebx)
c010728d:	00 ff                	add    %bh,%bh
c010728f:	ff 2c 00             	ljmp   *(%eax,%eax,1)
c0107292:	cf                   	iret
c0107293:	02 1a                	add    (%edx),%bl
c0107295:	20 ff                	and    %bh,%bh
c0107297:	ff 2d 00 ad 00 10    	ljmp   *0x1000ad00
c010729d:	20 11                	and    %dl,(%ecx)
c010729f:	20 12                	and    %dl,(%edx)
c01072a1:	20 13                	and    %dl,(%ebx)
c01072a3:	20 43 20             	and    %al,0x20(%ebx)
c01072a6:	12 22                	adc    (%edx),%ah
c01072a8:	ff                   	(bad)
c01072a9:	ff 2e                	ljmp   *(%esi)
c01072ab:	00 24 20             	add    %ah,(%eax,%eiz,1)
c01072ae:	ff                   	(bad)
c01072af:	ff 2f                	ljmp   *(%edi)
c01072b1:	00 44 20 15          	add    %al,0x15(%eax,%eiz,1)
c01072b5:	22 ff                	and    %bh,%bh
c01072b7:	ff 30                	push   (%eax)
c01072b9:	00 ff                	add    %bh,%bh
c01072bb:	ff 31                	push   (%ecx)
c01072bd:	00 ff                	add    %bh,%bh
c01072bf:	ff 32                	push   (%edx)
c01072c1:	00 ff                	add    %bh,%bh
c01072c3:	ff 33                	push   (%ebx)
c01072c5:	00 ff                	add    %bh,%bh
c01072c7:	ff 34 00             	push   (%eax,%eax,1)
c01072ca:	ff                   	(bad)
c01072cb:	ff 35 00 ff ff 36    	push   0x36ffff00
c01072d1:	00 ff                	add    %bh,%bh
c01072d3:	ff 37                	push   (%edi)
c01072d5:	00 ff                	add    %bh,%bh
c01072d7:	ff                   	(bad)
c01072d8:	38 00                	cmp    %al,(%eax)
c01072da:	ff                   	(bad)
c01072db:	ff                   	(bad)
c01072dc:	39 00                	cmp    %eax,(%eax)
c01072de:	ff                   	(bad)
c01072df:	ff                   	(bad)
c01072e0:	3a 00                	cmp    (%eax),%al
c01072e2:	36 22 ff             	ss and %bh,%bh
c01072e5:	ff                   	(bad)
c01072e6:	3b 00                	cmp    (%eax),%eax
c01072e8:	ff                   	(bad)
c01072e9:	ff                   	(bad)
c01072ea:	3c 00                	cmp    $0x0,%al
c01072ec:	ff                   	(bad)
c01072ed:	ff                   	(bad)
c01072ee:	3d 00 40 2e ff       	cmp    $0xff2e4000,%eax
c01072f3:	ff                   	(bad)
c01072f4:	3e 00 ff             	ds add %bh,%bh
c01072f7:	ff                   	(bad)
c01072f8:	3f                   	aas
c01072f9:	00 ff                	add    %bh,%bh
c01072fb:	ff 40 00             	incl   0x0(%eax)
c01072fe:	ff                   	(bad)
c01072ff:	ff 41 00             	incl   0x0(%ecx)
c0107302:	ff                   	(bad)
c0107303:	ff 42 00             	incl   0x0(%edx)
c0107306:	ff                   	(bad)
c0107307:	ff 43 00             	incl   0x0(%ebx)
c010730a:	ff                   	(bad)
c010730b:	ff 44 00 ff          	incl   -0x1(%eax,%eax,1)
c010730f:	ff 45 00             	incl   0x0(%ebp)
c0107312:	ff                   	(bad)
c0107313:	ff 46 00             	incl   0x0(%esi)
c0107316:	ff                   	(bad)
c0107317:	ff 47 00             	incl   0x0(%edi)
c010731a:	ff                   	(bad)
c010731b:	ff 48 00             	decl   0x0(%eax)
c010731e:	ff                   	(bad)
c010731f:	ff 49 00             	decl   0x0(%ecx)
c0107322:	ff                   	(bad)
c0107323:	ff 4a 00             	decl   0x0(%edx)
c0107326:	ff                   	(bad)
c0107327:	ff 4b 00             	decl   0x0(%ebx)
c010732a:	2a 21                	sub    (%ecx),%ah
c010732c:	ff                   	(bad)
c010732d:	ff 4c 00 ff          	decl   -0x1(%eax,%eax,1)
c0107331:	ff 4d 00             	decl   0x0(%ebp)
c0107334:	ff                   	(bad)
c0107335:	ff 4e 00             	decl   0x0(%esi)
c0107338:	ff                   	(bad)
c0107339:	ff 4f 00             	decl   0x0(%edi)
c010733c:	ff                   	(bad)
c010733d:	ff 50 00             	call   *0x0(%eax)
c0107340:	ff                   	(bad)
c0107341:	ff 51 00             	call   *0x0(%ecx)
c0107344:	ff                   	(bad)
c0107345:	ff 52 00             	call   *0x0(%edx)
c0107348:	ff                   	(bad)
c0107349:	ff 53 00             	call   *0x0(%ebx)
c010734c:	ff                   	(bad)
c010734d:	ff 54 00 ff          	call   *-0x1(%eax,%eax,1)
c0107351:	ff 55 00             	call   *0x0(%ebp)
c0107354:	ff                   	(bad)
c0107355:	ff 56 00             	call   *0x0(%esi)
c0107358:	ff                   	(bad)
c0107359:	ff 57 00             	call   *0x0(%edi)
c010735c:	ff                   	(bad)
c010735d:	ff 58 00             	lcall  *0x0(%eax)
c0107360:	ff                   	(bad)
c0107361:	ff 59 00             	lcall  *0x0(%ecx)
c0107364:	ff                   	(bad)
c0107365:	ff 5a 00             	lcall  *0x0(%edx)
c0107368:	ff                   	(bad)
c0107369:	ff 5b 00             	lcall  *0x0(%ebx)
c010736c:	ff                   	(bad)
c010736d:	ff 5c 00 f5          	lcall  *-0xb(%eax,%eax,1)
c0107371:	29 ff                	sub    %edi,%edi
c0107373:	ff 5d 00             	lcall  *0x0(%ebp)
c0107376:	ff                   	(bad)
c0107377:	ff 5e 00             	lcall  *0x0(%esi)
c010737a:	c4 02                	les    (%edx),%eax
c010737c:	c6 02 03             	movb   $0x3,(%edx)
c010737f:	23 ff                	and    %edi,%edi
c0107381:	ff 5f 00             	lcall  *0x0(%edi)
c0107384:	ff                   	(bad)
c0107385:	ff 60 00             	jmp    *0x0(%eax)
c0107388:	bb 02 bd 02 cb       	mov    $0xcb02bd02,%ebx
c010738d:	02 18                	add    (%eax),%bl
c010738f:	20 1b                	and    %bl,(%ebx)
c0107391:	20 35 20 ff ff 61    	and    %dh,0x61ffff20
c0107397:	00 ff                	add    %bh,%bh
c0107399:	ff 62 00             	jmp    *0x0(%edx)
c010739c:	ff                   	(bad)
c010739d:	ff 63 00             	jmp    *0x0(%ebx)
c01073a0:	ff                   	(bad)
c01073a1:	ff 64 00 ff          	jmp    *-0x1(%eax,%eax,1)
c01073a5:	ff 65 00             	jmp    *0x0(%ebp)
c01073a8:	ff                   	(bad)
c01073a9:	ff 66 00             	jmp    *0x0(%esi)
c01073ac:	ff                   	(bad)
c01073ad:	ff 67 00             	jmp    *0x0(%edi)
c01073b0:	ff                   	(bad)
c01073b1:	ff 68 00             	ljmp   *0x0(%eax)
c01073b4:	ff                   	(bad)
c01073b5:	ff 69 00             	ljmp   *0x0(%ecx)
c01073b8:	ff                   	(bad)
c01073b9:	ff 6a 00             	ljmp   *0x0(%edx)
c01073bc:	ff                   	(bad)
c01073bd:	ff 6b 00             	ljmp   *0x0(%ebx)
c01073c0:	ff                   	(bad)
c01073c1:	ff 6c 00 ff          	ljmp   *-0x1(%eax,%eax,1)
c01073c5:	ff 6d 00             	ljmp   *0x0(%ebp)
c01073c8:	ff                   	(bad)
c01073c9:	ff 6e 00             	ljmp   *0x0(%esi)
c01073cc:	ff                   	(bad)
c01073cd:	ff 6f 00             	ljmp   *0x0(%edi)
c01073d0:	ff                   	(bad)
c01073d1:	ff 70 00             	push   0x0(%eax)
c01073d4:	ff                   	(bad)
c01073d5:	ff 71 00             	push   0x0(%ecx)
c01073d8:	ff                   	(bad)
c01073d9:	ff 72 00             	push   0x0(%edx)
c01073dc:	ff                   	(bad)
c01073dd:	ff 73 00             	push   0x0(%ebx)
c01073e0:	ff                   	(bad)
c01073e1:	ff 74 00 ff          	push   -0x1(%eax,%eax,1)
c01073e5:	ff 75 00             	push   0x0(%ebp)
c01073e8:	ff                   	(bad)
c01073e9:	ff 76 00             	push   0x0(%esi)
c01073ec:	ff                   	(bad)
c01073ed:	ff 77 00             	push   0x0(%edi)
c01073f0:	ff                   	(bad)
c01073f1:	ff                   	(bad)
c01073f2:	78 00                	js     c01073f4 <_binary_font_psf_start+0x1264>
c01073f4:	ff                   	(bad)
c01073f5:	ff                   	(bad)
c01073f6:	79 00                	jns    c01073f8 <_binary_font_psf_start+0x1268>
c01073f8:	ff                   	(bad)
c01073f9:	ff                   	(bad)
c01073fa:	7a 00                	jp     c01073fc <_binary_font_psf_start+0x126c>
c01073fc:	ff                   	(bad)
c01073fd:	ff                   	(bad)
c01073fe:	7b 00                	jnp    c0107400 <_binary_font_psf_start+0x1270>
c0107400:	ff                   	(bad)
c0107401:	ff                   	(bad)
c0107402:	7c 00                	jl     c0107404 <_binary_font_psf_start+0x1274>
c0107404:	23 22                	and    (%edx),%esp
c0107406:	ff                   	(bad)
c0107407:	ff                   	(bad)
c0107408:	7d 00                	jge    c010740a <_binary_font_psf_start+0x127a>
c010740a:	ff                   	(bad)
c010740b:	ff                   	(bad)
c010740c:	7e 00                	jle    c010740e <_binary_font_psf_start+0x127e>
c010740e:	dc 02                	faddl  (%edx)
c0107410:	ff                   	(bad)
c0107411:	ff 22                	jmp    *(%edx)
c0107413:	20 19                	and    %bl,(%ecx)
c0107415:	22 cf                	and    %bh,%cl
c0107417:	25 ff ff c0 00       	and    $0xc0ffff,%eax
c010741c:	ff                   	(bad)
c010741d:	ff c1                	inc    %ecx
c010741f:	00 ff                	add    %bh,%bh
c0107421:	ff c2                	inc    %edx
c0107423:	00 ff                	add    %bh,%bh
c0107425:	ff c3                	inc    %ebx
c0107427:	00 ff                	add    %bh,%bh
c0107429:	ff c4                	inc    %esp
c010742b:	00 ff                	add    %bh,%bh
c010742d:	ff c5                	inc    %ebp
c010742f:	00 2b                	add    %ch,(%ebx)
c0107431:	21 ff                	and    %edi,%edi
c0107433:	ff c6                	inc    %esi
c0107435:	00 ff                	add    %bh,%bh
c0107437:	ff c7                	inc    %edi
c0107439:	00 ff                	add    %bh,%bh
c010743b:	ff c8                	dec    %eax
c010743d:	00 ff                	add    %bh,%bh
c010743f:	ff c9                	dec    %ecx
c0107441:	00 ff                	add    %bh,%bh
c0107443:	ff ca                	dec    %edx
c0107445:	00 ff                	add    %bh,%bh
c0107447:	ff cb                	dec    %ebx
c0107449:	00 ff                	add    %bh,%bh
c010744b:	ff cc                	dec    %esp
c010744d:	00 ff                	add    %bh,%bh
c010744f:	ff cd                	dec    %ebp
c0107451:	00 ff                	add    %bh,%bh
c0107453:	ff ce                	dec    %esi
c0107455:	00 ff                	add    %bh,%bh
c0107457:	ff cf                	dec    %edi
c0107459:	00 ff                	add    %bh,%bh
c010745b:	ff d0                	call   *%eax
c010745d:	00 10                	add    %dl,(%eax)
c010745f:	01 ff                	add    %edi,%edi
c0107461:	ff d1                	call   *%ecx
c0107463:	00 ff                	add    %bh,%bh
c0107465:	ff d2                	call   *%edx
c0107467:	00 ff                	add    %bh,%bh
c0107469:	ff d3                	call   *%ebx
c010746b:	00 ff                	add    %bh,%bh
c010746d:	ff d4                	call   *%esp
c010746f:	00 ff                	add    %bh,%bh
c0107471:	ff d5                	call   *%ebp
c0107473:	00 ff                	add    %bh,%bh
c0107475:	ff d6                	call   *%esi
c0107477:	00 ff                	add    %bh,%bh
c0107479:	ff d7                	call   *%edi
c010747b:	00 ff                	add    %bh,%bh
c010747d:	ff                   	lcall  (bad)
c010747e:	d8 00                	fadds  (%eax)
c0107480:	ff                   	(bad)
c0107481:	ff                   	lcall  (bad)
c0107482:	d9 00                	flds   (%eax)
c0107484:	ff                   	(bad)
c0107485:	ff                   	lcall  (bad)
c0107486:	da 00                	fiaddl (%eax)
c0107488:	ff                   	(bad)
c0107489:	ff                   	lcall  (bad)
c010748a:	db 00                	fildl  (%eax)
c010748c:	ff                   	(bad)
c010748d:	ff                   	lcall  (bad)
c010748e:	dc 00                	faddl  (%eax)
c0107490:	ff                   	(bad)
c0107491:	ff                   	lcall  (bad)
c0107492:	dd 00                	fldl   (%eax)
c0107494:	ff                   	(bad)
c0107495:	ff                   	lcall  (bad)
c0107496:	de 00                	fiadds (%eax)
c0107498:	ff                   	(bad)
c0107499:	ff                   	lcall  (bad)
c010749a:	df 00                	filds  (%eax)
c010749c:	ff                   	(bad)
c010749d:	ff 92 25 ff ff a1    	call   *-0x5e0000db(%edx)
c01074a3:	00 ff                	add    %bh,%bh
c01074a5:	ff a2 00 ff ff a3    	jmp    *-0x5c000100(%edx)
c01074ab:	00 ff                	add    %bh,%bh
c01074ad:	ff ac 20 ff ff a5 00 	ljmp   *0xa5ffff(%eax,%eiz,1)
c01074b4:	ff                   	(bad)
c01074b5:	ff 60 01             	jmp    *0x1(%eax)
c01074b8:	ff                   	(bad)
c01074b9:	ff a7 00 ff ff 61    	jmp    *0x61ffff00(%edi)
c01074bf:	01 ff                	add    %edi,%edi
c01074c1:	ff a9 00 ff ff aa    	ljmp   *-0x55000100(%ecx)
c01074c7:	00 ff                	add    %bh,%bh
c01074c9:	ff ab 00 ff ff ac    	ljmp   *-0x53000100(%ebx)
c01074cf:	00 ff                	add    %bh,%bh
c01074d1:	ff a4 00 ff ff ae 00 	jmp    *0xaeffff(%eax,%eax,1)
c01074d8:	ff                   	(bad)
c01074d9:	ff af 00 c9 02 ff    	ljmp   *-0xfd3700(%edi)
c01074df:	ff b0 00 da 02 ff    	push   -0xfd2600(%eax)
c01074e5:	ff b1 00 ff ff b2    	push   -0x4d000100(%ecx)
c01074eb:	00 ff                	add    %bh,%bh
c01074ed:	ff b3 00 ff ff 7d    	push   0x7dffff00(%ebx)
c01074f3:	01 ff                	add    %edi,%edi
c01074f5:	ff b5 00 bc 03 ff    	push   -0xfc4400(%ebp)
c01074fb:	ff b6 00 ff ff b7    	push   -0x48000100(%esi)
c0107501:	00 27                	add    %ah,(%edi)
c0107503:	20 c5                	and    %al,%ch
c0107505:	22 31                	and    (%ecx),%dh
c0107507:	2e ff                	cs (bad)
c0107509:	ff                   	(bad)
c010750a:	7e 01                	jle    c010750d <_binary_font_psf_start+0x137d>
c010750c:	ff                   	(bad)
c010750d:	ff                   	(bad)
c010750e:	b9 00 ff ff ba       	mov    $0xbaffff00,%ecx
c0107513:	00 ff                	add    %bh,%bh
c0107515:	ff                   	(bad)
c0107516:	bb 00 ff ff 52       	mov    $0x52ffff00,%ebx
c010751b:	01 ff                	add    %edi,%edi
c010751d:	ff 53 01             	call   *0x1(%ebx)
c0107520:	ff                   	(bad)
c0107521:	ff                   	(bad)
c0107522:	78 01                	js     c0107525 <_binary_font_psf_start+0x1395>
c0107524:	ff                   	(bad)
c0107525:	ff                   	(bad)
c0107526:	bf 00 ff ff 00       	mov    $0xffff00,%edi
c010752b:	25 14 20 15 20       	and    $0x20152014,%eax
c0107530:	af                   	scas   %es:(%edi),%eax
c0107531:	23 ff                	and    %edi,%edi
c0107533:	ff 02                	incl   (%edx)
c0107535:	25 ff ff 0c 25       	and    $0x250cffff,%eax
c010753a:	6d                   	insl   (%dx),%es:(%edi)
c010753b:	25 ff ff 10 25       	and    $0x2510ffff,%eax
c0107540:	6e                   	outsb  %ds:(%esi),(%dx)
c0107541:	25 ff ff 14 25       	and    $0x2514ffff,%eax
c0107546:	70 25                	jo     c010756d <_binary_font_psf_start+0x13dd>
c0107548:	ff                   	(bad)
c0107549:	ff 18                	lcall  *(%eax)
c010754b:	25 6f 25 ff ff       	and    $0xffff256f,%eax
c0107550:	1c 25                	sbb    $0x25,%al
c0107552:	ff                   	(bad)
c0107553:	ff 24 25 ff ff 2c 25 	jmp    *0x252cffff(,%eiz,1)
c010755a:	ff                   	(bad)
c010755b:	ff 34 25 ff ff 3c 25 	push   0x253cffff(,%eiz,1)
c0107562:	ff                   	(bad)
c0107563:	ff 91 25 ff ff ba    	call   *-0x450000db(%ecx)
c0107569:	23 3e                	and    (%esi),%edi
c010756b:	20 ff                	and    %bh,%bh
c010756d:	ff                   	(bad)
c010756e:	bb 23 ff ff bc       	mov    $0xbcffff23,%ebx
c0107573:	23 ff                	and    %edi,%edi
c0107575:	ff                   	(bad)
c0107576:	bd 23 ff ff 50       	mov    $0x50ffff23,%ebp
c010757b:	25 01 25 ff ff       	and    $0xffff2501,%eax
c0107580:	51                   	push   %ecx
c0107581:	25 03 25 ff ff       	and    $0xffff2503,%eax
c0107586:	54                   	push   %esp
c0107587:	25 0f 25 ff ff       	and    $0xffff250f,%eax
c010758c:	57                   	push   %edi
c010758d:	25 13 25 ff ff       	and    $0xffff2513,%eax
c0107592:	5a                   	pop    %edx
c0107593:	25 17 25 ff ff       	and    $0xffff2517,%eax
c0107598:	5d                   	pop    %ebp
c0107599:	25 1b 25 ff ff       	and    $0xffff251b,%eax
c010759e:	60                   	pusha
c010759f:	25 23 25 ff ff       	and    $0xffff2523,%eax
c01075a4:	63 25 2b 25 ff ff    	arpl   %esp,0xffff252b
c01075aa:	66 25 33 25          	and    $0x2533,%ax
c01075ae:	ff                   	(bad)
c01075af:	ff 69 25             	ljmp   *0x25(%ecx)
c01075b2:	3b 25 ff ff 6c 25    	cmp    0x256cffff,%esp
c01075b8:	4b                   	dec    %ebx
c01075b9:	25 ff ff 88 25       	and    $0x2588ffff,%eax
c01075be:	ff                   	(bad)
c01075bf:	ff 91 21 ff ff 93    	call   *-0x6c0000df(%ecx)
c01075c5:	21 ff                	and    %edi,%edi
c01075c7:	ff 90 21 ff ff 92    	call   *-0x6d0000df(%eax)
c01075cd:	21 ff                	and    %edi,%edi
c01075cf:	ff e0                	jmp    *%eax
c01075d1:	00 ff                	add    %bh,%bh
c01075d3:	ff e1                	jmp    *%ecx
c01075d5:	00 ff                	add    %bh,%bh
c01075d7:	ff e2                	jmp    *%edx
c01075d9:	00 ff                	add    %bh,%bh
c01075db:	ff e3                	jmp    *%ebx
c01075dd:	00 ff                	add    %bh,%bh
c01075df:	ff e4                	jmp    *%esp
c01075e1:	00 ff                	add    %bh,%bh
c01075e3:	ff e5                	jmp    *%ebp
c01075e5:	00 ff                	add    %bh,%bh
c01075e7:	ff e6                	jmp    *%esi
c01075e9:	00 ff                	add    %bh,%bh
c01075eb:	ff e7                	jmp    *%edi
c01075ed:	00 ff                	add    %bh,%bh
c01075ef:	ff                   	ljmp   (bad)
c01075f0:	e8 00 ff ff e9       	call   aa1074f5 <_start+0xaa0074c5>
c01075f5:	00 ff                	add    %bh,%bh
c01075f7:	ff                   	ljmp   (bad)
c01075f8:	ea 00 ff ff eb 00 ff 	ljmp   $0xff00,$0xebffff00
c01075ff:	ff                   	ljmp   (bad)
c0107600:	ec                   	in     (%dx),%al
c0107601:	00 ff                	add    %bh,%bh
c0107603:	ff                   	ljmp   (bad)
c0107604:	ed                   	in     (%dx),%eax
c0107605:	00 ff                	add    %bh,%bh
c0107607:	ff                   	ljmp   (bad)
c0107608:	ee                   	out    %al,(%dx)
c0107609:	00 ff                	add    %bh,%bh
c010760b:	ff                   	ljmp   (bad)
c010760c:	ef                   	out    %eax,(%dx)
c010760d:	00 ff                	add    %bh,%bh
c010760f:	ff f0                	push   %eax
c0107611:	00 ff                	add    %bh,%bh
c0107613:	ff f1                	push   %ecx
c0107615:	00 ff                	add    %bh,%bh
c0107617:	ff f2                	push   %edx
c0107619:	00 ff                	add    %bh,%bh
c010761b:	ff f3                	push   %ebx
c010761d:	00 ff                	add    %bh,%bh
c010761f:	ff f4                	push   %esp
c0107621:	00 ff                	add    %bh,%bh
c0107623:	ff f5                	push   %ebp
c0107625:	00 ff                	add    %bh,%bh
c0107627:	ff f6                	push   %esi
c0107629:	00 ff                	add    %bh,%bh
c010762b:	ff f7                	push   %edi
c010762d:	00 ff                	add    %bh,%bh
c010762f:	ff                   	(bad)
c0107630:	f8                   	clc
c0107631:	00 ff                	add    %bh,%bh
c0107633:	ff                   	(bad)
c0107634:	f9                   	stc
c0107635:	00 ff                	add    %bh,%bh
c0107637:	ff                   	(bad)
c0107638:	fa                   	cli
c0107639:	00 ff                	add    %bh,%bh
c010763b:	ff                   	(bad)
c010763c:	fb                   	sti
c010763d:	00 ff                	add    %bh,%bh
c010763f:	ff                   	(bad)
c0107640:	fc                   	cld
c0107641:	00 ff                	add    %bh,%bh
c0107643:	ff                   	(bad)
c0107644:	fd                   	std
c0107645:	00 ff                	add    %bh,%bh
c0107647:	ff                   	(bad)
c0107648:	fe 00                	incb   (%eax)
c010764a:	ff                   	(bad)
c010764b:	ff                   	(bad)
c010764c:	ff 00                	incl   (%eax)
c010764e:	ff                   	(bad)
c010764f:	ff                   	.byte 0xff

Disassembly of section .comment:

00000000 <.comment>:
   0:	47                   	inc    %edi
   1:	43                   	inc    %ebx
   2:	43                   	inc    %ebx
   3:	3a 20                	cmp    (%eax),%ah
   5:	28 47 4e             	sub    %al,0x4e(%edi)
   8:	55                   	push   %ebp
   9:	29 20                	sub    %esp,(%eax)
   b:	31 34 2e             	xor    %esi,(%esi,%ebp,1)
   e:	32 2e                	xor    (%esi),%ch
  10:	30 00                	xor    %al,(%eax)
