
isodir/boot/word.bin:     file format elf32-i386
isodir/boot/word.bin
architecture: i386, flags 0x00000112:
EXEC_P, HAS_SYMS, D_PAGED
start address 0x00100030

Program Header:
    LOAD off    0x00001000 vaddr 0x00100000 paddr 0x00100000 align 2**12
         filesz 0x000000a5 memsz 0x000000a5 flags rw-
    LOAD off    0x00002000 vaddr 0xc0101000 paddr 0x00101000 align 2**12
         filesz 0x00006d6b memsz 0x00006d6b flags r-x
    LOAD off    0x00009000 vaddr 0xc0108000 paddr 0x00108000 align 2**12
         filesz 0x0000164c memsz 0x000080d4 flags rw-

Sections:
Idx Name          Size      VMA       LMA       File off  Algn
  0 .mb2_hdr      00000030  00100000  00100000  00001000  2**3
                  CONTENTS, ALLOC, LOAD, DATA
  1 .multiboot.text 00000075  00100030  00100030  00001030  2**0
                  CONTENTS, ALLOC, LOAD, READONLY, DATA
  2 .text         000053de  c0101000  00101000  00002000  2**0
                  CONTENTS, ALLOC, LOAD, READONLY, CODE
  3 .rodata       00000d6b  c0107000  00107000  00008000  2**2
                  CONTENTS, ALLOC, LOAD, READONLY, DATA
  4 .data         0000164c  c0108000  00108000  00009000  2**5
                  CONTENTS, ALLOC, LOAD, DATA
  5 .bss          000060d4  c010a000  0010a000  0000a64c  2**12
                  ALLOC
  6 .comment      00000012  00000000  00000000  0000a64c  2**0
                  CONTENTS, READONLY
SYMBOL TABLE:
00000000 l    df *ABS*	00000000 bootNP.o
e85250d6 l       *ABS*	00000000 MAGIC_NUMBER
00000000 l       *ABS*	00000000 ARCH
00001000 l       *ABS*	00000000 PAGESIZE
c0000000 l       *ABS*	00000000 BOOTLOC
00100000 l       .mb2_hdr	00000000 mb2_hdr_begin
00100030 l       .mb2_hdr	00000000 mb2_hdr_end
00100010 l       .mb2_hdr	00000000 mb2_frame_buffer_req
00100024 l       .mb2_hdr	00000000 mb2_framebuffer_end
c010f0d4 l       .bss	00000000 boot_stack_base
c01100d4 l       .bss	00000000 stack_top
c010a000 l       .bss	00000000 boot_page_directory
c010b000 l       .bss	00000000 boot_page_table1
0010005b l       .multiboot.text	00000000 greater
00100055 l       .multiboot.text	00000000 less
00100063 l       .multiboot.text	00000000 end_if
c010105b l       .text	00000000 flush
00000000 l    df *ABS*	00000000 pmm.c
c0108000 l     O .data	00000004 mem_top
c0108004 l     O .data	00000004 mem_bottom
00000000 l    df *ABS*	00000000 vmm.c
c010c014 l     O .bss	00000004 mem_top
c010c018 l     O .bss	00000004 mem_bottom
00000000 l    df *ABS*	00000000 mb_parse.c
c010c028 l     O .bss	00000004 mem_top
c010c02c l     O .bss	00000004 mem_bottom
c010c030 l     O .bss	00000004 bypp
00000000 l    df *ABS*	00000000 gdt.c
00000000 l    df *ABS*	00000000 idt.c
c010c070 l     O .bss	00000800 idt
c010c870 l     O .bss	00000006 idtr
00000000 l    df *ABS*	00000000 paging.c
c010f000 l     O .bss	00000004 mem_top
c010f004 l     O .bss	00000004 mem_bottom
00000000 l    df *ABS*	00000000 kernel.c
c010f00c l     O .bss	00000004 mem_top
c010f010 l     O .bss	00000004 mem_bottom
c0102a30 l     F .text	000000c1 init_serial
00000000 l    df *ABS*	00000000 string.c
00000000 l    df *ABS*	00000000 heap.c
00000000 l    df *ABS*	00000000 idtStub.o
c010356d l       .text	00000000 isr_frame_as
c010359a l       .text	00000000 irq_frame
00000000 l    df *ABS*	00000000 apic.c
c0103738 l     F .text	0000001b io_wait
00000000 l    df *ABS*	00000000 timer.c
00000000 l    df *ABS*	00000000 keyboard.c
c0103cac l     F .text	0000001b io_wait
c010f089 l     O .bss	00000001 current_masks
00000000 l    df *ABS*	00000000 framebuffer.c
00000000 l    df *ABS*	00000000 scheduler.c
c010f0ac l     O .bss	00000004 mem_top
c010f0b0 l     O .bss	00000004 mem_bottom
c010f0b4 l     O .bss	00000004 current_process
00000000 l    df *ABS*	00000000 terminal.c
c010f0d0 l     O .bss	00000004 term_bg
c0108188 l     O .data	00000004 term_fg
00000000 l    df *ABS*	00000000 rbtree.c
c010d000 g     O .bss	00001000 kernel_pd
c01044b4 g     F .text	0000000a get_process_head
c0101296 g     F .text	00000010 physical_to_frame
c0103688 g     F .text	00000000 isr_stub_17
c0103a19 g     F .text	000000c0 calibrate_timer
c010545a g     F .text	00000118 printf
c0103664 g     F .text	00000000 isr_stub_13
c01037e4 g     F .text	00000022 read_ioapic_register
c010f088 g     O .bss	00000001 key_buffer_pos
c0101465 g     F .text	000000f2 create_vmm
c010366c g     F .text	00000000 isr_stub_14
c010f094 g     O .bss	00000002 cursor_xpaws
c0101868 g     F .text	00000088 vmm_page_free
c010f044 g     O .bss	00000004 key_codes
c0102806 g     F .text	0000000c load_page_directory
c0103191 g     F .text	00000016 memmove
c0102262 g     F .text	00000050 stack_trace
c010f01c g     O .bss	00000004 glob_lapic_addr
c010157c g     F .text	0000001d page_kfree
c010363a g     F .text	00000000 isr_stub_8
c0101a71 g     F .text	000000ae parse_MADT
c0108008 g     O .data	00000004 pre_mem
c0104304 g     F .text	00000006 run_idle
c0103c64 g     F .text	0000000d poll_timer
c0102953 g     F .text	000000ad pg_init
c010c068 g     O .bss	00000006 gp
c0102d2b g     F .text	00000179 logf
c010f060 g     O .bss	00000028 key_buffer
c0104623 g     F .text	00000037 kill_current_process
c0102b2e g     F .text	00000106 log_integer_to_serial
c0105622 g     F .text	0000000e tflush
c01060dc g     F .text	0000020a delete_node
c0101599 g     F .text	0000001f page_alloc
c010111d g     F .text	0000004c pre_malloc
c010f018 g     O .bss	00000004 cur_heap_pos
c0108186 g     O .data	00000002 user_char_index
c01059fe g     F .text	0000008e rb_left_rotation
c0103806 g     F .text	00000026 write_ioapic_register
c01011f4 g     F .text	00000043 clear_frame
c0102a00 g     F .text	00000019 inportb
c010e000 g     O .bss	00001000 kernel_pt
c0101dcf g     F .text	0000009f gdt_install
c010f020 g     O .bss	00000004 glob_ioapic_addr
c0103154 g     F .text	0000003d memcpy
c01016ae g     F .text	000001ba vmm_page_alloc
c0103442 g     F .text	0000012b kfree
c0102584 g     F .text	000000af memory_unmap
c010f040 g     O .bss	00000000 extended_key_lookup
c0102ebc g     F .text	0000001e test_func
c01035f4 g       .text	00000000 isr_stub_1
c01032ba g     F .text	00000006 malloc
c0101437 g     F .text	0000002e convert_x86_32_vm_flags
c0105766 g     F .text	00000088 next_keycode
c01036fe g       .text	00000000 isr_stub_29
c0103785 g     F .text	0000005f get_cpuid
c01041a6 g     F .text	00000026 get_glyph
c010c024 g     O .bss	00000004 old_acpi
c0105005 g     F .text	000000a3 parse_color
c0105da4 g     F .text	00000338 delete_violations
c0104f52 g     F .text	00000076 write_char_text_buffer
c010361c g       .text	00000000 isr_stub_5
c01048b6 g     F .text	000004f4 keycode_to_keysym
c01036ae g       .text	00000000 isr_stub_21
c0103674 g       .text	00000000 isr_stub_15
c010369a g       .text	00000000 isr_stub_19
c010193f g     F .text	00000006 test1
c01050a8 g     F .text	0000021b draw_text_buffer
c010f0bc g     O .bss	00000004 text_buffer
c01047c3 g     F .text	000000b9 schedule
c0103724 g     F .text	00000000 irq_stub_49
c01044be g     F .text	00000165 configure_page_directory
c010c020 g     O .bss	00000004 fb
c010636b g     F .text	00000073 find_node
c010f014 g     O .bss	00000004 heap_start
c0101b5f g     F .text	0000008a get_sdt_by_signature
c0101d31 g     F .text	0000009e gdt_set_gate
c0101be9 g     F .text	0000007b init_rsdt_v1
c01038fe g     F .text	00000020 lapic_write_reg
c01041cc g     F .text	000000bb fill_square
c01100d4 g       .bss	00000000 _kernel_end
c010327e g     F .text	0000003c init_heap
c010102c g     F .text	00000000 enable_paging
c010194b g     F .text	0000006e get_pixel_addr
c010c010 g     O .bss	00000004 kernel_vmm
c010536b g     F .text	000000ef term_render_hex
c01035ea g       .text	00000000 isr_stub_0
c0103654 g     F .text	00000000 isr_stub_11
c010c008 g     O .bss	00000004 last_frame
c0108184 g     O .data	00000001 font_size
c010f08c g     O .bss	00000004 fb_virt_addr
c0102eda g     F .text	00000211 kernel_main
c0105630 g     F .text	00000136 parse_user_chars
c010f090 g     O .bss	00000004 font_head
c0102812 g     F .text	0000001c enable_paging_c
c01012fe g     F .text	00000070 transfer_dynamic
c0104ecb g     F .text	00000087 write_text_buffer
c0102633 g     F .text	00000076 create_new_pt
c0103ae9 g     F .text	0000004d set_pit_one_shot
c0103608 g       .text	00000000 isr_stub_3
c010271c g     F .text	00000044 newinit_pd
c010c00c g     O .bss	00000004 current_vmm
c01036f4 g       .text	00000000 isr_stub_28
c010101f g     F .text	00000000 load_directory
c01012a6 g     F .text	00000058 alloc_phys_page
c0102af1 g     F .text	0000003d log_to_serial
c010372e g     F .text	00000000 irq_stub_50
c0103708 g     F .text	00000000 isr_stub_30
c0101c64 g     F .text	000000cd init_multiboot
c0101557 g     F .text	00000025 page_kalloc
c01026a9 g     F .text	00000021 copy_kernel_map
c0102a19 g     F .text	00000017 outportb
c0104fc8 g     F .text	0000003d single_shtoi
c0101286 g     F .text	00000010 frame_to_physical
c0101e6e g     F .text	00000061 idt_set_gate
c01036c2 g       .text	00000000 isr_stub_23
c010f028 g     O .bss	00000004 calibrating
c010487c g     F .text	0000003a handle_schedule
c010964c g       .data	00000000 _binary_font_psf_end
c0103c17 g     F .text	0000004d polled_sleep
c0103959 g     F .text	0000001e set_initial_lapic_timer_count
00100030 g     F .multiboot.text	00000000 _start
c010105c g     F .text	000000c1 set_memory_map
c01022b2 g     F .text	0000018f exc_print
c01024f9 g     F .text	0000008b memory_map
c010388e g     F .text	00000070 init_ioapic
c01018f0 g     F .text	00000020 init_user_memory
c0105a8c g     F .text	0000008e rb_right_rotation
c010430a g     F .text	0000000b set_current_process_idle
c0105ce7 g     F .text	000000bd insert_node
c0103239 g     F .text	00000045 strncpy
c01042df g     F .text	00000025 put_pixel
c010f0a4 g     O .bss	00000004 initialized
c0103710 g       .text	00000000 isr_stub_31
c0104339 g     F .text	0000002c init_scheduler
c010f0a0 g     O .bss	00000004 idle_process
c0101ecf g     F .text	00000393 init_idt
c0102ea4 g     F .text	00000018 panic
c01035fe g       .text	00000000 isr_stub_2
c010f0c4 g     O .bss	00000002 textbuf_loc
c010136e g     F .text	000000c9 kinit
c01030eb g     F .text	00000069 memcmp
c010f098 g     O .bss	00000002 screen_width
c01059b3 g     F .text	0000004b free_node_obj
c010367e g       .text	00000000 isr_stub_16
c0103d79 g     F .text	0000018e handle_keychange
c0104daa g     F .text	00000121 scroll_text_buffer_down
c0104365 g     F .text	00000093 add_process
c0103989 g     F .text	0000001d send_EOI
c0103b36 g     F .text	000000e1 disable_pic
c010f09a g     O .bss	00000002 screen_height
c01031a7  w    F .text	0000002b memset
c01036cc g       .text	00000000 isr_stub_24
c010405a g     F .text	0000014c fb_put_glyph
c01036a4 g       .text	00000000 isr_stub_20
c0102760 g     F .text	000000a6 init_kpt
c01036d6 g       .text	00000000 isr_stub_25
c010c040 g     O .bss	00000028 desc
c0104315 g     F .text	00000024 init_idle_process
c010f0a8 g     O .bss	00000004 next_free_pid
c010391e g     F .text	0000001c lapic_read_reg
c010f008 g     O .bss	00000001 task_state
c0103977 g     F .text	00000012 get_lapic_timer_count
c01015b8 g     F .text	0000001d page_free
c01024d1 g     F .text	00000028 isr_handler
c010f024 g     O .bss	00000004 ticks_per_ms
c0102c34 g     F .text	000000f7 print_hex
c010371a g     F .text	00000000 irq_stub_48
c0101692 g     F .text	0000000e set_kernel_vmm
c01031f6 g     F .text	00000043 strcmp
c01036e0 g       .text	00000000 isr_stub_26
c010465a g     F .text	00000169 create_process
c01026ca g     F .text	00000028 copy_higher_half_kernel_pd
c0104287 g     F .text	00000058 init_font
c01057ee g     F .text	00000097 terminal_loop
c0103753 g     F .text	00000032 get_apic_addr
c0101945 g     F .text	00000006 test2
c01039a6 g     F .text	00000073 init_apic
c010f0c8 g     O .bss	00000004 max_char_x
c010c004 g     O .bss	00000004 num_frames
c010f0c6 g     O .bss	00000002 cur_lines
c0103630 g       .text	00000000 isr_stub_7
c010818c g       .data	00000000 _binary_font_psf_start
c01015d5 g     F .text	000000bd vmm_transfer_dynamic
c0102441 g     F .text	00000090 irq_handler
c0103612 g       .text	00000000 isr_stub_4
c0105885 g     F .text	00000037 start_terminal
c010282e g     F .text	00000125 handle_exception
c0104026 g     F .text	0000001a fb_set_width
c01062e6 g     F .text	00000085 make_node
c01026f2 g     F .text	0000002a copy_kernel_pd_index
c010c01c g     O .bss	00000004 rsdt_addr
c01019b9 g     F .text	000000b8 init_framebuffer
c010103e g     F .text	00000000 flush_gdt
c01052c3 g     F .text	000000a8 draw_user_chars
c010f096 g     O .bss	00000002 cursor_ypaws
c0103690 g       .text	00000000 isr_stub_18
c0105b1a g     F .text	000001cd insert_violations
c010f09c g     O .bss	00000004 process_list_head
c010382c g     F .text	00000062 ioapic_pit_irq
c0104040 g     F .text	0000001a fb_set_height
c0103c71 g     F .text	0000003b arm_interrupt_timer
c0105572 g     F .text	000000b0 write_user_char
c01043f8 g     F .text	000000bc delete_process
c010597f g     F .text	00000034 alloc_node_obj
c010393a g     F .text	0000001f lapic_timer_init
c01058bc g     F .text	000000c3 init_terminal
c010364c g     F .text	00000000 isr_stub_10
c010365c g     F .text	00000000 isr_stub_12
c010f0c0 g     O .bss	00000004 user_chars
c0103626 g       .text	00000000 isr_stub_6
000014c0 g       *ABS*	00000000 _binary_font_psf_size
c0101169 g     F .text	0000008b get_first_frame
c0101b1f g     F .text	00000040 validate_RSDP
c01031d2 g     F .text	00000024 strlen
c01016a0 g     F .text	0000000e set_current_vmm
00100000 g       .mb2_hdr	00000000 _kernel_start
c010c000 g     O .bss	00000004 frames
c0108020 g     O .data	00000164 key_lookup
c0101910 g     F .text	0000002f alloc_stack
c0103ad9 g     F .text	00000010 end_calibration
c0103642 g       .text	00000000 isr_stub_9
c01032c6 g     F .text	0000017c kalloc
c0103f07 g     F .text	0000011f init_keyboard
c01036b8 g       .text	00000000 isr_stub_22
c0103cc7 g     F .text	000000b2 handle_masks
c010f0b8 g     O .bss	00000001 key_buffer_tail
c0101237 g     F .text	0000004f set_frame
c010f0cc g     O .bss	00000004 max_char_y
c01032c0 g     F .text	00000006 free
c01036ea g       .text	00000000 isr_stub_27



Disassembly of section .mb2_hdr:

00100000 <_kernel_start>:
  100000:	d6                   	(bad)
  100001:	50                   	push   %eax
  100002:	52                   	push   %edx
  100003:	e8 00 00 00 00       	call   100008 <_kernel_start+0x8>
  100008:	30 00                	xor    %al,(%eax)
  10000a:	00 00                	add    %al,(%eax)
  10000c:	fa                   	cli
  10000d:	ae                   	scas   %es:(%edi),%al
  10000e:	ad                   	lods   %ds:(%esi),%eax
  10000f:	17                   	pop    %ss

00100010 <mb2_frame_buffer_req>:
  100010:	05 00 01 00 14       	add    $0x14000100,%eax
  100015:	00 00                	add    %al,(%eax)
  100017:	00 20                	add    %ah,(%eax)
  100019:	03 00                	add    (%eax),%eax
  10001b:	00 58 02             	add    %bl,0x2(%eax)
  10001e:	00 00                	add    %al,(%eax)
  100020:	20 00                	and    %al,(%eax)
	...

00100024 <mb2_framebuffer_end>:
	...
  10002c:	08 00                	or     %al,(%eax)
	...

Disassembly of section .multiboot.text:

00100030 <_start>:
  100030:	bc d4 00 11 c0       	mov    $0xc01100d4,%esp
  100035:	bf 00 b0 10 00       	mov    $0x10b000,%edi
  10003a:	be 00 00 00 00       	mov    $0x0,%esi
  10003f:	b9 00 04 00 00       	mov    $0x400,%ecx
  100044:	81 fe 00 00 10 00    	cmp    $0x100000,%esi
  10004a:	7c 1e                	jl     10006a <end_if+0x7>
  10004c:	89 d8                	mov    %ebx,%eax
  10004e:	3d d4 00 11 c0       	cmp    $0xc01100d4,%eax
  100053:	7c 06                	jl     10005b <greater>

00100055 <less>:
  100055:	39 c6                	cmp    %eax,%esi
  100057:	7d 1c                	jge    100075 <end_if+0x12>
  100059:	eb 08                	jmp    100063 <end_if>

0010005b <greater>:
  10005b:	81 fe d4 00 11 00    	cmp    $0x1100d4,%esi
  100061:	7d 12                	jge    100075 <end_if+0x12>

00100063 <end_if>:
  100063:	89 f2                	mov    %esi,%edx
  100065:	83 ca 03             	or     $0x3,%edx
  100068:	89 17                	mov    %edx,(%edi)
  10006a:	81 c6 00 10 00 00    	add    $0x1000,%esi
  100070:	83 c7 04             	add    $0x4,%edi
  100073:	e2 cf                	loop   100044 <_start+0x14>
  100075:	c7 05 00 a0 10 00 03 	movl   $0x10b003,0x10a000
  10007c:	b0 10 00 
  10007f:	c7 05 00 ac 10 00 03 	movl   $0x10b003,0x10ac00
  100086:	b0 10 00 
  100089:	b9 00 a0 10 00       	mov    $0x10a000,%ecx
  10008e:	0f 22 d9             	mov    %ecx,%cr3
  100091:	0f 20 c1             	mov    %cr0,%ecx
  100094:	81 c9 00 00 00 80    	or     $0x80000000,%ecx
  10009a:	0f 22 c1             	mov    %ecx,%cr0
  10009d:	8d 0d 00 10 10 c0    	lea    0xc0101000,%ecx
  1000a3:	ff e1                	jmp    *%ecx

Disassembly of section .text:

c0101000 <load_directory-0x1f>:
c0101000:	c7 05 00 a0 10 c0 00 	movl   $0x0,0xc010a000
c0101007:	00 00 00 
c010100a:	0f 20 d9             	mov    %cr3,%ecx
c010100d:	0f 22 d9             	mov    %ecx,%cr3
c0101010:	53                   	push   %ebx
c0101011:	68 00 a0 10 c0       	push   $0xc010a000
c0101016:	e8 bf 1e 00 00       	call   c0102eda <kernel_main>
c010101b:	fa                   	cli
c010101c:	f4                   	hlt
c010101d:	eb fd                	jmp    c010101c <BOOTLOC+0x10101c>

c010101f <load_directory>:
c010101f:	55                   	push   %ebp
c0101020:	89 e5                	mov    %esp,%ebp
c0101022:	8b 45 08             	mov    0x8(%ebp),%eax
c0101025:	0f 22 d8             	mov    %eax,%cr3
c0101028:	89 ec                	mov    %ebp,%esp
c010102a:	5d                   	pop    %ebp
c010102b:	c3                   	ret

c010102c <enable_paging>:
c010102c:	55                   	push   %ebp
c010102d:	89 e5                	mov    %esp,%ebp
c010102f:	0f 20 c0             	mov    %cr0,%eax
c0101032:	0d 00 00 00 80       	or     $0x80000000,%eax
c0101037:	0f 22 c0             	mov    %eax,%cr0
c010103a:	89 ec                	mov    %ebp,%esp
c010103c:	5d                   	pop    %ebp
c010103d:	c3                   	ret

c010103e <flush_gdt>:
c010103e:	8b 44 24 04          	mov    0x4(%esp),%eax
c0101042:	fa                   	cli
c0101043:	0f 01 10             	lgdtl  (%eax)
c0101046:	66 b8 10 00          	mov    $0x10,%ax
c010104a:	8e d8                	mov    %eax,%ds
c010104c:	8e c0                	mov    %eax,%es
c010104e:	8e e0                	mov    %eax,%fs
c0101050:	8e e8                	mov    %eax,%gs
c0101052:	8e d0                	mov    %eax,%ss
c0101054:	ea 5b 10 10 c0 08 00 	ljmp   $0x8,$0xc010105b

c010105b <flush>:
c010105b:	c3                   	ret

c010105c <set_memory_map>:
c010105c:	55                   	push   %ebp
c010105d:	89 e5                	mov    %esp,%ebp
c010105f:	53                   	push   %ebx
c0101060:	83 ec 24             	sub    $0x24,%esp
c0101063:	8b 45 08             	mov    0x8(%ebp),%eax
c0101066:	8b 40 04             	mov    0x4(%eax),%eax
c0101069:	8d 48 f0             	lea    -0x10(%eax),%ecx
c010106c:	8b 45 08             	mov    0x8(%ebp),%eax
c010106f:	8b 58 08             	mov    0x8(%eax),%ebx
c0101072:	89 c8                	mov    %ecx,%eax
c0101074:	ba 00 00 00 00       	mov    $0x0,%edx
c0101079:	f7 f3                	div    %ebx
c010107b:	89 45 f0             	mov    %eax,-0x10(%ebp)
c010107e:	c7 45 f4 00 00 00 00 	movl   $0x0,-0xc(%ebp)
c0101085:	e9 80 00 00 00       	jmp    c010110a <set_memory_map+0xae>
c010108a:	8b 4d 08             	mov    0x8(%ebp),%ecx
c010108d:	8b 55 f4             	mov    -0xc(%ebp),%edx
c0101090:	89 d0                	mov    %edx,%eax
c0101092:	01 c0                	add    %eax,%eax
c0101094:	01 d0                	add    %edx,%eax
c0101096:	c1 e0 03             	shl    $0x3,%eax
c0101099:	01 c8                	add    %ecx,%eax
c010109b:	83 c0 10             	add    $0x10,%eax
c010109e:	8b 10                	mov    (%eax),%edx
c01010a0:	89 55 d8             	mov    %edx,-0x28(%ebp)
c01010a3:	8b 50 04             	mov    0x4(%eax),%edx
c01010a6:	89 55 dc             	mov    %edx,-0x24(%ebp)
c01010a9:	8b 50 08             	mov    0x8(%eax),%edx
c01010ac:	89 55 e0             	mov    %edx,-0x20(%ebp)
c01010af:	8b 50 0c             	mov    0xc(%eax),%edx
c01010b2:	89 55 e4             	mov    %edx,-0x1c(%ebp)
c01010b5:	8b 50 10             	mov    0x10(%eax),%edx
c01010b8:	89 55 e8             	mov    %edx,-0x18(%ebp)
c01010bb:	8b 40 14             	mov    0x14(%eax),%eax
c01010be:	89 45 ec             	mov    %eax,-0x14(%ebp)
c01010c1:	8b 45 e8             	mov    -0x18(%ebp),%eax
c01010c4:	83 f8 01             	cmp    $0x1,%eax
c01010c7:	75 3d                	jne    c0101106 <set_memory_map+0xaa>
c01010c9:	8b 45 d8             	mov    -0x28(%ebp),%eax
c01010cc:	8b 55 dc             	mov    -0x24(%ebp),%edx
c01010cf:	a3 04 80 10 c0       	mov    %eax,0xc0108004
c01010d4:	8b 45 d8             	mov    -0x28(%ebp),%eax
c01010d7:	8b 55 dc             	mov    -0x24(%ebp),%edx
c01010da:	89 c1                	mov    %eax,%ecx
c01010dc:	8b 45 e0             	mov    -0x20(%ebp),%eax
c01010df:	8b 55 e4             	mov    -0x1c(%ebp),%edx
c01010e2:	01 c8                	add    %ecx,%eax
c01010e4:	a3 00 80 10 c0       	mov    %eax,0xc0108000
c01010e9:	8b 15 00 80 10 c0    	mov    0xc0108000,%edx
c01010ef:	a1 04 80 10 c0       	mov    0xc0108004,%eax
c01010f4:	83 ec 04             	sub    $0x4,%esp
c01010f7:	52                   	push   %edx
c01010f8:	50                   	push   %eax
c01010f9:	68 00 70 10 c0       	push   $0xc0107000
c01010fe:	e8 28 1c 00 00       	call   c0102d2b <logf>
c0101103:	83 c4 10             	add    $0x10,%esp
c0101106:	83 45 f4 01          	addl   $0x1,-0xc(%ebp)
c010110a:	8b 45 f4             	mov    -0xc(%ebp),%eax
c010110d:	3b 45 f0             	cmp    -0x10(%ebp),%eax
c0101110:	0f 8c 74 ff ff ff    	jl     c010108a <set_memory_map+0x2e>
c0101116:	90                   	nop
c0101117:	90                   	nop
c0101118:	8b 5d fc             	mov    -0x4(%ebp),%ebx
c010111b:	c9                   	leave
c010111c:	c3                   	ret

c010111d <pre_malloc>:
c010111d:	55                   	push   %ebp
c010111e:	89 e5                	mov    %esp,%ebp
c0101120:	83 ec 10             	sub    $0x10,%esp
c0101123:	a1 08 80 10 c0       	mov    0xc0108008,%eax
c0101128:	05 ff 03 00 00       	add    $0x3ff,%eax
c010112d:	25 00 fc ff ff       	and    $0xfffffc00,%eax
c0101132:	89 45 fc             	mov    %eax,-0x4(%ebp)
c0101135:	8b 45 08             	mov    0x8(%ebp),%eax
c0101138:	05 ff 03 00 00       	add    $0x3ff,%eax
c010113d:	25 00 fc ff ff       	and    $0xfffffc00,%eax
c0101142:	89 c2                	mov    %eax,%edx
c0101144:	a1 08 80 10 c0       	mov    0xc0108008,%eax
c0101149:	01 d0                	add    %edx,%eax
c010114b:	a3 08 80 10 c0       	mov    %eax,0xc0108008
c0101150:	83 7d 0c 00          	cmpl   $0x0,0xc(%ebp)
c0101154:	74 0e                	je     c0101164 <pre_malloc+0x47>
c0101156:	8b 45 fc             	mov    -0x4(%ebp),%eax
c0101159:	8d 90 00 00 00 40    	lea    0x40000000(%eax),%edx
c010115f:	8b 45 0c             	mov    0xc(%ebp),%eax
c0101162:	89 10                	mov    %edx,(%eax)
c0101164:	8b 45 fc             	mov    -0x4(%ebp),%eax
c0101167:	c9                   	leave
c0101168:	c3                   	ret

c0101169 <get_first_frame>:
c0101169:	55                   	push   %ebp
c010116a:	89 e5                	mov    %esp,%ebp
c010116c:	83 ec 10             	sub    $0x10,%esp
c010116f:	c7 45 fc 00 00 00 00 	movl   $0x0,-0x4(%ebp)
c0101176:	eb 6b                	jmp    c01011e3 <get_first_frame+0x7a>
c0101178:	a1 00 c0 10 c0       	mov    0xc010c000,%eax
c010117d:	8b 55 fc             	mov    -0x4(%ebp),%edx
c0101180:	c1 e2 02             	shl    $0x2,%edx
c0101183:	01 d0                	add    %edx,%eax
c0101185:	8b 00                	mov    (%eax),%eax
c0101187:	83 f8 ff             	cmp    $0xffffffff,%eax
c010118a:	74 53                	je     c01011df <get_first_frame+0x76>
c010118c:	c7 45 f8 00 00 00 00 	movl   $0x0,-0x8(%ebp)
c0101193:	eb 44                	jmp    c01011d9 <get_first_frame+0x70>
c0101195:	8b 45 f8             	mov    -0x8(%ebp),%eax
c0101198:	ba 01 00 00 00       	mov    $0x1,%edx
c010119d:	89 c1                	mov    %eax,%ecx
c010119f:	d3 e2                	shl    %cl,%edx
c01011a1:	89 d0                	mov    %edx,%eax
c01011a3:	89 45 f4             	mov    %eax,-0xc(%ebp)
c01011a6:	a1 00 c0 10 c0       	mov    0xc010c000,%eax
c01011ab:	8b 55 fc             	mov    -0x4(%ebp),%edx
c01011ae:	c1 e2 02             	shl    $0x2,%edx
c01011b1:	01 d0                	add    %edx,%eax
c01011b3:	8b 00                	mov    (%eax),%eax
c01011b5:	23 45 f4             	and    -0xc(%ebp),%eax
c01011b8:	85 c0                	test   %eax,%eax
c01011ba:	75 19                	jne    c01011d5 <get_first_frame+0x6c>
c01011bc:	8b 45 fc             	mov    -0x4(%ebp),%eax
c01011bf:	c1 e0 05             	shl    $0x5,%eax
c01011c2:	89 c2                	mov    %eax,%edx
c01011c4:	8b 45 f8             	mov    -0x8(%ebp),%eax
c01011c7:	01 d0                	add    %edx,%eax
c01011c9:	a3 08 c0 10 c0       	mov    %eax,0xc010c008
c01011ce:	a1 08 c0 10 c0       	mov    0xc010c008,%eax
c01011d3:	eb 1d                	jmp    c01011f2 <get_first_frame+0x89>
c01011d5:	83 45 f8 01          	addl   $0x1,-0x8(%ebp)
c01011d9:	83 7d f8 1f          	cmpl   $0x1f,-0x8(%ebp)
c01011dd:	7e b6                	jle    c0101195 <get_first_frame+0x2c>
c01011df:	83 45 fc 01          	addl   $0x1,-0x4(%ebp)
c01011e3:	a1 04 c0 10 c0       	mov    0xc010c004,%eax
c01011e8:	39 45 fc             	cmp    %eax,-0x4(%ebp)
c01011eb:	72 8b                	jb     c0101178 <get_first_frame+0xf>
c01011ed:	b8 ff ff ff ff       	mov    $0xffffffff,%eax
c01011f2:	c9                   	leave
c01011f3:	c3                   	ret

c01011f4 <clear_frame>:
c01011f4:	55                   	push   %ebp
c01011f5:	89 e5                	mov    %esp,%ebp
c01011f7:	53                   	push   %ebx
c01011f8:	8b 0d 00 c0 10 c0    	mov    0xc010c000,%ecx
c01011fe:	8b 45 08             	mov    0x8(%ebp),%eax
c0101201:	c1 e8 05             	shr    $0x5,%eax
c0101204:	8d 14 85 00 00 00 00 	lea    0x0(,%eax,4),%edx
c010120b:	01 ca                	add    %ecx,%edx
c010120d:	8b 12                	mov    (%edx),%edx
c010120f:	8b 4d 08             	mov    0x8(%ebp),%ecx
c0101212:	83 e1 1f             	and    $0x1f,%ecx
c0101215:	bb 01 00 00 00       	mov    $0x1,%ebx
c010121a:	d3 e3                	shl    %cl,%ebx
c010121c:	89 d9                	mov    %ebx,%ecx
c010121e:	f7 d1                	not    %ecx
c0101220:	89 cb                	mov    %ecx,%ebx
c0101222:	8b 0d 00 c0 10 c0    	mov    0xc010c000,%ecx
c0101228:	c1 e0 02             	shl    $0x2,%eax
c010122b:	01 c8                	add    %ecx,%eax
c010122d:	21 da                	and    %ebx,%edx
c010122f:	89 10                	mov    %edx,(%eax)
c0101231:	90                   	nop
c0101232:	8b 5d fc             	mov    -0x4(%ebp),%ebx
c0101235:	c9                   	leave
c0101236:	c3                   	ret

c0101237 <set_frame>:
c0101237:	55                   	push   %ebp
c0101238:	89 e5                	mov    %esp,%ebp
c010123a:	53                   	push   %ebx
c010123b:	83 ec 10             	sub    $0x10,%esp
c010123e:	8b 45 08             	mov    0x8(%ebp),%eax
c0101241:	c1 e8 05             	shr    $0x5,%eax
c0101244:	89 45 f8             	mov    %eax,-0x8(%ebp)
c0101247:	8b 45 08             	mov    0x8(%ebp),%eax
c010124a:	83 e0 1f             	and    $0x1f,%eax
c010124d:	89 45 f4             	mov    %eax,-0xc(%ebp)
c0101250:	a1 00 c0 10 c0       	mov    0xc010c000,%eax
c0101255:	8b 55 f8             	mov    -0x8(%ebp),%edx
c0101258:	c1 e2 02             	shl    $0x2,%edx
c010125b:	01 d0                	add    %edx,%eax
c010125d:	8b 10                	mov    (%eax),%edx
c010125f:	8b 45 f4             	mov    -0xc(%ebp),%eax
c0101262:	bb 01 00 00 00       	mov    $0x1,%ebx
c0101267:	89 c1                	mov    %eax,%ecx
c0101269:	d3 e3                	shl    %cl,%ebx
c010126b:	89 d8                	mov    %ebx,%eax
c010126d:	89 c3                	mov    %eax,%ebx
c010126f:	a1 00 c0 10 c0       	mov    0xc010c000,%eax
c0101274:	8b 4d f8             	mov    -0x8(%ebp),%ecx
c0101277:	c1 e1 02             	shl    $0x2,%ecx
c010127a:	01 c8                	add    %ecx,%eax
c010127c:	09 da                	or     %ebx,%edx
c010127e:	89 10                	mov    %edx,(%eax)
c0101280:	90                   	nop
c0101281:	8b 5d fc             	mov    -0x4(%ebp),%ebx
c0101284:	c9                   	leave
c0101285:	c3                   	ret

c0101286 <frame_to_physical>:
c0101286:	55                   	push   %ebp
c0101287:	89 e5                	mov    %esp,%ebp
c0101289:	8b 45 08             	mov    0x8(%ebp),%eax
c010128c:	05 00 01 00 00       	add    $0x100,%eax
c0101291:	c1 e0 0c             	shl    $0xc,%eax
c0101294:	5d                   	pop    %ebp
c0101295:	c3                   	ret

c0101296 <physical_to_frame>:
c0101296:	55                   	push   %ebp
c0101297:	89 e5                	mov    %esp,%ebp
c0101299:	8b 45 08             	mov    0x8(%ebp),%eax
c010129c:	2d 00 00 10 00       	sub    $0x100000,%eax
c01012a1:	c1 e8 0c             	shr    $0xc,%eax
c01012a4:	5d                   	pop    %ebp
c01012a5:	c3                   	ret

c01012a6 <alloc_phys_page>:
c01012a6:	55                   	push   %ebp
c01012a7:	89 e5                	mov    %esp,%ebp
c01012a9:	83 ec 18             	sub    $0x18,%esp
c01012ac:	e8 b8 fe ff ff       	call   c0101169 <get_first_frame>
c01012b1:	89 45 f4             	mov    %eax,-0xc(%ebp)
c01012b4:	83 7d f4 ff          	cmpl   $0xffffffff,-0xc(%ebp)
c01012b8:	75 07                	jne    c01012c1 <alloc_phys_page+0x1b>
c01012ba:	b8 00 00 00 00       	mov    $0x0,%eax
c01012bf:	eb 3b                	jmp    c01012fc <alloc_phys_page+0x56>
c01012c1:	ff 75 f4             	push   -0xc(%ebp)
c01012c4:	e8 6e ff ff ff       	call   c0101237 <set_frame>
c01012c9:	83 c4 04             	add    $0x4,%esp
c01012cc:	ff 75 f4             	push   -0xc(%ebp)
c01012cf:	e8 b2 ff ff ff       	call   c0101286 <frame_to_physical>
c01012d4:	83 c4 04             	add    $0x4,%esp
c01012d7:	3d 00 00 00 01       	cmp    $0x1000000,%eax
c01012dc:	76 10                	jbe    c01012ee <alloc_phys_page+0x48>
c01012de:	83 ec 0c             	sub    $0xc,%esp
c01012e1:	68 20 70 10 c0       	push   $0xc0107020
c01012e6:	e8 b9 1b 00 00       	call   c0102ea4 <panic>
c01012eb:	83 c4 10             	add    $0x10,%esp
c01012ee:	83 ec 0c             	sub    $0xc,%esp
c01012f1:	ff 75 f4             	push   -0xc(%ebp)
c01012f4:	e8 8d ff ff ff       	call   c0101286 <frame_to_physical>
c01012f9:	83 c4 10             	add    $0x10,%esp
c01012fc:	c9                   	leave
c01012fd:	c3                   	ret

c01012fe <transfer_dynamic>:
c01012fe:	55                   	push   %ebp
c01012ff:	89 e5                	mov    %esp,%ebp
c0101301:	83 ec 18             	sub    $0x18,%esp
c0101304:	a1 04 c0 10 c0       	mov    0xc010c004,%eax
c0101309:	83 ec 04             	sub    $0x4,%esp
c010130c:	6a 00                	push   $0x0
c010130e:	6a 03                	push   $0x3
c0101310:	50                   	push   %eax
c0101311:	e8 41 02 00 00       	call   c0101557 <page_kalloc>
c0101316:	83 c4 10             	add    $0x10,%esp
c0101319:	89 45 f4             	mov    %eax,-0xc(%ebp)
c010131c:	a1 00 c0 10 c0       	mov    0xc010c000,%eax
c0101321:	83 ec 08             	sub    $0x8,%esp
c0101324:	50                   	push   %eax
c0101325:	68 2f 70 10 c0       	push   $0xc010702f
c010132a:	e8 fc 19 00 00       	call   c0102d2b <logf>
c010132f:	83 c4 10             	add    $0x10,%esp
c0101332:	8b 15 04 c0 10 c0    	mov    0xc010c004,%edx
c0101338:	a1 00 c0 10 c0       	mov    0xc010c000,%eax
c010133d:	83 ec 04             	sub    $0x4,%esp
c0101340:	52                   	push   %edx
c0101341:	50                   	push   %eax
c0101342:	ff 75 f4             	push   -0xc(%ebp)
c0101345:	e8 0a 1e 00 00       	call   c0103154 <memcpy>
c010134a:	83 c4 10             	add    $0x10,%esp
c010134d:	8b 45 f4             	mov    -0xc(%ebp),%eax
c0101350:	a3 00 c0 10 c0       	mov    %eax,0xc010c000
c0101355:	a1 00 c0 10 c0       	mov    0xc010c000,%eax
c010135a:	83 ec 08             	sub    $0x8,%esp
c010135d:	50                   	push   %eax
c010135e:	68 48 70 10 c0       	push   $0xc0107048
c0101363:	e8 c3 19 00 00       	call   c0102d2b <logf>
c0101368:	83 c4 10             	add    $0x10,%esp
c010136b:	90                   	nop
c010136c:	c9                   	leave
c010136d:	c3                   	ret

c010136e <kinit>:
c010136e:	55                   	push   %ebp
c010136f:	89 e5                	mov    %esp,%ebp
c0101371:	83 ec 18             	sub    $0x18,%esp
c0101374:	83 ec 08             	sub    $0x8,%esp
c0101377:	ff 75 08             	push   0x8(%ebp)
c010137a:	68 61 70 10 c0       	push   $0xc0107061
c010137f:	e8 a7 19 00 00       	call   c0102d2b <logf>
c0101384:	83 c4 10             	add    $0x10,%esp
c0101387:	81 7d 08 d4 00 11 c0 	cmpl   $0xc01100d4,0x8(%ebp)
c010138e:	72 10                	jb     c01013a0 <kinit+0x32>
c0101390:	8b 15 08 80 10 c0    	mov    0xc0108008,%edx
c0101396:	8b 45 08             	mov    0x8(%ebp),%eax
c0101399:	01 d0                	add    %edx,%eax
c010139b:	a3 08 80 10 c0       	mov    %eax,0xc0108008
c01013a0:	8b 15 08 80 10 c0    	mov    0xc0108008,%edx
c01013a6:	8b 45 08             	mov    0x8(%ebp),%eax
c01013a9:	52                   	push   %edx
c01013aa:	50                   	push   %eax
c01013ab:	68 d4 00 11 c0       	push   $0xc01100d4
c01013b0:	68 70 70 10 c0       	push   $0xc0107070
c01013b5:	e8 71 19 00 00       	call   c0102d2b <logf>
c01013ba:	83 c4 10             	add    $0x10,%esp
c01013bd:	83 ec 08             	sub    $0x8,%esp
c01013c0:	68 00 0a 00 00       	push   $0xa00
c01013c5:	68 92 70 10 c0       	push   $0xc0107092
c01013ca:	e8 5c 19 00 00       	call   c0102d2b <logf>
c01013cf:	83 c4 10             	add    $0x10,%esp
c01013d2:	c7 05 04 c0 10 c0 00 	movl   $0xa00,0xc010c004
c01013d9:	0a 00 00 
c01013dc:	a1 04 c0 10 c0       	mov    0xc010c004,%eax
c01013e1:	83 ec 08             	sub    $0x8,%esp
c01013e4:	6a 00                	push   $0x0
c01013e6:	50                   	push   %eax
c01013e7:	e8 31 fd ff ff       	call   c010111d <pre_malloc>
c01013ec:	83 c4 10             	add    $0x10,%esp
c01013ef:	a3 00 c0 10 c0       	mov    %eax,0xc010c000
c01013f4:	8b 15 04 c0 10 c0    	mov    0xc010c004,%edx
c01013fa:	a1 00 c0 10 c0       	mov    0xc010c000,%eax
c01013ff:	83 ec 04             	sub    $0x4,%esp
c0101402:	52                   	push   %edx
c0101403:	6a 00                	push   $0x0
c0101405:	50                   	push   %eax
c0101406:	e8 9c 1d 00 00       	call   c01031a7 <memset>
c010140b:	83 c4 10             	add    $0x10,%esp
c010140e:	c7 45 f4 00 00 00 00 	movl   $0x0,-0xc(%ebp)
c0101415:	eb 13                	jmp    c010142a <kinit+0xbc>
c0101417:	8b 45 f4             	mov    -0xc(%ebp),%eax
c010141a:	83 ec 0c             	sub    $0xc,%esp
c010141d:	50                   	push   %eax
c010141e:	e8 14 fe ff ff       	call   c0101237 <set_frame>
c0101423:	83 c4 10             	add    $0x10,%esp
c0101426:	83 45 f4 01          	addl   $0x1,-0xc(%ebp)
c010142a:	83 7d f4 2f          	cmpl   $0x2f,-0xc(%ebp)
c010142e:	7e e7                	jle    c0101417 <kinit+0xa9>
c0101430:	a1 08 80 10 c0       	mov    0xc0108008,%eax
c0101435:	c9                   	leave
c0101436:	c3                   	ret

c0101437 <convert_x86_32_vm_flags>:
c0101437:	55                   	push   %ebp
c0101438:	89 e5                	mov    %esp,%ebp
c010143a:	83 ec 10             	sub    $0x10,%esp
c010143d:	c7 45 fc 01 00 00 00 	movl   $0x1,-0x4(%ebp)
c0101444:	8b 45 08             	mov    0x8(%ebp),%eax
c0101447:	83 e0 02             	and    $0x2,%eax
c010144a:	85 c0                	test   %eax,%eax
c010144c:	74 04                	je     c0101452 <convert_x86_32_vm_flags+0x1b>
c010144e:	83 4d fc 02          	orl    $0x2,-0x4(%ebp)
c0101452:	8b 45 08             	mov    0x8(%ebp),%eax
c0101455:	83 e0 04             	and    $0x4,%eax
c0101458:	85 c0                	test   %eax,%eax
c010145a:	74 04                	je     c0101460 <convert_x86_32_vm_flags+0x29>
c010145c:	83 4d fc 04          	orl    $0x4,-0x4(%ebp)
c0101460:	8b 45 fc             	mov    -0x4(%ebp),%eax
c0101463:	c9                   	leave
c0101464:	c3                   	ret

c0101465 <create_vmm>:
c0101465:	55                   	push   %ebp
c0101466:	89 e5                	mov    %esp,%ebp
c0101468:	83 ec 18             	sub    $0x18,%esp
c010146b:	83 7d 14 00          	cmpl   $0x0,0x14(%ebp)
c010146f:	75 1f                	jne    c0101490 <create_vmm+0x2b>
c0101471:	e8 30 fe ff ff       	call   c01012a6 <alloc_phys_page>
c0101476:	6a 03                	push   $0x3
c0101478:	68 00 00 00 ff       	push   $0xff000000
c010147d:	50                   	push   %eax
c010147e:	ff 75 08             	push   0x8(%ebp)
c0101481:	e8 73 10 00 00       	call   c01024f9 <memory_map>
c0101486:	83 c4 10             	add    $0x10,%esp
c0101489:	c7 45 14 00 00 00 ff 	movl   $0xff000000,0x14(%ebp)
c0101490:	83 ec 08             	sub    $0x8,%esp
c0101493:	ff 75 14             	push   0x14(%ebp)
c0101496:	68 a4 70 10 c0       	push   $0xc01070a4
c010149b:	e8 8b 18 00 00       	call   c0102d2b <logf>
c01014a0:	83 c4 10             	add    $0x10,%esp
c01014a3:	83 ec 04             	sub    $0x4,%esp
c01014a6:	68 00 10 00 00       	push   $0x1000
c01014ab:	6a 00                	push   $0x0
c01014ad:	ff 75 14             	push   0x14(%ebp)
c01014b0:	e8 f2 1c 00 00       	call   c01031a7 <memset>
c01014b5:	83 c4 10             	add    $0x10,%esp
c01014b8:	8b 45 14             	mov    0x14(%ebp),%eax
c01014bb:	89 45 f4             	mov    %eax,-0xc(%ebp)
c01014be:	8b 45 f4             	mov    -0xc(%ebp),%eax
c01014c1:	8b 55 08             	mov    0x8(%ebp),%edx
c01014c4:	89 10                	mov    %edx,(%eax)
c01014c6:	8b 45 f4             	mov    -0xc(%ebp),%eax
c01014c9:	c7 40 04 00 00 00 00 	movl   $0x0,0x4(%eax)
c01014d0:	8b 45 14             	mov    0x14(%ebp),%eax
c01014d3:	83 c0 14             	add    $0x14,%eax
c01014d6:	89 c2                	mov    %eax,%edx
c01014d8:	8b 45 f4             	mov    -0xc(%ebp),%eax
c01014db:	89 50 08             	mov    %edx,0x8(%eax)
c01014de:	8b 45 0c             	mov    0xc(%ebp),%eax
c01014e1:	05 ff 0f 00 00       	add    $0xfff,%eax
c01014e6:	25 00 f0 ff ff       	and    $0xfffff000,%eax
c01014eb:	83 ec 04             	sub    $0x4,%esp
c01014ee:	ff 75 10             	push   0x10(%ebp)
c01014f1:	50                   	push   %eax
c01014f2:	68 c0 70 10 c0       	push   $0xc01070c0
c01014f7:	e8 2f 18 00 00       	call   c0102d2b <logf>
c01014fc:	83 c4 10             	add    $0x10,%esp
c01014ff:	8b 45 0c             	mov    0xc(%ebp),%eax
c0101502:	05 ff 0f 00 00       	add    $0xfff,%eax
c0101507:	25 00 f0 ff ff       	and    $0xfffff000,%eax
c010150c:	89 c2                	mov    %eax,%edx
c010150e:	8b 45 f4             	mov    -0xc(%ebp),%eax
c0101511:	89 50 0c             	mov    %edx,0xc(%eax)
c0101514:	8b 45 f4             	mov    -0xc(%ebp),%eax
c0101517:	8b 55 10             	mov    0x10(%ebp),%edx
c010151a:	89 50 10             	mov    %edx,0x10(%eax)
c010151d:	8b 45 f4             	mov    -0xc(%ebp),%eax
c0101520:	8b 50 10             	mov    0x10(%eax),%edx
c0101523:	8b 45 f4             	mov    -0xc(%ebp),%eax
c0101526:	8b 40 0c             	mov    0xc(%eax),%eax
c0101529:	6a 00                	push   $0x0
c010152b:	52                   	push   %edx
c010152c:	50                   	push   %eax
c010152d:	ff 75 f4             	push   -0xc(%ebp)
c0101530:	e8 b1 4d 00 00       	call   c01062e6 <make_node>
c0101535:	83 c4 10             	add    $0x10,%esp
c0101538:	8b 45 f4             	mov    -0xc(%ebp),%eax
c010153b:	8b 40 04             	mov    0x4(%eax),%eax
c010153e:	8b 40 08             	mov    0x8(%eax),%eax
c0101541:	83 ec 08             	sub    $0x8,%esp
c0101544:	50                   	push   %eax
c0101545:	68 ec 70 10 c0       	push   $0xc01070ec
c010154a:	e8 dc 17 00 00       	call   c0102d2b <logf>
c010154f:	83 c4 10             	add    $0x10,%esp
c0101552:	8b 45 f4             	mov    -0xc(%ebp),%eax
c0101555:	c9                   	leave
c0101556:	c3                   	ret

c0101557 <page_kalloc>:
c0101557:	55                   	push   %ebp
c0101558:	89 e5                	mov    %esp,%ebp
c010155a:	83 ec 18             	sub    $0x18,%esp
c010155d:	a1 10 c0 10 c0       	mov    0xc010c010,%eax
c0101562:	ff 75 10             	push   0x10(%ebp)
c0101565:	ff 75 0c             	push   0xc(%ebp)
c0101568:	ff 75 08             	push   0x8(%ebp)
c010156b:	50                   	push   %eax
c010156c:	e8 3d 01 00 00       	call   c01016ae <vmm_page_alloc>
c0101571:	83 c4 10             	add    $0x10,%esp
c0101574:	89 45 f4             	mov    %eax,-0xc(%ebp)
c0101577:	8b 45 f4             	mov    -0xc(%ebp),%eax
c010157a:	c9                   	leave
c010157b:	c3                   	ret

c010157c <page_kfree>:
c010157c:	55                   	push   %ebp
c010157d:	89 e5                	mov    %esp,%ebp
c010157f:	83 ec 08             	sub    $0x8,%esp
c0101582:	a1 10 c0 10 c0       	mov    0xc010c010,%eax
c0101587:	83 ec 08             	sub    $0x8,%esp
c010158a:	ff 75 08             	push   0x8(%ebp)
c010158d:	50                   	push   %eax
c010158e:	e8 d5 02 00 00       	call   c0101868 <vmm_page_free>
c0101593:	83 c4 10             	add    $0x10,%esp
c0101596:	90                   	nop
c0101597:	c9                   	leave
c0101598:	c3                   	ret

c0101599 <page_alloc>:
c0101599:	55                   	push   %ebp
c010159a:	89 e5                	mov    %esp,%ebp
c010159c:	83 ec 08             	sub    $0x8,%esp
c010159f:	a1 0c c0 10 c0       	mov    0xc010c00c,%eax
c01015a4:	ff 75 10             	push   0x10(%ebp)
c01015a7:	ff 75 0c             	push   0xc(%ebp)
c01015aa:	ff 75 08             	push   0x8(%ebp)
c01015ad:	50                   	push   %eax
c01015ae:	e8 fb 00 00 00       	call   c01016ae <vmm_page_alloc>
c01015b3:	83 c4 10             	add    $0x10,%esp
c01015b6:	c9                   	leave
c01015b7:	c3                   	ret

c01015b8 <page_free>:
c01015b8:	55                   	push   %ebp
c01015b9:	89 e5                	mov    %esp,%ebp
c01015bb:	83 ec 08             	sub    $0x8,%esp
c01015be:	a1 0c c0 10 c0       	mov    0xc010c00c,%eax
c01015c3:	83 ec 08             	sub    $0x8,%esp
c01015c6:	ff 75 08             	push   0x8(%ebp)
c01015c9:	50                   	push   %eax
c01015ca:	e8 99 02 00 00       	call   c0101868 <vmm_page_free>
c01015cf:	83 c4 10             	add    $0x10,%esp
c01015d2:	90                   	nop
c01015d3:	c9                   	leave
c01015d4:	c3                   	ret

c01015d5 <vmm_transfer_dynamic>:
c01015d5:	55                   	push   %ebp
c01015d6:	89 e5                	mov    %esp,%ebp
c01015d8:	83 ec 18             	sub    $0x18,%esp
c01015db:	83 ec 04             	sub    $0x4,%esp
c01015de:	6a 00                	push   $0x0
c01015e0:	6a 03                	push   $0x3
c01015e2:	68 00 10 00 00       	push   $0x1000
c01015e7:	e8 6b ff ff ff       	call   c0101557 <page_kalloc>
c01015ec:	83 c4 10             	add    $0x10,%esp
c01015ef:	89 45 f4             	mov    %eax,-0xc(%ebp)
c01015f2:	8b 45 08             	mov    0x8(%ebp),%eax
c01015f5:	8b 00                	mov    (%eax),%eax
c01015f7:	83 ec 04             	sub    $0x4,%esp
c01015fa:	68 00 10 00 00       	push   $0x1000
c01015ff:	50                   	push   %eax
c0101600:	ff 75 f4             	push   -0xc(%ebp)
c0101603:	e8 4c 1b 00 00       	call   c0103154 <memcpy>
c0101608:	83 c4 10             	add    $0x10,%esp
c010160b:	8b 45 08             	mov    0x8(%ebp),%eax
c010160e:	8b 00                	mov    (%eax),%eax
c0101610:	83 ec 04             	sub    $0x4,%esp
c0101613:	ff 75 f4             	push   -0xc(%ebp)
c0101616:	50                   	push   %eax
c0101617:	68 0c 71 10 c0       	push   $0xc010710c
c010161c:	e8 0a 17 00 00       	call   c0102d2b <logf>
c0101621:	83 c4 10             	add    $0x10,%esp
c0101624:	8b 45 08             	mov    0x8(%ebp),%eax
c0101627:	8b 00                	mov    (%eax),%eax
c0101629:	8b 40 04             	mov    0x4(%eax),%eax
c010162c:	89 c1                	mov    %eax,%ecx
c010162e:	8b 45 08             	mov    0x8(%ebp),%eax
c0101631:	8b 00                	mov    (%eax),%eax
c0101633:	89 c2                	mov    %eax,%edx
c0101635:	89 c8                	mov    %ecx,%eax
c0101637:	29 d0                	sub    %edx,%eax
c0101639:	89 45 f0             	mov    %eax,-0x10(%ebp)
c010163c:	8b 45 08             	mov    0x8(%ebp),%eax
c010163f:	89 45 ec             	mov    %eax,-0x14(%ebp)
c0101642:	8b 45 08             	mov    0x8(%ebp),%eax
c0101645:	8b 55 f4             	mov    -0xc(%ebp),%edx
c0101648:	89 10                	mov    %edx,(%eax)
c010164a:	8b 45 08             	mov    0x8(%ebp),%eax
c010164d:	8b 00                	mov    (%eax),%eax
c010164f:	89 c1                	mov    %eax,%ecx
c0101651:	8b 45 08             	mov    0x8(%ebp),%eax
c0101654:	8b 00                	mov    (%eax),%eax
c0101656:	8b 40 08             	mov    0x8(%eax),%eax
c0101659:	25 ff 03 00 00       	and    $0x3ff,%eax
c010165e:	89 c2                	mov    %eax,%edx
c0101660:	8b 45 08             	mov    0x8(%ebp),%eax
c0101663:	8b 00                	mov    (%eax),%eax
c0101665:	01 ca                	add    %ecx,%edx
c0101667:	89 50 08             	mov    %edx,0x8(%eax)
c010166a:	8b 45 08             	mov    0x8(%ebp),%eax
c010166d:	8b 00                	mov    (%eax),%eax
c010166f:	89 c2                	mov    %eax,%edx
c0101671:	8b 45 f0             	mov    -0x10(%ebp),%eax
c0101674:	01 c2                	add    %eax,%edx
c0101676:	8b 45 08             	mov    0x8(%ebp),%eax
c0101679:	8b 00                	mov    (%eax),%eax
c010167b:	89 50 04             	mov    %edx,0x4(%eax)
c010167e:	83 ec 08             	sub    $0x8,%esp
c0101681:	ff 75 ec             	push   -0x14(%ebp)
c0101684:	ff 75 0c             	push   0xc(%ebp)
c0101687:	e8 f8 0e 00 00       	call   c0102584 <memory_unmap>
c010168c:	83 c4 10             	add    $0x10,%esp
c010168f:	90                   	nop
c0101690:	c9                   	leave
c0101691:	c3                   	ret

c0101692 <set_kernel_vmm>:
c0101692:	55                   	push   %ebp
c0101693:	89 e5                	mov    %esp,%ebp
c0101695:	8b 45 08             	mov    0x8(%ebp),%eax
c0101698:	a3 10 c0 10 c0       	mov    %eax,0xc010c010
c010169d:	90                   	nop
c010169e:	5d                   	pop    %ebp
c010169f:	c3                   	ret

c01016a0 <set_current_vmm>:
c01016a0:	55                   	push   %ebp
c01016a1:	89 e5                	mov    %esp,%ebp
c01016a3:	8b 45 08             	mov    0x8(%ebp),%eax
c01016a6:	a3 0c c0 10 c0       	mov    %eax,0xc010c00c
c01016ab:	90                   	nop
c01016ac:	5d                   	pop    %ebp
c01016ad:	c3                   	ret

c01016ae <vmm_page_alloc>:
c01016ae:	55                   	push   %ebp
c01016af:	89 e5                	mov    %esp,%ebp
c01016b1:	53                   	push   %ebx
c01016b2:	83 ec 24             	sub    $0x24,%esp
c01016b5:	8b 45 08             	mov    0x8(%ebp),%eax
c01016b8:	8b 40 04             	mov    0x4(%eax),%eax
c01016bb:	89 45 f4             	mov    %eax,-0xc(%ebp)
c01016be:	8b 45 0c             	mov    0xc(%ebp),%eax
c01016c1:	05 ff 0f 00 00       	add    $0xfff,%eax
c01016c6:	25 00 f0 ff ff       	and    $0xfffff000,%eax
c01016cb:	89 45 0c             	mov    %eax,0xc(%ebp)
c01016ce:	83 ec 08             	sub    $0x8,%esp
c01016d1:	ff 75 08             	push   0x8(%ebp)
c01016d4:	68 38 71 10 c0       	push   $0xc0107138
c01016d9:	e8 4d 16 00 00       	call   c0102d2b <logf>
c01016de:	83 c4 10             	add    $0x10,%esp
c01016e1:	83 7d f4 00          	cmpl   $0x0,-0xc(%ebp)
c01016e5:	75 1a                	jne    c0101701 <vmm_page_alloc+0x53>
c01016e7:	83 ec 0c             	sub    $0xc,%esp
c01016ea:	68 68 71 10 c0       	push   $0xc0107168
c01016ef:	e8 37 16 00 00       	call   c0102d2b <logf>
c01016f4:	83 c4 10             	add    $0x10,%esp
c01016f7:	b8 00 00 00 00       	mov    $0x0,%eax
c01016fc:	e9 62 01 00 00       	jmp    c0101863 <vmm_page_alloc+0x1b5>
c0101701:	c7 45 f0 00 00 00 00 	movl   $0x0,-0x10(%ebp)
c0101708:	eb 38                	jmp    c0101742 <vmm_page_alloc+0x94>
c010170a:	8b 45 f4             	mov    -0xc(%ebp),%eax
c010170d:	8b 40 08             	mov    0x8(%eax),%eax
c0101710:	39 45 0c             	cmp    %eax,0xc(%ebp)
c0101713:	75 08                	jne    c010171d <vmm_page_alloc+0x6f>
c0101715:	8b 45 f4             	mov    -0xc(%ebp),%eax
c0101718:	89 45 f0             	mov    %eax,-0x10(%ebp)
c010171b:	eb 2b                	jmp    c0101748 <vmm_page_alloc+0x9a>
c010171d:	8b 45 f4             	mov    -0xc(%ebp),%eax
c0101720:	8b 40 08             	mov    0x8(%eax),%eax
c0101723:	39 45 0c             	cmp    %eax,0xc(%ebp)
c0101726:	72 0b                	jb     c0101733 <vmm_page_alloc+0x85>
c0101728:	8b 45 f4             	mov    -0xc(%ebp),%eax
c010172b:	8b 40 18             	mov    0x18(%eax),%eax
c010172e:	89 45 f4             	mov    %eax,-0xc(%ebp)
c0101731:	eb 0f                	jmp    c0101742 <vmm_page_alloc+0x94>
c0101733:	8b 45 f4             	mov    -0xc(%ebp),%eax
c0101736:	89 45 f0             	mov    %eax,-0x10(%ebp)
c0101739:	8b 45 f4             	mov    -0xc(%ebp),%eax
c010173c:	8b 40 14             	mov    0x14(%eax),%eax
c010173f:	89 45 f4             	mov    %eax,-0xc(%ebp)
c0101742:	83 7d f4 00          	cmpl   $0x0,-0xc(%ebp)
c0101746:	75 c2                	jne    c010170a <vmm_page_alloc+0x5c>
c0101748:	83 7d f0 00          	cmpl   $0x0,-0x10(%ebp)
c010174c:	75 1a                	jne    c0101768 <vmm_page_alloc+0xba>
c010174e:	83 ec 0c             	sub    $0xc,%esp
c0101751:	68 8a 71 10 c0       	push   $0xc010718a
c0101756:	e8 d0 15 00 00       	call   c0102d2b <logf>
c010175b:	83 c4 10             	add    $0x10,%esp
c010175e:	b8 00 00 00 00       	mov    $0x0,%eax
c0101763:	e9 fb 00 00 00       	jmp    c0101863 <vmm_page_alloc+0x1b5>
c0101768:	8b 45 f0             	mov    -0x10(%ebp),%eax
c010176b:	8b 40 08             	mov    0x8(%eax),%eax
c010176e:	39 45 0c             	cmp    %eax,0xc(%ebp)
c0101771:	73 23                	jae    c0101796 <vmm_page_alloc+0xe8>
c0101773:	8b 45 f0             	mov    -0x10(%ebp),%eax
c0101776:	8b 40 08             	mov    0x8(%eax),%eax
c0101779:	2b 45 0c             	sub    0xc(%ebp),%eax
c010177c:	8b 55 f0             	mov    -0x10(%ebp),%edx
c010177f:	8b 4a 04             	mov    0x4(%edx),%ecx
c0101782:	8b 55 0c             	mov    0xc(%ebp),%edx
c0101785:	01 ca                	add    %ecx,%edx
c0101787:	6a 00                	push   $0x0
c0101789:	50                   	push   %eax
c010178a:	52                   	push   %edx
c010178b:	ff 75 08             	push   0x8(%ebp)
c010178e:	e8 53 4b 00 00       	call   c01062e6 <make_node>
c0101793:	83 c4 10             	add    $0x10,%esp
c0101796:	8b 45 f0             	mov    -0x10(%ebp),%eax
c0101799:	8b 40 04             	mov    0x4(%eax),%eax
c010179c:	89 45 e4             	mov    %eax,-0x1c(%ebp)
c010179f:	a1 10 c0 10 c0       	mov    0xc010c010,%eax
c01017a4:	83 c0 04             	add    $0x4,%eax
c01017a7:	83 ec 04             	sub    $0x4,%esp
c01017aa:	ff 75 f0             	push   -0x10(%ebp)
c01017ad:	50                   	push   %eax
c01017ae:	ff 75 08             	push   0x8(%ebp)
c01017b1:	e8 26 49 00 00       	call   c01060dc <delete_node>
c01017b6:	83 c4 10             	add    $0x10,%esp
c01017b9:	83 7d 14 00          	cmpl   $0x0,0x14(%ebp)
c01017bd:	75 3c                	jne    c01017fb <vmm_page_alloc+0x14d>
c01017bf:	c7 45 ec 00 00 00 00 	movl   $0x0,-0x14(%ebp)
c01017c6:	eb 29                	jmp    c01017f1 <vmm_page_alloc+0x143>
c01017c8:	8b 55 ec             	mov    -0x14(%ebp),%edx
c01017cb:	8b 45 e4             	mov    -0x1c(%ebp),%eax
c01017ce:	01 d0                	add    %edx,%eax
c01017d0:	89 c3                	mov    %eax,%ebx
c01017d2:	e8 cf fa ff ff       	call   c01012a6 <alloc_phys_page>
c01017d7:	8b 55 08             	mov    0x8(%ebp),%edx
c01017da:	8b 12                	mov    (%edx),%edx
c01017dc:	ff 75 10             	push   0x10(%ebp)
c01017df:	53                   	push   %ebx
c01017e0:	50                   	push   %eax
c01017e1:	52                   	push   %edx
c01017e2:	e8 12 0d 00 00       	call   c01024f9 <memory_map>
c01017e7:	83 c4 10             	add    $0x10,%esp
c01017ea:	81 45 ec 00 10 00 00 	addl   $0x1000,-0x14(%ebp)
c01017f1:	8b 45 ec             	mov    -0x14(%ebp),%eax
c01017f4:	3b 45 0c             	cmp    0xc(%ebp),%eax
c01017f7:	72 cf                	jb     c01017c8 <vmm_page_alloc+0x11a>
c01017f9:	eb 46                	jmp    c0101841 <vmm_page_alloc+0x193>
c01017fb:	c7 45 e8 00 00 00 00 	movl   $0x0,-0x18(%ebp)
c0101802:	eb 35                	jmp    c0101839 <vmm_page_alloc+0x18b>
c0101804:	8b 55 e8             	mov    -0x18(%ebp),%edx
c0101807:	8b 45 e4             	mov    -0x1c(%ebp),%eax
c010180a:	01 d0                	add    %edx,%eax
c010180c:	89 c1                	mov    %eax,%ecx
c010180e:	8b 45 14             	mov    0x14(%ebp),%eax
c0101811:	25 00 f0 ff ff       	and    $0xfffff000,%eax
c0101816:	89 c2                	mov    %eax,%edx
c0101818:	8b 45 e8             	mov    -0x18(%ebp),%eax
c010181b:	01 d0                	add    %edx,%eax
c010181d:	89 c2                	mov    %eax,%edx
c010181f:	8b 45 08             	mov    0x8(%ebp),%eax
c0101822:	8b 00                	mov    (%eax),%eax
c0101824:	ff 75 10             	push   0x10(%ebp)
c0101827:	51                   	push   %ecx
c0101828:	52                   	push   %edx
c0101829:	50                   	push   %eax
c010182a:	e8 ca 0c 00 00       	call   c01024f9 <memory_map>
c010182f:	83 c4 10             	add    $0x10,%esp
c0101832:	81 45 e8 00 10 00 00 	addl   $0x1000,-0x18(%ebp)
c0101839:	8b 45 e8             	mov    -0x18(%ebp),%eax
c010183c:	3b 45 0c             	cmp    0xc(%ebp),%eax
c010183f:	72 c3                	jb     c0101804 <vmm_page_alloc+0x156>
c0101841:	83 ec 08             	sub    $0x8,%esp
c0101844:	ff 75 14             	push   0x14(%ebp)
c0101847:	68 a1 71 10 c0       	push   $0xc01071a1
c010184c:	e8 da 14 00 00       	call   c0102d2b <logf>
c0101851:	83 c4 10             	add    $0x10,%esp
c0101854:	8b 45 14             	mov    0x14(%ebp),%eax
c0101857:	25 ff 0f 00 00       	and    $0xfff,%eax
c010185c:	89 c2                	mov    %eax,%edx
c010185e:	8b 45 e4             	mov    -0x1c(%ebp),%eax
c0101861:	01 d0                	add    %edx,%eax
c0101863:	8b 5d fc             	mov    -0x4(%ebp),%ebx
c0101866:	c9                   	leave
c0101867:	c3                   	ret

c0101868 <vmm_page_free>:
c0101868:	55                   	push   %ebp
c0101869:	89 e5                	mov    %esp,%ebp
c010186b:	83 ec 18             	sub    $0x18,%esp
c010186e:	8b 45 08             	mov    0x8(%ebp),%eax
c0101871:	8b 00                	mov    (%eax),%eax
c0101873:	89 45 f4             	mov    %eax,-0xc(%ebp)
c0101876:	8b 45 0c             	mov    0xc(%ebp),%eax
c0101879:	c1 e8 16             	shr    $0x16,%eax
c010187c:	8d 14 85 00 00 00 00 	lea    0x0(,%eax,4),%edx
c0101883:	8b 45 f4             	mov    -0xc(%ebp),%eax
c0101886:	01 d0                	add    %edx,%eax
c0101888:	8b 00                	mov    (%eax),%eax
c010188a:	25 00 fc ff ff       	and    $0xfffffc00,%eax
c010188f:	89 45 f0             	mov    %eax,-0x10(%ebp)
c0101892:	83 7d f0 00          	cmpl   $0x0,-0x10(%ebp)
c0101896:	74 52                	je     c01018ea <vmm_page_free+0x82>
c0101898:	8b 45 0c             	mov    0xc(%ebp),%eax
c010189b:	c1 e8 0c             	shr    $0xc,%eax
c010189e:	25 00 fc ff ff       	and    $0xfffffc00,%eax
c01018a3:	8d 14 85 00 00 00 00 	lea    0x0(,%eax,4),%edx
c01018aa:	8b 45 f0             	mov    -0x10(%ebp),%eax
c01018ad:	01 d0                	add    %edx,%eax
c01018af:	8b 00                	mov    (%eax),%eax
c01018b1:	89 45 ec             	mov    %eax,-0x14(%ebp)
c01018b4:	8b 45 ec             	mov    -0x14(%ebp),%eax
c01018b7:	83 e0 01             	and    $0x1,%eax
c01018ba:	85 c0                	test   %eax,%eax
c01018bc:	74 2f                	je     c01018ed <vmm_page_free+0x85>
c01018be:	8b 45 0c             	mov    0xc(%ebp),%eax
c01018c1:	6a 00                	push   $0x0
c01018c3:	68 00 10 00 00       	push   $0x1000
c01018c8:	50                   	push   %eax
c01018c9:	ff 75 08             	push   0x8(%ebp)
c01018cc:	e8 15 4a 00 00       	call   c01062e6 <make_node>
c01018d1:	83 c4 10             	add    $0x10,%esp
c01018d4:	8b 45 08             	mov    0x8(%ebp),%eax
c01018d7:	8b 00                	mov    (%eax),%eax
c01018d9:	83 ec 08             	sub    $0x8,%esp
c01018dc:	ff 75 0c             	push   0xc(%ebp)
c01018df:	50                   	push   %eax
c01018e0:	e8 9f 0c 00 00       	call   c0102584 <memory_unmap>
c01018e5:	83 c4 10             	add    $0x10,%esp
c01018e8:	eb 04                	jmp    c01018ee <vmm_page_free+0x86>
c01018ea:	90                   	nop
c01018eb:	eb 01                	jmp    c01018ee <vmm_page_free+0x86>
c01018ed:	90                   	nop
c01018ee:	c9                   	leave
c01018ef:	c3                   	ret

c01018f0 <init_user_memory>:
c01018f0:	55                   	push   %ebp
c01018f1:	89 e5                	mov    %esp,%ebp
c01018f3:	83 ec 18             	sub    $0x18,%esp
c01018f6:	83 ec 04             	sub    $0x4,%esp
c01018f9:	6a 00                	push   $0x0
c01018fb:	6a 03                	push   $0x3
c01018fd:	68 00 10 00 00       	push   $0x1000
c0101902:	e8 50 fc ff ff       	call   c0101557 <page_kalloc>
c0101907:	83 c4 10             	add    $0x10,%esp
c010190a:	89 45 f4             	mov    %eax,-0xc(%ebp)
c010190d:	90                   	nop
c010190e:	c9                   	leave
c010190f:	c3                   	ret

c0101910 <alloc_stack>:
c0101910:	55                   	push   %ebp
c0101911:	89 e5                	mov    %esp,%ebp
c0101913:	83 ec 18             	sub    $0x18,%esp
c0101916:	8b 45 08             	mov    0x8(%ebp),%eax
c0101919:	a3 0c c0 10 c0       	mov    %eax,0xc010c00c
c010191e:	83 ec 04             	sub    $0x4,%esp
c0101921:	6a 00                	push   $0x0
c0101923:	6a 03                	push   $0x3
c0101925:	68 00 10 00 00       	push   $0x1000
c010192a:	e8 6a fc ff ff       	call   c0101599 <page_alloc>
c010192f:	83 c4 10             	add    $0x10,%esp
c0101932:	89 45 f4             	mov    %eax,-0xc(%ebp)
c0101935:	8b 45 f4             	mov    -0xc(%ebp),%eax
c0101938:	05 ff 0f 00 00       	add    $0xfff,%eax
c010193d:	c9                   	leave
c010193e:	c3                   	ret

c010193f <test1>:
c010193f:	55                   	push   %ebp
c0101940:	89 e5                	mov    %esp,%ebp
c0101942:	90                   	nop
c0101943:	5d                   	pop    %ebp
c0101944:	c3                   	ret

c0101945 <test2>:
c0101945:	55                   	push   %ebp
c0101946:	89 e5                	mov    %esp,%ebp
c0101948:	90                   	nop
c0101949:	5d                   	pop    %ebp
c010194a:	c3                   	ret

c010194b <get_pixel_addr>:
c010194b:	55                   	push   %ebp
c010194c:	89 e5                	mov    %esp,%ebp
c010194e:	83 ec 10             	sub    $0x10,%esp
c0101951:	a1 20 c0 10 c0       	mov    0xc010c020,%eax
c0101956:	8b 40 14             	mov    0x14(%eax),%eax
c0101959:	3b 45 08             	cmp    0x8(%ebp),%eax
c010195c:	73 0b                	jae    c0101969 <get_pixel_addr+0x1e>
c010195e:	a1 20 c0 10 c0       	mov    0xc010c020,%eax
c0101963:	8b 40 14             	mov    0x14(%eax),%eax
c0101966:	89 45 08             	mov    %eax,0x8(%ebp)
c0101969:	a1 20 c0 10 c0       	mov    0xc010c020,%eax
c010196e:	8b 40 18             	mov    0x18(%eax),%eax
c0101971:	3b 45 0c             	cmp    0xc(%ebp),%eax
c0101974:	73 0b                	jae    c0101981 <get_pixel_addr+0x36>
c0101976:	a1 20 c0 10 c0       	mov    0xc010c020,%eax
c010197b:	8b 40 18             	mov    0x18(%eax),%eax
c010197e:	89 45 0c             	mov    %eax,0xc(%ebp)
c0101981:	a1 20 c0 10 c0       	mov    0xc010c020,%eax
c0101986:	8b 40 10             	mov    0x10(%eax),%eax
c0101989:	8b 55 0c             	mov    0xc(%ebp),%edx
c010198c:	0f af c2             	imul   %edx,%eax
c010198f:	89 45 fc             	mov    %eax,-0x4(%ebp)
c0101992:	a1 30 c0 10 c0       	mov    0xc010c030,%eax
c0101997:	8b 55 08             	mov    0x8(%ebp),%edx
c010199a:	0f af c2             	imul   %edx,%eax
c010199d:	89 45 f8             	mov    %eax,-0x8(%ebp)
c01019a0:	a1 8c f0 10 c0       	mov    0xc010f08c,%eax
c01019a5:	89 c2                	mov    %eax,%edx
c01019a7:	8b 45 fc             	mov    -0x4(%ebp),%eax
c01019aa:	01 c2                	add    %eax,%edx
c01019ac:	8b 45 f8             	mov    -0x8(%ebp),%eax
c01019af:	01 d0                	add    %edx,%eax
c01019b1:	89 45 f4             	mov    %eax,-0xc(%ebp)
c01019b4:	8b 45 f4             	mov    -0xc(%ebp),%eax
c01019b7:	c9                   	leave
c01019b8:	c3                   	ret

c01019b9 <init_framebuffer>:
c01019b9:	55                   	push   %ebp
c01019ba:	89 e5                	mov    %esp,%ebp
c01019bc:	83 ec 18             	sub    $0x18,%esp
c01019bf:	a1 20 c0 10 c0       	mov    0xc010c020,%eax
c01019c4:	8b 50 0c             	mov    0xc(%eax),%edx
c01019c7:	8b 40 08             	mov    0x8(%eax),%eax
c01019ca:	89 45 f4             	mov    %eax,-0xc(%ebp)
c01019cd:	a1 20 c0 10 c0       	mov    0xc010c020,%eax
c01019d2:	8b 50 10             	mov    0x10(%eax),%edx
c01019d5:	a1 20 c0 10 c0       	mov    0xc010c020,%eax
c01019da:	8b 40 18             	mov    0x18(%eax),%eax
c01019dd:	0f af c2             	imul   %edx,%eax
c01019e0:	89 45 f0             	mov    %eax,-0x10(%ebp)
c01019e3:	a1 20 c0 10 c0       	mov    0xc010c020,%eax
c01019e8:	0f b6 40 1d          	movzbl 0x1d(%eax),%eax
c01019ec:	0f b6 c0             	movzbl %al,%eax
c01019ef:	83 ec 08             	sub    $0x8,%esp
c01019f2:	50                   	push   %eax
c01019f3:	68 b4 71 10 c0       	push   $0xc01071b4
c01019f8:	e8 2e 13 00 00       	call   c0102d2b <logf>
c01019fd:	83 c4 10             	add    $0x10,%esp
c0101a00:	83 ec 08             	sub    $0x8,%esp
c0101a03:	ff 75 f4             	push   -0xc(%ebp)
c0101a06:	68 cd 71 10 c0       	push   $0xc01071cd
c0101a0b:	e8 1b 13 00 00       	call   c0102d2b <logf>
c0101a10:	83 c4 10             	add    $0x10,%esp
c0101a13:	8b 45 f4             	mov    -0xc(%ebp),%eax
c0101a16:	83 ec 04             	sub    $0x4,%esp
c0101a19:	50                   	push   %eax
c0101a1a:	6a 03                	push   $0x3
c0101a1c:	ff 75 f0             	push   -0x10(%ebp)
c0101a1f:	e8 33 fb ff ff       	call   c0101557 <page_kalloc>
c0101a24:	83 c4 10             	add    $0x10,%esp
c0101a27:	a3 8c f0 10 c0       	mov    %eax,0xc010f08c
c0101a2c:	a1 20 c0 10 c0       	mov    0xc010c020,%eax
c0101a31:	0f b6 40 1c          	movzbl 0x1c(%eax),%eax
c0101a35:	c0 e8 03             	shr    $0x3,%al
c0101a38:	0f b6 c0             	movzbl %al,%eax
c0101a3b:	a3 30 c0 10 c0       	mov    %eax,0xc010c030
c0101a40:	a1 20 c0 10 c0       	mov    0xc010c020,%eax
c0101a45:	8b 40 14             	mov    0x14(%eax),%eax
c0101a48:	0f b7 c0             	movzwl %ax,%eax
c0101a4b:	83 ec 0c             	sub    $0xc,%esp
c0101a4e:	50                   	push   %eax
c0101a4f:	e8 d2 25 00 00       	call   c0104026 <fb_set_width>
c0101a54:	83 c4 10             	add    $0x10,%esp
c0101a57:	a1 20 c0 10 c0       	mov    0xc010c020,%eax
c0101a5c:	8b 40 18             	mov    0x18(%eax),%eax
c0101a5f:	0f b7 c0             	movzwl %ax,%eax
c0101a62:	83 ec 0c             	sub    $0xc,%esp
c0101a65:	50                   	push   %eax
c0101a66:	e8 d5 25 00 00       	call   c0104040 <fb_set_height>
c0101a6b:	83 c4 10             	add    $0x10,%esp
c0101a6e:	90                   	nop
c0101a6f:	c9                   	leave
c0101a70:	c3                   	ret

c0101a71 <parse_MADT>:
c0101a71:	55                   	push   %ebp
c0101a72:	89 e5                	mov    %esp,%ebp
c0101a74:	83 ec 38             	sub    $0x38,%esp
c0101a77:	8b 55 08             	mov    0x8(%ebp),%edx
c0101a7a:	8b 45 0c             	mov    0xc(%ebp),%eax
c0101a7d:	88 55 d4             	mov    %dl,-0x2c(%ebp)
c0101a80:	88 45 d0             	mov    %al,-0x30(%ebp)
c0101a83:	83 ec 0c             	sub    $0xc,%esp
c0101a86:	68 da 71 10 c0       	push   $0xc01071da
c0101a8b:	e8 cf 00 00 00       	call   c0101b5f <get_sdt_by_signature>
c0101a90:	83 c4 10             	add    $0x10,%esp
c0101a93:	89 45 e8             	mov    %eax,-0x18(%ebp)
c0101a96:	66 c7 45 f6 2c 00    	movw   $0x2c,-0xa(%ebp)
c0101a9c:	0f b7 55 f6          	movzwl -0xa(%ebp),%edx
c0101aa0:	8b 45 e8             	mov    -0x18(%ebp),%eax
c0101aa3:	01 d0                	add    %edx,%eax
c0101aa5:	89 45 f0             	mov    %eax,-0x10(%ebp)
c0101aa8:	c6 45 ef 00          	movb   $0x0,-0x11(%ebp)
c0101aac:	eb 47                	jmp    c0101af5 <parse_MADT+0x84>
c0101aae:	8b 45 f0             	mov    -0x10(%ebp),%eax
c0101ab1:	89 45 e4             	mov    %eax,-0x1c(%ebp)
c0101ab4:	8b 45 e4             	mov    -0x1c(%ebp),%eax
c0101ab7:	0f b6 00             	movzbl (%eax),%eax
c0101aba:	38 45 d4             	cmp    %al,-0x2c(%ebp)
c0101abd:	75 1b                	jne    c0101ada <parse_MADT+0x69>
c0101abf:	0f b6 45 ef          	movzbl -0x11(%ebp),%eax
c0101ac3:	83 c0 01             	add    $0x1,%eax
c0101ac6:	88 45 ef             	mov    %al,-0x11(%ebp)
c0101ac9:	0f b6 45 ef          	movzbl -0x11(%ebp),%eax
c0101acd:	3a 45 d0             	cmp    -0x30(%ebp),%al
c0101ad0:	75 08                	jne    c0101ada <parse_MADT+0x69>
c0101ad2:	8b 45 f0             	mov    -0x10(%ebp),%eax
c0101ad5:	83 c0 02             	add    $0x2,%eax
c0101ad8:	eb 43                	jmp    c0101b1d <parse_MADT+0xac>
c0101ada:	8b 45 e4             	mov    -0x1c(%ebp),%eax
c0101add:	0f b6 40 01          	movzbl 0x1(%eax),%eax
c0101ae1:	0f b6 c0             	movzbl %al,%eax
c0101ae4:	66 01 45 f6          	add    %ax,-0xa(%ebp)
c0101ae8:	8b 45 e4             	mov    -0x1c(%ebp),%eax
c0101aeb:	0f b6 40 01          	movzbl 0x1(%eax),%eax
c0101aef:	0f b6 c0             	movzbl %al,%eax
c0101af2:	01 45 f0             	add    %eax,-0x10(%ebp)
c0101af5:	0f b7 45 f6          	movzwl -0xa(%ebp),%eax
c0101af9:	8b 55 e8             	mov    -0x18(%ebp),%edx
c0101afc:	8b 52 04             	mov    0x4(%edx),%edx
c0101aff:	39 c2                	cmp    %eax,%edx
c0101b01:	73 ab                	jae    c0101aae <parse_MADT+0x3d>
c0101b03:	0f b6 45 d4          	movzbl -0x2c(%ebp),%eax
c0101b07:	83 ec 08             	sub    $0x8,%esp
c0101b0a:	50                   	push   %eax
c0101b0b:	68 e0 71 10 c0       	push   $0xc01071e0
c0101b10:	e8 16 12 00 00       	call   c0102d2b <logf>
c0101b15:	83 c4 10             	add    $0x10,%esp
c0101b18:	b8 00 00 00 00       	mov    $0x0,%eax
c0101b1d:	c9                   	leave
c0101b1e:	c3                   	ret

c0101b1f <validate_RSDP>:
c0101b1f:	55                   	push   %ebp
c0101b20:	89 e5                	mov    %esp,%ebp
c0101b22:	83 ec 10             	sub    $0x10,%esp
c0101b25:	c7 45 fc 00 00 00 00 	movl   $0x0,-0x4(%ebp)
c0101b2c:	c7 45 f8 00 00 00 00 	movl   $0x0,-0x8(%ebp)
c0101b33:	eb 15                	jmp    c0101b4a <validate_RSDP+0x2b>
c0101b35:	8b 55 f8             	mov    -0x8(%ebp),%edx
c0101b38:	8b 45 08             	mov    0x8(%ebp),%eax
c0101b3b:	01 d0                	add    %edx,%eax
c0101b3d:	0f b6 00             	movzbl (%eax),%eax
c0101b40:	0f be c0             	movsbl %al,%eax
c0101b43:	01 45 fc             	add    %eax,-0x4(%ebp)
c0101b46:	83 45 f8 01          	addl   $0x1,-0x8(%ebp)
c0101b4a:	8b 45 f8             	mov    -0x8(%ebp),%eax
c0101b4d:	3b 45 0c             	cmp    0xc(%ebp),%eax
c0101b50:	72 e3                	jb     c0101b35 <validate_RSDP+0x16>
c0101b52:	8b 45 fc             	mov    -0x4(%ebp),%eax
c0101b55:	0f b6 c0             	movzbl %al,%eax
c0101b58:	85 c0                	test   %eax,%eax
c0101b5a:	0f 94 c0             	sete   %al
c0101b5d:	c9                   	leave
c0101b5e:	c3                   	ret

c0101b5f <get_sdt_by_signature>:
c0101b5f:	55                   	push   %ebp
c0101b60:	89 e5                	mov    %esp,%ebp
c0101b62:	83 ec 28             	sub    $0x28,%esp
c0101b65:	a1 1c c0 10 c0       	mov    0xc010c01c,%eax
c0101b6a:	8b 40 04             	mov    0x4(%eax),%eax
c0101b6d:	83 e8 24             	sub    $0x24,%eax
c0101b70:	c1 e8 02             	shr    $0x2,%eax
c0101b73:	83 e8 01             	sub    $0x1,%eax
c0101b76:	89 45 f0             	mov    %eax,-0x10(%ebp)
c0101b79:	a1 1c c0 10 c0       	mov    0xc010c01c,%eax
c0101b7e:	89 45 ec             	mov    %eax,-0x14(%ebp)
c0101b81:	8b 45 ec             	mov    -0x14(%ebp),%eax
c0101b84:	8b 40 04             	mov    0x4(%eax),%eax
c0101b87:	83 e8 24             	sub    $0x24,%eax
c0101b8a:	c1 e8 02             	shr    $0x2,%eax
c0101b8d:	89 45 e8             	mov    %eax,-0x18(%ebp)
c0101b90:	c7 45 f4 00 00 00 00 	movl   $0x0,-0xc(%ebp)
c0101b97:	eb 31                	jmp    c0101bca <get_sdt_by_signature+0x6b>
c0101b99:	8b 45 ec             	mov    -0x14(%ebp),%eax
c0101b9c:	8b 55 f4             	mov    -0xc(%ebp),%edx
c0101b9f:	83 c2 08             	add    $0x8,%edx
c0101ba2:	8b 44 90 04          	mov    0x4(%eax,%edx,4),%eax
c0101ba6:	89 45 e4             	mov    %eax,-0x1c(%ebp)
c0101ba9:	8b 45 e4             	mov    -0x1c(%ebp),%eax
c0101bac:	83 ec 04             	sub    $0x4,%esp
c0101baf:	6a 04                	push   $0x4
c0101bb1:	50                   	push   %eax
c0101bb2:	ff 75 08             	push   0x8(%ebp)
c0101bb5:	e8 3c 16 00 00       	call   c01031f6 <strcmp>
c0101bba:	83 c4 10             	add    $0x10,%esp
c0101bbd:	84 c0                	test   %al,%al
c0101bbf:	74 05                	je     c0101bc6 <get_sdt_by_signature+0x67>
c0101bc1:	8b 45 e4             	mov    -0x1c(%ebp),%eax
c0101bc4:	eb 21                	jmp    c0101be7 <get_sdt_by_signature+0x88>
c0101bc6:	83 45 f4 01          	addl   $0x1,-0xc(%ebp)
c0101bca:	8b 45 f4             	mov    -0xc(%ebp),%eax
c0101bcd:	3b 45 e8             	cmp    -0x18(%ebp),%eax
c0101bd0:	7c c7                	jl     c0101b99 <get_sdt_by_signature+0x3a>
c0101bd2:	83 ec 0c             	sub    $0xc,%esp
c0101bd5:	68 04 72 10 c0       	push   $0xc0107204
c0101bda:	e8 c5 12 00 00       	call   c0102ea4 <panic>
c0101bdf:	83 c4 10             	add    $0x10,%esp
c0101be2:	b8 00 00 00 00       	mov    $0x0,%eax
c0101be7:	c9                   	leave
c0101be8:	c3                   	ret

c0101be9 <init_rsdt_v1>:
c0101be9:	55                   	push   %ebp
c0101bea:	89 e5                	mov    %esp,%ebp
c0101bec:	83 ec 18             	sub    $0x18,%esp
c0101bef:	a1 24 c0 10 c0       	mov    0xc010c024,%eax
c0101bf4:	85 c0                	test   %eax,%eax
c0101bf6:	74 69                	je     c0101c61 <init_rsdt_v1+0x78>
c0101bf8:	a1 24 c0 10 c0       	mov    0xc010c024,%eax
c0101bfd:	83 c0 08             	add    $0x8,%eax
c0101c00:	89 45 f4             	mov    %eax,-0xc(%ebp)
c0101c03:	6a 04                	push   $0x4
c0101c05:	ff 75 f4             	push   -0xc(%ebp)
c0101c08:	e8 12 ff ff ff       	call   c0101b1f <validate_RSDP>
c0101c0d:	83 c4 08             	add    $0x8,%esp
c0101c10:	84 c0                	test   %al,%al
c0101c12:	74 12                	je     c0101c26 <init_rsdt_v1+0x3d>
c0101c14:	83 ec 0c             	sub    $0xc,%esp
c0101c17:	68 28 72 10 c0       	push   $0xc0107228
c0101c1c:	e8 0a 11 00 00       	call   c0102d2b <logf>
c0101c21:	83 c4 10             	add    $0x10,%esp
c0101c24:	eb 3c                	jmp    c0101c62 <init_rsdt_v1+0x79>
c0101c26:	8b 45 f4             	mov    -0xc(%ebp),%eax
c0101c29:	8b 40 10             	mov    0x10(%eax),%eax
c0101c2c:	25 00 f0 ff ff       	and    $0xfffff000,%eax
c0101c31:	89 c1                	mov    %eax,%ecx
c0101c33:	8b 45 f4             	mov    -0xc(%ebp),%eax
c0101c36:	8b 40 10             	mov    0x10(%eax),%eax
c0101c39:	25 00 f0 ff ff       	and    $0xfffff000,%eax
c0101c3e:	89 c2                	mov    %eax,%edx
c0101c40:	a1 0c c0 10 c0       	mov    0xc010c00c,%eax
c0101c45:	8b 00                	mov    (%eax),%eax
c0101c47:	6a 01                	push   $0x1
c0101c49:	51                   	push   %ecx
c0101c4a:	52                   	push   %edx
c0101c4b:	50                   	push   %eax
c0101c4c:	e8 a8 08 00 00       	call   c01024f9 <memory_map>
c0101c51:	83 c4 10             	add    $0x10,%esp
c0101c54:	8b 45 f4             	mov    -0xc(%ebp),%eax
c0101c57:	8b 40 10             	mov    0x10(%eax),%eax
c0101c5a:	a3 1c c0 10 c0       	mov    %eax,0xc010c01c
c0101c5f:	eb 01                	jmp    c0101c62 <init_rsdt_v1+0x79>
c0101c61:	90                   	nop
c0101c62:	c9                   	leave
c0101c63:	c3                   	ret

c0101c64 <init_multiboot>:
c0101c64:	55                   	push   %ebp
c0101c65:	89 e5                	mov    %esp,%ebp
c0101c67:	83 ec 28             	sub    $0x28,%esp
c0101c6a:	c7 45 e4 00 00 00 00 	movl   $0x0,-0x1c(%ebp)
c0101c71:	c7 45 e8 00 00 00 00 	movl   $0x0,-0x18(%ebp)
c0101c78:	c7 45 ec 00 00 00 00 	movl   $0x0,-0x14(%ebp)
c0101c7f:	8b 45 0c             	mov    0xc(%ebp),%eax
c0101c82:	8b 00                	mov    (%eax),%eax
c0101c84:	89 45 f0             	mov    %eax,-0x10(%ebp)
c0101c87:	8b 45 0c             	mov    0xc(%ebp),%eax
c0101c8a:	83 c0 08             	add    $0x8,%eax
c0101c8d:	89 45 f4             	mov    %eax,-0xc(%ebp)
c0101c90:	eb 5d                	jmp    c0101cef <init_multiboot+0x8b>
c0101c92:	8b 45 f4             	mov    -0xc(%ebp),%eax
c0101c95:	8b 00                	mov    (%eax),%eax
c0101c97:	83 f8 0f             	cmp    $0xf,%eax
c0101c9a:	74 43                	je     c0101cdf <init_multiboot+0x7b>
c0101c9c:	83 f8 0f             	cmp    $0xf,%eax
c0101c9f:	77 3f                	ja     c0101ce0 <init_multiboot+0x7c>
c0101ca1:	83 f8 0e             	cmp    $0xe,%eax
c0101ca4:	74 31                	je     c0101cd7 <init_multiboot+0x73>
c0101ca6:	83 f8 0e             	cmp    $0xe,%eax
c0101ca9:	77 35                	ja     c0101ce0 <init_multiboot+0x7c>
c0101cab:	83 f8 06             	cmp    $0x6,%eax
c0101cae:	74 07                	je     c0101cb7 <init_multiboot+0x53>
c0101cb0:	83 f8 08             	cmp    $0x8,%eax
c0101cb3:	74 1a                	je     c0101ccf <init_multiboot+0x6b>
c0101cb5:	eb 29                	jmp    c0101ce0 <init_multiboot+0x7c>
c0101cb7:	83 ec 0c             	sub    $0xc,%esp
c0101cba:	68 42 72 10 c0       	push   $0xc0107242
c0101cbf:	e8 67 10 00 00       	call   c0102d2b <logf>
c0101cc4:	83 c4 10             	add    $0x10,%esp
c0101cc7:	8b 45 f4             	mov    -0xc(%ebp),%eax
c0101cca:	89 45 e4             	mov    %eax,-0x1c(%ebp)
c0101ccd:	eb 11                	jmp    c0101ce0 <init_multiboot+0x7c>
c0101ccf:	8b 45 f4             	mov    -0xc(%ebp),%eax
c0101cd2:	89 45 e8             	mov    %eax,-0x18(%ebp)
c0101cd5:	eb 09                	jmp    c0101ce0 <init_multiboot+0x7c>
c0101cd7:	8b 45 f4             	mov    -0xc(%ebp),%eax
c0101cda:	89 45 ec             	mov    %eax,-0x14(%ebp)
c0101cdd:	eb 01                	jmp    c0101ce0 <init_multiboot+0x7c>
c0101cdf:	90                   	nop
c0101ce0:	8b 45 f4             	mov    -0xc(%ebp),%eax
c0101ce3:	8b 40 04             	mov    0x4(%eax),%eax
c0101ce6:	83 c0 07             	add    $0x7,%eax
c0101ce9:	83 e0 f8             	and    $0xfffffff8,%eax
c0101cec:	01 45 f4             	add    %eax,-0xc(%ebp)
c0101cef:	8b 45 f4             	mov    -0xc(%ebp),%eax
c0101cf2:	8b 00                	mov    (%eax),%eax
c0101cf4:	85 c0                	test   %eax,%eax
c0101cf6:	75 9a                	jne    c0101c92 <init_multiboot+0x2e>
c0101cf8:	8b 45 e8             	mov    -0x18(%ebp),%eax
c0101cfb:	a3 20 c0 10 c0       	mov    %eax,0xc010c020
c0101d00:	8b 45 ec             	mov    -0x14(%ebp),%eax
c0101d03:	a3 24 c0 10 c0       	mov    %eax,0xc010c024
c0101d08:	a1 24 c0 10 c0       	mov    0xc010c024,%eax
c0101d0d:	85 c0                	test   %eax,%eax
c0101d0f:	74 05                	je     c0101d16 <init_multiboot+0xb2>
c0101d11:	e8 d3 fe ff ff       	call   c0101be9 <init_rsdt_v1>
c0101d16:	8b 45 08             	mov    0x8(%ebp),%eax
c0101d19:	8b 55 e4             	mov    -0x1c(%ebp),%edx
c0101d1c:	89 10                	mov    %edx,(%eax)
c0101d1e:	8b 55 e8             	mov    -0x18(%ebp),%edx
c0101d21:	89 50 04             	mov    %edx,0x4(%eax)
c0101d24:	8b 55 ec             	mov    -0x14(%ebp),%edx
c0101d27:	89 50 08             	mov    %edx,0x8(%eax)
c0101d2a:	8b 45 08             	mov    0x8(%ebp),%eax
c0101d2d:	c9                   	leave
c0101d2e:	c2 04 00             	ret    $0x4

c0101d31 <gdt_set_gate>:
c0101d31:	55                   	push   %ebp
c0101d32:	89 e5                	mov    %esp,%ebp
c0101d34:	83 ec 08             	sub    $0x8,%esp
c0101d37:	8b 55 14             	mov    0x14(%ebp),%edx
c0101d3a:	8b 45 18             	mov    0x18(%ebp),%eax
c0101d3d:	88 55 fc             	mov    %dl,-0x4(%ebp)
c0101d40:	88 45 f8             	mov    %al,-0x8(%ebp)
c0101d43:	8b 45 0c             	mov    0xc(%ebp),%eax
c0101d46:	89 c2                	mov    %eax,%edx
c0101d48:	8b 45 08             	mov    0x8(%ebp),%eax
c0101d4b:	66 89 14 c5 42 c0 10 	mov    %dx,-0x3fef3fbe(,%eax,8)
c0101d52:	c0 
c0101d53:	8b 45 0c             	mov    0xc(%ebp),%eax
c0101d56:	c1 e8 10             	shr    $0x10,%eax
c0101d59:	89 c2                	mov    %eax,%edx
c0101d5b:	8b 45 08             	mov    0x8(%ebp),%eax
c0101d5e:	88 14 c5 44 c0 10 c0 	mov    %dl,-0x3fef3fbc(,%eax,8)
c0101d65:	8b 45 0c             	mov    0xc(%ebp),%eax
c0101d68:	c1 e8 18             	shr    $0x18,%eax
c0101d6b:	89 c2                	mov    %eax,%edx
c0101d6d:	8b 45 08             	mov    0x8(%ebp),%eax
c0101d70:	88 14 c5 47 c0 10 c0 	mov    %dl,-0x3fef3fb9(,%eax,8)
c0101d77:	8b 45 10             	mov    0x10(%ebp),%eax
c0101d7a:	89 c2                	mov    %eax,%edx
c0101d7c:	8b 45 08             	mov    0x8(%ebp),%eax
c0101d7f:	66 89 14 c5 40 c0 10 	mov    %dx,-0x3fef3fc0(,%eax,8)
c0101d86:	c0 
c0101d87:	8b 45 10             	mov    0x10(%ebp),%eax
c0101d8a:	c1 e8 10             	shr    $0x10,%eax
c0101d8d:	83 e0 0f             	and    $0xf,%eax
c0101d90:	89 c2                	mov    %eax,%edx
c0101d92:	8b 45 08             	mov    0x8(%ebp),%eax
c0101d95:	88 14 c5 46 c0 10 c0 	mov    %dl,-0x3fef3fba(,%eax,8)
c0101d9c:	8b 45 08             	mov    0x8(%ebp),%eax
c0101d9f:	0f b6 04 c5 46 c0 10 	movzbl -0x3fef3fba(,%eax,8),%eax
c0101da6:	c0 
c0101da7:	89 c2                	mov    %eax,%edx
c0101da9:	0f b6 45 f8          	movzbl -0x8(%ebp),%eax
c0101dad:	83 e0 f0             	and    $0xfffffff0,%eax
c0101db0:	09 d0                	or     %edx,%eax
c0101db2:	89 c2                	mov    %eax,%edx
c0101db4:	8b 45 08             	mov    0x8(%ebp),%eax
c0101db7:	88 14 c5 46 c0 10 c0 	mov    %dl,-0x3fef3fba(,%eax,8)
c0101dbe:	8b 45 08             	mov    0x8(%ebp),%eax
c0101dc1:	0f b6 55 fc          	movzbl -0x4(%ebp),%edx
c0101dc5:	88 14 c5 45 c0 10 c0 	mov    %dl,-0x3fef3fbb(,%eax,8)
c0101dcc:	90                   	nop
c0101dcd:	c9                   	leave
c0101dce:	c3                   	ret

c0101dcf <gdt_install>:
c0101dcf:	55                   	push   %ebp
c0101dd0:	89 e5                	mov    %esp,%ebp
c0101dd2:	83 ec 08             	sub    $0x8,%esp
c0101dd5:	66 c7 05 68 c0 10 c0 	movw   $0x27,0xc010c068
c0101ddc:	27 00 
c0101dde:	b8 40 c0 10 c0       	mov    $0xc010c040,%eax
c0101de3:	a3 6a c0 10 c0       	mov    %eax,0xc010c06a
c0101de8:	6a 00                	push   $0x0
c0101dea:	6a 00                	push   $0x0
c0101dec:	6a 00                	push   $0x0
c0101dee:	6a 00                	push   $0x0
c0101df0:	6a 00                	push   $0x0
c0101df2:	e8 3a ff ff ff       	call   c0101d31 <gdt_set_gate>
c0101df7:	83 c4 14             	add    $0x14,%esp
c0101dfa:	68 cf 00 00 00       	push   $0xcf
c0101dff:	68 9a 00 00 00       	push   $0x9a
c0101e04:	6a ff                	push   $0xffffffff
c0101e06:	6a 00                	push   $0x0
c0101e08:	6a 01                	push   $0x1
c0101e0a:	e8 22 ff ff ff       	call   c0101d31 <gdt_set_gate>
c0101e0f:	83 c4 14             	add    $0x14,%esp
c0101e12:	68 cf 00 00 00       	push   $0xcf
c0101e17:	68 92 00 00 00       	push   $0x92
c0101e1c:	6a ff                	push   $0xffffffff
c0101e1e:	6a 00                	push   $0x0
c0101e20:	6a 02                	push   $0x2
c0101e22:	e8 0a ff ff ff       	call   c0101d31 <gdt_set_gate>
c0101e27:	83 c4 14             	add    $0x14,%esp
c0101e2a:	68 cf 00 00 00       	push   $0xcf
c0101e2f:	68 fa 00 00 00       	push   $0xfa
c0101e34:	6a ff                	push   $0xffffffff
c0101e36:	6a 00                	push   $0x0
c0101e38:	6a 03                	push   $0x3
c0101e3a:	e8 f2 fe ff ff       	call   c0101d31 <gdt_set_gate>
c0101e3f:	83 c4 14             	add    $0x14,%esp
c0101e42:	68 cf 00 00 00       	push   $0xcf
c0101e47:	68 f2 00 00 00       	push   $0xf2
c0101e4c:	6a ff                	push   $0xffffffff
c0101e4e:	6a 00                	push   $0x0
c0101e50:	6a 04                	push   $0x4
c0101e52:	e8 da fe ff ff       	call   c0101d31 <gdt_set_gate>
c0101e57:	83 c4 14             	add    $0x14,%esp
c0101e5a:	b8 68 c0 10 c0       	mov    $0xc010c068,%eax
c0101e5f:	83 ec 0c             	sub    $0xc,%esp
c0101e62:	50                   	push   %eax
c0101e63:	e8 d6 f1 ff ff       	call   c010103e <flush_gdt>
c0101e68:	83 c4 10             	add    $0x10,%esp
c0101e6b:	90                   	nop
c0101e6c:	c9                   	leave
c0101e6d:	c3                   	ret

c0101e6e <idt_set_gate>:
c0101e6e:	55                   	push   %ebp
c0101e6f:	89 e5                	mov    %esp,%ebp
c0101e71:	83 ec 08             	sub    $0x8,%esp
c0101e74:	8b 55 08             	mov    0x8(%ebp),%edx
c0101e77:	8b 45 10             	mov    0x10(%ebp),%eax
c0101e7a:	88 55 fc             	mov    %dl,-0x4(%ebp)
c0101e7d:	88 45 f8             	mov    %al,-0x8(%ebp)
c0101e80:	0f b6 45 fc          	movzbl -0x4(%ebp),%eax
c0101e84:	8b 55 0c             	mov    0xc(%ebp),%edx
c0101e87:	66 89 14 c5 70 c0 10 	mov    %dx,-0x3fef3f90(,%eax,8)
c0101e8e:	c0 
c0101e8f:	0f b6 45 fc          	movzbl -0x4(%ebp),%eax
c0101e93:	66 c7 04 c5 72 c0 10 	movw   $0x8,-0x3fef3f8e(,%eax,8)
c0101e9a:	c0 08 00 
c0101e9d:	0f b6 45 fc          	movzbl -0x4(%ebp),%eax
c0101ea1:	0f b6 55 f8          	movzbl -0x8(%ebp),%edx
c0101ea5:	88 14 c5 75 c0 10 c0 	mov    %dl,-0x3fef3f8b(,%eax,8)
c0101eac:	8b 45 0c             	mov    0xc(%ebp),%eax
c0101eaf:	c1 e8 10             	shr    $0x10,%eax
c0101eb2:	89 c2                	mov    %eax,%edx
c0101eb4:	0f b6 45 fc          	movzbl -0x4(%ebp),%eax
c0101eb8:	66 89 14 c5 76 c0 10 	mov    %dx,-0x3fef3f8a(,%eax,8)
c0101ebf:	c0 
c0101ec0:	0f b6 45 fc          	movzbl -0x4(%ebp),%eax
c0101ec4:	c6 04 c5 74 c0 10 c0 	movb   $0x0,-0x3fef3f8c(,%eax,8)
c0101ecb:	00 
c0101ecc:	90                   	nop
c0101ecd:	c9                   	leave
c0101ece:	c3                   	ret

c0101ecf <init_idt>:
c0101ecf:	55                   	push   %ebp
c0101ed0:	89 e5                	mov    %esp,%ebp
c0101ed2:	83 ec 08             	sub    $0x8,%esp
c0101ed5:	b8 70 c0 10 c0       	mov    $0xc010c070,%eax
c0101eda:	a3 72 c8 10 c0       	mov    %eax,0xc010c872
c0101edf:	66 c7 05 70 c8 10 c0 	movw   $0x7ff,0xc010c870
c0101ee6:	ff 07 
c0101ee8:	83 ec 04             	sub    $0x4,%esp
c0101eeb:	68 ff 07 00 00       	push   $0x7ff
c0101ef0:	6a 00                	push   $0x0
c0101ef2:	68 70 c0 10 c0       	push   $0xc010c070
c0101ef7:	e8 ab 12 00 00       	call   c01031a7 <memset>
c0101efc:	83 c4 10             	add    $0x10,%esp
c0101eff:	b8 ea 35 10 c0       	mov    $0xc01035ea,%eax
c0101f04:	83 ec 04             	sub    $0x4,%esp
c0101f07:	68 8e 00 00 00       	push   $0x8e
c0101f0c:	50                   	push   %eax
c0101f0d:	6a 00                	push   $0x0
c0101f0f:	e8 5a ff ff ff       	call   c0101e6e <idt_set_gate>
c0101f14:	83 c4 10             	add    $0x10,%esp
c0101f17:	b8 f4 35 10 c0       	mov    $0xc01035f4,%eax
c0101f1c:	83 ec 04             	sub    $0x4,%esp
c0101f1f:	68 8e 00 00 00       	push   $0x8e
c0101f24:	50                   	push   %eax
c0101f25:	6a 01                	push   $0x1
c0101f27:	e8 42 ff ff ff       	call   c0101e6e <idt_set_gate>
c0101f2c:	83 c4 10             	add    $0x10,%esp
c0101f2f:	b8 fe 35 10 c0       	mov    $0xc01035fe,%eax
c0101f34:	83 ec 04             	sub    $0x4,%esp
c0101f37:	68 8e 00 00 00       	push   $0x8e
c0101f3c:	50                   	push   %eax
c0101f3d:	6a 02                	push   $0x2
c0101f3f:	e8 2a ff ff ff       	call   c0101e6e <idt_set_gate>
c0101f44:	83 c4 10             	add    $0x10,%esp
c0101f47:	b8 08 36 10 c0       	mov    $0xc0103608,%eax
c0101f4c:	83 ec 04             	sub    $0x4,%esp
c0101f4f:	68 8e 00 00 00       	push   $0x8e
c0101f54:	50                   	push   %eax
c0101f55:	6a 03                	push   $0x3
c0101f57:	e8 12 ff ff ff       	call   c0101e6e <idt_set_gate>
c0101f5c:	83 c4 10             	add    $0x10,%esp
c0101f5f:	b8 12 36 10 c0       	mov    $0xc0103612,%eax
c0101f64:	83 ec 04             	sub    $0x4,%esp
c0101f67:	68 8e 00 00 00       	push   $0x8e
c0101f6c:	50                   	push   %eax
c0101f6d:	6a 04                	push   $0x4
c0101f6f:	e8 fa fe ff ff       	call   c0101e6e <idt_set_gate>
c0101f74:	83 c4 10             	add    $0x10,%esp
c0101f77:	b8 1c 36 10 c0       	mov    $0xc010361c,%eax
c0101f7c:	83 ec 04             	sub    $0x4,%esp
c0101f7f:	68 8e 00 00 00       	push   $0x8e
c0101f84:	50                   	push   %eax
c0101f85:	6a 05                	push   $0x5
c0101f87:	e8 e2 fe ff ff       	call   c0101e6e <idt_set_gate>
c0101f8c:	83 c4 10             	add    $0x10,%esp
c0101f8f:	b8 26 36 10 c0       	mov    $0xc0103626,%eax
c0101f94:	83 ec 04             	sub    $0x4,%esp
c0101f97:	68 8e 00 00 00       	push   $0x8e
c0101f9c:	50                   	push   %eax
c0101f9d:	6a 06                	push   $0x6
c0101f9f:	e8 ca fe ff ff       	call   c0101e6e <idt_set_gate>
c0101fa4:	83 c4 10             	add    $0x10,%esp
c0101fa7:	b8 30 36 10 c0       	mov    $0xc0103630,%eax
c0101fac:	83 ec 04             	sub    $0x4,%esp
c0101faf:	68 8e 00 00 00       	push   $0x8e
c0101fb4:	50                   	push   %eax
c0101fb5:	6a 07                	push   $0x7
c0101fb7:	e8 b2 fe ff ff       	call   c0101e6e <idt_set_gate>
c0101fbc:	83 c4 10             	add    $0x10,%esp
c0101fbf:	b8 3a 36 10 c0       	mov    $0xc010363a,%eax
c0101fc4:	83 ec 04             	sub    $0x4,%esp
c0101fc7:	68 8e 00 00 00       	push   $0x8e
c0101fcc:	50                   	push   %eax
c0101fcd:	6a 08                	push   $0x8
c0101fcf:	e8 9a fe ff ff       	call   c0101e6e <idt_set_gate>
c0101fd4:	83 c4 10             	add    $0x10,%esp
c0101fd7:	b8 42 36 10 c0       	mov    $0xc0103642,%eax
c0101fdc:	83 ec 04             	sub    $0x4,%esp
c0101fdf:	68 8e 00 00 00       	push   $0x8e
c0101fe4:	50                   	push   %eax
c0101fe5:	6a 09                	push   $0x9
c0101fe7:	e8 82 fe ff ff       	call   c0101e6e <idt_set_gate>
c0101fec:	83 c4 10             	add    $0x10,%esp
c0101fef:	b8 4c 36 10 c0       	mov    $0xc010364c,%eax
c0101ff4:	83 ec 04             	sub    $0x4,%esp
c0101ff7:	68 8e 00 00 00       	push   $0x8e
c0101ffc:	50                   	push   %eax
c0101ffd:	6a 0a                	push   $0xa
c0101fff:	e8 6a fe ff ff       	call   c0101e6e <idt_set_gate>
c0102004:	83 c4 10             	add    $0x10,%esp
c0102007:	b8 54 36 10 c0       	mov    $0xc0103654,%eax
c010200c:	83 ec 04             	sub    $0x4,%esp
c010200f:	68 8e 00 00 00       	push   $0x8e
c0102014:	50                   	push   %eax
c0102015:	6a 0b                	push   $0xb
c0102017:	e8 52 fe ff ff       	call   c0101e6e <idt_set_gate>
c010201c:	83 c4 10             	add    $0x10,%esp
c010201f:	b8 5c 36 10 c0       	mov    $0xc010365c,%eax
c0102024:	83 ec 04             	sub    $0x4,%esp
c0102027:	68 8e 00 00 00       	push   $0x8e
c010202c:	50                   	push   %eax
c010202d:	6a 0c                	push   $0xc
c010202f:	e8 3a fe ff ff       	call   c0101e6e <idt_set_gate>
c0102034:	83 c4 10             	add    $0x10,%esp
c0102037:	b8 64 36 10 c0       	mov    $0xc0103664,%eax
c010203c:	83 ec 04             	sub    $0x4,%esp
c010203f:	68 8e 00 00 00       	push   $0x8e
c0102044:	50                   	push   %eax
c0102045:	6a 0d                	push   $0xd
c0102047:	e8 22 fe ff ff       	call   c0101e6e <idt_set_gate>
c010204c:	83 c4 10             	add    $0x10,%esp
c010204f:	b8 6c 36 10 c0       	mov    $0xc010366c,%eax
c0102054:	83 ec 04             	sub    $0x4,%esp
c0102057:	68 8e 00 00 00       	push   $0x8e
c010205c:	50                   	push   %eax
c010205d:	6a 0e                	push   $0xe
c010205f:	e8 0a fe ff ff       	call   c0101e6e <idt_set_gate>
c0102064:	83 c4 10             	add    $0x10,%esp
c0102067:	b8 74 36 10 c0       	mov    $0xc0103674,%eax
c010206c:	83 ec 04             	sub    $0x4,%esp
c010206f:	68 8e 00 00 00       	push   $0x8e
c0102074:	50                   	push   %eax
c0102075:	6a 0f                	push   $0xf
c0102077:	e8 f2 fd ff ff       	call   c0101e6e <idt_set_gate>
c010207c:	83 c4 10             	add    $0x10,%esp
c010207f:	b8 7e 36 10 c0       	mov    $0xc010367e,%eax
c0102084:	83 ec 04             	sub    $0x4,%esp
c0102087:	68 8e 00 00 00       	push   $0x8e
c010208c:	50                   	push   %eax
c010208d:	6a 10                	push   $0x10
c010208f:	e8 da fd ff ff       	call   c0101e6e <idt_set_gate>
c0102094:	83 c4 10             	add    $0x10,%esp
c0102097:	b8 88 36 10 c0       	mov    $0xc0103688,%eax
c010209c:	83 ec 04             	sub    $0x4,%esp
c010209f:	68 8e 00 00 00       	push   $0x8e
c01020a4:	50                   	push   %eax
c01020a5:	6a 11                	push   $0x11
c01020a7:	e8 c2 fd ff ff       	call   c0101e6e <idt_set_gate>
c01020ac:	83 c4 10             	add    $0x10,%esp
c01020af:	b8 90 36 10 c0       	mov    $0xc0103690,%eax
c01020b4:	83 ec 04             	sub    $0x4,%esp
c01020b7:	68 8e 00 00 00       	push   $0x8e
c01020bc:	50                   	push   %eax
c01020bd:	6a 12                	push   $0x12
c01020bf:	e8 aa fd ff ff       	call   c0101e6e <idt_set_gate>
c01020c4:	83 c4 10             	add    $0x10,%esp
c01020c7:	b8 9a 36 10 c0       	mov    $0xc010369a,%eax
c01020cc:	83 ec 04             	sub    $0x4,%esp
c01020cf:	68 8e 00 00 00       	push   $0x8e
c01020d4:	50                   	push   %eax
c01020d5:	6a 13                	push   $0x13
c01020d7:	e8 92 fd ff ff       	call   c0101e6e <idt_set_gate>
c01020dc:	83 c4 10             	add    $0x10,%esp
c01020df:	b8 a4 36 10 c0       	mov    $0xc01036a4,%eax
c01020e4:	83 ec 04             	sub    $0x4,%esp
c01020e7:	68 8e 00 00 00       	push   $0x8e
c01020ec:	50                   	push   %eax
c01020ed:	6a 14                	push   $0x14
c01020ef:	e8 7a fd ff ff       	call   c0101e6e <idt_set_gate>
c01020f4:	83 c4 10             	add    $0x10,%esp
c01020f7:	b8 ae 36 10 c0       	mov    $0xc01036ae,%eax
c01020fc:	83 ec 04             	sub    $0x4,%esp
c01020ff:	68 8e 00 00 00       	push   $0x8e
c0102104:	50                   	push   %eax
c0102105:	6a 15                	push   $0x15
c0102107:	e8 62 fd ff ff       	call   c0101e6e <idt_set_gate>
c010210c:	83 c4 10             	add    $0x10,%esp
c010210f:	b8 b8 36 10 c0       	mov    $0xc01036b8,%eax
c0102114:	83 ec 04             	sub    $0x4,%esp
c0102117:	68 8e 00 00 00       	push   $0x8e
c010211c:	50                   	push   %eax
c010211d:	6a 16                	push   $0x16
c010211f:	e8 4a fd ff ff       	call   c0101e6e <idt_set_gate>
c0102124:	83 c4 10             	add    $0x10,%esp
c0102127:	b8 c2 36 10 c0       	mov    $0xc01036c2,%eax
c010212c:	83 ec 04             	sub    $0x4,%esp
c010212f:	68 8e 00 00 00       	push   $0x8e
c0102134:	50                   	push   %eax
c0102135:	6a 17                	push   $0x17
c0102137:	e8 32 fd ff ff       	call   c0101e6e <idt_set_gate>
c010213c:	83 c4 10             	add    $0x10,%esp
c010213f:	b8 cc 36 10 c0       	mov    $0xc01036cc,%eax
c0102144:	83 ec 04             	sub    $0x4,%esp
c0102147:	68 8e 00 00 00       	push   $0x8e
c010214c:	50                   	push   %eax
c010214d:	6a 18                	push   $0x18
c010214f:	e8 1a fd ff ff       	call   c0101e6e <idt_set_gate>
c0102154:	83 c4 10             	add    $0x10,%esp
c0102157:	b8 d6 36 10 c0       	mov    $0xc01036d6,%eax
c010215c:	83 ec 04             	sub    $0x4,%esp
c010215f:	68 8e 00 00 00       	push   $0x8e
c0102164:	50                   	push   %eax
c0102165:	6a 19                	push   $0x19
c0102167:	e8 02 fd ff ff       	call   c0101e6e <idt_set_gate>
c010216c:	83 c4 10             	add    $0x10,%esp
c010216f:	b8 e0 36 10 c0       	mov    $0xc01036e0,%eax
c0102174:	83 ec 04             	sub    $0x4,%esp
c0102177:	68 8e 00 00 00       	push   $0x8e
c010217c:	50                   	push   %eax
c010217d:	6a 1a                	push   $0x1a
c010217f:	e8 ea fc ff ff       	call   c0101e6e <idt_set_gate>
c0102184:	83 c4 10             	add    $0x10,%esp
c0102187:	b8 ea 36 10 c0       	mov    $0xc01036ea,%eax
c010218c:	83 ec 04             	sub    $0x4,%esp
c010218f:	68 8e 00 00 00       	push   $0x8e
c0102194:	50                   	push   %eax
c0102195:	6a 1b                	push   $0x1b
c0102197:	e8 d2 fc ff ff       	call   c0101e6e <idt_set_gate>
c010219c:	83 c4 10             	add    $0x10,%esp
c010219f:	b8 f4 36 10 c0       	mov    $0xc01036f4,%eax
c01021a4:	83 ec 04             	sub    $0x4,%esp
c01021a7:	68 8e 00 00 00       	push   $0x8e
c01021ac:	50                   	push   %eax
c01021ad:	6a 1c                	push   $0x1c
c01021af:	e8 ba fc ff ff       	call   c0101e6e <idt_set_gate>
c01021b4:	83 c4 10             	add    $0x10,%esp
c01021b7:	b8 fe 36 10 c0       	mov    $0xc01036fe,%eax
c01021bc:	83 ec 04             	sub    $0x4,%esp
c01021bf:	68 8e 00 00 00       	push   $0x8e
c01021c4:	50                   	push   %eax
c01021c5:	6a 1d                	push   $0x1d
c01021c7:	e8 a2 fc ff ff       	call   c0101e6e <idt_set_gate>
c01021cc:	83 c4 10             	add    $0x10,%esp
c01021cf:	b8 08 37 10 c0       	mov    $0xc0103708,%eax
c01021d4:	83 ec 04             	sub    $0x4,%esp
c01021d7:	68 8e 00 00 00       	push   $0x8e
c01021dc:	50                   	push   %eax
c01021dd:	6a 1e                	push   $0x1e
c01021df:	e8 8a fc ff ff       	call   c0101e6e <idt_set_gate>
c01021e4:	83 c4 10             	add    $0x10,%esp
c01021e7:	b8 10 37 10 c0       	mov    $0xc0103710,%eax
c01021ec:	83 ec 04             	sub    $0x4,%esp
c01021ef:	68 8e 00 00 00       	push   $0x8e
c01021f4:	50                   	push   %eax
c01021f5:	6a 1f                	push   $0x1f
c01021f7:	e8 72 fc ff ff       	call   c0101e6e <idt_set_gate>
c01021fc:	83 c4 10             	add    $0x10,%esp
c01021ff:	b8 1a 37 10 c0       	mov    $0xc010371a,%eax
c0102204:	83 ec 04             	sub    $0x4,%esp
c0102207:	68 8e 00 00 00       	push   $0x8e
c010220c:	50                   	push   %eax
c010220d:	6a 30                	push   $0x30
c010220f:	e8 5a fc ff ff       	call   c0101e6e <idt_set_gate>
c0102214:	83 c4 10             	add    $0x10,%esp
c0102217:	b8 24 37 10 c0       	mov    $0xc0103724,%eax
c010221c:	83 ec 04             	sub    $0x4,%esp
c010221f:	68 8e 00 00 00       	push   $0x8e
c0102224:	50                   	push   %eax
c0102225:	6a 31                	push   $0x31
c0102227:	e8 42 fc ff ff       	call   c0101e6e <idt_set_gate>
c010222c:	83 c4 10             	add    $0x10,%esp
c010222f:	b8 2e 37 10 c0       	mov    $0xc010372e,%eax
c0102234:	83 ec 04             	sub    $0x4,%esp
c0102237:	68 8e 00 00 00       	push   $0x8e
c010223c:	50                   	push   %eax
c010223d:	6a 32                	push   $0x32
c010223f:	e8 2a fc ff ff       	call   c0101e6e <idt_set_gate>
c0102244:	83 c4 10             	add    $0x10,%esp
c0102247:	83 ec 0c             	sub    $0xc,%esp
c010224a:	68 60 72 10 c0       	push   $0xc0107260
c010224f:	e8 9d 08 00 00       	call   c0102af1 <log_to_serial>
c0102254:	83 c4 10             	add    $0x10,%esp
c0102257:	0f 01 1d 70 c8 10 c0 	lidtl  0xc010c870
c010225e:	fb                   	sti
c010225f:	90                   	nop
c0102260:	c9                   	leave
c0102261:	c3                   	ret

c0102262 <stack_trace>:
c0102262:	55                   	push   %ebp
c0102263:	89 e5                	mov    %esp,%ebp
c0102265:	83 ec 18             	sub    $0x18,%esp
c0102268:	c7 45 f4 00 00 00 00 	movl   $0x0,-0xc(%ebp)
c010226f:	89 e8                	mov    %ebp,%eax
c0102271:	89 45 f4             	mov    %eax,-0xc(%ebp)
c0102274:	c7 45 f0 00 00 00 00 	movl   $0x0,-0x10(%ebp)
c010227b:	eb 2b                	jmp    c01022a8 <stack_trace+0x46>
c010227d:	8b 45 f4             	mov    -0xc(%ebp),%eax
c0102280:	83 c0 04             	add    $0x4,%eax
c0102283:	8b 10                	mov    (%eax),%edx
c0102285:	8b 45 f0             	mov    -0x10(%ebp),%eax
c0102288:	8d 48 01             	lea    0x1(%eax),%ecx
c010228b:	89 4d f0             	mov    %ecx,-0x10(%ebp)
c010228e:	83 ec 04             	sub    $0x4,%esp
c0102291:	52                   	push   %edx
c0102292:	50                   	push   %eax
c0102293:	68 6c 72 10 c0       	push   $0xc010726c
c0102298:	e8 8e 0a 00 00       	call   c0102d2b <logf>
c010229d:	83 c4 10             	add    $0x10,%esp
c01022a0:	8b 45 f4             	mov    -0xc(%ebp),%eax
c01022a3:	8b 00                	mov    (%eax),%eax
c01022a5:	89 45 f4             	mov    %eax,-0xc(%ebp)
c01022a8:	83 7d f4 00          	cmpl   $0x0,-0xc(%ebp)
c01022ac:	75 cf                	jne    c010227d <stack_trace+0x1b>
c01022ae:	90                   	nop
c01022af:	90                   	nop
c01022b0:	c9                   	leave
c01022b1:	c3                   	ret

c01022b2 <exc_print>:
c01022b2:	55                   	push   %ebp
c01022b3:	89 e5                	mov    %esp,%ebp
c01022b5:	57                   	push   %edi
c01022b6:	56                   	push   %esi
c01022b7:	53                   	push   %ebx
c01022b8:	83 ec 3c             	sub    $0x3c,%esp
c01022bb:	8b 45 08             	mov    0x8(%ebp),%eax
c01022be:	8b 70 38             	mov    0x38(%eax),%esi
c01022c1:	8b 45 08             	mov    0x8(%ebp),%eax
c01022c4:	8b 78 34             	mov    0x34(%eax),%edi
c01022c7:	8b 45 08             	mov    0x8(%ebp),%eax
c01022ca:	8b 40 30             	mov    0x30(%eax),%eax
c01022cd:	89 45 d4             	mov    %eax,-0x2c(%ebp)
c01022d0:	8b 45 08             	mov    0x8(%ebp),%eax
c01022d3:	8b 48 08             	mov    0x8(%eax),%ecx
c01022d6:	89 4d d0             	mov    %ecx,-0x30(%ebp)
c01022d9:	8b 45 08             	mov    0x8(%ebp),%eax
c01022dc:	8b 58 04             	mov    0x4(%eax),%ebx
c01022df:	89 5d cc             	mov    %ebx,-0x34(%ebp)
c01022e2:	8b 45 08             	mov    0x8(%ebp),%eax
c01022e5:	8b 10                	mov    (%eax),%edx
c01022e7:	89 55 c8             	mov    %edx,-0x38(%ebp)
c01022ea:	8b 45 08             	mov    0x8(%ebp),%eax
c01022ed:	8b 40 14             	mov    0x14(%eax),%eax
c01022f0:	89 45 c4             	mov    %eax,-0x3c(%ebp)
c01022f3:	8b 45 08             	mov    0x8(%ebp),%eax
c01022f6:	8b 48 10             	mov    0x10(%eax),%ecx
c01022f9:	89 4d c0             	mov    %ecx,-0x40(%ebp)
c01022fc:	8b 45 08             	mov    0x8(%ebp),%eax
c01022ff:	8b 58 18             	mov    0x18(%eax),%ebx
c0102302:	8b 45 08             	mov    0x8(%ebp),%eax
c0102305:	8b 48 1c             	mov    0x1c(%eax),%ecx
c0102308:	8b 45 08             	mov    0x8(%ebp),%eax
c010230b:	8b 50 20             	mov    0x20(%eax),%edx
c010230e:	8b 45 08             	mov    0x8(%ebp),%eax
c0102311:	8b 40 24             	mov    0x24(%eax),%eax
c0102314:	83 ec 0c             	sub    $0xc,%esp
c0102317:	56                   	push   %esi
c0102318:	57                   	push   %edi
c0102319:	ff 75 d4             	push   -0x2c(%ebp)
c010231c:	ff 75 d0             	push   -0x30(%ebp)
c010231f:	ff 75 cc             	push   -0x34(%ebp)
c0102322:	ff 75 c8             	push   -0x38(%ebp)
c0102325:	ff 75 c4             	push   -0x3c(%ebp)
c0102328:	ff 75 c0             	push   -0x40(%ebp)
c010232b:	53                   	push   %ebx
c010232c:	51                   	push   %ecx
c010232d:	52                   	push   %edx
c010232e:	50                   	push   %eax
c010232f:	68 84 72 10 c0       	push   $0xc0107284
c0102334:	e8 f2 09 00 00       	call   c0102d2b <logf>
c0102339:	83 c4 40             	add    $0x40,%esp
c010233c:	c7 45 e4 01 00 00 00 	movl   $0x1,-0x1c(%ebp)
c0102343:	8b 45 08             	mov    0x8(%ebp),%eax
c0102346:	8b 40 28             	mov    0x28(%eax),%eax
c0102349:	83 f8 1b             	cmp    $0x1b,%eax
c010234c:	0f 87 a5 00 00 00    	ja     c01023f7 <exc_print+0x145>
c0102352:	8b 04 85 e8 73 10 c0 	mov    -0x3fef8c18(,%eax,4),%eax
c0102359:	ff e0                	jmp    *%eax
c010235b:	83 ec 0c             	sub    $0xc,%esp
c010235e:	68 f8 72 10 c0       	push   $0xc01072f8
c0102363:	e8 c3 09 00 00       	call   c0102d2b <logf>
c0102368:	83 c4 10             	add    $0x10,%esp
c010236b:	e9 b6 00 00 00       	jmp    c0102426 <exc_print+0x174>
c0102370:	83 ec 0c             	sub    $0xc,%esp
c0102373:	68 1c 73 10 c0       	push   $0xc010731c
c0102378:	e8 ae 09 00 00       	call   c0102d2b <logf>
c010237d:	83 c4 10             	add    $0x10,%esp
c0102380:	e9 a1 00 00 00       	jmp    c0102426 <exc_print+0x174>
c0102385:	8b 45 08             	mov    0x8(%ebp),%eax
c0102388:	8b 40 2c             	mov    0x2c(%eax),%eax
c010238b:	83 ec 08             	sub    $0x8,%esp
c010238e:	50                   	push   %eax
c010238f:	68 3d 73 10 c0       	push   $0xc010733d
c0102394:	e8 92 09 00 00       	call   c0102d2b <logf>
c0102399:	83 c4 10             	add    $0x10,%esp
c010239c:	83 ec 0c             	sub    $0xc,%esp
c010239f:	68 4c 73 10 c0       	push   $0xc010734c
c01023a4:	e8 48 07 00 00       	call   c0102af1 <log_to_serial>
c01023a9:	83 c4 10             	add    $0x10,%esp
c01023ac:	eb 78                	jmp    c0102426 <exc_print+0x174>
c01023ae:	83 ec 0c             	sub    $0xc,%esp
c01023b1:	68 6c 73 10 c0       	push   $0xc010736c
c01023b6:	e8 70 09 00 00       	call   c0102d2b <logf>
c01023bb:	83 c4 10             	add    $0x10,%esp
c01023be:	c7 45 e4 01 00 00 00 	movl   $0x1,-0x1c(%ebp)
c01023c5:	eb 5f                	jmp    c0102426 <exc_print+0x174>
c01023c7:	e8 96 fe ff ff       	call   c0102262 <stack_trace>
c01023cc:	83 ec 0c             	sub    $0xc,%esp
c01023cf:	ff 75 08             	push   0x8(%ebp)
c01023d2:	e8 57 04 00 00       	call   c010282e <handle_exception>
c01023d7:	83 c4 10             	add    $0x10,%esp
c01023da:	0f b6 c0             	movzbl %al,%eax
c01023dd:	89 45 e4             	mov    %eax,-0x1c(%ebp)
c01023e0:	eb 44                	jmp    c0102426 <exc_print+0x174>
c01023e2:	83 ec 0c             	sub    $0xc,%esp
c01023e5:	68 a5 73 10 c0       	push   $0xc01073a5
c01023ea:	e8 3c 09 00 00       	call   c0102d2b <logf>
c01023ef:	83 c4 10             	add    $0x10,%esp
c01023f2:	e8 6b fe ff ff       	call   c0102262 <stack_trace>
c01023f7:	8b 45 08             	mov    0x8(%ebp),%eax
c01023fa:	8b 50 28             	mov    0x28(%eax),%edx
c01023fd:	8b 45 08             	mov    0x8(%ebp),%eax
c0102400:	8b 40 2c             	mov    0x2c(%eax),%eax
c0102403:	83 ec 04             	sub    $0x4,%esp
c0102406:	52                   	push   %edx
c0102407:	50                   	push   %eax
c0102408:	68 c0 73 10 c0       	push   $0xc01073c0
c010240d:	e8 19 09 00 00       	call   c0102d2b <logf>
c0102412:	83 c4 10             	add    $0x10,%esp
c0102415:	83 ec 0c             	sub    $0xc,%esp
c0102418:	68 e3 73 10 c0       	push   $0xc01073e3
c010241d:	e8 cf 06 00 00       	call   c0102af1 <log_to_serial>
c0102422:	83 c4 10             	add    $0x10,%esp
c0102425:	90                   	nop
c0102426:	83 ec 0c             	sub    $0xc,%esp
c0102429:	68 e3 73 10 c0       	push   $0xc01073e3
c010242e:	e8 f8 08 00 00       	call   c0102d2b <logf>
c0102433:	83 c4 10             	add    $0x10,%esp
c0102436:	8b 45 e4             	mov    -0x1c(%ebp),%eax
c0102439:	8d 65 f4             	lea    -0xc(%ebp),%esp
c010243c:	5b                   	pop    %ebx
c010243d:	5e                   	pop    %esi
c010243e:	5f                   	pop    %edi
c010243f:	5d                   	pop    %ebp
c0102440:	c3                   	ret

c0102441 <irq_handler>:
c0102441:	55                   	push   %ebp
c0102442:	89 e5                	mov    %esp,%ebp
c0102444:	83 ec 18             	sub    $0x18,%esp
c0102447:	8b 45 08             	mov    0x8(%ebp),%eax
c010244a:	89 45 f4             	mov    %eax,-0xc(%ebp)
c010244d:	8b 45 08             	mov    0x8(%ebp),%eax
c0102450:	8b 40 28             	mov    0x28(%eax),%eax
c0102453:	89 45 f0             	mov    %eax,-0x10(%ebp)
c0102456:	81 7d f0 80 00 00 00 	cmpl   $0x80,-0x10(%ebp)
c010245d:	74 5b                	je     c01024ba <irq_handler+0x79>
c010245f:	81 7d f0 80 00 00 00 	cmpl   $0x80,-0x10(%ebp)
c0102466:	7f 53                	jg     c01024bb <irq_handler+0x7a>
c0102468:	83 7d f0 32          	cmpl   $0x32,-0x10(%ebp)
c010246c:	74 45                	je     c01024b3 <irq_handler+0x72>
c010246e:	83 7d f0 32          	cmpl   $0x32,-0x10(%ebp)
c0102472:	7f 47                	jg     c01024bb <irq_handler+0x7a>
c0102474:	83 7d f0 30          	cmpl   $0x30,-0x10(%ebp)
c0102478:	74 08                	je     c0102482 <irq_handler+0x41>
c010247a:	83 7d f0 31          	cmpl   $0x31,-0x10(%ebp)
c010247e:	74 2c                	je     c01024ac <irq_handler+0x6b>
c0102480:	eb 39                	jmp    c01024bb <irq_handler+0x7a>
c0102482:	83 ec 0c             	sub    $0xc,%esp
c0102485:	ff 75 08             	push   0x8(%ebp)
c0102488:	e8 ef 23 00 00       	call   c010487c <handle_schedule>
c010248d:	83 c4 10             	add    $0x10,%esp
c0102490:	89 45 08             	mov    %eax,0x8(%ebp)
c0102493:	8b 45 08             	mov    0x8(%ebp),%eax
c0102496:	8b 40 30             	mov    0x30(%eax),%eax
c0102499:	83 ec 08             	sub    $0x8,%esp
c010249c:	50                   	push   %eax
c010249d:	68 58 74 10 c0       	push   $0xc0107458
c01024a2:	e8 84 08 00 00       	call   c0102d2b <logf>
c01024a7:	83 c4 10             	add    $0x10,%esp
c01024aa:	eb 0f                	jmp    c01024bb <irq_handler+0x7a>
c01024ac:	e8 28 16 00 00       	call   c0103ad9 <end_calibration>
c01024b1:	eb 08                	jmp    c01024bb <irq_handler+0x7a>
c01024b3:	e8 c1 18 00 00       	call   c0103d79 <handle_keychange>
c01024b8:	eb 01                	jmp    c01024bb <irq_handler+0x7a>
c01024ba:	90                   	nop
c01024bb:	a1 1c f0 10 c0       	mov    0xc010f01c,%eax
c01024c0:	83 ec 0c             	sub    $0xc,%esp
c01024c3:	50                   	push   %eax
c01024c4:	e8 c0 14 00 00       	call   c0103989 <send_EOI>
c01024c9:	83 c4 10             	add    $0x10,%esp
c01024cc:	8b 45 08             	mov    0x8(%ebp),%eax
c01024cf:	c9                   	leave
c01024d0:	c3                   	ret

c01024d1 <isr_handler>:
c01024d1:	55                   	push   %ebp
c01024d2:	89 e5                	mov    %esp,%ebp
c01024d4:	83 ec 08             	sub    $0x8,%esp
c01024d7:	8b 45 30             	mov    0x30(%ebp),%eax
c01024da:	83 f8 1f             	cmp    $0x1f,%eax
c01024dd:	77 13                	ja     c01024f2 <isr_handler+0x21>
c01024df:	83 ec 0c             	sub    $0xc,%esp
c01024e2:	8d 45 08             	lea    0x8(%ebp),%eax
c01024e5:	50                   	push   %eax
c01024e6:	e8 c7 fd ff ff       	call   c01022b2 <exc_print>
c01024eb:	83 c4 10             	add    $0x10,%esp
c01024ee:	84 c0                	test   %al,%al
c01024f0:	74 04                	je     c01024f6 <isr_handler+0x25>
c01024f2:	fa                   	cli
c01024f3:	f4                   	hlt
c01024f4:	eb 01                	jmp    c01024f7 <isr_handler+0x26>
c01024f6:	90                   	nop
c01024f7:	c9                   	leave
c01024f8:	c3                   	ret

c01024f9 <memory_map>:
c01024f9:	55                   	push   %ebp
c01024fa:	89 e5                	mov    %esp,%ebp
c01024fc:	83 ec 18             	sub    $0x18,%esp
c01024ff:	8b 45 10             	mov    0x10(%ebp),%eax
c0102502:	c1 e8 16             	shr    $0x16,%eax
c0102505:	89 45 f4             	mov    %eax,-0xc(%ebp)
c0102508:	8b 45 10             	mov    0x10(%ebp),%eax
c010250b:	c1 e8 0c             	shr    $0xc,%eax
c010250e:	25 ff 03 00 00       	and    $0x3ff,%eax
c0102513:	89 45 f0             	mov    %eax,-0x10(%ebp)
c0102516:	8b 45 f4             	mov    -0xc(%ebp),%eax
c0102519:	8d 14 85 00 00 00 00 	lea    0x0(,%eax,4),%edx
c0102520:	8b 45 08             	mov    0x8(%ebp),%eax
c0102523:	01 d0                	add    %edx,%eax
c0102525:	8b 00                	mov    (%eax),%eax
c0102527:	83 e0 01             	and    $0x1,%eax
c010252a:	85 c0                	test   %eax,%eax
c010252c:	75 11                	jne    c010253f <memory_map+0x46>
c010252e:	83 ec 08             	sub    $0x8,%esp
c0102531:	ff 75 f4             	push   -0xc(%ebp)
c0102534:	ff 75 08             	push   0x8(%ebp)
c0102537:	e8 f7 00 00 00       	call   c0102633 <create_new_pt>
c010253c:	83 c4 10             	add    $0x10,%esp
c010253f:	8b 45 f4             	mov    -0xc(%ebp),%eax
c0102542:	05 00 fc 0f 00       	add    $0xffc00,%eax
c0102547:	c1 e0 0c             	shl    $0xc,%eax
c010254a:	89 45 ec             	mov    %eax,-0x14(%ebp)
c010254d:	8b 45 0c             	mov    0xc(%ebp),%eax
c0102550:	25 ff 03 00 00       	and    $0x3ff,%eax
c0102555:	85 c0                	test   %eax,%eax
c0102557:	74 12                	je     c010256b <memory_map+0x72>
c0102559:	83 ec 0c             	sub    $0xc,%esp
c010255c:	68 6c 74 10 c0       	push   $0xc010746c
c0102561:	e8 8b 05 00 00       	call   c0102af1 <log_to_serial>
c0102566:	83 c4 10             	add    $0x10,%esp
c0102569:	eb 17                	jmp    c0102582 <memory_map+0x89>
c010256b:	8b 45 0c             	mov    0xc(%ebp),%eax
c010256e:	8b 55 f0             	mov    -0x10(%ebp),%edx
c0102571:	8d 0c 95 00 00 00 00 	lea    0x0(,%edx,4),%ecx
c0102578:	8b 55 ec             	mov    -0x14(%ebp),%edx
c010257b:	01 ca                	add    %ecx,%edx
c010257d:	0b 45 14             	or     0x14(%ebp),%eax
c0102580:	89 02                	mov    %eax,(%edx)
c0102582:	c9                   	leave
c0102583:	c3                   	ret

c0102584 <memory_unmap>:
c0102584:	55                   	push   %ebp
c0102585:	89 e5                	mov    %esp,%ebp
c0102587:	83 ec 18             	sub    $0x18,%esp
c010258a:	8b 45 0c             	mov    0xc(%ebp),%eax
c010258d:	c1 e8 16             	shr    $0x16,%eax
c0102590:	89 45 f4             	mov    %eax,-0xc(%ebp)
c0102593:	8b 45 0c             	mov    0xc(%ebp),%eax
c0102596:	c1 e8 0c             	shr    $0xc,%eax
c0102599:	25 ff 03 00 00       	and    $0x3ff,%eax
c010259e:	89 45 f0             	mov    %eax,-0x10(%ebp)
c01025a1:	8b 45 f4             	mov    -0xc(%ebp),%eax
c01025a4:	c1 e0 0c             	shl    $0xc,%eax
c01025a7:	0d 00 00 c0 ff       	or     $0xffc00000,%eax
c01025ac:	89 45 ec             	mov    %eax,-0x14(%ebp)
c01025af:	8b 45 f4             	mov    -0xc(%ebp),%eax
c01025b2:	8d 14 85 00 00 00 00 	lea    0x0(,%eax,4),%edx
c01025b9:	8b 45 08             	mov    0x8(%ebp),%eax
c01025bc:	01 d0                	add    %edx,%eax
c01025be:	8b 00                	mov    (%eax),%eax
c01025c0:	85 c0                	test   %eax,%eax
c01025c2:	74 6c                	je     c0102630 <memory_unmap+0xac>
c01025c4:	8b 45 0c             	mov    0xc(%ebp),%eax
c01025c7:	25 ff 03 00 00       	and    $0x3ff,%eax
c01025cc:	85 c0                	test   %eax,%eax
c01025ce:	74 15                	je     c01025e5 <memory_unmap+0x61>
c01025d0:	83 ec 08             	sub    $0x8,%esp
c01025d3:	ff 75 0c             	push   0xc(%ebp)
c01025d6:	68 90 74 10 c0       	push   $0xc0107490
c01025db:	e8 4b 07 00 00       	call   c0102d2b <logf>
c01025e0:	83 c4 10             	add    $0x10,%esp
c01025e3:	eb 4c                	jmp    c0102631 <memory_unmap+0xad>
c01025e5:	8b 45 f0             	mov    -0x10(%ebp),%eax
c01025e8:	8d 14 85 00 00 00 00 	lea    0x0(,%eax,4),%edx
c01025ef:	8b 45 ec             	mov    -0x14(%ebp),%eax
c01025f2:	01 d0                	add    %edx,%eax
c01025f4:	8b 00                	mov    (%eax),%eax
c01025f6:	25 00 f0 ff ff       	and    $0xfffff000,%eax
c01025fb:	89 45 e8             	mov    %eax,-0x18(%ebp)
c01025fe:	8b 45 e8             	mov    -0x18(%ebp),%eax
c0102601:	83 ec 0c             	sub    $0xc,%esp
c0102604:	50                   	push   %eax
c0102605:	e8 8c ec ff ff       	call   c0101296 <physical_to_frame>
c010260a:	83 c4 10             	add    $0x10,%esp
c010260d:	83 ec 0c             	sub    $0xc,%esp
c0102610:	50                   	push   %eax
c0102611:	e8 de eb ff ff       	call   c01011f4 <clear_frame>
c0102616:	83 c4 10             	add    $0x10,%esp
c0102619:	8b 45 f0             	mov    -0x10(%ebp),%eax
c010261c:	8d 14 85 00 00 00 00 	lea    0x0(,%eax,4),%edx
c0102623:	8b 45 ec             	mov    -0x14(%ebp),%eax
c0102626:	01 d0                	add    %edx,%eax
c0102628:	c7 00 00 00 00 00    	movl   $0x0,(%eax)
c010262e:	eb 01                	jmp    c0102631 <memory_unmap+0xad>
c0102630:	90                   	nop
c0102631:	c9                   	leave
c0102632:	c3                   	ret

c0102633 <create_new_pt>:
c0102633:	55                   	push   %ebp
c0102634:	89 e5                	mov    %esp,%ebp
c0102636:	83 ec 18             	sub    $0x18,%esp
c0102639:	83 ec 0c             	sub    $0xc,%esp
c010263c:	68 b6 74 10 c0       	push   $0xc01074b6
c0102641:	e8 ab 04 00 00       	call   c0102af1 <log_to_serial>
c0102646:	83 c4 10             	add    $0x10,%esp
c0102649:	8b 45 08             	mov    0x8(%ebp),%eax
c010264c:	89 45 f4             	mov    %eax,-0xc(%ebp)
c010264f:	e8 52 ec ff ff       	call   c01012a6 <alloc_phys_page>
c0102654:	89 45 f0             	mov    %eax,-0x10(%ebp)
c0102657:	8b 55 f0             	mov    -0x10(%ebp),%edx
c010265a:	8b 45 0c             	mov    0xc(%ebp),%eax
c010265d:	8d 0c 85 00 00 00 00 	lea    0x0(,%eax,4),%ecx
c0102664:	8b 45 08             	mov    0x8(%ebp),%eax
c0102667:	01 c8                	add    %ecx,%eax
c0102669:	83 ca 03             	or     $0x3,%edx
c010266c:	89 10                	mov    %edx,(%eax)
c010266e:	8b 45 0c             	mov    0xc(%ebp),%eax
c0102671:	c1 e0 0c             	shl    $0xc,%eax
c0102674:	0d 00 00 c0 ff       	or     $0xffc00000,%eax
c0102679:	89 45 ec             	mov    %eax,-0x14(%ebp)
c010267c:	83 ec 04             	sub    $0x4,%esp
c010267f:	68 00 04 00 00       	push   $0x400
c0102684:	6a 00                	push   $0x0
c0102686:	ff 75 ec             	push   -0x14(%ebp)
c0102689:	e8 19 0b 00 00       	call   c01031a7 <memset>
c010268e:	83 c4 10             	add    $0x10,%esp
c0102691:	83 ec 08             	sub    $0x8,%esp
c0102694:	ff 75 0c             	push   0xc(%ebp)
c0102697:	68 c7 74 10 c0       	push   $0xc01074c7
c010269c:	e8 8a 06 00 00       	call   c0102d2b <logf>
c01026a1:	83 c4 10             	add    $0x10,%esp
c01026a4:	8b 45 ec             	mov    -0x14(%ebp),%eax
c01026a7:	c9                   	leave
c01026a8:	c3                   	ret

c01026a9 <copy_kernel_map>:
c01026a9:	55                   	push   %ebp
c01026aa:	89 e5                	mov    %esp,%ebp
c01026ac:	83 ec 08             	sub    $0x8,%esp
c01026af:	83 ec 04             	sub    $0x4,%esp
c01026b2:	68 00 10 00 00       	push   $0x1000
c01026b7:	68 00 d0 10 c0       	push   $0xc010d000
c01026bc:	ff 75 08             	push   0x8(%ebp)
c01026bf:	e8 90 0a 00 00       	call   c0103154 <memcpy>
c01026c4:	83 c4 10             	add    $0x10,%esp
c01026c7:	90                   	nop
c01026c8:	c9                   	leave
c01026c9:	c3                   	ret

c01026ca <copy_higher_half_kernel_pd>:
c01026ca:	55                   	push   %ebp
c01026cb:	89 e5                	mov    %esp,%ebp
c01026cd:	83 ec 08             	sub    $0x8,%esp
c01026d0:	ba 00 dc 10 c0       	mov    $0xc010dc00,%edx
c01026d5:	8b 45 08             	mov    0x8(%ebp),%eax
c01026d8:	05 00 0c 00 00       	add    $0xc00,%eax
c01026dd:	83 ec 04             	sub    $0x4,%esp
c01026e0:	68 00 04 00 00       	push   $0x400
c01026e5:	52                   	push   %edx
c01026e6:	50                   	push   %eax
c01026e7:	e8 68 0a 00 00       	call   c0103154 <memcpy>
c01026ec:	83 c4 10             	add    $0x10,%esp
c01026ef:	90                   	nop
c01026f0:	c9                   	leave
c01026f1:	c3                   	ret

c01026f2 <copy_kernel_pd_index>:
c01026f2:	55                   	push   %ebp
c01026f3:	89 e5                	mov    %esp,%ebp
c01026f5:	83 ec 10             	sub    $0x10,%esp
c01026f8:	8b 45 08             	mov    0x8(%ebp),%eax
c01026fb:	89 45 fc             	mov    %eax,-0x4(%ebp)
c01026fe:	8b 45 0c             	mov    0xc(%ebp),%eax
c0102701:	8d 14 85 00 00 00 00 	lea    0x0(,%eax,4),%edx
c0102708:	8b 45 fc             	mov    -0x4(%ebp),%eax
c010270b:	01 c2                	add    %eax,%edx
c010270d:	8b 45 0c             	mov    0xc(%ebp),%eax
c0102710:	8b 04 85 00 d0 10 c0 	mov    -0x3fef3000(,%eax,4),%eax
c0102717:	89 02                	mov    %eax,(%edx)
c0102719:	90                   	nop
c010271a:	c9                   	leave
c010271b:	c3                   	ret

c010271c <newinit_pd>:
c010271c:	55                   	push   %ebp
c010271d:	89 e5                	mov    %esp,%ebp
c010271f:	83 ec 10             	sub    $0x10,%esp
c0102722:	c7 45 fc 00 00 00 00 	movl   $0x0,-0x4(%ebp)
c0102729:	eb 19                	jmp    c0102744 <newinit_pd+0x28>
c010272b:	8b 45 fc             	mov    -0x4(%ebp),%eax
c010272e:	8d 14 85 00 00 00 00 	lea    0x0(,%eax,4),%edx
c0102735:	8b 45 08             	mov    0x8(%ebp),%eax
c0102738:	01 d0                	add    %edx,%eax
c010273a:	c7 00 02 00 00 00    	movl   $0x2,(%eax)
c0102740:	83 45 fc 01          	addl   $0x1,-0x4(%ebp)
c0102744:	81 7d fc ff 03 00 00 	cmpl   $0x3ff,-0x4(%ebp)
c010274b:	7e de                	jle    c010272b <newinit_pd+0xf>
c010274d:	8b 55 08             	mov    0x8(%ebp),%edx
c0102750:	8b 45 08             	mov    0x8(%ebp),%eax
c0102753:	05 fc 0f 00 00       	add    $0xffc,%eax
c0102758:	83 ca 03             	or     $0x3,%edx
c010275b:	89 10                	mov    %edx,(%eax)
c010275d:	90                   	nop
c010275e:	c9                   	leave
c010275f:	c3                   	ret

c0102760 <init_kpt>:
c0102760:	55                   	push   %ebp
c0102761:	89 e5                	mov    %esp,%ebp
c0102763:	83 ec 18             	sub    $0x18,%esp
c0102766:	c7 45 f4 00 00 00 00 	movl   $0x0,-0xc(%ebp)
c010276d:	c7 45 f0 03 00 00 00 	movl   $0x3,-0x10(%ebp)
c0102774:	b8 d4 00 11 c0       	mov    $0xc01100d4,%eax
c0102779:	8d 90 00 0c f0 3f    	lea    0x3ff00c00(%eax),%edx
c010277f:	8b 45 0c             	mov    0xc(%ebp),%eax
c0102782:	01 d0                	add    %edx,%eax
c0102784:	c1 e8 0c             	shr    $0xc,%eax
c0102787:	89 45 e8             	mov    %eax,-0x18(%ebp)
c010278a:	83 ec 08             	sub    $0x8,%esp
c010278d:	ff 75 e8             	push   -0x18(%ebp)
c0102790:	68 e3 74 10 c0       	push   $0xc01074e3
c0102795:	e8 91 05 00 00       	call   c0102d2b <logf>
c010279a:	83 c4 10             	add    $0x10,%esp
c010279d:	c7 45 ec 00 01 00 00 	movl   $0x100,-0x14(%ebp)
c01027a4:	eb 53                	jmp    c01027f9 <init_kpt+0x99>
c01027a6:	8b 45 e8             	mov    -0x18(%ebp),%eax
c01027a9:	05 04 01 00 00       	add    $0x104,%eax
c01027ae:	3b 45 ec             	cmp    -0x14(%ebp),%eax
c01027b1:	73 07                	jae    c01027ba <init_kpt+0x5a>
c01027b3:	c7 45 f0 02 00 00 00 	movl   $0x2,-0x10(%ebp)
c01027ba:	8b 45 ec             	mov    -0x14(%ebp),%eax
c01027bd:	8d 14 85 00 00 00 00 	lea    0x0(,%eax,4),%edx
c01027c4:	8b 45 08             	mov    0x8(%ebp),%eax
c01027c7:	01 d0                	add    %edx,%eax
c01027c9:	8b 00                	mov    (%eax),%eax
c01027cb:	83 e0 03             	and    $0x3,%eax
c01027ce:	85 c0                	test   %eax,%eax
c01027d0:	75 1f                	jne    c01027f1 <init_kpt+0x91>
c01027d2:	8b 45 f4             	mov    -0xc(%ebp),%eax
c01027d5:	05 00 01 00 00       	add    $0x100,%eax
c01027da:	c1 e0 0c             	shl    $0xc,%eax
c01027dd:	8b 55 ec             	mov    -0x14(%ebp),%edx
c01027e0:	8d 0c 95 00 00 00 00 	lea    0x0(,%edx,4),%ecx
c01027e7:	8b 55 08             	mov    0x8(%ebp),%edx
c01027ea:	01 ca                	add    %ecx,%edx
c01027ec:	0b 45 f0             	or     -0x10(%ebp),%eax
c01027ef:	89 02                	mov    %eax,(%edx)
c01027f1:	83 45 f4 01          	addl   $0x1,-0xc(%ebp)
c01027f5:	83 45 ec 01          	addl   $0x1,-0x14(%ebp)
c01027f9:	81 7d ec ff 03 00 00 	cmpl   $0x3ff,-0x14(%ebp)
c0102800:	76 a4                	jbe    c01027a6 <init_kpt+0x46>
c0102802:	90                   	nop
c0102803:	90                   	nop
c0102804:	c9                   	leave
c0102805:	c3                   	ret

c0102806 <load_page_directory>:
c0102806:	55                   	push   %ebp
c0102807:	89 e5                	mov    %esp,%ebp
c0102809:	8b 45 08             	mov    0x8(%ebp),%eax
c010280c:	0f 22 d8             	mov    %eax,%cr3
c010280f:	90                   	nop
c0102810:	5d                   	pop    %ebp
c0102811:	c3                   	ret

c0102812 <enable_paging_c>:
c0102812:	55                   	push   %ebp
c0102813:	89 e5                	mov    %esp,%ebp
c0102815:	83 ec 10             	sub    $0x10,%esp
c0102818:	0f 20 c0             	mov    %cr0,%eax
c010281b:	89 45 fc             	mov    %eax,-0x4(%ebp)
c010281e:	81 4d fc 00 00 00 80 	orl    $0x80000000,-0x4(%ebp)
c0102825:	8b 45 fc             	mov    -0x4(%ebp),%eax
c0102828:	0f 22 c0             	mov    %eax,%cr0
c010282b:	90                   	nop
c010282c:	c9                   	leave
c010282d:	c3                   	ret

c010282e <handle_exception>:
c010282e:	55                   	push   %ebp
c010282f:	89 e5                	mov    %esp,%ebp
c0102831:	83 ec 18             	sub    $0x18,%esp
c0102834:	8b 45 08             	mov    0x8(%ebp),%eax
c0102837:	8b 40 2c             	mov    0x2c(%eax),%eax
c010283a:	89 45 f4             	mov    %eax,-0xc(%ebp)
c010283d:	8b 45 f4             	mov    -0xc(%ebp),%eax
c0102840:	83 e0 01             	and    $0x1,%eax
c0102843:	85 c0                	test   %eax,%eax
c0102845:	74 10                	je     c0102857 <handle_exception+0x29>
c0102847:	83 ec 0c             	sub    $0xc,%esp
c010284a:	68 ee 74 10 c0       	push   $0xc01074ee
c010284f:	e8 9d 02 00 00       	call   c0102af1 <log_to_serial>
c0102854:	83 c4 10             	add    $0x10,%esp
c0102857:	8b 45 f4             	mov    -0xc(%ebp),%eax
c010285a:	83 e0 02             	and    $0x2,%eax
c010285d:	85 c0                	test   %eax,%eax
c010285f:	74 17                	je     c0102878 <handle_exception+0x4a>
c0102861:	8b 45 08             	mov    0x8(%ebp),%eax
c0102864:	8b 40 04             	mov    0x4(%eax),%eax
c0102867:	83 ec 08             	sub    $0x8,%esp
c010286a:	50                   	push   %eax
c010286b:	68 03 75 10 c0       	push   $0xc0107503
c0102870:	e8 b6 04 00 00       	call   c0102d2b <logf>
c0102875:	83 c4 10             	add    $0x10,%esp
c0102878:	8b 45 f4             	mov    -0xc(%ebp),%eax
c010287b:	83 e0 04             	and    $0x4,%eax
c010287e:	85 c0                	test   %eax,%eax
c0102880:	74 10                	je     c0102892 <handle_exception+0x64>
c0102882:	83 ec 0c             	sub    $0xc,%esp
c0102885:	68 18 75 10 c0       	push   $0xc0107518
c010288a:	e8 62 02 00 00       	call   c0102af1 <log_to_serial>
c010288f:	83 c4 10             	add    $0x10,%esp
c0102892:	8b 45 f4             	mov    -0xc(%ebp),%eax
c0102895:	83 e0 08             	and    $0x8,%eax
c0102898:	85 c0                	test   %eax,%eax
c010289a:	74 10                	je     c01028ac <handle_exception+0x7e>
c010289c:	83 ec 0c             	sub    $0xc,%esp
c010289f:	68 3b 75 10 c0       	push   $0xc010753b
c01028a4:	e8 48 02 00 00       	call   c0102af1 <log_to_serial>
c01028a9:	83 c4 10             	add    $0x10,%esp
c01028ac:	8b 45 f4             	mov    -0xc(%ebp),%eax
c01028af:	83 e0 10             	and    $0x10,%eax
c01028b2:	85 c0                	test   %eax,%eax
c01028b4:	74 10                	je     c01028c6 <handle_exception+0x98>
c01028b6:	83 ec 0c             	sub    $0xc,%esp
c01028b9:	68 4b 75 10 c0       	push   $0xc010754b
c01028be:	e8 2e 02 00 00       	call   c0102af1 <log_to_serial>
c01028c3:	83 c4 10             	add    $0x10,%esp
c01028c6:	8b 45 f4             	mov    -0xc(%ebp),%eax
c01028c9:	83 e0 20             	and    $0x20,%eax
c01028cc:	85 c0                	test   %eax,%eax
c01028ce:	74 10                	je     c01028e0 <handle_exception+0xb2>
c01028d0:	83 ec 0c             	sub    $0xc,%esp
c01028d3:	68 5e 75 10 c0       	push   $0xc010755e
c01028d8:	e8 14 02 00 00       	call   c0102af1 <log_to_serial>
c01028dd:	83 c4 10             	add    $0x10,%esp
c01028e0:	8b 45 f4             	mov    -0xc(%ebp),%eax
c01028e3:	83 e0 40             	and    $0x40,%eax
c01028e6:	85 c0                	test   %eax,%eax
c01028e8:	74 10                	je     c01028fa <handle_exception+0xcc>
c01028ea:	83 ec 0c             	sub    $0xc,%esp
c01028ed:	68 70 75 10 c0       	push   $0xc0107570
c01028f2:	e8 fa 01 00 00       	call   c0102af1 <log_to_serial>
c01028f7:	83 c4 10             	add    $0x10,%esp
c01028fa:	8b 45 f4             	mov    -0xc(%ebp),%eax
c01028fd:	83 e0 fd             	and    $0xfffffffd,%eax
c0102900:	85 c0                	test   %eax,%eax
c0102902:	75 48                	jne    c010294c <handle_exception+0x11e>
c0102904:	8b 45 08             	mov    0x8(%ebp),%eax
c0102907:	8b 40 04             	mov    0x4(%eax),%eax
c010290a:	85 c0                	test   %eax,%eax
c010290c:	75 10                	jne    c010291e <handle_exception+0xf0>
c010290e:	83 ec 0c             	sub    $0xc,%esp
c0102911:	68 7e 75 10 c0       	push   $0xc010757e
c0102916:	e8 10 04 00 00       	call   c0102d2b <logf>
c010291b:	83 c4 10             	add    $0x10,%esp
c010291e:	8b 45 08             	mov    0x8(%ebp),%eax
c0102921:	8b 40 04             	mov    0x4(%eax),%eax
c0102924:	83 ec 08             	sub    $0x8,%esp
c0102927:	50                   	push   %eax
c0102928:	68 94 75 10 c0       	push   $0xc0107594
c010292d:	e8 f9 03 00 00       	call   c0102d2b <logf>
c0102932:	83 c4 10             	add    $0x10,%esp
c0102935:	83 ec 0c             	sub    $0xc,%esp
c0102938:	68 a6 75 10 c0       	push   $0xc01075a6
c010293d:	e8 62 05 00 00       	call   c0102ea4 <panic>
c0102942:	83 c4 10             	add    $0x10,%esp
c0102945:	b8 00 00 00 00       	mov    $0x0,%eax
c010294a:	eb 05                	jmp    c0102951 <handle_exception+0x123>
c010294c:	b8 01 00 00 00       	mov    $0x1,%eax
c0102951:	c9                   	leave
c0102952:	c3                   	ret

c0102953 <pg_init>:
c0102953:	55                   	push   %ebp
c0102954:	89 e5                	mov    %esp,%ebp
c0102956:	83 ec 08             	sub    $0x8,%esp
c0102959:	68 00 d0 10 c0       	push   $0xc010d000
c010295e:	e8 b9 fd ff ff       	call   c010271c <newinit_pd>
c0102963:	83 c4 04             	add    $0x4,%esp
c0102966:	83 ec 04             	sub    $0x4,%esp
c0102969:	68 00 04 00 00       	push   $0x400
c010296e:	6a 00                	push   $0x0
c0102970:	68 00 d0 10 c0       	push   $0xc010d000
c0102975:	e8 2d 08 00 00       	call   c01031a7 <memset>
c010297a:	83 c4 10             	add    $0x10,%esp
c010297d:	8b 45 08             	mov    0x8(%ebp),%eax
c0102980:	05 00 0c 00 00       	add    $0xc00,%eax
c0102985:	8b 00                	mov    (%eax),%eax
c0102987:	25 00 f0 ff ff       	and    $0xfffff000,%eax
c010298c:	2d 00 00 00 40       	sub    $0x40000000,%eax
c0102991:	83 ec 04             	sub    $0x4,%esp
c0102994:	68 00 10 00 00       	push   $0x1000
c0102999:	50                   	push   %eax
c010299a:	68 00 e0 10 c0       	push   $0xc010e000
c010299f:	e8 b0 07 00 00       	call   c0103154 <memcpy>
c01029a4:	83 c4 10             	add    $0x10,%esp
c01029a7:	83 ec 08             	sub    $0x8,%esp
c01029aa:	ff 75 0c             	push   0xc(%ebp)
c01029ad:	68 00 e0 10 c0       	push   $0xc010e000
c01029b2:	e8 a9 fd ff ff       	call   c0102760 <init_kpt>
c01029b7:	83 c4 10             	add    $0x10,%esp
c01029ba:	b8 00 e0 10 c0       	mov    $0xc010e000,%eax
c01029bf:	05 00 00 00 40       	add    $0x40000000,%eax
c01029c4:	83 c8 03             	or     $0x3,%eax
c01029c7:	a3 00 dc 10 c0       	mov    %eax,0xc010dc00
c01029cc:	b8 00 d0 10 c0       	mov    $0xc010d000,%eax
c01029d1:	05 00 00 00 40       	add    $0x40000000,%eax
c01029d6:	83 c8 03             	or     $0x3,%eax
c01029d9:	a3 fc df 10 c0       	mov    %eax,0xc010dffc
c01029de:	b8 00 d0 10 c0       	mov    $0xc010d000,%eax
c01029e3:	05 00 00 00 40       	add    $0x40000000,%eax
c01029e8:	83 ec 0c             	sub    $0xc,%esp
c01029eb:	50                   	push   %eax
c01029ec:	e8 15 fe ff ff       	call   c0102806 <load_page_directory>
c01029f1:	83 c4 10             	add    $0x10,%esp
c01029f4:	e8 19 fe ff ff       	call   c0102812 <enable_paging_c>
c01029f9:	b8 00 d0 10 c0       	mov    $0xc010d000,%eax
c01029fe:	c9                   	leave
c01029ff:	c3                   	ret

c0102a00 <inportb>:
c0102a00:	55                   	push   %ebp
c0102a01:	89 e5                	mov    %esp,%ebp
c0102a03:	83 ec 10             	sub    $0x10,%esp
c0102a06:	c6 45 ff 00          	movb   $0x0,-0x1(%ebp)
c0102a0a:	8b 45 08             	mov    0x8(%ebp),%eax
c0102a0d:	89 c2                	mov    %eax,%edx
c0102a0f:	ec                   	in     (%dx),%al
c0102a10:	88 45 ff             	mov    %al,-0x1(%ebp)
c0102a13:	0f b6 45 ff          	movzbl -0x1(%ebp),%eax
c0102a17:	c9                   	leave
c0102a18:	c3                   	ret

c0102a19 <outportb>:
c0102a19:	55                   	push   %ebp
c0102a1a:	89 e5                	mov    %esp,%ebp
c0102a1c:	83 ec 04             	sub    $0x4,%esp
c0102a1f:	8b 45 0c             	mov    0xc(%ebp),%eax
c0102a22:	88 45 fc             	mov    %al,-0x4(%ebp)
c0102a25:	0f b6 45 fc          	movzbl -0x4(%ebp),%eax
c0102a29:	8b 55 08             	mov    0x8(%ebp),%edx
c0102a2c:	ee                   	out    %al,(%dx)
c0102a2d:	90                   	nop
c0102a2e:	c9                   	leave
c0102a2f:	c3                   	ret

c0102a30 <init_serial>:
c0102a30:	55                   	push   %ebp
c0102a31:	89 e5                	mov    %esp,%ebp
c0102a33:	6a 00                	push   $0x0
c0102a35:	68 f9 03 00 00       	push   $0x3f9
c0102a3a:	e8 da ff ff ff       	call   c0102a19 <outportb>
c0102a3f:	83 c4 08             	add    $0x8,%esp
c0102a42:	68 80 00 00 00       	push   $0x80
c0102a47:	68 fb 03 00 00       	push   $0x3fb
c0102a4c:	e8 c8 ff ff ff       	call   c0102a19 <outportb>
c0102a51:	83 c4 08             	add    $0x8,%esp
c0102a54:	6a 03                	push   $0x3
c0102a56:	68 f8 03 00 00       	push   $0x3f8
c0102a5b:	e8 b9 ff ff ff       	call   c0102a19 <outportb>
c0102a60:	83 c4 08             	add    $0x8,%esp
c0102a63:	6a 00                	push   $0x0
c0102a65:	68 f9 03 00 00       	push   $0x3f9
c0102a6a:	e8 aa ff ff ff       	call   c0102a19 <outportb>
c0102a6f:	83 c4 08             	add    $0x8,%esp
c0102a72:	6a 03                	push   $0x3
c0102a74:	68 fb 03 00 00       	push   $0x3fb
c0102a79:	e8 9b ff ff ff       	call   c0102a19 <outportb>
c0102a7e:	83 c4 08             	add    $0x8,%esp
c0102a81:	68 c7 00 00 00       	push   $0xc7
c0102a86:	68 fa 03 00 00       	push   $0x3fa
c0102a8b:	e8 89 ff ff ff       	call   c0102a19 <outportb>
c0102a90:	83 c4 08             	add    $0x8,%esp
c0102a93:	6a 0b                	push   $0xb
c0102a95:	68 fc 03 00 00       	push   $0x3fc
c0102a9a:	e8 7a ff ff ff       	call   c0102a19 <outportb>
c0102a9f:	83 c4 08             	add    $0x8,%esp
c0102aa2:	6a 1e                	push   $0x1e
c0102aa4:	68 fc 03 00 00       	push   $0x3fc
c0102aa9:	e8 6b ff ff ff       	call   c0102a19 <outportb>
c0102aae:	83 c4 08             	add    $0x8,%esp
c0102ab1:	68 ae 00 00 00       	push   $0xae
c0102ab6:	68 f8 03 00 00       	push   $0x3f8
c0102abb:	e8 59 ff ff ff       	call   c0102a19 <outportb>
c0102ac0:	83 c4 08             	add    $0x8,%esp
c0102ac3:	68 f8 03 00 00       	push   $0x3f8
c0102ac8:	e8 33 ff ff ff       	call   c0102a00 <inportb>
c0102acd:	83 c4 04             	add    $0x4,%esp
c0102ad0:	3c ae                	cmp    $0xae,%al
c0102ad2:	74 07                	je     c0102adb <init_serial+0xab>
c0102ad4:	b8 01 00 00 00       	mov    $0x1,%eax
c0102ad9:	eb 14                	jmp    c0102aef <init_serial+0xbf>
c0102adb:	6a 0f                	push   $0xf
c0102add:	68 fc 03 00 00       	push   $0x3fc
c0102ae2:	e8 32 ff ff ff       	call   c0102a19 <outportb>
c0102ae7:	83 c4 08             	add    $0x8,%esp
c0102aea:	b8 00 00 00 00       	mov    $0x0,%eax
c0102aef:	c9                   	leave
c0102af0:	c3                   	ret

c0102af1 <log_to_serial>:
c0102af1:	55                   	push   %ebp
c0102af2:	89 e5                	mov    %esp,%ebp
c0102af4:	83 ec 10             	sub    $0x10,%esp
c0102af7:	8b 45 08             	mov    0x8(%ebp),%eax
c0102afa:	0f b6 00             	movzbl (%eax),%eax
c0102afd:	88 45 ff             	mov    %al,-0x1(%ebp)
c0102b00:	eb 22                	jmp    c0102b24 <log_to_serial+0x33>
c0102b02:	0f b6 45 ff          	movzbl -0x1(%ebp),%eax
c0102b06:	0f b6 c0             	movzbl %al,%eax
c0102b09:	50                   	push   %eax
c0102b0a:	68 f8 03 00 00       	push   $0x3f8
c0102b0f:	e8 05 ff ff ff       	call   c0102a19 <outportb>
c0102b14:	83 c4 08             	add    $0x8,%esp
c0102b17:	83 45 08 01          	addl   $0x1,0x8(%ebp)
c0102b1b:	8b 45 08             	mov    0x8(%ebp),%eax
c0102b1e:	0f b6 00             	movzbl (%eax),%eax
c0102b21:	88 45 ff             	mov    %al,-0x1(%ebp)
c0102b24:	80 7d ff 00          	cmpb   $0x0,-0x1(%ebp)
c0102b28:	75 d8                	jne    c0102b02 <log_to_serial+0x11>
c0102b2a:	90                   	nop
c0102b2b:	90                   	nop
c0102b2c:	c9                   	leave
c0102b2d:	c3                   	ret

c0102b2e <log_integer_to_serial>:
c0102b2e:	55                   	push   %ebp
c0102b2f:	89 e5                	mov    %esp,%ebp
c0102b31:	83 ec 68             	sub    $0x68,%esp
c0102b34:	8b 45 08             	mov    0x8(%ebp),%eax
c0102b37:	89 45 98             	mov    %eax,-0x68(%ebp)
c0102b3a:	8b 45 0c             	mov    0xc(%ebp),%eax
c0102b3d:	89 45 9c             	mov    %eax,-0x64(%ebp)
c0102b40:	c7 45 fc 00 00 00 00 	movl   $0x0,-0x4(%ebp)
c0102b47:	ba 09 00 00 00       	mov    $0x9,%edx
c0102b4c:	b8 00 00 00 00       	mov    $0x0,%eax
c0102b51:	3b 55 98             	cmp    -0x68(%ebp),%edx
c0102b54:	1b 45 9c             	sbb    -0x64(%ebp),%eax
c0102b57:	72 1e                	jb     c0102b77 <log_integer_to_serial+0x49>
c0102b59:	8b 45 98             	mov    -0x68(%ebp),%eax
c0102b5c:	83 c0 30             	add    $0x30,%eax
c0102b5f:	88 45 af             	mov    %al,-0x51(%ebp)
c0102b62:	c6 45 b0 00          	movb   $0x0,-0x50(%ebp)
c0102b66:	8d 45 af             	lea    -0x51(%ebp),%eax
c0102b69:	50                   	push   %eax
c0102b6a:	e8 82 ff ff ff       	call   c0102af1 <log_to_serial>
c0102b6f:	83 c4 04             	add    $0x4,%esp
c0102b72:	e9 bb 00 00 00       	jmp    c0102c32 <log_integer_to_serial+0x104>
c0102b77:	8b 45 98             	mov    -0x68(%ebp),%eax
c0102b7a:	89 45 f8             	mov    %eax,-0x8(%ebp)
c0102b7d:	eb 43                	jmp    c0102bc2 <log_integer_to_serial+0x94>
c0102b7f:	8b 4d f8             	mov    -0x8(%ebp),%ecx
c0102b82:	ba cd cc cc cc       	mov    $0xcccccccd,%edx
c0102b87:	89 c8                	mov    %ecx,%eax
c0102b89:	f7 e2                	mul    %edx
c0102b8b:	c1 ea 03             	shr    $0x3,%edx
c0102b8e:	89 d0                	mov    %edx,%eax
c0102b90:	c1 e0 02             	shl    $0x2,%eax
c0102b93:	01 d0                	add    %edx,%eax
c0102b95:	01 c0                	add    %eax,%eax
c0102b97:	29 c1                	sub    %eax,%ecx
c0102b99:	89 ca                	mov    %ecx,%edx
c0102b9b:	89 d0                	mov    %edx,%eax
c0102b9d:	83 c0 30             	add    $0x30,%eax
c0102ba0:	89 c1                	mov    %eax,%ecx
c0102ba2:	8d 55 af             	lea    -0x51(%ebp),%edx
c0102ba5:	8b 45 fc             	mov    -0x4(%ebp),%eax
c0102ba8:	01 d0                	add    %edx,%eax
c0102baa:	88 08                	mov    %cl,(%eax)
c0102bac:	83 45 fc 01          	addl   $0x1,-0x4(%ebp)
c0102bb0:	8b 45 f8             	mov    -0x8(%ebp),%eax
c0102bb3:	ba cd cc cc cc       	mov    $0xcccccccd,%edx
c0102bb8:	f7 e2                	mul    %edx
c0102bba:	89 d0                	mov    %edx,%eax
c0102bbc:	c1 e8 03             	shr    $0x3,%eax
c0102bbf:	89 45 f8             	mov    %eax,-0x8(%ebp)
c0102bc2:	83 7d f8 00          	cmpl   $0x0,-0x8(%ebp)
c0102bc6:	75 b7                	jne    c0102b7f <log_integer_to_serial+0x51>
c0102bc8:	c7 45 f4 00 00 00 00 	movl   $0x0,-0xc(%ebp)
c0102bcf:	8b 45 fc             	mov    -0x4(%ebp),%eax
c0102bd2:	83 e8 01             	sub    $0x1,%eax
c0102bd5:	89 45 f0             	mov    %eax,-0x10(%ebp)
c0102bd8:	eb 39                	jmp    c0102c13 <log_integer_to_serial+0xe5>
c0102bda:	8d 55 af             	lea    -0x51(%ebp),%edx
c0102bdd:	8b 45 f4             	mov    -0xc(%ebp),%eax
c0102be0:	01 d0                	add    %edx,%eax
c0102be2:	0f b6 00             	movzbl (%eax),%eax
c0102be5:	88 45 ef             	mov    %al,-0x11(%ebp)
c0102be8:	8d 55 af             	lea    -0x51(%ebp),%edx
c0102beb:	8b 45 f0             	mov    -0x10(%ebp),%eax
c0102bee:	01 d0                	add    %edx,%eax
c0102bf0:	0f b6 00             	movzbl (%eax),%eax
c0102bf3:	8d 4d af             	lea    -0x51(%ebp),%ecx
c0102bf6:	8b 55 f4             	mov    -0xc(%ebp),%edx
c0102bf9:	01 ca                	add    %ecx,%edx
c0102bfb:	88 02                	mov    %al,(%edx)
c0102bfd:	8d 55 af             	lea    -0x51(%ebp),%edx
c0102c00:	8b 45 f0             	mov    -0x10(%ebp),%eax
c0102c03:	01 c2                	add    %eax,%edx
c0102c05:	0f b6 45 ef          	movzbl -0x11(%ebp),%eax
c0102c09:	88 02                	mov    %al,(%edx)
c0102c0b:	83 45 f4 01          	addl   $0x1,-0xc(%ebp)
c0102c0f:	83 6d f0 01          	subl   $0x1,-0x10(%ebp)
c0102c13:	8b 45 f4             	mov    -0xc(%ebp),%eax
c0102c16:	39 45 f0             	cmp    %eax,-0x10(%ebp)
c0102c19:	73 bf                	jae    c0102bda <log_integer_to_serial+0xac>
c0102c1b:	8d 55 af             	lea    -0x51(%ebp),%edx
c0102c1e:	8b 45 fc             	mov    -0x4(%ebp),%eax
c0102c21:	01 d0                	add    %edx,%eax
c0102c23:	c6 00 00             	movb   $0x0,(%eax)
c0102c26:	8d 45 af             	lea    -0x51(%ebp),%eax
c0102c29:	50                   	push   %eax
c0102c2a:	e8 c2 fe ff ff       	call   c0102af1 <log_to_serial>
c0102c2f:	83 c4 04             	add    $0x4,%esp
c0102c32:	c9                   	leave
c0102c33:	c3                   	ret

c0102c34 <print_hex>:
c0102c34:	55                   	push   %ebp
c0102c35:	89 e5                	mov    %esp,%ebp
c0102c37:	83 ec 68             	sub    $0x68,%esp
c0102c3a:	8b 45 08             	mov    0x8(%ebp),%eax
c0102c3d:	89 45 98             	mov    %eax,-0x68(%ebp)
c0102c40:	8b 45 0c             	mov    0xc(%ebp),%eax
c0102c43:	89 45 9c             	mov    %eax,-0x64(%ebp)
c0102c46:	8b 45 98             	mov    -0x68(%ebp),%eax
c0102c49:	0b 45 9c             	or     -0x64(%ebp),%eax
c0102c4c:	75 12                	jne    c0102c60 <print_hex+0x2c>
c0102c4e:	68 bc 75 10 c0       	push   $0xc01075bc
c0102c53:	e8 99 fe ff ff       	call   c0102af1 <log_to_serial>
c0102c58:	83 c4 04             	add    $0x4,%esp
c0102c5b:	e9 c9 00 00 00       	jmp    c0102d29 <print_hex+0xf5>
c0102c60:	c6 45 a8 30          	movb   $0x30,-0x58(%ebp)
c0102c64:	c6 45 a9 78          	movb   $0x78,-0x57(%ebp)
c0102c68:	c7 45 fc 02 00 00 00 	movl   $0x2,-0x4(%ebp)
c0102c6f:	8b 45 98             	mov    -0x68(%ebp),%eax
c0102c72:	89 45 f8             	mov    %eax,-0x8(%ebp)
c0102c75:	eb 42                	jmp    c0102cb9 <print_hex+0x85>
c0102c77:	8b 45 f8             	mov    -0x8(%ebp),%eax
c0102c7a:	83 e0 0f             	and    $0xf,%eax
c0102c7d:	89 45 e8             	mov    %eax,-0x18(%ebp)
c0102c80:	83 7d e8 09          	cmpl   $0x9,-0x18(%ebp)
c0102c84:	77 14                	ja     c0102c9a <print_hex+0x66>
c0102c86:	8b 45 e8             	mov    -0x18(%ebp),%eax
c0102c89:	83 c0 30             	add    $0x30,%eax
c0102c8c:	89 c1                	mov    %eax,%ecx
c0102c8e:	8d 55 a8             	lea    -0x58(%ebp),%edx
c0102c91:	8b 45 fc             	mov    -0x4(%ebp),%eax
c0102c94:	01 d0                	add    %edx,%eax
c0102c96:	88 08                	mov    %cl,(%eax)
c0102c98:	eb 12                	jmp    c0102cac <print_hex+0x78>
c0102c9a:	8b 45 e8             	mov    -0x18(%ebp),%eax
c0102c9d:	83 c0 57             	add    $0x57,%eax
c0102ca0:	89 c1                	mov    %eax,%ecx
c0102ca2:	8d 55 a8             	lea    -0x58(%ebp),%edx
c0102ca5:	8b 45 fc             	mov    -0x4(%ebp),%eax
c0102ca8:	01 d0                	add    %edx,%eax
c0102caa:	88 08                	mov    %cl,(%eax)
c0102cac:	83 45 fc 01          	addl   $0x1,-0x4(%ebp)
c0102cb0:	8b 45 f8             	mov    -0x8(%ebp),%eax
c0102cb3:	c1 e8 04             	shr    $0x4,%eax
c0102cb6:	89 45 f8             	mov    %eax,-0x8(%ebp)
c0102cb9:	83 7d f8 00          	cmpl   $0x0,-0x8(%ebp)
c0102cbd:	75 b8                	jne    c0102c77 <print_hex+0x43>
c0102cbf:	c7 45 f4 02 00 00 00 	movl   $0x2,-0xc(%ebp)
c0102cc6:	8b 45 fc             	mov    -0x4(%ebp),%eax
c0102cc9:	83 e8 01             	sub    $0x1,%eax
c0102ccc:	89 45 f0             	mov    %eax,-0x10(%ebp)
c0102ccf:	eb 39                	jmp    c0102d0a <print_hex+0xd6>
c0102cd1:	8d 55 a8             	lea    -0x58(%ebp),%edx
c0102cd4:	8b 45 f0             	mov    -0x10(%ebp),%eax
c0102cd7:	01 d0                	add    %edx,%eax
c0102cd9:	0f b6 00             	movzbl (%eax),%eax
c0102cdc:	88 45 ef             	mov    %al,-0x11(%ebp)
c0102cdf:	8d 55 a8             	lea    -0x58(%ebp),%edx
c0102ce2:	8b 45 f4             	mov    -0xc(%ebp),%eax
c0102ce5:	01 d0                	add    %edx,%eax
c0102ce7:	0f b6 00             	movzbl (%eax),%eax
c0102cea:	8d 4d a8             	lea    -0x58(%ebp),%ecx
c0102ced:	8b 55 f0             	mov    -0x10(%ebp),%edx
c0102cf0:	01 ca                	add    %ecx,%edx
c0102cf2:	88 02                	mov    %al,(%edx)
c0102cf4:	8d 55 a8             	lea    -0x58(%ebp),%edx
c0102cf7:	8b 45 f4             	mov    -0xc(%ebp),%eax
c0102cfa:	01 c2                	add    %eax,%edx
c0102cfc:	0f b6 45 ef          	movzbl -0x11(%ebp),%eax
c0102d00:	88 02                	mov    %al,(%edx)
c0102d02:	83 45 f4 01          	addl   $0x1,-0xc(%ebp)
c0102d06:	83 6d f0 01          	subl   $0x1,-0x10(%ebp)
c0102d0a:	8b 45 f4             	mov    -0xc(%ebp),%eax
c0102d0d:	39 45 f0             	cmp    %eax,-0x10(%ebp)
c0102d10:	73 bf                	jae    c0102cd1 <print_hex+0x9d>
c0102d12:	8d 55 a8             	lea    -0x58(%ebp),%edx
c0102d15:	8b 45 fc             	mov    -0x4(%ebp),%eax
c0102d18:	01 d0                	add    %edx,%eax
c0102d1a:	c6 00 00             	movb   $0x0,(%eax)
c0102d1d:	8d 45 a8             	lea    -0x58(%ebp),%eax
c0102d20:	50                   	push   %eax
c0102d21:	e8 cb fd ff ff       	call   c0102af1 <log_to_serial>
c0102d26:	83 c4 04             	add    $0x4,%esp
c0102d29:	c9                   	leave
c0102d2a:	c3                   	ret

c0102d2b <logf>:
c0102d2b:	55                   	push   %ebp
c0102d2c:	89 e5                	mov    %esp,%ebp
c0102d2e:	83 ec 10             	sub    $0x10,%esp
c0102d31:	8d 45 0c             	lea    0xc(%ebp),%eax
c0102d34:	89 45 f8             	mov    %eax,-0x8(%ebp)
c0102d37:	e9 56 01 00 00       	jmp    c0102e92 <logf+0x167>
c0102d3c:	8b 45 08             	mov    0x8(%ebp),%eax
c0102d3f:	0f b6 00             	movzbl (%eax),%eax
c0102d42:	3c 25                	cmp    $0x25,%al
c0102d44:	0f 85 28 01 00 00    	jne    c0102e72 <logf+0x147>
c0102d4a:	8b 45 08             	mov    0x8(%ebp),%eax
c0102d4d:	83 c0 01             	add    $0x1,%eax
c0102d50:	89 45 08             	mov    %eax,0x8(%ebp)
c0102d53:	8b 45 08             	mov    0x8(%ebp),%eax
c0102d56:	0f b6 00             	movzbl (%eax),%eax
c0102d59:	0f be c0             	movsbl %al,%eax
c0102d5c:	83 f8 25             	cmp    $0x25,%eax
c0102d5f:	74 4f                	je     c0102db0 <logf+0x85>
c0102d61:	83 f8 25             	cmp    $0x25,%eax
c0102d64:	0f 8c c5 00 00 00    	jl     c0102e2f <logf+0x104>
c0102d6a:	83 f8 78             	cmp    $0x78,%eax
c0102d6d:	0f 8f bc 00 00 00    	jg     c0102e2f <logf+0x104>
c0102d73:	83 f8 63             	cmp    $0x63,%eax
c0102d76:	0f 8c b3 00 00 00    	jl     c0102e2f <logf+0x104>
c0102d7c:	83 e8 63             	sub    $0x63,%eax
c0102d7f:	83 f8 15             	cmp    $0x15,%eax
c0102d82:	0f 87 a7 00 00 00    	ja     c0102e2f <logf+0x104>
c0102d88:	8b 04 85 d4 75 10 c0 	mov    -0x3fef8a2c(,%eax,4),%eax
c0102d8f:	ff e0                	jmp    *%eax
c0102d91:	8b 45 f8             	mov    -0x8(%ebp),%eax
c0102d94:	8d 50 04             	lea    0x4(%eax),%edx
c0102d97:	89 55 f8             	mov    %edx,-0x8(%ebp)
c0102d9a:	8b 00                	mov    (%eax),%eax
c0102d9c:	ba 00 00 00 00       	mov    $0x0,%edx
c0102da1:	52                   	push   %edx
c0102da2:	50                   	push   %eax
c0102da3:	e8 8c fe ff ff       	call   c0102c34 <print_hex>
c0102da8:	83 c4 08             	add    $0x8,%esp
c0102dab:	e9 b7 00 00 00       	jmp    c0102e67 <logf+0x13c>
c0102db0:	8b 45 08             	mov    0x8(%ebp),%eax
c0102db3:	0f b6 00             	movzbl (%eax),%eax
c0102db6:	0f b6 c0             	movzbl %al,%eax
c0102db9:	50                   	push   %eax
c0102dba:	68 f8 03 00 00       	push   $0x3f8
c0102dbf:	e8 55 fc ff ff       	call   c0102a19 <outportb>
c0102dc4:	83 c4 08             	add    $0x8,%esp
c0102dc7:	e9 9b 00 00 00       	jmp    c0102e67 <logf+0x13c>
c0102dcc:	83 45 08 02          	addl   $0x2,0x8(%ebp)
c0102dd0:	e9 92 00 00 00       	jmp    c0102e67 <logf+0x13c>
c0102dd5:	8b 45 f8             	mov    -0x8(%ebp),%eax
c0102dd8:	8d 50 04             	lea    0x4(%eax),%edx
c0102ddb:	89 55 f8             	mov    %edx,-0x8(%ebp)
c0102dde:	8b 00                	mov    (%eax),%eax
c0102de0:	ba 00 00 00 00       	mov    $0x0,%edx
c0102de5:	52                   	push   %edx
c0102de6:	50                   	push   %eax
c0102de7:	e8 42 fd ff ff       	call   c0102b2e <log_integer_to_serial>
c0102dec:	83 c4 08             	add    $0x8,%esp
c0102def:	eb 76                	jmp    c0102e67 <logf+0x13c>
c0102df1:	8b 45 f8             	mov    -0x8(%ebp),%eax
c0102df4:	8d 50 04             	lea    0x4(%eax),%edx
c0102df7:	89 55 f8             	mov    %edx,-0x8(%ebp)
c0102dfa:	8b 00                	mov    (%eax),%eax
c0102dfc:	83 ec 04             	sub    $0x4,%esp
c0102dff:	50                   	push   %eax
c0102e00:	e8 ec fc ff ff       	call   c0102af1 <log_to_serial>
c0102e05:	83 c4 08             	add    $0x8,%esp
c0102e08:	eb 5d                	jmp    c0102e67 <logf+0x13c>
c0102e0a:	8b 45 f8             	mov    -0x8(%ebp),%eax
c0102e0d:	8d 50 04             	lea    0x4(%eax),%edx
c0102e10:	89 55 f8             	mov    %edx,-0x8(%ebp)
c0102e13:	8b 00                	mov    (%eax),%eax
c0102e15:	88 45 ff             	mov    %al,-0x1(%ebp)
c0102e18:	0f b6 45 ff          	movzbl -0x1(%ebp),%eax
c0102e1c:	0f b6 c0             	movzbl %al,%eax
c0102e1f:	50                   	push   %eax
c0102e20:	68 f8 03 00 00       	push   $0x3f8
c0102e25:	e8 ef fb ff ff       	call   c0102a19 <outportb>
c0102e2a:	83 c4 08             	add    $0x8,%esp
c0102e2d:	eb 38                	jmp    c0102e67 <logf+0x13c>
c0102e2f:	83 ec 04             	sub    $0x4,%esp
c0102e32:	68 c0 75 10 c0       	push   $0xc01075c0
c0102e37:	e8 b5 fc ff ff       	call   c0102af1 <log_to_serial>
c0102e3c:	83 c4 08             	add    $0x8,%esp
c0102e3f:	8b 45 08             	mov    0x8(%ebp),%eax
c0102e42:	0f b6 00             	movzbl (%eax),%eax
c0102e45:	0f b6 c0             	movzbl %al,%eax
c0102e48:	50                   	push   %eax
c0102e49:	68 f8 03 00 00       	push   $0x3f8
c0102e4e:	e8 c6 fb ff ff       	call   c0102a19 <outportb>
c0102e53:	83 c4 08             	add    $0x8,%esp
c0102e56:	83 ec 04             	sub    $0x4,%esp
c0102e59:	68 d1 75 10 c0       	push   $0xc01075d1
c0102e5e:	e8 8e fc ff ff       	call   c0102af1 <log_to_serial>
c0102e63:	83 c4 08             	add    $0x8,%esp
c0102e66:	90                   	nop
c0102e67:	8b 45 08             	mov    0x8(%ebp),%eax
c0102e6a:	83 c0 01             	add    $0x1,%eax
c0102e6d:	89 45 08             	mov    %eax,0x8(%ebp)
c0102e70:	eb 20                	jmp    c0102e92 <logf+0x167>
c0102e72:	8b 45 08             	mov    0x8(%ebp),%eax
c0102e75:	0f b6 00             	movzbl (%eax),%eax
c0102e78:	0f b6 c0             	movzbl %al,%eax
c0102e7b:	50                   	push   %eax
c0102e7c:	68 f8 03 00 00       	push   $0x3f8
c0102e81:	e8 93 fb ff ff       	call   c0102a19 <outportb>
c0102e86:	83 c4 08             	add    $0x8,%esp
c0102e89:	8b 45 08             	mov    0x8(%ebp),%eax
c0102e8c:	83 c0 01             	add    $0x1,%eax
c0102e8f:	89 45 08             	mov    %eax,0x8(%ebp)
c0102e92:	8b 45 08             	mov    0x8(%ebp),%eax
c0102e95:	0f b6 00             	movzbl (%eax),%eax
c0102e98:	84 c0                	test   %al,%al
c0102e9a:	0f 85 9c fe ff ff    	jne    c0102d3c <logf+0x11>
c0102ea0:	90                   	nop
c0102ea1:	90                   	nop
c0102ea2:	c9                   	leave
c0102ea3:	c3                   	ret

c0102ea4 <panic>:
c0102ea4:	55                   	push   %ebp
c0102ea5:	89 e5                	mov    %esp,%ebp
c0102ea7:	ff 75 08             	push   0x8(%ebp)
c0102eaa:	68 2c 76 10 c0       	push   $0xc010762c
c0102eaf:	e8 77 fe ff ff       	call   c0102d2b <logf>
c0102eb4:	83 c4 08             	add    $0x8,%esp
c0102eb7:	fa                   	cli
c0102eb8:	f4                   	hlt
c0102eb9:	90                   	nop
c0102eba:	c9                   	leave
c0102ebb:	c3                   	ret

c0102ebc <test_func>:
c0102ebc:	55                   	push   %ebp
c0102ebd:	89 e5                	mov    %esp,%ebp
c0102ebf:	83 ec 08             	sub    $0x8,%esp
c0102ec2:	83 ec 04             	sub    $0x4,%esp
c0102ec5:	68 4c 76 10 c0       	push   $0xc010764c
c0102eca:	e8 5c fe ff ff       	call   c0102d2b <logf>
c0102ecf:	83 c4 08             	add    $0x8,%esp
c0102ed2:	e8 4c 17 00 00       	call   c0104623 <kill_current_process>
c0102ed7:	90                   	nop
c0102ed8:	c9                   	leave
c0102ed9:	c3                   	ret

c0102eda <kernel_main>:
c0102eda:	55                   	push   %ebp
c0102edb:	89 e5                	mov    %esp,%ebp
c0102edd:	83 ec 38             	sub    $0x38,%esp
c0102ee0:	8b 45 0c             	mov    0xc(%ebp),%eax
c0102ee3:	83 e0 07             	and    $0x7,%eax
c0102ee6:	85 c0                	test   %eax,%eax
c0102ee8:	74 12                	je     c0102efc <kernel_main+0x22>
c0102eea:	68 60 76 10 c0       	push   $0xc0107660
c0102eef:	e8 fd fb ff ff       	call   c0102af1 <log_to_serial>
c0102ef4:	83 c4 04             	add    $0x4,%esp
c0102ef7:	e9 ed 01 00 00       	jmp    c01030e9 <kernel_main+0x20f>
c0102efc:	8b 45 0c             	mov    0xc(%ebp),%eax
c0102eff:	2d 00 00 00 40       	sub    $0x40000000,%eax
c0102f04:	89 45 f4             	mov    %eax,-0xc(%ebp)
c0102f07:	b8 d4 00 11 c0       	mov    $0xc01100d4,%eax
c0102f0c:	ba 00 00 10 00       	mov    $0x100000,%edx
c0102f11:	29 d0                	sub    %edx,%eax
c0102f13:	05 00 00 00 40       	add    $0x40000000,%eax
c0102f18:	89 45 f0             	mov    %eax,-0x10(%ebp)
c0102f1b:	8b 45 f4             	mov    -0xc(%ebp),%eax
c0102f1e:	8b 00                	mov    (%eax),%eax
c0102f20:	50                   	push   %eax
c0102f21:	ff 75 0c             	push   0xc(%ebp)
c0102f24:	ff 75 f0             	push   -0x10(%ebp)
c0102f27:	68 68 76 10 c0       	push   $0xc0107668
c0102f2c:	e8 fa fd ff ff       	call   c0102d2b <logf>
c0102f31:	83 c4 10             	add    $0x10,%esp
c0102f34:	e8 fd 0b 00 00       	call   c0103b36 <disable_pic>
c0102f39:	8b 45 f4             	mov    -0xc(%ebp),%eax
c0102f3c:	8b 00                	mov    (%eax),%eax
c0102f3e:	83 ec 08             	sub    $0x8,%esp
c0102f41:	50                   	push   %eax
c0102f42:	ff 75 08             	push   0x8(%ebp)
c0102f45:	e8 09 fa ff ff       	call   c0102953 <pg_init>
c0102f4a:	83 c4 10             	add    $0x10,%esp
c0102f4d:	89 45 ec             	mov    %eax,-0x14(%ebp)
c0102f50:	e8 7a ee ff ff       	call   c0101dcf <gdt_install>
c0102f55:	e8 75 ef ff ff       	call   c0101ecf <init_idt>
c0102f5a:	8b 45 f4             	mov    -0xc(%ebp),%eax
c0102f5d:	8b 10                	mov    (%eax),%edx
c0102f5f:	8b 45 0c             	mov    0xc(%ebp),%eax
c0102f62:	01 d0                	add    %edx,%eax
c0102f64:	83 ec 0c             	sub    $0xc,%esp
c0102f67:	50                   	push   %eax
c0102f68:	e8 01 e4 ff ff       	call   c010136e <kinit>
c0102f6d:	83 c4 10             	add    $0x10,%esp
c0102f70:	89 45 e8             	mov    %eax,-0x18(%ebp)
c0102f73:	6a 00                	push   $0x0
c0102f75:	68 00 00 e0 ff       	push   $0xffe00000
c0102f7a:	68 00 00 00 cc       	push   $0xcc000000
c0102f7f:	ff 75 ec             	push   -0x14(%ebp)
c0102f82:	e8 de e4 ff ff       	call   c0101465 <create_vmm>
c0102f87:	83 c4 10             	add    $0x10,%esp
c0102f8a:	89 45 e0             	mov    %eax,-0x20(%ebp)
c0102f8d:	8b 45 e0             	mov    -0x20(%ebp),%eax
c0102f90:	83 ec 0c             	sub    $0xc,%esp
c0102f93:	50                   	push   %eax
c0102f94:	e8 f9 e6 ff ff       	call   c0101692 <set_kernel_vmm>
c0102f99:	83 c4 10             	add    $0x10,%esp
c0102f9c:	8b 45 e0             	mov    -0x20(%ebp),%eax
c0102f9f:	83 ec 0c             	sub    $0xc,%esp
c0102fa2:	50                   	push   %eax
c0102fa3:	e8 f8 e6 ff ff       	call   c01016a0 <set_current_vmm>
c0102fa8:	83 c4 10             	add    $0x10,%esp
c0102fab:	0f b6 05 8c 81 10 c0 	movzbl 0xc010818c,%eax
c0102fb2:	0f be c0             	movsbl %al,%eax
c0102fb5:	83 ec 08             	sub    $0x8,%esp
c0102fb8:	50                   	push   %eax
c0102fb9:	68 99 76 10 c0       	push   $0xc0107699
c0102fbe:	e8 68 fd ff ff       	call   c0102d2b <logf>
c0102fc3:	83 c4 10             	add    $0x10,%esp
c0102fc6:	8b 45 0c             	mov    0xc(%ebp),%eax
c0102fc9:	8d 90 00 00 00 c0    	lea    -0x40000000(%eax),%edx
c0102fcf:	8d 45 d4             	lea    -0x2c(%ebp),%eax
c0102fd2:	83 ec 08             	sub    $0x8,%esp
c0102fd5:	52                   	push   %edx
c0102fd6:	50                   	push   %eax
c0102fd7:	e8 88 ec ff ff       	call   c0101c64 <init_multiboot>
c0102fdc:	83 c4 0c             	add    $0xc,%esp
c0102fdf:	e8 1a e3 ff ff       	call   c01012fe <transfer_dynamic>
c0102fe4:	83 ec 08             	sub    $0x8,%esp
c0102fe7:	ff 75 ec             	push   -0x14(%ebp)
c0102fea:	8d 45 e0             	lea    -0x20(%ebp),%eax
c0102fed:	50                   	push   %eax
c0102fee:	e8 e2 e5 ff ff       	call   c01015d5 <vmm_transfer_dynamic>
c0102ff3:	83 c4 10             	add    $0x10,%esp
c0102ff6:	8b 45 e0             	mov    -0x20(%ebp),%eax
c0102ff9:	83 ec 0c             	sub    $0xc,%esp
c0102ffc:	50                   	push   %eax
c0102ffd:	e8 90 e6 ff ff       	call   c0101692 <set_kernel_vmm>
c0103002:	83 c4 10             	add    $0x10,%esp
c0103005:	8b 45 e0             	mov    -0x20(%ebp),%eax
c0103008:	83 ec 0c             	sub    $0xc,%esp
c010300b:	50                   	push   %eax
c010300c:	e8 8f e6 ff ff       	call   c01016a0 <set_current_vmm>
c0103011:	83 c4 10             	add    $0x10,%esp
c0103014:	8b 45 e0             	mov    -0x20(%ebp),%eax
c0103017:	83 ec 0c             	sub    $0xc,%esp
c010301a:	50                   	push   %eax
c010301b:	e8 86 09 00 00       	call   c01039a6 <init_apic>
c0103020:	83 c4 10             	add    $0x10,%esp
c0103023:	e8 91 e9 ff ff       	call   c01019b9 <init_framebuffer>
c0103028:	e8 5a 12 00 00       	call   c0104287 <init_font>
c010302d:	ff 75 f0             	push   -0x10(%ebp)
c0103030:	68 d4 00 11 c0       	push   $0xc01100d4
c0103035:	68 00 00 10 00       	push   $0x100000
c010303a:	68 a8 76 10 c0       	push   $0xc01076a8
c010303f:	e8 e7 fc ff ff       	call   c0102d2b <logf>
c0103044:	83 c4 10             	add    $0x10,%esp
c0103047:	e8 32 02 00 00       	call   c010327e <init_heap>
c010304c:	e8 6b 28 00 00       	call   c01058bc <init_terminal>
c0103051:	e8 b1 0e 00 00       	call   c0103f07 <init_keyboard>
c0103056:	83 ec 0c             	sub    $0xc,%esp
c0103059:	68 e0 76 10 c0       	push   $0xc01076e0
c010305e:	e8 f7 23 00 00       	call   c010545a <printf>
c0103063:	83 c4 10             	add    $0x10,%esp
c0103066:	83 ec 0c             	sub    $0xc,%esp
c0103069:	68 08 77 10 c0       	push   $0xc0107708
c010306e:	e8 e7 23 00 00       	call   c010545a <printf>
c0103073:	83 c4 10             	add    $0x10,%esp
c0103076:	83 ec 0c             	sub    $0xc,%esp
c0103079:	68 3c 77 10 c0       	push   $0xc010773c
c010307e:	e8 d7 23 00 00       	call   c010545a <printf>
c0103083:	83 c4 10             	add    $0x10,%esp
c0103086:	83 ec 0c             	sub    $0xc,%esp
c0103089:	68 5f 77 10 c0       	push   $0xc010775f
c010308e:	e8 c7 23 00 00       	call   c010545a <printf>
c0103093:	83 c4 10             	add    $0x10,%esp
c0103096:	83 ec 0c             	sub    $0xc,%esp
c0103099:	6a 00                	push   $0x0
c010309b:	e8 b9 08 00 00       	call   c0103959 <set_initial_lapic_timer_count>
c01030a0:	83 c4 10             	add    $0x10,%esp
c01030a3:	e8 91 12 00 00       	call   c0104339 <init_scheduler>
c01030a8:	e8 d8 27 00 00       	call   c0105885 <start_terminal>
c01030ad:	6a 01                	push   $0x1
c01030af:	6a 00                	push   $0x0
c01030b1:	68 bc 2e 10 c0       	push   $0xc0102ebc
c01030b6:	68 75 77 10 c0       	push   $0xc0107775
c01030bb:	e8 9a 15 00 00       	call   c010465a <create_process>
c01030c0:	83 c4 10             	add    $0x10,%esp
c01030c3:	89 45 e4             	mov    %eax,-0x1c(%ebp)
c01030c6:	83 ec 0c             	sub    $0xc,%esp
c01030c9:	68 00 00 f0 0f       	push   $0xff00000
c01030ce:	e8 86 08 00 00       	call   c0103959 <set_initial_lapic_timer_count>
c01030d3:	83 c4 10             	add    $0x10,%esp
c01030d6:	e8 13 27 00 00       	call   c01057ee <terminal_loop>
c01030db:	0f b6 05 08 f0 10 c0 	movzbl 0xc010f008,%eax
c01030e2:	84 c0                	test   %al,%al
c01030e4:	75 f0                	jne    c01030d6 <kernel_main+0x1fc>
c01030e6:	f4                   	hlt
c01030e7:	eb ed                	jmp    c01030d6 <kernel_main+0x1fc>
c01030e9:	c9                   	leave
c01030ea:	c3                   	ret

c01030eb <memcmp>:
c01030eb:	55                   	push   %ebp
c01030ec:	89 e5                	mov    %esp,%ebp
c01030ee:	83 ec 10             	sub    $0x10,%esp
c01030f1:	8b 45 08             	mov    0x8(%ebp),%eax
c01030f4:	3b 45 0c             	cmp    0xc(%ebp),%eax
c01030f7:	75 07                	jne    c0103100 <memcmp+0x15>
c01030f9:	b8 00 00 00 00       	mov    $0x0,%eax
c01030fe:	eb 52                	jmp    c0103152 <memcmp+0x67>
c0103100:	c7 45 fc 00 00 00 00 	movl   $0x0,-0x4(%ebp)
c0103107:	eb 0c                	jmp    c0103115 <memcmp+0x2a>
c0103109:	83 45 fc 01          	addl   $0x1,-0x4(%ebp)
c010310d:	83 45 08 01          	addl   $0x1,0x8(%ebp)
c0103111:	83 45 0c 01          	addl   $0x1,0xc(%ebp)
c0103115:	8b 45 fc             	mov    -0x4(%ebp),%eax
c0103118:	3b 45 10             	cmp    0x10(%ebp),%eax
c010311b:	73 10                	jae    c010312d <memcmp+0x42>
c010311d:	8b 45 08             	mov    0x8(%ebp),%eax
c0103120:	0f b6 10             	movzbl (%eax),%edx
c0103123:	8b 45 0c             	mov    0xc(%ebp),%eax
c0103126:	0f b6 00             	movzbl (%eax),%eax
c0103129:	38 c2                	cmp    %al,%dl
c010312b:	74 dc                	je     c0103109 <memcmp+0x1e>
c010312d:	8b 45 fc             	mov    -0x4(%ebp),%eax
c0103130:	3b 45 10             	cmp    0x10(%ebp),%eax
c0103133:	74 18                	je     c010314d <memcmp+0x62>
c0103135:	8b 45 08             	mov    0x8(%ebp),%eax
c0103138:	0f b6 00             	movzbl (%eax),%eax
c010313b:	0f b6 c8             	movzbl %al,%ecx
c010313e:	8b 45 0c             	mov    0xc(%ebp),%eax
c0103141:	0f b6 00             	movzbl (%eax),%eax
c0103144:	0f b6 d0             	movzbl %al,%edx
c0103147:	89 c8                	mov    %ecx,%eax
c0103149:	29 d0                	sub    %edx,%eax
c010314b:	eb 05                	jmp    c0103152 <memcmp+0x67>
c010314d:	b8 00 00 00 00       	mov    $0x0,%eax
c0103152:	c9                   	leave
c0103153:	c3                   	ret

c0103154 <memcpy>:
c0103154:	55                   	push   %ebp
c0103155:	89 e5                	mov    %esp,%ebp
c0103157:	83 ec 10             	sub    $0x10,%esp
c010315a:	8b 45 08             	mov    0x8(%ebp),%eax
c010315d:	89 45 fc             	mov    %eax,-0x4(%ebp)
c0103160:	8b 45 0c             	mov    0xc(%ebp),%eax
c0103163:	89 45 f8             	mov    %eax,-0x8(%ebp)
c0103166:	eb 17                	jmp    c010317f <memcpy+0x2b>
c0103168:	8b 55 f8             	mov    -0x8(%ebp),%edx
c010316b:	8d 42 01             	lea    0x1(%edx),%eax
c010316e:	89 45 f8             	mov    %eax,-0x8(%ebp)
c0103171:	8b 45 fc             	mov    -0x4(%ebp),%eax
c0103174:	8d 48 01             	lea    0x1(%eax),%ecx
c0103177:	89 4d fc             	mov    %ecx,-0x4(%ebp)
c010317a:	0f b6 12             	movzbl (%edx),%edx
c010317d:	88 10                	mov    %dl,(%eax)
c010317f:	8b 45 10             	mov    0x10(%ebp),%eax
c0103182:	8d 50 ff             	lea    -0x1(%eax),%edx
c0103185:	89 55 10             	mov    %edx,0x10(%ebp)
c0103188:	85 c0                	test   %eax,%eax
c010318a:	75 dc                	jne    c0103168 <memcpy+0x14>
c010318c:	8b 45 08             	mov    0x8(%ebp),%eax
c010318f:	c9                   	leave
c0103190:	c3                   	ret

c0103191 <memmove>:
c0103191:	55                   	push   %ebp
c0103192:	89 e5                	mov    %esp,%ebp
c0103194:	ff 75 10             	push   0x10(%ebp)
c0103197:	ff 75 0c             	push   0xc(%ebp)
c010319a:	ff 75 08             	push   0x8(%ebp)
c010319d:	e8 b2 ff ff ff       	call   c0103154 <memcpy>
c01031a2:	83 c4 0c             	add    $0xc,%esp
c01031a5:	c9                   	leave
c01031a6:	c3                   	ret

c01031a7 <memset>:
c01031a7:	55                   	push   %ebp
c01031a8:	89 e5                	mov    %esp,%ebp
c01031aa:	83 ec 10             	sub    $0x10,%esp
c01031ad:	8b 45 08             	mov    0x8(%ebp),%eax
c01031b0:	89 45 fc             	mov    %eax,-0x4(%ebp)
c01031b3:	eb 12                	jmp    c01031c7 <memset+0x20>
c01031b5:	8b 45 0c             	mov    0xc(%ebp),%eax
c01031b8:	89 c2                	mov    %eax,%edx
c01031ba:	8b 45 fc             	mov    -0x4(%ebp),%eax
c01031bd:	88 10                	mov    %dl,(%eax)
c01031bf:	83 45 fc 01          	addl   $0x1,-0x4(%ebp)
c01031c3:	83 6d 10 01          	subl   $0x1,0x10(%ebp)
c01031c7:	83 7d 10 00          	cmpl   $0x0,0x10(%ebp)
c01031cb:	75 e8                	jne    c01031b5 <memset+0xe>
c01031cd:	8b 45 08             	mov    0x8(%ebp),%eax
c01031d0:	c9                   	leave
c01031d1:	c3                   	ret

c01031d2 <strlen>:
c01031d2:	55                   	push   %ebp
c01031d3:	89 e5                	mov    %esp,%ebp
c01031d5:	83 ec 10             	sub    $0x10,%esp
c01031d8:	8b 45 08             	mov    0x8(%ebp),%eax
c01031db:	89 45 fc             	mov    %eax,-0x4(%ebp)
c01031de:	eb 04                	jmp    c01031e4 <strlen+0x12>
c01031e0:	83 45 fc 01          	addl   $0x1,-0x4(%ebp)
c01031e4:	8b 45 fc             	mov    -0x4(%ebp),%eax
c01031e7:	0f b6 00             	movzbl (%eax),%eax
c01031ea:	84 c0                	test   %al,%al
c01031ec:	75 f2                	jne    c01031e0 <strlen+0xe>
c01031ee:	8b 45 fc             	mov    -0x4(%ebp),%eax
c01031f1:	2b 45 08             	sub    0x8(%ebp),%eax
c01031f4:	c9                   	leave
c01031f5:	c3                   	ret

c01031f6 <strcmp>:
c01031f6:	55                   	push   %ebp
c01031f7:	89 e5                	mov    %esp,%ebp
c01031f9:	83 ec 10             	sub    $0x10,%esp
c01031fc:	c7 45 fc 00 00 00 00 	movl   $0x0,-0x4(%ebp)
c0103203:	eb 25                	jmp    c010322a <strcmp+0x34>
c0103205:	8b 55 fc             	mov    -0x4(%ebp),%edx
c0103208:	8b 45 08             	mov    0x8(%ebp),%eax
c010320b:	01 d0                	add    %edx,%eax
c010320d:	0f b6 10             	movzbl (%eax),%edx
c0103210:	8b 4d fc             	mov    -0x4(%ebp),%ecx
c0103213:	8b 45 0c             	mov    0xc(%ebp),%eax
c0103216:	01 c8                	add    %ecx,%eax
c0103218:	0f b6 00             	movzbl (%eax),%eax
c010321b:	38 c2                	cmp    %al,%dl
c010321d:	74 07                	je     c0103226 <strcmp+0x30>
c010321f:	b8 00 00 00 00       	mov    $0x0,%eax
c0103224:	eb 11                	jmp    c0103237 <strcmp+0x41>
c0103226:	83 45 fc 01          	addl   $0x1,-0x4(%ebp)
c010322a:	8b 45 fc             	mov    -0x4(%ebp),%eax
c010322d:	3b 45 10             	cmp    0x10(%ebp),%eax
c0103230:	72 d3                	jb     c0103205 <strcmp+0xf>
c0103232:	b8 01 00 00 00       	mov    $0x1,%eax
c0103237:	c9                   	leave
c0103238:	c3                   	ret

c0103239 <strncpy>:
c0103239:	55                   	push   %ebp
c010323a:	89 e5                	mov    %esp,%ebp
c010323c:	83 ec 10             	sub    $0x10,%esp
c010323f:	c7 45 fc 00 00 00 00 	movl   $0x0,-0x4(%ebp)
c0103246:	eb 28                	jmp    c0103270 <strncpy+0x37>
c0103248:	8b 55 08             	mov    0x8(%ebp),%edx
c010324b:	8b 45 10             	mov    0x10(%ebp),%eax
c010324e:	01 d0                	add    %edx,%eax
c0103250:	8b 4d 0c             	mov    0xc(%ebp),%ecx
c0103253:	8b 55 10             	mov    0x10(%ebp),%edx
c0103256:	01 ca                	add    %ecx,%edx
c0103258:	0f b6 00             	movzbl (%eax),%eax
c010325b:	88 02                	mov    %al,(%edx)
c010325d:	8b 55 0c             	mov    0xc(%ebp),%edx
c0103260:	8b 45 10             	mov    0x10(%ebp),%eax
c0103263:	01 d0                	add    %edx,%eax
c0103265:	0f b6 00             	movzbl (%eax),%eax
c0103268:	84 c0                	test   %al,%al
c010326a:	74 0e                	je     c010327a <strncpy+0x41>
c010326c:	83 45 fc 01          	addl   $0x1,-0x4(%ebp)
c0103270:	8b 45 fc             	mov    -0x4(%ebp),%eax
c0103273:	3b 45 10             	cmp    0x10(%ebp),%eax
c0103276:	72 d0                	jb     c0103248 <strncpy+0xf>
c0103278:	eb 01                	jmp    c010327b <strncpy+0x42>
c010327a:	90                   	nop
c010327b:	90                   	nop
c010327c:	c9                   	leave
c010327d:	c3                   	ret

c010327e <init_heap>:
c010327e:	55                   	push   %ebp
c010327f:	89 e5                	mov    %esp,%ebp
c0103281:	83 ec 08             	sub    $0x8,%esp
c0103284:	83 ec 04             	sub    $0x4,%esp
c0103287:	6a 00                	push   $0x0
c0103289:	6a 03                	push   $0x3
c010328b:	68 00 a0 00 00       	push   $0xa000
c0103290:	e8 c2 e2 ff ff       	call   c0101557 <page_kalloc>
c0103295:	83 c4 10             	add    $0x10,%esp
c0103298:	a3 14 f0 10 c0       	mov    %eax,0xc010f014
c010329d:	a1 14 f0 10 c0       	mov    0xc010f014,%eax
c01032a2:	a3 18 f0 10 c0       	mov    %eax,0xc010f018
c01032a7:	83 ec 0c             	sub    $0xc,%esp
c01032aa:	68 7c 77 10 c0       	push   $0xc010777c
c01032af:	e8 77 fa ff ff       	call   c0102d2b <logf>
c01032b4:	83 c4 10             	add    $0x10,%esp
c01032b7:	90                   	nop
c01032b8:	c9                   	leave
c01032b9:	c3                   	ret

c01032ba <malloc>:
c01032ba:	55                   	push   %ebp
c01032bb:	89 e5                	mov    %esp,%ebp
c01032bd:	90                   	nop
c01032be:	5d                   	pop    %ebp
c01032bf:	c3                   	ret

c01032c0 <free>:
c01032c0:	55                   	push   %ebp
c01032c1:	89 e5                	mov    %esp,%ebp
c01032c3:	90                   	nop
c01032c4:	5d                   	pop    %ebp
c01032c5:	c3                   	ret

c01032c6 <kalloc>:
c01032c6:	55                   	push   %ebp
c01032c7:	89 e5                	mov    %esp,%ebp
c01032c9:	83 ec 18             	sub    $0x18,%esp
c01032cc:	8b 45 08             	mov    0x8(%ebp),%eax
c01032cf:	83 c0 1f             	add    $0x1f,%eax
c01032d2:	83 e0 e0             	and    $0xffffffe0,%eax
c01032d5:	89 45 08             	mov    %eax,0x8(%ebp)
c01032d8:	83 ec 08             	sub    $0x8,%esp
c01032db:	ff 75 08             	push   0x8(%ebp)
c01032de:	68 8e 77 10 c0       	push   $0xc010778e
c01032e3:	e8 43 fa ff ff       	call   c0102d2b <logf>
c01032e8:	83 c4 10             	add    $0x10,%esp
c01032eb:	a1 14 f0 10 c0       	mov    0xc010f014,%eax
c01032f0:	89 45 f4             	mov    %eax,-0xc(%ebp)
c01032f3:	c7 45 f0 00 00 00 00 	movl   $0x0,-0x10(%ebp)
c01032fa:	e9 cd 00 00 00       	jmp    c01033cc <kalloc+0x106>
c01032ff:	8b 45 f4             	mov    -0xc(%ebp),%eax
c0103302:	8b 00                	mov    (%eax),%eax
c0103304:	3b 45 08             	cmp    0x8(%ebp),%eax
c0103307:	0f 82 ae 00 00 00    	jb     c01033bb <kalloc+0xf5>
c010330d:	8b 45 f4             	mov    -0xc(%ebp),%eax
c0103310:	0f b6 40 04          	movzbl 0x4(%eax),%eax
c0103314:	84 c0                	test   %al,%al
c0103316:	0f 85 9f 00 00 00    	jne    c01033bb <kalloc+0xf5>
c010331c:	8b 45 f4             	mov    -0xc(%ebp),%eax
c010331f:	8b 00                	mov    (%eax),%eax
c0103321:	2b 45 08             	sub    0x8(%ebp),%eax
c0103324:	83 f8 2f             	cmp    $0x2f,%eax
c0103327:	76 5e                	jbe    c0103387 <kalloc+0xc1>
c0103329:	8b 45 f4             	mov    -0xc(%ebp),%eax
c010332c:	8b 00                	mov    (%eax),%eax
c010332e:	8d 50 10             	lea    0x10(%eax),%edx
c0103331:	8b 45 f4             	mov    -0xc(%ebp),%eax
c0103334:	01 d0                	add    %edx,%eax
c0103336:	89 45 e8             	mov    %eax,-0x18(%ebp)
c0103339:	8b 45 e8             	mov    -0x18(%ebp),%eax
c010333c:	c6 40 04 00          	movb   $0x0,0x4(%eax)
c0103340:	8b 45 f4             	mov    -0xc(%ebp),%eax
c0103343:	8b 00                	mov    (%eax),%eax
c0103345:	2b 45 08             	sub    0x8(%ebp),%eax
c0103348:	8d 50 f0             	lea    -0x10(%eax),%edx
c010334b:	8b 45 e8             	mov    -0x18(%ebp),%eax
c010334e:	89 10                	mov    %edx,(%eax)
c0103350:	8b 45 f4             	mov    -0xc(%ebp),%eax
c0103353:	8b 50 0c             	mov    0xc(%eax),%edx
c0103356:	8b 45 e8             	mov    -0x18(%ebp),%eax
c0103359:	89 50 0c             	mov    %edx,0xc(%eax)
c010335c:	8b 45 f4             	mov    -0xc(%ebp),%eax
c010335f:	8b 50 08             	mov    0x8(%eax),%edx
c0103362:	8b 45 e8             	mov    -0x18(%ebp),%eax
c0103365:	89 50 08             	mov    %edx,0x8(%eax)
c0103368:	8b 45 f4             	mov    -0xc(%ebp),%eax
c010336b:	8b 55 e8             	mov    -0x18(%ebp),%edx
c010336e:	89 50 0c             	mov    %edx,0xc(%eax)
c0103371:	83 ec 04             	sub    $0x4,%esp
c0103374:	ff 75 08             	push   0x8(%ebp)
c0103377:	ff 75 e8             	push   -0x18(%ebp)
c010337a:	68 ac 77 10 c0       	push   $0xc01077ac
c010337f:	e8 a7 f9 ff ff       	call   c0102d2b <logf>
c0103384:	83 c4 10             	add    $0x10,%esp
c0103387:	8b 45 f4             	mov    -0xc(%ebp),%eax
c010338a:	c6 40 04 01          	movb   $0x1,0x4(%eax)
c010338e:	8b 45 f4             	mov    -0xc(%ebp),%eax
c0103391:	8b 55 f0             	mov    -0x10(%ebp),%edx
c0103394:	89 50 08             	mov    %edx,0x8(%eax)
c0103397:	8b 45 f4             	mov    -0xc(%ebp),%eax
c010339a:	8b 00                	mov    (%eax),%eax
c010339c:	83 ec 04             	sub    $0x4,%esp
c010339f:	50                   	push   %eax
c01033a0:	ff 75 f4             	push   -0xc(%ebp)
c01033a3:	68 d0 77 10 c0       	push   $0xc01077d0
c01033a8:	e8 7e f9 ff ff       	call   c0102d2b <logf>
c01033ad:	83 c4 10             	add    $0x10,%esp
c01033b0:	8b 45 f4             	mov    -0xc(%ebp),%eax
c01033b3:	83 c0 10             	add    $0x10,%eax
c01033b6:	e9 85 00 00 00       	jmp    c0103440 <kalloc+0x17a>
c01033bb:	8b 45 f4             	mov    -0xc(%ebp),%eax
c01033be:	89 45 f0             	mov    %eax,-0x10(%ebp)
c01033c1:	8b 45 f4             	mov    -0xc(%ebp),%eax
c01033c4:	8b 00                	mov    (%eax),%eax
c01033c6:	83 c0 10             	add    $0x10,%eax
c01033c9:	01 45 f4             	add    %eax,-0xc(%ebp)
c01033cc:	a1 18 f0 10 c0       	mov    0xc010f018,%eax
c01033d1:	39 45 f4             	cmp    %eax,-0xc(%ebp)
c01033d4:	0f 82 25 ff ff ff    	jb     c01032ff <kalloc+0x39>
c01033da:	a1 18 f0 10 c0       	mov    0xc010f018,%eax
c01033df:	89 45 f4             	mov    %eax,-0xc(%ebp)
c01033e2:	8b 45 f4             	mov    -0xc(%ebp),%eax
c01033e5:	8b 55 f0             	mov    -0x10(%ebp),%edx
c01033e8:	89 50 08             	mov    %edx,0x8(%eax)
c01033eb:	83 7d f0 00          	cmpl   $0x0,-0x10(%ebp)
c01033ef:	74 09                	je     c01033fa <kalloc+0x134>
c01033f1:	8b 45 f0             	mov    -0x10(%ebp),%eax
c01033f4:	8b 55 f4             	mov    -0xc(%ebp),%edx
c01033f7:	89 50 0c             	mov    %edx,0xc(%eax)
c01033fa:	8b 45 f4             	mov    -0xc(%ebp),%eax
c01033fd:	8b 55 08             	mov    0x8(%ebp),%edx
c0103400:	89 10                	mov    %edx,(%eax)
c0103402:	8b 45 f4             	mov    -0xc(%ebp),%eax
c0103405:	c6 40 04 01          	movb   $0x1,0x4(%eax)
c0103409:	8b 45 f4             	mov    -0xc(%ebp),%eax
c010340c:	83 c0 10             	add    $0x10,%eax
c010340f:	89 45 ec             	mov    %eax,-0x14(%ebp)
c0103412:	8b 45 f4             	mov    -0xc(%ebp),%eax
c0103415:	8b 00                	mov    (%eax),%eax
c0103417:	8d 50 10             	lea    0x10(%eax),%edx
c010341a:	8b 45 f4             	mov    -0xc(%ebp),%eax
c010341d:	01 d0                	add    %edx,%eax
c010341f:	a3 18 f0 10 c0       	mov    %eax,0xc010f018
c0103424:	8b 45 f4             	mov    -0xc(%ebp),%eax
c0103427:	8b 00                	mov    (%eax),%eax
c0103429:	83 ec 04             	sub    $0x4,%esp
c010342c:	50                   	push   %eax
c010342d:	ff 75 ec             	push   -0x14(%ebp)
c0103430:	68 d0 77 10 c0       	push   $0xc01077d0
c0103435:	e8 f1 f8 ff ff       	call   c0102d2b <logf>
c010343a:	83 c4 10             	add    $0x10,%esp
c010343d:	8b 45 ec             	mov    -0x14(%ebp),%eax
c0103440:	c9                   	leave
c0103441:	c3                   	ret

c0103442 <kfree>:
c0103442:	55                   	push   %ebp
c0103443:	89 e5                	mov    %esp,%ebp
c0103445:	83 ec 18             	sub    $0x18,%esp
c0103448:	8b 45 08             	mov    0x8(%ebp),%eax
c010344b:	83 e8 10             	sub    $0x10,%eax
c010344e:	89 45 f4             	mov    %eax,-0xc(%ebp)
c0103451:	8b 45 f4             	mov    -0xc(%ebp),%eax
c0103454:	8b 00                	mov    (%eax),%eax
c0103456:	83 ec 08             	sub    $0x8,%esp
c0103459:	50                   	push   %eax
c010345a:	68 f8 77 10 c0       	push   $0xc01077f8
c010345f:	e8 c7 f8 ff ff       	call   c0102d2b <logf>
c0103464:	83 c4 10             	add    $0x10,%esp
c0103467:	8b 45 f4             	mov    -0xc(%ebp),%eax
c010346a:	8b 00                	mov    (%eax),%eax
c010346c:	8b 55 f4             	mov    -0xc(%ebp),%edx
c010346f:	83 c2 10             	add    $0x10,%edx
c0103472:	83 ec 04             	sub    $0x4,%esp
c0103475:	50                   	push   %eax
c0103476:	6a 00                	push   $0x0
c0103478:	52                   	push   %edx
c0103479:	e8 29 fd ff ff       	call   c01031a7 <memset>
c010347e:	83 c4 10             	add    $0x10,%esp
c0103481:	8b 45 f4             	mov    -0xc(%ebp),%eax
c0103484:	c6 40 04 00          	movb   $0x0,0x4(%eax)
c0103488:	8b 45 f4             	mov    -0xc(%ebp),%eax
c010348b:	8b 40 0c             	mov    0xc(%eax),%eax
c010348e:	89 45 f0             	mov    %eax,-0x10(%ebp)
c0103491:	8b 45 f4             	mov    -0xc(%ebp),%eax
c0103494:	8b 40 08             	mov    0x8(%eax),%eax
c0103497:	89 45 ec             	mov    %eax,-0x14(%ebp)
c010349a:	83 7d f0 00          	cmpl   $0x0,-0x10(%ebp)
c010349e:	74 4d                	je     c01034ed <kfree+0xab>
c01034a0:	8b 45 f0             	mov    -0x10(%ebp),%eax
c01034a3:	0f b6 40 04          	movzbl 0x4(%eax),%eax
c01034a7:	84 c0                	test   %al,%al
c01034a9:	75 42                	jne    c01034ed <kfree+0xab>
c01034ab:	8b 45 f4             	mov    -0xc(%ebp),%eax
c01034ae:	8b 10                	mov    (%eax),%edx
c01034b0:	8b 45 f0             	mov    -0x10(%ebp),%eax
c01034b3:	8b 00                	mov    (%eax),%eax
c01034b5:	01 d0                	add    %edx,%eax
c01034b7:	8d 50 10             	lea    0x10(%eax),%edx
c01034ba:	8b 45 f4             	mov    -0xc(%ebp),%eax
c01034bd:	89 10                	mov    %edx,(%eax)
c01034bf:	8b 45 f0             	mov    -0x10(%ebp),%eax
c01034c2:	c7 00 00 00 00 00    	movl   $0x0,(%eax)
c01034c8:	8b 45 f0             	mov    -0x10(%ebp),%eax
c01034cb:	8b 50 0c             	mov    0xc(%eax),%edx
c01034ce:	8b 45 f4             	mov    -0xc(%ebp),%eax
c01034d1:	89 50 0c             	mov    %edx,0xc(%eax)
c01034d4:	8b 45 f4             	mov    -0xc(%ebp),%eax
c01034d7:	8b 00                	mov    (%eax),%eax
c01034d9:	50                   	push   %eax
c01034da:	ff 75 f0             	push   -0x10(%ebp)
c01034dd:	ff 75 f4             	push   -0xc(%ebp)
c01034e0:	68 08 78 10 c0       	push   $0xc0107808
c01034e5:	e8 70 1f 00 00       	call   c010545a <printf>
c01034ea:	83 c4 10             	add    $0x10,%esp
c01034ed:	83 7d ec 00          	cmpl   $0x0,-0x14(%ebp)
c01034f1:	74 77                	je     c010356a <kfree+0x128>
c01034f3:	8b 45 ec             	mov    -0x14(%ebp),%eax
c01034f6:	0f b6 40 04          	movzbl 0x4(%eax),%eax
c01034fa:	84 c0                	test   %al,%al
c01034fc:	75 6c                	jne    c010356a <kfree+0x128>
c01034fe:	8b 45 ec             	mov    -0x14(%ebp),%eax
c0103501:	8b 10                	mov    (%eax),%edx
c0103503:	8b 45 f4             	mov    -0xc(%ebp),%eax
c0103506:	8b 00                	mov    (%eax),%eax
c0103508:	01 d0                	add    %edx,%eax
c010350a:	8d 50 10             	lea    0x10(%eax),%edx
c010350d:	8b 45 ec             	mov    -0x14(%ebp),%eax
c0103510:	89 10                	mov    %edx,(%eax)
c0103512:	8b 45 f4             	mov    -0xc(%ebp),%eax
c0103515:	c7 00 00 00 00 00    	movl   $0x0,(%eax)
c010351b:	8b 45 f4             	mov    -0xc(%ebp),%eax
c010351e:	c7 40 08 00 00 00 00 	movl   $0x0,0x8(%eax)
c0103525:	8b 45 f4             	mov    -0xc(%ebp),%eax
c0103528:	8b 50 0c             	mov    0xc(%eax),%edx
c010352b:	8b 45 ec             	mov    -0x14(%ebp),%eax
c010352e:	89 50 0c             	mov    %edx,0xc(%eax)
c0103531:	8b 45 f4             	mov    -0xc(%ebp),%eax
c0103534:	8b 40 0c             	mov    0xc(%eax),%eax
c0103537:	85 c0                	test   %eax,%eax
c0103539:	74 16                	je     c0103551 <kfree+0x10f>
c010353b:	8b 45 f4             	mov    -0xc(%ebp),%eax
c010353e:	8b 40 0c             	mov    0xc(%eax),%eax
c0103541:	8b 55 ec             	mov    -0x14(%ebp),%edx
c0103544:	89 50 08             	mov    %edx,0x8(%eax)
c0103547:	8b 45 f4             	mov    -0xc(%ebp),%eax
c010354a:	c7 40 0c 00 00 00 00 	movl   $0x0,0xc(%eax)
c0103551:	8b 45 ec             	mov    -0x14(%ebp),%eax
c0103554:	8b 00                	mov    (%eax),%eax
c0103556:	50                   	push   %eax
c0103557:	ff 75 f4             	push   -0xc(%ebp)
c010355a:	ff 75 ec             	push   -0x14(%ebp)
c010355d:	68 08 78 10 c0       	push   $0xc0107808
c0103562:	e8 f3 1e 00 00       	call   c010545a <printf>
c0103567:	83 c4 10             	add    $0x10,%esp
c010356a:	90                   	nop
c010356b:	c9                   	leave
c010356c:	c3                   	ret

c010356d <isr_frame_as>:
c010356d:	50                   	push   %eax
c010356e:	53                   	push   %ebx
c010356f:	51                   	push   %ecx
c0103570:	52                   	push   %edx
c0103571:	56                   	push   %esi
c0103572:	57                   	push   %edi
c0103573:	0f 20 c0             	mov    %cr0,%eax
c0103576:	50                   	push   %eax
c0103577:	0f 20 d0             	mov    %cr2,%eax
c010357a:	50                   	push   %eax
c010357b:	0f 20 d8             	mov    %cr3,%eax
c010357e:	e8 4e ef ff ff       	call   c01024d1 <isr_handler>
c0103583:	58                   	pop    %eax
c0103584:	0f 22 d8             	mov    %eax,%cr3
c0103587:	58                   	pop    %eax
c0103588:	0f 22 d0             	mov    %eax,%cr2
c010358b:	58                   	pop    %eax
c010358c:	0f 22 c0             	mov    %eax,%cr0
c010358f:	5f                   	pop    %edi
c0103590:	5e                   	pop    %esi
c0103591:	5a                   	pop    %edx
c0103592:	59                   	pop    %ecx
c0103593:	5b                   	pop    %ebx
c0103594:	58                   	pop    %eax
c0103595:	83 c4 08             	add    $0x8,%esp
c0103598:	fb                   	sti
c0103599:	cf                   	iret

c010359a <irq_frame>:
c010359a:	50                   	push   %eax
c010359b:	53                   	push   %ebx
c010359c:	51                   	push   %ecx
c010359d:	52                   	push   %edx
c010359e:	56                   	push   %esi
c010359f:	57                   	push   %edi
c01035a0:	89 e0                	mov    %esp,%eax
c01035a2:	83 c0 2c             	add    $0x2c,%eax
c01035a5:	50                   	push   %eax
c01035a6:	0f 20 c0             	mov    %cr0,%eax
c01035a9:	50                   	push   %eax
c01035aa:	0f 20 d0             	mov    %cr2,%eax
c01035ad:	50                   	push   %eax
c01035ae:	0f 20 d8             	mov    %cr3,%eax
c01035b1:	50                   	push   %eax
c01035b2:	54                   	push   %esp
c01035b3:	e8 89 ee ff ff       	call   c0102441 <irq_handler>
c01035b8:	8b 18                	mov    (%eax),%ebx
c01035ba:	0f 22 db             	mov    %ebx,%cr3
c01035bd:	8b 60 0c             	mov    0xc(%eax),%esp
c01035c0:	ff 70 38             	push   0x38(%eax)
c01035c3:	ff 70 34             	push   0x34(%eax)
c01035c6:	ff 70 30             	push   0x30(%eax)
c01035c9:	ff 70 24             	push   0x24(%eax)
c01035cc:	8b 58 04             	mov    0x4(%eax),%ebx
c01035cf:	0f 22 d3             	mov    %ebx,%cr2
c01035d2:	8b 58 08             	mov    0x8(%eax),%ebx
c01035d5:	0f 22 c3             	mov    %ebx,%cr0
c01035d8:	8b 78 10             	mov    0x10(%eax),%edi
c01035db:	8b 70 14             	mov    0x14(%eax),%esi
c01035de:	8b 50 18             	mov    0x18(%eax),%edx
c01035e1:	8b 48 1c             	mov    0x1c(%eax),%ecx
c01035e4:	8b 58 20             	mov    0x20(%eax),%ebx
c01035e7:	58                   	pop    %eax
c01035e8:	fb                   	sti
c01035e9:	cf                   	iret

c01035ea <isr_stub_0>:
c01035ea:	fa                   	cli
c01035eb:	6a 00                	push   $0x0
c01035ed:	6a 00                	push   $0x0
c01035ef:	e9 79 ff ff ff       	jmp    c010356d <isr_frame_as>

c01035f4 <isr_stub_1>:
c01035f4:	fa                   	cli
c01035f5:	6a 00                	push   $0x0
c01035f7:	6a 01                	push   $0x1
c01035f9:	e9 6f ff ff ff       	jmp    c010356d <isr_frame_as>

c01035fe <isr_stub_2>:
c01035fe:	fa                   	cli
c01035ff:	6a 00                	push   $0x0
c0103601:	6a 02                	push   $0x2
c0103603:	e9 65 ff ff ff       	jmp    c010356d <isr_frame_as>

c0103608 <isr_stub_3>:
c0103608:	fa                   	cli
c0103609:	6a 00                	push   $0x0
c010360b:	6a 03                	push   $0x3
c010360d:	e9 5b ff ff ff       	jmp    c010356d <isr_frame_as>

c0103612 <isr_stub_4>:
c0103612:	fa                   	cli
c0103613:	6a 00                	push   $0x0
c0103615:	6a 04                	push   $0x4
c0103617:	e9 51 ff ff ff       	jmp    c010356d <isr_frame_as>

c010361c <isr_stub_5>:
c010361c:	fa                   	cli
c010361d:	6a 00                	push   $0x0
c010361f:	6a 05                	push   $0x5
c0103621:	e9 47 ff ff ff       	jmp    c010356d <isr_frame_as>

c0103626 <isr_stub_6>:
c0103626:	fa                   	cli
c0103627:	6a 00                	push   $0x0
c0103629:	6a 06                	push   $0x6
c010362b:	e9 3d ff ff ff       	jmp    c010356d <isr_frame_as>

c0103630 <isr_stub_7>:
c0103630:	fa                   	cli
c0103631:	6a 00                	push   $0x0
c0103633:	6a 07                	push   $0x7
c0103635:	e9 33 ff ff ff       	jmp    c010356d <isr_frame_as>

c010363a <isr_stub_8>:
c010363a:	fa                   	cli
c010363b:	6a 08                	push   $0x8
c010363d:	e9 2b ff ff ff       	jmp    c010356d <isr_frame_as>

c0103642 <isr_stub_9>:
c0103642:	fa                   	cli
c0103643:	6a 00                	push   $0x0
c0103645:	6a 09                	push   $0x9
c0103647:	e9 21 ff ff ff       	jmp    c010356d <isr_frame_as>

c010364c <isr_stub_10>:
c010364c:	fa                   	cli
c010364d:	6a 0a                	push   $0xa
c010364f:	e9 19 ff ff ff       	jmp    c010356d <isr_frame_as>

c0103654 <isr_stub_11>:
c0103654:	fa                   	cli
c0103655:	6a 0b                	push   $0xb
c0103657:	e9 11 ff ff ff       	jmp    c010356d <isr_frame_as>

c010365c <isr_stub_12>:
c010365c:	fa                   	cli
c010365d:	6a 0c                	push   $0xc
c010365f:	e9 09 ff ff ff       	jmp    c010356d <isr_frame_as>

c0103664 <isr_stub_13>:
c0103664:	fa                   	cli
c0103665:	6a 0d                	push   $0xd
c0103667:	e9 01 ff ff ff       	jmp    c010356d <isr_frame_as>

c010366c <isr_stub_14>:
c010366c:	fa                   	cli
c010366d:	6a 0e                	push   $0xe
c010366f:	e9 f9 fe ff ff       	jmp    c010356d <isr_frame_as>

c0103674 <isr_stub_15>:
c0103674:	fa                   	cli
c0103675:	6a 00                	push   $0x0
c0103677:	6a 0f                	push   $0xf
c0103679:	e9 ef fe ff ff       	jmp    c010356d <isr_frame_as>

c010367e <isr_stub_16>:
c010367e:	fa                   	cli
c010367f:	6a 00                	push   $0x0
c0103681:	6a 10                	push   $0x10
c0103683:	e9 e5 fe ff ff       	jmp    c010356d <isr_frame_as>

c0103688 <isr_stub_17>:
c0103688:	fa                   	cli
c0103689:	6a 11                	push   $0x11
c010368b:	e9 dd fe ff ff       	jmp    c010356d <isr_frame_as>

c0103690 <isr_stub_18>:
c0103690:	fa                   	cli
c0103691:	6a 00                	push   $0x0
c0103693:	6a 12                	push   $0x12
c0103695:	e9 d3 fe ff ff       	jmp    c010356d <isr_frame_as>

c010369a <isr_stub_19>:
c010369a:	fa                   	cli
c010369b:	6a 00                	push   $0x0
c010369d:	6a 13                	push   $0x13
c010369f:	e9 c9 fe ff ff       	jmp    c010356d <isr_frame_as>

c01036a4 <isr_stub_20>:
c01036a4:	fa                   	cli
c01036a5:	6a 00                	push   $0x0
c01036a7:	6a 14                	push   $0x14
c01036a9:	e9 bf fe ff ff       	jmp    c010356d <isr_frame_as>

c01036ae <isr_stub_21>:
c01036ae:	fa                   	cli
c01036af:	6a 00                	push   $0x0
c01036b1:	6a 15                	push   $0x15
c01036b3:	e9 b5 fe ff ff       	jmp    c010356d <isr_frame_as>

c01036b8 <isr_stub_22>:
c01036b8:	fa                   	cli
c01036b9:	6a 00                	push   $0x0
c01036bb:	6a 16                	push   $0x16
c01036bd:	e9 ab fe ff ff       	jmp    c010356d <isr_frame_as>

c01036c2 <isr_stub_23>:
c01036c2:	fa                   	cli
c01036c3:	6a 00                	push   $0x0
c01036c5:	6a 17                	push   $0x17
c01036c7:	e9 a1 fe ff ff       	jmp    c010356d <isr_frame_as>

c01036cc <isr_stub_24>:
c01036cc:	fa                   	cli
c01036cd:	6a 00                	push   $0x0
c01036cf:	6a 18                	push   $0x18
c01036d1:	e9 97 fe ff ff       	jmp    c010356d <isr_frame_as>

c01036d6 <isr_stub_25>:
c01036d6:	fa                   	cli
c01036d7:	6a 00                	push   $0x0
c01036d9:	6a 19                	push   $0x19
c01036db:	e9 8d fe ff ff       	jmp    c010356d <isr_frame_as>

c01036e0 <isr_stub_26>:
c01036e0:	fa                   	cli
c01036e1:	6a 00                	push   $0x0
c01036e3:	6a 1a                	push   $0x1a
c01036e5:	e9 83 fe ff ff       	jmp    c010356d <isr_frame_as>

c01036ea <isr_stub_27>:
c01036ea:	fa                   	cli
c01036eb:	6a 00                	push   $0x0
c01036ed:	6a 1b                	push   $0x1b
c01036ef:	e9 79 fe ff ff       	jmp    c010356d <isr_frame_as>

c01036f4 <isr_stub_28>:
c01036f4:	fa                   	cli
c01036f5:	6a 00                	push   $0x0
c01036f7:	6a 1c                	push   $0x1c
c01036f9:	e9 6f fe ff ff       	jmp    c010356d <isr_frame_as>

c01036fe <isr_stub_29>:
c01036fe:	fa                   	cli
c01036ff:	6a 00                	push   $0x0
c0103701:	6a 1d                	push   $0x1d
c0103703:	e9 65 fe ff ff       	jmp    c010356d <isr_frame_as>

c0103708 <isr_stub_30>:
c0103708:	fa                   	cli
c0103709:	6a 1e                	push   $0x1e
c010370b:	e9 5d fe ff ff       	jmp    c010356d <isr_frame_as>

c0103710 <isr_stub_31>:
c0103710:	fa                   	cli
c0103711:	6a 00                	push   $0x0
c0103713:	6a 1f                	push   $0x1f
c0103715:	e9 53 fe ff ff       	jmp    c010356d <isr_frame_as>

c010371a <irq_stub_48>:
c010371a:	fa                   	cli
c010371b:	6a 0a                	push   $0xa
c010371d:	6a 30                	push   $0x30
c010371f:	e9 76 fe ff ff       	jmp    c010359a <irq_frame>

c0103724 <irq_stub_49>:
c0103724:	fa                   	cli
c0103725:	6a 0a                	push   $0xa
c0103727:	6a 31                	push   $0x31
c0103729:	e9 6c fe ff ff       	jmp    c010359a <irq_frame>

c010372e <irq_stub_50>:
c010372e:	fa                   	cli
c010372f:	6a 0a                	push   $0xa
c0103731:	6a 32                	push   $0x32
c0103733:	e9 62 fe ff ff       	jmp    c010359a <irq_frame>

c0103738 <io_wait>:
c0103738:	55                   	push   %ebp
c0103739:	89 e5                	mov    %esp,%ebp
c010373b:	83 ec 08             	sub    $0x8,%esp
c010373e:	83 ec 08             	sub    $0x8,%esp
c0103741:	6a 00                	push   $0x0
c0103743:	68 80 00 00 00       	push   $0x80
c0103748:	e8 cc f2 ff ff       	call   c0102a19 <outportb>
c010374d:	83 c4 10             	add    $0x10,%esp
c0103750:	90                   	nop
c0103751:	c9                   	leave
c0103752:	c3                   	ret

c0103753 <get_apic_addr>:
c0103753:	55                   	push   %ebp
c0103754:	89 e5                	mov    %esp,%ebp
c0103756:	83 ec 10             	sub    $0x10,%esp
c0103759:	c7 45 fc 1b 00 00 00 	movl   $0x1b,-0x4(%ebp)
c0103760:	c7 45 f8 00 00 00 00 	movl   $0x0,-0x8(%ebp)
c0103767:	c7 45 f4 00 00 00 00 	movl   $0x0,-0xc(%ebp)
c010376e:	8b 45 fc             	mov    -0x4(%ebp),%eax
c0103771:	89 c1                	mov    %eax,%ecx
c0103773:	0f 32                	rdmsr
c0103775:	89 45 f8             	mov    %eax,-0x8(%ebp)
c0103778:	89 55 f4             	mov    %edx,-0xc(%ebp)
c010377b:	8b 45 f8             	mov    -0x8(%ebp),%eax
c010377e:	25 00 f0 ff ff       	and    $0xfffff000,%eax
c0103783:	c9                   	leave
c0103784:	c3                   	ret

c0103785 <get_cpuid>:
c0103785:	55                   	push   %ebp
c0103786:	89 e5                	mov    %esp,%ebp
c0103788:	53                   	push   %ebx
c0103789:	83 ec 14             	sub    $0x14,%esp
c010378c:	c7 45 f4 00 00 00 00 	movl   $0x0,-0xc(%ebp)
c0103793:	c7 45 f0 00 00 00 00 	movl   $0x0,-0x10(%ebp)
c010379a:	c7 45 ec 00 00 00 00 	movl   $0x0,-0x14(%ebp)
c01037a1:	c7 45 e8 00 00 00 00 	movl   $0x0,-0x18(%ebp)
c01037a8:	8b 45 08             	mov    0x8(%ebp),%eax
c01037ab:	89 c0                	mov    %eax,%eax
c01037ad:	0f a2                	cpuid
c01037af:	89 45 f4             	mov    %eax,-0xc(%ebp)
c01037b2:	89 5d f0             	mov    %ebx,-0x10(%ebp)
c01037b5:	89 4d ec             	mov    %ecx,-0x14(%ebp)
c01037b8:	89 55 e8             	mov    %edx,-0x18(%ebp)
c01037bb:	8b 5d e8             	mov    -0x18(%ebp),%ebx
c01037be:	8b 4d ec             	mov    -0x14(%ebp),%ecx
c01037c1:	8b 55 f0             	mov    -0x10(%ebp),%edx
c01037c4:	8b 45 f4             	mov    -0xc(%ebp),%eax
c01037c7:	83 ec 08             	sub    $0x8,%esp
c01037ca:	53                   	push   %ebx
c01037cb:	51                   	push   %ecx
c01037cc:	52                   	push   %edx
c01037cd:	50                   	push   %eax
c01037ce:	ff 75 08             	push   0x8(%ebp)
c01037d1:	68 44 78 10 c0       	push   $0xc0107844
c01037d6:	e8 50 f5 ff ff       	call   c0102d2b <logf>
c01037db:	83 c4 20             	add    $0x20,%esp
c01037de:	90                   	nop
c01037df:	8b 5d fc             	mov    -0x4(%ebp),%ebx
c01037e2:	c9                   	leave
c01037e3:	c3                   	ret

c01037e4 <read_ioapic_register>:
c01037e4:	55                   	push   %ebp
c01037e5:	89 e5                	mov    %esp,%ebp
c01037e7:	83 ec 10             	sub    $0x10,%esp
c01037ea:	a1 20 f0 10 c0       	mov    0xc010f020,%eax
c01037ef:	8b 55 08             	mov    0x8(%ebp),%edx
c01037f2:	89 10                	mov    %edx,(%eax)
c01037f4:	a1 20 f0 10 c0       	mov    0xc010f020,%eax
c01037f9:	83 c0 10             	add    $0x10,%eax
c01037fc:	89 45 fc             	mov    %eax,-0x4(%ebp)
c01037ff:	8b 45 fc             	mov    -0x4(%ebp),%eax
c0103802:	8b 00                	mov    (%eax),%eax
c0103804:	c9                   	leave
c0103805:	c3                   	ret

c0103806 <write_ioapic_register>:
c0103806:	55                   	push   %ebp
c0103807:	89 e5                	mov    %esp,%ebp
c0103809:	83 ec 10             	sub    $0x10,%esp
c010380c:	a1 20 f0 10 c0       	mov    0xc010f020,%eax
c0103811:	8b 55 08             	mov    0x8(%ebp),%edx
c0103814:	89 10                	mov    %edx,(%eax)
c0103816:	a1 20 f0 10 c0       	mov    0xc010f020,%eax
c010381b:	83 c0 10             	add    $0x10,%eax
c010381e:	89 45 fc             	mov    %eax,-0x4(%ebp)
c0103821:	8b 45 fc             	mov    -0x4(%ebp),%eax
c0103824:	8b 55 0c             	mov    0xc(%ebp),%edx
c0103827:	89 10                	mov    %edx,(%eax)
c0103829:	90                   	nop
c010382a:	c9                   	leave
c010382b:	c3                   	ret

c010382c <ioapic_pit_irq>:
c010382c:	55                   	push   %ebp
c010382d:	89 e5                	mov    %esp,%ebp
c010382f:	83 ec 18             	sub    $0x18,%esp
c0103832:	c6 45 f7 01          	movb   $0x1,-0x9(%ebp)
c0103836:	c7 45 f0 00 00 00 00 	movl   $0x0,-0x10(%ebp)
c010383d:	0f b6 45 f7          	movzbl -0x9(%ebp),%eax
c0103841:	83 ec 08             	sub    $0x8,%esp
c0103844:	50                   	push   %eax
c0103845:	6a 02                	push   $0x2
c0103847:	e8 25 e2 ff ff       	call   c0101a71 <parse_MADT>
c010384c:	83 c4 10             	add    $0x10,%esp
c010384f:	89 45 f0             	mov    %eax,-0x10(%ebp)
c0103852:	eb 29                	jmp    c010387d <ioapic_pit_irq+0x51>
c0103854:	8b 45 f0             	mov    -0x10(%ebp),%eax
c0103857:	0f b6 00             	movzbl (%eax),%eax
c010385a:	84 c0                	test   %al,%al
c010385c:	74 27                	je     c0103885 <ioapic_pit_irq+0x59>
c010385e:	0f b6 45 f7          	movzbl -0x9(%ebp),%eax
c0103862:	83 ec 08             	sub    $0x8,%esp
c0103865:	50                   	push   %eax
c0103866:	6a 02                	push   $0x2
c0103868:	e8 04 e2 ff ff       	call   c0101a71 <parse_MADT>
c010386d:	83 c4 10             	add    $0x10,%esp
c0103870:	89 45 f0             	mov    %eax,-0x10(%ebp)
c0103873:	0f b6 45 f7          	movzbl -0x9(%ebp),%eax
c0103877:	83 c0 01             	add    $0x1,%eax
c010387a:	88 45 f7             	mov    %al,-0x9(%ebp)
c010387d:	83 7d f0 00          	cmpl   $0x0,-0x10(%ebp)
c0103881:	75 d1                	jne    c0103854 <ioapic_pit_irq+0x28>
c0103883:	eb 01                	jmp    c0103886 <ioapic_pit_irq+0x5a>
c0103885:	90                   	nop
c0103886:	8b 45 f0             	mov    -0x10(%ebp),%eax
c0103889:	8b 40 02             	mov    0x2(%eax),%eax
c010388c:	c9                   	leave
c010388d:	c3                   	ret

c010388e <init_ioapic>:
c010388e:	55                   	push   %ebp
c010388f:	89 e5                	mov    %esp,%ebp
c0103891:	83 ec 18             	sub    $0x18,%esp
c0103894:	83 ec 08             	sub    $0x8,%esp
c0103897:	6a 01                	push   $0x1
c0103899:	6a 01                	push   $0x1
c010389b:	e8 d1 e1 ff ff       	call   c0101a71 <parse_MADT>
c01038a0:	83 c4 10             	add    $0x10,%esp
c01038a3:	89 45 f4             	mov    %eax,-0xc(%ebp)
c01038a6:	8b 45 f4             	mov    -0xc(%ebp),%eax
c01038a9:	8b 40 02             	mov    0x2(%eax),%eax
c01038ac:	83 ec 04             	sub    $0x4,%esp
c01038af:	50                   	push   %eax
c01038b0:	68 13 01 00 00       	push   $0x113
c01038b5:	68 00 04 00 00       	push   $0x400
c01038ba:	e8 98 dc ff ff       	call   c0101557 <page_kalloc>
c01038bf:	83 c4 10             	add    $0x10,%esp
c01038c2:	a3 20 f0 10 c0       	mov    %eax,0xc010f020
c01038c7:	e8 60 ff ff ff       	call   c010382c <ioapic_pit_irq>
c01038cc:	83 c0 08             	add    $0x8,%eax
c01038cf:	01 c0                	add    %eax,%eax
c01038d1:	88 45 f3             	mov    %al,-0xd(%ebp)
c01038d4:	0f b6 45 f3          	movzbl -0xd(%ebp),%eax
c01038d8:	83 ec 08             	sub    $0x8,%esp
c01038db:	6a 31                	push   $0x31
c01038dd:	50                   	push   %eax
c01038de:	e8 23 ff ff ff       	call   c0103806 <write_ioapic_register>
c01038e3:	83 c4 10             	add    $0x10,%esp
c01038e6:	0f b6 45 f3          	movzbl -0xd(%ebp),%eax
c01038ea:	83 c0 01             	add    $0x1,%eax
c01038ed:	83 ec 08             	sub    $0x8,%esp
c01038f0:	6a 00                	push   $0x0
c01038f2:	50                   	push   %eax
c01038f3:	e8 0e ff ff ff       	call   c0103806 <write_ioapic_register>
c01038f8:	83 c4 10             	add    $0x10,%esp
c01038fb:	90                   	nop
c01038fc:	c9                   	leave
c01038fd:	c3                   	ret

c01038fe <lapic_write_reg>:
c01038fe:	55                   	push   %ebp
c01038ff:	89 e5                	mov    %esp,%ebp
c0103901:	83 ec 10             	sub    $0x10,%esp
c0103904:	a1 1c f0 10 c0       	mov    0xc010f01c,%eax
c0103909:	89 c2                	mov    %eax,%edx
c010390b:	8b 45 08             	mov    0x8(%ebp),%eax
c010390e:	01 d0                	add    %edx,%eax
c0103910:	89 45 fc             	mov    %eax,-0x4(%ebp)
c0103913:	8b 45 fc             	mov    -0x4(%ebp),%eax
c0103916:	8b 55 0c             	mov    0xc(%ebp),%edx
c0103919:	89 10                	mov    %edx,(%eax)
c010391b:	90                   	nop
c010391c:	c9                   	leave
c010391d:	c3                   	ret

c010391e <lapic_read_reg>:
c010391e:	55                   	push   %ebp
c010391f:	89 e5                	mov    %esp,%ebp
c0103921:	83 ec 10             	sub    $0x10,%esp
c0103924:	a1 1c f0 10 c0       	mov    0xc010f01c,%eax
c0103929:	89 c2                	mov    %eax,%edx
c010392b:	8b 45 08             	mov    0x8(%ebp),%eax
c010392e:	01 d0                	add    %edx,%eax
c0103930:	89 45 fc             	mov    %eax,-0x4(%ebp)
c0103933:	8b 45 fc             	mov    -0x4(%ebp),%eax
c0103936:	8b 00                	mov    (%eax),%eax
c0103938:	c9                   	leave
c0103939:	c3                   	ret

c010393a <lapic_timer_init>:
c010393a:	55                   	push   %ebp
c010393b:	89 e5                	mov    %esp,%ebp
c010393d:	83 ec 10             	sub    $0x10,%esp
c0103940:	a1 1c f0 10 c0       	mov    0xc010f01c,%eax
c0103945:	05 20 03 00 00       	add    $0x320,%eax
c010394a:	89 45 fc             	mov    %eax,-0x4(%ebp)
c010394d:	8b 45 fc             	mov    -0x4(%ebp),%eax
c0103950:	c7 00 30 00 01 00    	movl   $0x10030,(%eax)
c0103956:	90                   	nop
c0103957:	c9                   	leave
c0103958:	c3                   	ret

c0103959 <set_initial_lapic_timer_count>:
c0103959:	55                   	push   %ebp
c010395a:	89 e5                	mov    %esp,%ebp
c010395c:	83 ec 10             	sub    $0x10,%esp
c010395f:	a1 1c f0 10 c0       	mov    0xc010f01c,%eax
c0103964:	05 80 03 00 00       	add    $0x380,%eax
c0103969:	89 45 fc             	mov    %eax,-0x4(%ebp)
c010396c:	8b 45 fc             	mov    -0x4(%ebp),%eax
c010396f:	8b 55 08             	mov    0x8(%ebp),%edx
c0103972:	89 10                	mov    %edx,(%eax)
c0103974:	90                   	nop
c0103975:	c9                   	leave
c0103976:	c3                   	ret

c0103977 <get_lapic_timer_count>:
c0103977:	55                   	push   %ebp
c0103978:	89 e5                	mov    %esp,%ebp
c010397a:	68 90 03 00 00       	push   $0x390
c010397f:	e8 9a ff ff ff       	call   c010391e <lapic_read_reg>
c0103984:	83 c4 04             	add    $0x4,%esp
c0103987:	c9                   	leave
c0103988:	c3                   	ret

c0103989 <send_EOI>:
c0103989:	55                   	push   %ebp
c010398a:	89 e5                	mov    %esp,%ebp
c010398c:	83 ec 10             	sub    $0x10,%esp
c010398f:	8b 45 08             	mov    0x8(%ebp),%eax
c0103992:	05 b0 00 00 00       	add    $0xb0,%eax
c0103997:	89 45 fc             	mov    %eax,-0x4(%ebp)
c010399a:	8b 45 fc             	mov    -0x4(%ebp),%eax
c010399d:	c7 00 00 00 00 00    	movl   $0x0,(%eax)
c01039a3:	90                   	nop
c01039a4:	c9                   	leave
c01039a5:	c3                   	ret

c01039a6 <init_apic>:
c01039a6:	55                   	push   %ebp
c01039a7:	89 e5                	mov    %esp,%ebp
c01039a9:	83 ec 18             	sub    $0x18,%esp
c01039ac:	83 ec 0c             	sub    $0xc,%esp
c01039af:	68 74 78 10 c0       	push   $0xc0107874
c01039b4:	e8 72 f3 ff ff       	call   c0102d2b <logf>
c01039b9:	83 c4 10             	add    $0x10,%esp
c01039bc:	e8 92 fd ff ff       	call   c0103753 <get_apic_addr>
c01039c1:	83 ec 04             	sub    $0x4,%esp
c01039c4:	50                   	push   %eax
c01039c5:	6a 03                	push   $0x3
c01039c7:	68 00 10 00 00       	push   $0x1000
c01039cc:	e8 86 db ff ff       	call   c0101557 <page_kalloc>
c01039d1:	83 c4 10             	add    $0x10,%esp
c01039d4:	a3 1c f0 10 c0       	mov    %eax,0xc010f01c
c01039d9:	a1 1c f0 10 c0       	mov    0xc010f01c,%eax
c01039de:	05 f0 00 00 00       	add    $0xf0,%eax
c01039e3:	89 45 f4             	mov    %eax,-0xc(%ebp)
c01039e6:	8b 45 f4             	mov    -0xc(%ebp),%eax
c01039e9:	8b 00                	mov    (%eax),%eax
c01039eb:	0d ff 01 00 00       	or     $0x1ff,%eax
c01039f0:	89 c2                	mov    %eax,%edx
c01039f2:	8b 45 f4             	mov    -0xc(%ebp),%eax
c01039f5:	89 10                	mov    %edx,(%eax)
c01039f7:	83 ec 0c             	sub    $0xc,%esp
c01039fa:	68 9c 78 10 c0       	push   $0xc010789c
c01039ff:	e8 27 f3 ff ff       	call   c0102d2b <logf>
c0103a04:	83 c4 10             	add    $0x10,%esp
c0103a07:	e8 2e ff ff ff       	call   c010393a <lapic_timer_init>
c0103a0c:	e8 7d fe ff ff       	call   c010388e <init_ioapic>
c0103a11:	e8 03 00 00 00       	call   c0103a19 <calibrate_timer>
c0103a16:	90                   	nop
c0103a17:	c9                   	leave
c0103a18:	c3                   	ret

c0103a19 <calibrate_timer>:
c0103a19:	55                   	push   %ebp
c0103a1a:	89 e5                	mov    %esp,%ebp
c0103a1c:	83 ec 18             	sub    $0x18,%esp
c0103a1f:	c7 45 f4 00 00 00 00 	movl   $0x0,-0xc(%ebp)
c0103a26:	68 00 00 01 00       	push   $0x10000
c0103a2b:	68 20 03 00 00       	push   $0x320
c0103a30:	e8 c9 fe ff ff       	call   c01038fe <lapic_write_reg>
c0103a35:	83 c4 08             	add    $0x8,%esp
c0103a38:	c7 45 f0 00 00 00 00 	movl   $0x0,-0x10(%ebp)
c0103a3f:	eb 50                	jmp    c0103a91 <calibrate_timer+0x78>
c0103a41:	c7 05 28 f0 10 c0 01 	movl   $0x1,0xc010f028
c0103a48:	00 00 00 
c0103a4b:	83 ec 0c             	sub    $0xc,%esp
c0103a4e:	68 c2 2e 00 00       	push   $0x2ec2
c0103a53:	e8 91 00 00 00       	call   c0103ae9 <set_pit_one_shot>
c0103a58:	83 c4 10             	add    $0x10,%esp
c0103a5b:	83 ec 0c             	sub    $0xc,%esp
c0103a5e:	6a ff                	push   $0xffffffff
c0103a60:	e8 f4 fe ff ff       	call   c0103959 <set_initial_lapic_timer_count>
c0103a65:	83 c4 10             	add    $0x10,%esp
c0103a68:	90                   	nop
c0103a69:	a1 28 f0 10 c0       	mov    0xc010f028,%eax
c0103a6e:	85 c0                	test   %eax,%eax
c0103a70:	75 f7                	jne    c0103a69 <calibrate_timer+0x50>
c0103a72:	83 ec 0c             	sub    $0xc,%esp
c0103a75:	68 90 03 00 00       	push   $0x390
c0103a7a:	e8 9f fe ff ff       	call   c010391e <lapic_read_reg>
c0103a7f:	83 c4 10             	add    $0x10,%esp
c0103a82:	f7 d0                	not    %eax
c0103a84:	89 45 ec             	mov    %eax,-0x14(%ebp)
c0103a87:	8b 45 ec             	mov    -0x14(%ebp),%eax
c0103a8a:	01 45 f4             	add    %eax,-0xc(%ebp)
c0103a8d:	83 45 f0 01          	addl   $0x1,-0x10(%ebp)
c0103a91:	83 7d f0 09          	cmpl   $0x9,-0x10(%ebp)
c0103a95:	7e aa                	jle    c0103a41 <calibrate_timer+0x28>
c0103a97:	8b 45 f4             	mov    -0xc(%ebp),%eax
c0103a9a:	ba 1f 85 eb 51       	mov    $0x51eb851f,%edx
c0103a9f:	f7 e2                	mul    %edx
c0103aa1:	89 d0                	mov    %edx,%eax
c0103aa3:	c1 e8 05             	shr    $0x5,%eax
c0103aa6:	a3 24 f0 10 c0       	mov    %eax,0xc010f024
c0103aab:	a1 24 f0 10 c0       	mov    0xc010f024,%eax
c0103ab0:	83 ec 08             	sub    $0x8,%esp
c0103ab3:	50                   	push   %eax
c0103ab4:	68 b8 78 10 c0       	push   $0xc01078b8
c0103ab9:	e8 6d f2 ff ff       	call   c0102d2b <logf>
c0103abe:	83 c4 10             	add    $0x10,%esp
c0103ac1:	83 ec 08             	sub    $0x8,%esp
c0103ac4:	68 30 00 02 00       	push   $0x20030
c0103ac9:	68 20 03 00 00       	push   $0x320
c0103ace:	e8 2b fe ff ff       	call   c01038fe <lapic_write_reg>
c0103ad3:	83 c4 10             	add    $0x10,%esp
c0103ad6:	90                   	nop
c0103ad7:	c9                   	leave
c0103ad8:	c3                   	ret

c0103ad9 <end_calibration>:
c0103ad9:	55                   	push   %ebp
c0103ada:	89 e5                	mov    %esp,%ebp
c0103adc:	c7 05 28 f0 10 c0 00 	movl   $0x0,0xc010f028
c0103ae3:	00 00 00 
c0103ae6:	90                   	nop
c0103ae7:	5d                   	pop    %ebp
c0103ae8:	c3                   	ret

c0103ae9 <set_pit_one_shot>:
c0103ae9:	55                   	push   %ebp
c0103aea:	89 e5                	mov    %esp,%ebp
c0103aec:	83 ec 18             	sub    $0x18,%esp
c0103aef:	8b 45 08             	mov    0x8(%ebp),%eax
c0103af2:	66 89 45 f4          	mov    %ax,-0xc(%ebp)
c0103af6:	83 ec 08             	sub    $0x8,%esp
c0103af9:	6a 30                	push   $0x30
c0103afb:	6a 43                	push   $0x43
c0103afd:	e8 17 ef ff ff       	call   c0102a19 <outportb>
c0103b02:	83 c4 10             	add    $0x10,%esp
c0103b05:	0f b7 45 f4          	movzwl -0xc(%ebp),%eax
c0103b09:	0f b6 c0             	movzbl %al,%eax
c0103b0c:	83 ec 08             	sub    $0x8,%esp
c0103b0f:	50                   	push   %eax
c0103b10:	6a 40                	push   $0x40
c0103b12:	e8 02 ef ff ff       	call   c0102a19 <outportb>
c0103b17:	83 c4 10             	add    $0x10,%esp
c0103b1a:	0f b7 45 f4          	movzwl -0xc(%ebp),%eax
c0103b1e:	66 c1 e8 08          	shr    $0x8,%ax
c0103b22:	0f b6 c0             	movzbl %al,%eax
c0103b25:	83 ec 08             	sub    $0x8,%esp
c0103b28:	50                   	push   %eax
c0103b29:	6a 40                	push   $0x40
c0103b2b:	e8 e9 ee ff ff       	call   c0102a19 <outportb>
c0103b30:	83 c4 10             	add    $0x10,%esp
c0103b33:	90                   	nop
c0103b34:	c9                   	leave
c0103b35:	c3                   	ret

c0103b36 <disable_pic>:
c0103b36:	55                   	push   %ebp
c0103b37:	89 e5                	mov    %esp,%ebp
c0103b39:	83 ec 08             	sub    $0x8,%esp
c0103b3c:	83 ec 08             	sub    $0x8,%esp
c0103b3f:	6a 11                	push   $0x11
c0103b41:	6a 20                	push   $0x20
c0103b43:	e8 d1 ee ff ff       	call   c0102a19 <outportb>
c0103b48:	83 c4 10             	add    $0x10,%esp
c0103b4b:	e8 e8 fb ff ff       	call   c0103738 <io_wait>
c0103b50:	83 ec 08             	sub    $0x8,%esp
c0103b53:	6a 11                	push   $0x11
c0103b55:	68 a0 00 00 00       	push   $0xa0
c0103b5a:	e8 ba ee ff ff       	call   c0102a19 <outportb>
c0103b5f:	83 c4 10             	add    $0x10,%esp
c0103b62:	e8 d1 fb ff ff       	call   c0103738 <io_wait>
c0103b67:	83 ec 08             	sub    $0x8,%esp
c0103b6a:	6a 20                	push   $0x20
c0103b6c:	6a 21                	push   $0x21
c0103b6e:	e8 a6 ee ff ff       	call   c0102a19 <outportb>
c0103b73:	83 c4 10             	add    $0x10,%esp
c0103b76:	e8 bd fb ff ff       	call   c0103738 <io_wait>
c0103b7b:	83 ec 08             	sub    $0x8,%esp
c0103b7e:	6a 28                	push   $0x28
c0103b80:	68 a1 00 00 00       	push   $0xa1
c0103b85:	e8 8f ee ff ff       	call   c0102a19 <outportb>
c0103b8a:	83 c4 10             	add    $0x10,%esp
c0103b8d:	e8 a6 fb ff ff       	call   c0103738 <io_wait>
c0103b92:	83 ec 08             	sub    $0x8,%esp
c0103b95:	6a 02                	push   $0x2
c0103b97:	6a 21                	push   $0x21
c0103b99:	e8 7b ee ff ff       	call   c0102a19 <outportb>
c0103b9e:	83 c4 10             	add    $0x10,%esp
c0103ba1:	e8 92 fb ff ff       	call   c0103738 <io_wait>
c0103ba6:	83 ec 08             	sub    $0x8,%esp
c0103ba9:	6a 04                	push   $0x4
c0103bab:	68 a1 00 00 00       	push   $0xa1
c0103bb0:	e8 64 ee ff ff       	call   c0102a19 <outportb>
c0103bb5:	83 c4 10             	add    $0x10,%esp
c0103bb8:	e8 7b fb ff ff       	call   c0103738 <io_wait>
c0103bbd:	83 ec 08             	sub    $0x8,%esp
c0103bc0:	6a 01                	push   $0x1
c0103bc2:	6a 21                	push   $0x21
c0103bc4:	e8 50 ee ff ff       	call   c0102a19 <outportb>
c0103bc9:	83 c4 10             	add    $0x10,%esp
c0103bcc:	e8 67 fb ff ff       	call   c0103738 <io_wait>
c0103bd1:	83 ec 08             	sub    $0x8,%esp
c0103bd4:	6a 01                	push   $0x1
c0103bd6:	68 a1 00 00 00       	push   $0xa1
c0103bdb:	e8 39 ee ff ff       	call   c0102a19 <outportb>
c0103be0:	83 c4 10             	add    $0x10,%esp
c0103be3:	e8 50 fb ff ff       	call   c0103738 <io_wait>
c0103be8:	83 ec 08             	sub    $0x8,%esp
c0103beb:	68 ff 00 00 00       	push   $0xff
c0103bf0:	6a 21                	push   $0x21
c0103bf2:	e8 22 ee ff ff       	call   c0102a19 <outportb>
c0103bf7:	83 c4 10             	add    $0x10,%esp
c0103bfa:	e8 39 fb ff ff       	call   c0103738 <io_wait>
c0103bff:	83 ec 08             	sub    $0x8,%esp
c0103c02:	68 ff 00 00 00       	push   $0xff
c0103c07:	68 a1 00 00 00       	push   $0xa1
c0103c0c:	e8 08 ee ff ff       	call   c0102a19 <outportb>
c0103c11:	83 c4 10             	add    $0x10,%esp
c0103c14:	90                   	nop
c0103c15:	c9                   	leave
c0103c16:	c3                   	ret

c0103c17 <polled_sleep>:
c0103c17:	55                   	push   %ebp
c0103c18:	89 e5                	mov    %esp,%ebp
c0103c1a:	83 ec 28             	sub    $0x28,%esp
c0103c1d:	e8 55 fd ff ff       	call   c0103977 <get_lapic_timer_count>
c0103c22:	89 45 f4             	mov    %eax,-0xc(%ebp)
c0103c25:	c7 45 f0 00 00 00 00 	movl   $0x0,-0x10(%ebp)
c0103c2c:	a1 24 f0 10 c0       	mov    0xc010f024,%eax
c0103c31:	8b 55 08             	mov    0x8(%ebp),%edx
c0103c34:	0f af c2             	imul   %edx,%eax
c0103c37:	89 45 ec             	mov    %eax,-0x14(%ebp)
c0103c3a:	c7 45 e8 00 00 00 00 	movl   $0x0,-0x18(%ebp)
c0103c41:	c7 45 e4 00 00 00 00 	movl   $0x0,-0x1c(%ebp)
c0103c48:	83 ec 0c             	sub    $0xc,%esp
c0103c4b:	ff 75 ec             	push   -0x14(%ebp)
c0103c4e:	e8 1e 00 00 00       	call   c0103c71 <arm_interrupt_timer>
c0103c53:	83 c4 10             	add    $0x10,%esp
c0103c56:	90                   	nop
c0103c57:	e8 08 00 00 00       	call   c0103c64 <poll_timer>
c0103c5c:	85 c0                	test   %eax,%eax
c0103c5e:	75 f7                	jne    c0103c57 <polled_sleep+0x40>
c0103c60:	90                   	nop
c0103c61:	90                   	nop
c0103c62:	c9                   	leave
c0103c63:	c3                   	ret

c0103c64 <poll_timer>:
c0103c64:	55                   	push   %ebp
c0103c65:	89 e5                	mov    %esp,%ebp
c0103c67:	83 ec 08             	sub    $0x8,%esp
c0103c6a:	e8 08 fd ff ff       	call   c0103977 <get_lapic_timer_count>
c0103c6f:	c9                   	leave
c0103c70:	c3                   	ret

c0103c71 <arm_interrupt_timer>:
c0103c71:	55                   	push   %ebp
c0103c72:	89 e5                	mov    %esp,%ebp
c0103c74:	83 ec 08             	sub    $0x8,%esp
c0103c77:	83 ec 0c             	sub    $0xc,%esp
c0103c7a:	68 20 03 00 00       	push   $0x320
c0103c7f:	e8 9a fc ff ff       	call   c010391e <lapic_read_reg>
c0103c84:	83 c4 10             	add    $0x10,%esp
c0103c87:	0f b6 c0             	movzbl %al,%eax
c0103c8a:	83 ec 08             	sub    $0x8,%esp
c0103c8d:	50                   	push   %eax
c0103c8e:	68 20 03 00 00       	push   $0x320
c0103c93:	e8 66 fc ff ff       	call   c01038fe <lapic_write_reg>
c0103c98:	83 c4 10             	add    $0x10,%esp
c0103c9b:	83 ec 0c             	sub    $0xc,%esp
c0103c9e:	ff 75 08             	push   0x8(%ebp)
c0103ca1:	e8 b3 fc ff ff       	call   c0103959 <set_initial_lapic_timer_count>
c0103ca6:	83 c4 10             	add    $0x10,%esp
c0103ca9:	90                   	nop
c0103caa:	c9                   	leave
c0103cab:	c3                   	ret

c0103cac <io_wait>:
c0103cac:	55                   	push   %ebp
c0103cad:	89 e5                	mov    %esp,%ebp
c0103caf:	83 ec 08             	sub    $0x8,%esp
c0103cb2:	83 ec 08             	sub    $0x8,%esp
c0103cb5:	6a 00                	push   $0x0
c0103cb7:	68 80 00 00 00       	push   $0x80
c0103cbc:	e8 58 ed ff ff       	call   c0102a19 <outportb>
c0103cc1:	83 c4 10             	add    $0x10,%esp
c0103cc4:	90                   	nop
c0103cc5:	c9                   	leave
c0103cc6:	c3                   	ret

c0103cc7 <handle_masks>:
c0103cc7:	55                   	push   %ebp
c0103cc8:	89 e5                	mov    %esp,%ebp
c0103cca:	83 7d 08 08          	cmpl   $0x8,0x8(%ebp)
c0103cce:	74 1b                	je     c0103ceb <handle_masks+0x24>
c0103cd0:	83 7d 08 08          	cmpl   $0x8,0x8(%ebp)
c0103cd4:	0f 87 98 00 00 00    	ja     c0103d72 <handle_masks+0xab>
c0103cda:	83 7d 08 06          	cmpl   $0x6,0x8(%ebp)
c0103cde:	74 65                	je     c0103d45 <handle_masks+0x7e>
c0103ce0:	83 7d 08 07          	cmpl   $0x7,0x8(%ebp)
c0103ce4:	74 32                	je     c0103d18 <handle_masks+0x51>
c0103ce6:	e9 87 00 00 00       	jmp    c0103d72 <handle_masks+0xab>
c0103ceb:	0f b6 05 88 f0 10 c0 	movzbl 0xc010f088,%eax
c0103cf2:	0f b6 c0             	movzbl %al,%eax
c0103cf5:	0f b6 94 00 61 f0 10 	movzbl -0x3fef0f9f(%eax,%eax,1),%edx
c0103cfc:	c0 
c0103cfd:	0f b6 05 88 f0 10 c0 	movzbl 0xc010f088,%eax
c0103d04:	0f b6 c0             	movzbl %al,%eax
c0103d07:	83 ca 02             	or     $0x2,%edx
c0103d0a:	88 94 00 61 f0 10 c0 	mov    %dl,-0x3fef0f9f(%eax,%eax,1)
c0103d11:	b8 01 00 00 00       	mov    $0x1,%eax
c0103d16:	eb 5f                	jmp    c0103d77 <handle_masks+0xb0>
c0103d18:	0f b6 05 88 f0 10 c0 	movzbl 0xc010f088,%eax
c0103d1f:	0f b6 c0             	movzbl %al,%eax
c0103d22:	0f b6 94 00 61 f0 10 	movzbl -0x3fef0f9f(%eax,%eax,1),%edx
c0103d29:	c0 
c0103d2a:	0f b6 05 88 f0 10 c0 	movzbl 0xc010f088,%eax
c0103d31:	0f b6 c0             	movzbl %al,%eax
c0103d34:	83 ca 01             	or     $0x1,%edx
c0103d37:	88 94 00 61 f0 10 c0 	mov    %dl,-0x3fef0f9f(%eax,%eax,1)
c0103d3e:	b8 01 00 00 00       	mov    $0x1,%eax
c0103d43:	eb 32                	jmp    c0103d77 <handle_masks+0xb0>
c0103d45:	0f b6 05 88 f0 10 c0 	movzbl 0xc010f088,%eax
c0103d4c:	0f b6 c0             	movzbl %al,%eax
c0103d4f:	0f b6 94 00 61 f0 10 	movzbl -0x3fef0f9f(%eax,%eax,1),%edx
c0103d56:	c0 
c0103d57:	0f b6 05 88 f0 10 c0 	movzbl 0xc010f088,%eax
c0103d5e:	0f b6 c0             	movzbl %al,%eax
c0103d61:	83 ca 04             	or     $0x4,%edx
c0103d64:	88 94 00 61 f0 10 c0 	mov    %dl,-0x3fef0f9f(%eax,%eax,1)
c0103d6b:	b8 01 00 00 00       	mov    $0x1,%eax
c0103d70:	eb 05                	jmp    c0103d77 <handle_masks+0xb0>
c0103d72:	b8 00 00 00 00       	mov    $0x0,%eax
c0103d77:	5d                   	pop    %ebp
c0103d78:	c3                   	ret

c0103d79 <handle_keychange>:
c0103d79:	55                   	push   %ebp
c0103d7a:	89 e5                	mov    %esp,%ebp
c0103d7c:	83 ec 18             	sub    $0x18,%esp
c0103d7f:	a1 44 f0 10 c0       	mov    0xc010f044,%eax
c0103d84:	83 ec 04             	sub    $0x4,%esp
c0103d87:	6a 04                	push   $0x4
c0103d89:	6a 00                	push   $0x0
c0103d8b:	50                   	push   %eax
c0103d8c:	e8 16 f4 ff ff       	call   c01031a7 <memset>
c0103d91:	83 c4 10             	add    $0x10,%esp
c0103d94:	c7 45 f4 00 00 00 00 	movl   $0x0,-0xc(%ebp)
c0103d9b:	eb 2b                	jmp    c0103dc8 <handle_keychange+0x4f>
c0103d9d:	83 ec 0c             	sub    $0xc,%esp
c0103da0:	6a 60                	push   $0x60
c0103da2:	e8 59 ec ff ff       	call   c0102a00 <inportb>
c0103da7:	83 c4 10             	add    $0x10,%esp
c0103daa:	88 45 f3             	mov    %al,-0xd(%ebp)
c0103dad:	8b 15 44 f0 10 c0    	mov    0xc010f044,%edx
c0103db3:	8b 45 f4             	mov    -0xc(%ebp),%eax
c0103db6:	01 c2                	add    %eax,%edx
c0103db8:	0f b6 45 f3          	movzbl -0xd(%ebp),%eax
c0103dbc:	88 02                	mov    %al,(%edx)
c0103dbe:	80 7d f3 e0          	cmpb   $0xe0,-0xd(%ebp)
c0103dc2:	75 0c                	jne    c0103dd0 <handle_keychange+0x57>
c0103dc4:	83 45 f4 01          	addl   $0x1,-0xc(%ebp)
c0103dc8:	83 7d f4 03          	cmpl   $0x3,-0xc(%ebp)
c0103dcc:	7e cf                	jle    c0103d9d <handle_keychange+0x24>
c0103dce:	eb 01                	jmp    c0103dd1 <handle_keychange+0x58>
c0103dd0:	90                   	nop
c0103dd1:	0f b6 05 88 f0 10 c0 	movzbl 0xc010f088,%eax
c0103dd8:	0f b6 c0             	movzbl %al,%eax
c0103ddb:	8d 48 01             	lea    0x1(%eax),%ecx
c0103dde:	ba 67 66 66 66       	mov    $0x66666667,%edx
c0103de3:	89 c8                	mov    %ecx,%eax
c0103de5:	f7 ea                	imul   %edx
c0103de7:	c1 fa 03             	sar    $0x3,%edx
c0103dea:	89 c8                	mov    %ecx,%eax
c0103dec:	c1 f8 1f             	sar    $0x1f,%eax
c0103def:	29 c2                	sub    %eax,%edx
c0103df1:	89 d0                	mov    %edx,%eax
c0103df3:	c1 e0 02             	shl    $0x2,%eax
c0103df6:	01 d0                	add    %edx,%eax
c0103df8:	c1 e0 02             	shl    $0x2,%eax
c0103dfb:	29 c1                	sub    %eax,%ecx
c0103dfd:	89 ca                	mov    %ecx,%edx
c0103dff:	89 d0                	mov    %edx,%eax
c0103e01:	a2 88 f0 10 c0       	mov    %al,0xc010f088
c0103e06:	8b 15 44 f0 10 c0    	mov    0xc010f044,%edx
c0103e0c:	8b 45 f4             	mov    -0xc(%ebp),%eax
c0103e0f:	01 d0                	add    %edx,%eax
c0103e11:	0f b6 00             	movzbl (%eax),%eax
c0103e14:	0f b6 c0             	movzbl %al,%eax
c0103e17:	83 e0 7f             	and    $0x7f,%eax
c0103e1a:	8b 14 85 20 80 10 c0 	mov    -0x3fef7fe0(,%eax,4),%edx
c0103e21:	0f b6 05 88 f0 10 c0 	movzbl 0xc010f088,%eax
c0103e28:	0f b6 c0             	movzbl %al,%eax
c0103e2b:	88 94 00 60 f0 10 c0 	mov    %dl,-0x3fef0fa0(%eax,%eax,1)
c0103e32:	0f b6 05 88 f0 10 c0 	movzbl 0xc010f088,%eax
c0103e39:	0f b6 c0             	movzbl %al,%eax
c0103e3c:	c6 84 00 61 f0 10 c0 	movb   $0x0,-0x3fef0f9f(%eax,%eax,1)
c0103e43:	00 
c0103e44:	8b 15 44 f0 10 c0    	mov    0xc010f044,%edx
c0103e4a:	8b 45 f4             	mov    -0xc(%ebp),%eax
c0103e4d:	01 d0                	add    %edx,%eax
c0103e4f:	0f b6 00             	movzbl (%eax),%eax
c0103e52:	3c 80                	cmp    $0x80,%al
c0103e54:	76 26                	jbe    c0103e7c <handle_keychange+0x103>
c0103e56:	0f b6 05 88 f0 10 c0 	movzbl 0xc010f088,%eax
c0103e5d:	0f b6 c0             	movzbl %al,%eax
c0103e60:	0f b6 94 00 61 f0 10 	movzbl -0x3fef0f9f(%eax,%eax,1),%edx
c0103e67:	c0 
c0103e68:	0f b6 05 88 f0 10 c0 	movzbl 0xc010f088,%eax
c0103e6f:	0f b6 c0             	movzbl %al,%eax
c0103e72:	83 ca 08             	or     $0x8,%edx
c0103e75:	88 94 00 61 f0 10 c0 	mov    %dl,-0x3fef0f9f(%eax,%eax,1)
c0103e7c:	8b 15 44 f0 10 c0    	mov    0xc010f044,%edx
c0103e82:	8b 45 f4             	mov    -0xc(%ebp),%eax
c0103e85:	01 d0                	add    %edx,%eax
c0103e87:	0f b6 00             	movzbl (%eax),%eax
c0103e8a:	0f b6 c0             	movzbl %al,%eax
c0103e8d:	83 e0 7f             	and    $0x7f,%eax
c0103e90:	8b 04 85 20 80 10 c0 	mov    -0x3fef7fe0(,%eax,4),%eax
c0103e97:	83 f8 06             	cmp    $0x6,%eax
c0103e9a:	75 3c                	jne    c0103ed8 <handle_keychange+0x15f>
c0103e9c:	0f b6 05 88 f0 10 c0 	movzbl 0xc010f088,%eax
c0103ea3:	0f b6 c0             	movzbl %al,%eax
c0103ea6:	0f b6 84 00 61 f0 10 	movzbl -0x3fef0f9f(%eax,%eax,1),%eax
c0103ead:	c0 
c0103eae:	0f b6 c0             	movzbl %al,%eax
c0103eb1:	83 e0 08             	and    $0x8,%eax
c0103eb4:	85 c0                	test   %eax,%eax
c0103eb6:	74 11                	je     c0103ec9 <handle_keychange+0x150>
c0103eb8:	0f b6 05 89 f0 10 c0 	movzbl 0xc010f089,%eax
c0103ebf:	83 e0 fb             	and    $0xfffffffb,%eax
c0103ec2:	a2 89 f0 10 c0       	mov    %al,0xc010f089
c0103ec7:	eb 0f                	jmp    c0103ed8 <handle_keychange+0x15f>
c0103ec9:	0f b6 05 89 f0 10 c0 	movzbl 0xc010f089,%eax
c0103ed0:	83 c8 04             	or     $0x4,%eax
c0103ed3:	a2 89 f0 10 c0       	mov    %al,0xc010f089
c0103ed8:	0f b6 05 88 f0 10 c0 	movzbl 0xc010f088,%eax
c0103edf:	0f b6 c0             	movzbl %al,%eax
c0103ee2:	0f b6 8c 00 61 f0 10 	movzbl -0x3fef0f9f(%eax,%eax,1),%ecx
c0103ee9:	c0 
c0103eea:	0f b6 15 89 f0 10 c0 	movzbl 0xc010f089,%edx
c0103ef1:	0f b6 05 88 f0 10 c0 	movzbl 0xc010f088,%eax
c0103ef8:	0f b6 c0             	movzbl %al,%eax
c0103efb:	09 ca                	or     %ecx,%edx
c0103efd:	88 94 00 61 f0 10 c0 	mov    %dl,-0x3fef0f9f(%eax,%eax,1)
c0103f04:	90                   	nop
c0103f05:	c9                   	leave
c0103f06:	c3                   	ret

c0103f07 <init_keyboard>:
c0103f07:	55                   	push   %ebp
c0103f08:	89 e5                	mov    %esp,%ebp
c0103f0a:	83 ec 18             	sub    $0x18,%esp
c0103f0d:	83 ec 08             	sub    $0x8,%esp
c0103f10:	6a 20                	push   $0x20
c0103f12:	6a 64                	push   $0x64
c0103f14:	e8 00 eb ff ff       	call   c0102a19 <outportb>
c0103f19:	83 c4 10             	add    $0x10,%esp
c0103f1c:	83 ec 0c             	sub    $0xc,%esp
c0103f1f:	6a 60                	push   $0x60
c0103f21:	e8 da ea ff ff       	call   c0102a00 <inportb>
c0103f26:	83 c4 10             	add    $0x10,%esp
c0103f29:	88 45 f7             	mov    %al,-0x9(%ebp)
c0103f2c:	e8 7b fd ff ff       	call   c0103cac <io_wait>
c0103f31:	0f b6 45 f7          	movzbl -0x9(%ebp),%eax
c0103f35:	83 ec 08             	sub    $0x8,%esp
c0103f38:	50                   	push   %eax
c0103f39:	68 e0 78 10 c0       	push   $0xc01078e0
c0103f3e:	e8 e8 ed ff ff       	call   c0102d2b <logf>
c0103f43:	83 c4 10             	add    $0x10,%esp
c0103f46:	83 ec 08             	sub    $0x8,%esp
c0103f49:	68 f0 00 00 00       	push   $0xf0
c0103f4e:	6a 60                	push   $0x60
c0103f50:	e8 c4 ea ff ff       	call   c0102a19 <outportb>
c0103f55:	83 c4 10             	add    $0x10,%esp
c0103f58:	e8 4f fd ff ff       	call   c0103cac <io_wait>
c0103f5d:	83 ec 08             	sub    $0x8,%esp
c0103f60:	6a 02                	push   $0x2
c0103f62:	6a 60                	push   $0x60
c0103f64:	e8 b0 ea ff ff       	call   c0102a19 <outportb>
c0103f69:	83 c4 10             	add    $0x10,%esp
c0103f6c:	e8 3b fd ff ff       	call   c0103cac <io_wait>
c0103f71:	83 ec 0c             	sub    $0xc,%esp
c0103f74:	6a 60                	push   $0x60
c0103f76:	e8 85 ea ff ff       	call   c0102a00 <inportb>
c0103f7b:	83 c4 10             	add    $0x10,%esp
c0103f7e:	88 45 f6             	mov    %al,-0xa(%ebp)
c0103f81:	e8 26 fd ff ff       	call   c0103cac <io_wait>
c0103f86:	83 ec 0c             	sub    $0xc,%esp
c0103f89:	6a 60                	push   $0x60
c0103f8b:	e8 70 ea ff ff       	call   c0102a00 <inportb>
c0103f90:	83 c4 10             	add    $0x10,%esp
c0103f93:	88 45 f5             	mov    %al,-0xb(%ebp)
c0103f96:	0f b6 55 f5          	movzbl -0xb(%ebp),%edx
c0103f9a:	0f b6 45 f6          	movzbl -0xa(%ebp),%eax
c0103f9e:	83 ec 04             	sub    $0x4,%esp
c0103fa1:	52                   	push   %edx
c0103fa2:	50                   	push   %eax
c0103fa3:	68 f0 78 10 c0       	push   $0xc01078f0
c0103fa8:	e8 ad 14 00 00       	call   c010545a <printf>
c0103fad:	83 c4 10             	add    $0x10,%esp
c0103fb0:	0f b6 45 f7          	movzbl -0x9(%ebp),%eax
c0103fb4:	c0 e8 06             	shr    $0x6,%al
c0103fb7:	84 c0                	test   %al,%al
c0103fb9:	75 18                	jne    c0103fd3 <init_keyboard+0xcc>
c0103fbb:	80 7d f5 43          	cmpb   $0x43,-0xb(%ebp)
c0103fbf:	74 12                	je     c0103fd3 <init_keyboard+0xcc>
c0103fc1:	83 ec 0c             	sub    $0xc,%esp
c0103fc4:	68 14 79 10 c0       	push   $0xc0107914
c0103fc9:	e8 d6 ee ff ff       	call   c0102ea4 <panic>
c0103fce:	83 c4 10             	add    $0x10,%esp
c0103fd1:	eb 10                	jmp    c0103fe3 <init_keyboard+0xdc>
c0103fd3:	83 ec 0c             	sub    $0xc,%esp
c0103fd6:	68 3c 79 10 c0       	push   $0xc010793c
c0103fdb:	e8 4b ed ff ff       	call   c0102d2b <logf>
c0103fe0:	83 c4 10             	add    $0x10,%esp
c0103fe3:	83 ec 0c             	sub    $0xc,%esp
c0103fe6:	6a 04                	push   $0x4
c0103fe8:	e8 d9 f2 ff ff       	call   c01032c6 <kalloc>
c0103fed:	83 c4 10             	add    $0x10,%esp
c0103ff0:	a3 44 f0 10 c0       	mov    %eax,0xc010f044
c0103ff5:	c6 45 f4 12          	movb   $0x12,-0xc(%ebp)
c0103ff9:	c7 45 f0 32 00 00 00 	movl   $0x32,-0x10(%ebp)
c0104000:	0f b6 45 f4          	movzbl -0xc(%ebp),%eax
c0104004:	83 ec 08             	sub    $0x8,%esp
c0104007:	ff 75 f0             	push   -0x10(%ebp)
c010400a:	50                   	push   %eax
c010400b:	e8 f6 f7 ff ff       	call   c0103806 <write_ioapic_register>
c0104010:	83 c4 10             	add    $0x10,%esp
c0104013:	83 ec 0c             	sub    $0xc,%esp
c0104016:	68 60 79 10 c0       	push   $0xc0107960
c010401b:	e8 3a 14 00 00       	call   c010545a <printf>
c0104020:	83 c4 10             	add    $0x10,%esp
c0104023:	90                   	nop
c0104024:	c9                   	leave
c0104025:	c3                   	ret

c0104026 <fb_set_width>:
c0104026:	55                   	push   %ebp
c0104027:	89 e5                	mov    %esp,%ebp
c0104029:	83 ec 04             	sub    $0x4,%esp
c010402c:	8b 45 08             	mov    0x8(%ebp),%eax
c010402f:	66 89 45 fc          	mov    %ax,-0x4(%ebp)
c0104033:	0f b7 45 fc          	movzwl -0x4(%ebp),%eax
c0104037:	66 a3 98 f0 10 c0    	mov    %ax,0xc010f098
c010403d:	90                   	nop
c010403e:	c9                   	leave
c010403f:	c3                   	ret

c0104040 <fb_set_height>:
c0104040:	55                   	push   %ebp
c0104041:	89 e5                	mov    %esp,%ebp
c0104043:	83 ec 04             	sub    $0x4,%esp
c0104046:	8b 45 08             	mov    0x8(%ebp),%eax
c0104049:	66 89 45 fc          	mov    %ax,-0x4(%ebp)
c010404d:	0f b7 45 fc          	movzwl -0x4(%ebp),%eax
c0104051:	66 a3 9a f0 10 c0    	mov    %ax,0xc010f09a
c0104057:	90                   	nop
c0104058:	c9                   	leave
c0104059:	c3                   	ret

c010405a <fb_put_glyph>:
c010405a:	55                   	push   %ebp
c010405b:	89 e5                	mov    %esp,%ebp
c010405d:	56                   	push   %esi
c010405e:	53                   	push   %ebx
c010405f:	83 ec 30             	sub    $0x30,%esp
c0104062:	8b 5d 08             	mov    0x8(%ebp),%ebx
c0104065:	8b 4d 0c             	mov    0xc(%ebp),%ecx
c0104068:	8b 55 10             	mov    0x10(%ebp),%edx
c010406b:	8b 45 1c             	mov    0x1c(%ebp),%eax
c010406e:	88 5d d4             	mov    %bl,-0x2c(%ebp)
c0104071:	66 89 4d d0          	mov    %cx,-0x30(%ebp)
c0104075:	66 89 55 cc          	mov    %dx,-0x34(%ebp)
c0104079:	66 89 45 c8          	mov    %ax,-0x38(%ebp)
c010407d:	0f be 45 d4          	movsbl -0x2c(%ebp),%eax
c0104081:	83 ec 0c             	sub    $0xc,%esp
c0104084:	50                   	push   %eax
c0104085:	e8 1c 01 00 00       	call   c01041a6 <get_glyph>
c010408a:	83 c4 10             	add    $0x10,%esp
c010408d:	89 45 f4             	mov    %eax,-0xc(%ebp)
c0104090:	8b 45 14             	mov    0x14(%ebp),%eax
c0104093:	c1 e8 18             	shr    $0x18,%eax
c0104096:	88 45 e7             	mov    %al,-0x19(%ebp)
c0104099:	8b 45 14             	mov    0x14(%ebp),%eax
c010409c:	c1 e8 10             	shr    $0x10,%eax
c010409f:	88 45 e6             	mov    %al,-0x1a(%ebp)
c01040a2:	8b 45 14             	mov    0x14(%ebp),%eax
c01040a5:	c1 e8 08             	shr    $0x8,%eax
c01040a8:	88 45 e5             	mov    %al,-0x1b(%ebp)
c01040ab:	8b 45 18             	mov    0x18(%ebp),%eax
c01040ae:	c1 e8 18             	shr    $0x18,%eax
c01040b1:	88 45 e4             	mov    %al,-0x1c(%ebp)
c01040b4:	8b 45 18             	mov    0x18(%ebp),%eax
c01040b7:	c1 e8 10             	shr    $0x10,%eax
c01040ba:	88 45 e3             	mov    %al,-0x1d(%ebp)
c01040bd:	8b 45 18             	mov    0x18(%ebp),%eax
c01040c0:	c1 e8 08             	shr    $0x8,%eax
c01040c3:	88 45 e2             	mov    %al,-0x1e(%ebp)
c01040c6:	c7 45 f0 00 00 00 00 	movl   $0x0,-0x10(%ebp)
c01040cd:	e9 b6 00 00 00       	jmp    c0104188 <fb_put_glyph+0x12e>
c01040d2:	0f b7 55 cc          	movzwl -0x34(%ebp),%edx
c01040d6:	0f b7 45 d0          	movzwl -0x30(%ebp),%eax
c01040da:	83 ec 08             	sub    $0x8,%esp
c01040dd:	52                   	push   %edx
c01040de:	50                   	push   %eax
c01040df:	e8 67 d8 ff ff       	call   c010194b <get_pixel_addr>
c01040e4:	83 c4 10             	add    $0x10,%esp
c01040e7:	89 45 ec             	mov    %eax,-0x14(%ebp)
c01040ea:	c7 45 e8 07 00 00 00 	movl   $0x7,-0x18(%ebp)
c01040f1:	eb 7b                	jmp    c010416e <fb_put_glyph+0x114>
c01040f3:	8b 45 f4             	mov    -0xc(%ebp),%eax
c01040f6:	0f b6 00             	movzbl (%eax),%eax
c01040f9:	0f b6 d0             	movzbl %al,%edx
c01040fc:	8b 45 e8             	mov    -0x18(%ebp),%eax
c01040ff:	89 c1                	mov    %eax,%ecx
c0104101:	d3 fa                	sar    %cl,%edx
c0104103:	89 d0                	mov    %edx,%eax
c0104105:	83 e0 01             	and    $0x1,%eax
c0104108:	85 c0                	test   %eax,%eax
c010410a:	74 2b                	je     c0104137 <fb_put_glyph+0xdd>
c010410c:	0f b6 75 e5          	movzbl -0x1b(%ebp),%esi
c0104110:	0f b6 5d e6          	movzbl -0x1a(%ebp),%ebx
c0104114:	0f b6 4d e7          	movzbl -0x19(%ebp),%ecx
c0104118:	0f b7 55 c8          	movzwl -0x38(%ebp),%edx
c010411c:	0f b7 45 c8          	movzwl -0x38(%ebp),%eax
c0104120:	83 ec 04             	sub    $0x4,%esp
c0104123:	6a 00                	push   $0x0
c0104125:	56                   	push   %esi
c0104126:	53                   	push   %ebx
c0104127:	51                   	push   %ecx
c0104128:	52                   	push   %edx
c0104129:	50                   	push   %eax
c010412a:	ff 75 ec             	push   -0x14(%ebp)
c010412d:	e8 9a 00 00 00       	call   c01041cc <fill_square>
c0104132:	83 c4 20             	add    $0x20,%esp
c0104135:	eb 29                	jmp    c0104160 <fb_put_glyph+0x106>
c0104137:	0f b6 75 e2          	movzbl -0x1e(%ebp),%esi
c010413b:	0f b6 5d e3          	movzbl -0x1d(%ebp),%ebx
c010413f:	0f b6 4d e4          	movzbl -0x1c(%ebp),%ecx
c0104143:	0f b7 55 c8          	movzwl -0x38(%ebp),%edx
c0104147:	0f b7 45 c8          	movzwl -0x38(%ebp),%eax
c010414b:	83 ec 04             	sub    $0x4,%esp
c010414e:	6a 00                	push   $0x0
c0104150:	56                   	push   %esi
c0104151:	53                   	push   %ebx
c0104152:	51                   	push   %ecx
c0104153:	52                   	push   %edx
c0104154:	50                   	push   %eax
c0104155:	ff 75 ec             	push   -0x14(%ebp)
c0104158:	e8 6f 00 00 00       	call   c01041cc <fill_square>
c010415d:	83 c4 20             	add    $0x20,%esp
c0104160:	0f b7 45 c8          	movzwl -0x38(%ebp),%eax
c0104164:	c1 e0 02             	shl    $0x2,%eax
c0104167:	01 45 ec             	add    %eax,-0x14(%ebp)
c010416a:	83 6d e8 01          	subl   $0x1,-0x18(%ebp)
c010416e:	83 7d e8 00          	cmpl   $0x0,-0x18(%ebp)
c0104172:	0f 89 7b ff ff ff    	jns    c01040f3 <fb_put_glyph+0x99>
c0104178:	0f b7 45 c8          	movzwl -0x38(%ebp),%eax
c010417c:	66 01 45 cc          	add    %ax,-0x34(%ebp)
c0104180:	83 45 f4 01          	addl   $0x1,-0xc(%ebp)
c0104184:	83 45 f0 01          	addl   $0x1,-0x10(%ebp)
c0104188:	a1 90 f0 10 c0       	mov    0xc010f090,%eax
c010418d:	0f b6 40 03          	movzbl 0x3(%eax),%eax
c0104191:	0f b6 c0             	movzbl %al,%eax
c0104194:	39 45 f0             	cmp    %eax,-0x10(%ebp)
c0104197:	0f 8c 35 ff ff ff    	jl     c01040d2 <fb_put_glyph+0x78>
c010419d:	90                   	nop
c010419e:	90                   	nop
c010419f:	8d 65 f8             	lea    -0x8(%ebp),%esp
c01041a2:	5b                   	pop    %ebx
c01041a3:	5e                   	pop    %esi
c01041a4:	5d                   	pop    %ebp
c01041a5:	c3                   	ret

c01041a6 <get_glyph>:
c01041a6:	55                   	push   %ebp
c01041a7:	89 e5                	mov    %esp,%ebp
c01041a9:	83 ec 10             	sub    $0x10,%esp
c01041ac:	a1 90 f0 10 c0       	mov    0xc010f090,%eax
c01041b1:	0f b6 40 03          	movzbl 0x3(%eax),%eax
c01041b5:	0f b6 c0             	movzbl %al,%eax
c01041b8:	0f af 45 08          	imul   0x8(%ebp),%eax
c01041bc:	83 c0 04             	add    $0x4,%eax
c01041bf:	05 8c 81 10 c0       	add    $0xc010818c,%eax
c01041c4:	89 45 fc             	mov    %eax,-0x4(%ebp)
c01041c7:	8b 45 fc             	mov    -0x4(%ebp),%eax
c01041ca:	c9                   	leave
c01041cb:	c3                   	ret

c01041cc <fill_square>:
c01041cc:	55                   	push   %ebp
c01041cd:	89 e5                	mov    %esp,%ebp
c01041cf:	57                   	push   %edi
c01041d0:	56                   	push   %esi
c01041d1:	53                   	push   %ebx
c01041d2:	83 ec 28             	sub    $0x28,%esp
c01041d5:	8b 7d 0c             	mov    0xc(%ebp),%edi
c01041d8:	8b 75 10             	mov    0x10(%ebp),%esi
c01041db:	8b 5d 14             	mov    0x14(%ebp),%ebx
c01041de:	8b 4d 18             	mov    0x18(%ebp),%ecx
c01041e1:	8b 55 1c             	mov    0x1c(%ebp),%edx
c01041e4:	8b 45 20             	mov    0x20(%ebp),%eax
c01041e7:	66 89 7d e0          	mov    %di,-0x20(%ebp)
c01041eb:	66 89 75 dc          	mov    %si,-0x24(%ebp)
c01041ef:	88 5d d8             	mov    %bl,-0x28(%ebp)
c01041f2:	88 4d d4             	mov    %cl,-0x2c(%ebp)
c01041f5:	88 55 d0             	mov    %dl,-0x30(%ebp)
c01041f8:	88 45 cc             	mov    %al,-0x34(%ebp)
c01041fb:	8b 45 08             	mov    0x8(%ebp),%eax
c01041fe:	89 45 f0             	mov    %eax,-0x10(%ebp)
c0104201:	c6 45 e7 04          	movb   $0x4,-0x19(%ebp)
c0104205:	c7 45 ec 00 00 00 00 	movl   $0x0,-0x14(%ebp)
c010420c:	eb 66                	jmp    c0104274 <fill_square+0xa8>
c010420e:	c7 45 e8 00 00 00 00 	movl   $0x0,-0x18(%ebp)
c0104215:	eb 45                	jmp    c010425c <fill_square+0x90>
c0104217:	0f b6 45 e7          	movzbl -0x19(%ebp),%eax
c010421b:	0f af 45 e8          	imul   -0x18(%ebp),%eax
c010421f:	89 c2                	mov    %eax,%edx
c0104221:	8b 45 f0             	mov    -0x10(%ebp),%eax
c0104224:	01 c2                	add    %eax,%edx
c0104226:	0f b6 45 d0          	movzbl -0x30(%ebp),%eax
c010422a:	88 02                	mov    %al,(%edx)
c010422c:	0f b6 45 e7          	movzbl -0x19(%ebp),%eax
c0104230:	0f af 45 e8          	imul   -0x18(%ebp),%eax
c0104234:	8d 50 01             	lea    0x1(%eax),%edx
c0104237:	8b 45 f0             	mov    -0x10(%ebp),%eax
c010423a:	01 c2                	add    %eax,%edx
c010423c:	0f b6 45 d4          	movzbl -0x2c(%ebp),%eax
c0104240:	88 02                	mov    %al,(%edx)
c0104242:	0f b6 45 e7          	movzbl -0x19(%ebp),%eax
c0104246:	0f af 45 e8          	imul   -0x18(%ebp),%eax
c010424a:	8d 50 02             	lea    0x2(%eax),%edx
c010424d:	8b 45 f0             	mov    -0x10(%ebp),%eax
c0104250:	01 c2                	add    %eax,%edx
c0104252:	0f b6 45 d8          	movzbl -0x28(%ebp),%eax
c0104256:	88 02                	mov    %al,(%edx)
c0104258:	83 45 e8 01          	addl   $0x1,-0x18(%ebp)
c010425c:	0f b7 45 e0          	movzwl -0x20(%ebp),%eax
c0104260:	39 45 e8             	cmp    %eax,-0x18(%ebp)
c0104263:	7c b2                	jl     c0104217 <fill_square+0x4b>
c0104265:	a1 20 c0 10 c0       	mov    0xc010c020,%eax
c010426a:	8b 40 10             	mov    0x10(%eax),%eax
c010426d:	01 45 f0             	add    %eax,-0x10(%ebp)
c0104270:	83 45 ec 01          	addl   $0x1,-0x14(%ebp)
c0104274:	0f b7 45 dc          	movzwl -0x24(%ebp),%eax
c0104278:	39 45 ec             	cmp    %eax,-0x14(%ebp)
c010427b:	7c 91                	jl     c010420e <fill_square+0x42>
c010427d:	90                   	nop
c010427e:	90                   	nop
c010427f:	83 c4 28             	add    $0x28,%esp
c0104282:	5b                   	pop    %ebx
c0104283:	5e                   	pop    %esi
c0104284:	5f                   	pop    %edi
c0104285:	5d                   	pop    %ebp
c0104286:	c3                   	ret

c0104287 <init_font>:
c0104287:	55                   	push   %ebp
c0104288:	89 e5                	mov    %esp,%ebp
c010428a:	83 ec 08             	sub    $0x8,%esp
c010428d:	c7 05 90 f0 10 c0 8c 	movl   $0xc010818c,0xc010f090
c0104294:	81 10 c0 
c0104297:	a1 90 f0 10 c0       	mov    0xc010f090,%eax
c010429c:	0f b6 00             	movzbl (%eax),%eax
c010429f:	3c 36                	cmp    $0x36,%al
c01042a1:	75 39                	jne    c01042dc <init_font+0x55>
c01042a3:	a1 90 f0 10 c0       	mov    0xc010f090,%eax
c01042a8:	0f b6 40 01          	movzbl 0x1(%eax),%eax
c01042ac:	3c 04                	cmp    $0x4,%al
c01042ae:	75 2c                	jne    c01042dc <init_font+0x55>
c01042b0:	a1 90 f0 10 c0       	mov    0xc010f090,%eax
c01042b5:	0f b6 40 03          	movzbl 0x3(%eax),%eax
c01042b9:	0f b6 d0             	movzbl %al,%edx
c01042bc:	a1 90 f0 10 c0       	mov    0xc010f090,%eax
c01042c1:	0f b6 40 02          	movzbl 0x2(%eax),%eax
c01042c5:	0f b6 c0             	movzbl %al,%eax
c01042c8:	83 ec 04             	sub    $0x4,%esp
c01042cb:	52                   	push   %edx
c01042cc:	50                   	push   %eax
c01042cd:	68 80 79 10 c0       	push   $0xc0107980
c01042d2:	e8 54 ea ff ff       	call   c0102d2b <logf>
c01042d7:	83 c4 10             	add    $0x10,%esp
c01042da:	eb 01                	jmp    c01042dd <init_font+0x56>
c01042dc:	90                   	nop
c01042dd:	c9                   	leave
c01042de:	c3                   	ret

c01042df <put_pixel>:
c01042df:	55                   	push   %ebp
c01042e0:	89 e5                	mov    %esp,%ebp
c01042e2:	83 ec 18             	sub    $0x18,%esp
c01042e5:	83 ec 08             	sub    $0x8,%esp
c01042e8:	ff 75 0c             	push   0xc(%ebp)
c01042eb:	ff 75 08             	push   0x8(%ebp)
c01042ee:	e8 58 d6 ff ff       	call   c010194b <get_pixel_addr>
c01042f3:	83 c4 10             	add    $0x10,%esp
c01042f6:	89 45 f4             	mov    %eax,-0xc(%ebp)
c01042f9:	8b 45 f4             	mov    -0xc(%ebp),%eax
c01042fc:	8b 55 10             	mov    0x10(%ebp),%edx
c01042ff:	89 10                	mov    %edx,(%eax)
c0104301:	90                   	nop
c0104302:	c9                   	leave
c0104303:	c3                   	ret

c0104304 <run_idle>:
c0104304:	55                   	push   %ebp
c0104305:	89 e5                	mov    %esp,%ebp
c0104307:	f4                   	hlt
c0104308:	eb fd                	jmp    c0104307 <run_idle+0x3>

c010430a <set_current_process_idle>:
c010430a:	55                   	push   %ebp
c010430b:	89 e5                	mov    %esp,%ebp
c010430d:	e8 f2 ff ff ff       	call   c0104304 <run_idle>
c0104312:	90                   	nop
c0104313:	5d                   	pop    %ebp
c0104314:	c3                   	ret

c0104315 <init_idle_process>:
c0104315:	55                   	push   %ebp
c0104316:	89 e5                	mov    %esp,%ebp
c0104318:	83 ec 08             	sub    $0x8,%esp
c010431b:	6a 02                	push   $0x2
c010431d:	6a 00                	push   $0x0
c010431f:	68 04 43 10 c0       	push   $0xc0104304
c0104324:	68 a0 79 10 c0       	push   $0xc01079a0
c0104329:	e8 2c 03 00 00       	call   c010465a <create_process>
c010432e:	83 c4 10             	add    $0x10,%esp
c0104331:	a3 a0 f0 10 c0       	mov    %eax,0xc010f0a0
c0104336:	90                   	nop
c0104337:	c9                   	leave
c0104338:	c3                   	ret

c0104339 <init_scheduler>:
c0104339:	55                   	push   %ebp
c010433a:	89 e5                	mov    %esp,%ebp
c010433c:	83 ec 08             	sub    $0x8,%esp
c010433f:	c7 05 9c f0 10 c0 00 	movl   $0x0,0xc010f09c
c0104346:	00 00 00 
c0104349:	c7 05 b4 f0 10 c0 00 	movl   $0x0,0xc010f0b4
c0104350:	00 00 00 
c0104353:	e8 bd ff ff ff       	call   c0104315 <init_idle_process>
c0104358:	c7 05 a4 f0 10 c0 01 	movl   $0x1,0xc010f0a4
c010435f:	00 00 00 
c0104362:	90                   	nop
c0104363:	c9                   	leave
c0104364:	c3                   	ret

c0104365 <add_process>:
c0104365:	55                   	push   %ebp
c0104366:	89 e5                	mov    %esp,%ebp
c0104368:	83 ec 18             	sub    $0x18,%esp
c010436b:	8b 45 08             	mov    0x8(%ebp),%eax
c010436e:	8b 40 50             	mov    0x50(%eax),%eax
c0104371:	83 ec 04             	sub    $0x4,%esp
c0104374:	50                   	push   %eax
c0104375:	ff 75 08             	push   0x8(%ebp)
c0104378:	68 a8 79 10 c0       	push   $0xc01079a8
c010437d:	e8 a9 e9 ff ff       	call   c0102d2b <logf>
c0104382:	83 c4 10             	add    $0x10,%esp
c0104385:	a1 9c f0 10 c0       	mov    0xc010f09c,%eax
c010438a:	89 45 f4             	mov    %eax,-0xc(%ebp)
c010438d:	83 ec 0c             	sub    $0xc,%esp
c0104390:	68 d5 79 10 c0       	push   $0xc01079d5
c0104395:	e8 91 e9 ff ff       	call   c0102d2b <logf>
c010439a:	83 c4 10             	add    $0x10,%esp
c010439d:	8b 45 08             	mov    0x8(%ebp),%eax
c01043a0:	8b 00                	mov    (%eax),%eax
c01043a2:	83 ec 08             	sub    $0x8,%esp
c01043a5:	50                   	push   %eax
c01043a6:	68 e4 79 10 c0       	push   $0xc01079e4
c01043ab:	e8 7b e9 ff ff       	call   c0102d2b <logf>
c01043b0:	83 c4 10             	add    $0x10,%esp
c01043b3:	8b 45 08             	mov    0x8(%ebp),%eax
c01043b6:	8b 40 08             	mov    0x8(%eax),%eax
c01043b9:	83 ec 08             	sub    $0x8,%esp
c01043bc:	50                   	push   %eax
c01043bd:	68 0c 7a 10 c0       	push   $0xc0107a0c
c01043c2:	e8 64 e9 ff ff       	call   c0102d2b <logf>
c01043c7:	83 c4 10             	add    $0x10,%esp
c01043ca:	83 7d f4 00          	cmpl   $0x0,-0xc(%ebp)
c01043ce:	75 13                	jne    c01043e3 <add_process+0x7e>
c01043d0:	8b 45 08             	mov    0x8(%ebp),%eax
c01043d3:	a3 9c f0 10 c0       	mov    %eax,0xc010f09c
c01043d8:	eb 1c                	jmp    c01043f6 <add_process+0x91>
c01043da:	8b 45 f4             	mov    -0xc(%ebp),%eax
c01043dd:	8b 40 50             	mov    0x50(%eax),%eax
c01043e0:	89 45 f4             	mov    %eax,-0xc(%ebp)
c01043e3:	8b 45 f4             	mov    -0xc(%ebp),%eax
c01043e6:	8b 40 50             	mov    0x50(%eax),%eax
c01043e9:	85 c0                	test   %eax,%eax
c01043eb:	75 ed                	jne    c01043da <add_process+0x75>
c01043ed:	8b 45 f4             	mov    -0xc(%ebp),%eax
c01043f0:	8b 55 08             	mov    0x8(%ebp),%edx
c01043f3:	89 50 50             	mov    %edx,0x50(%eax)
c01043f6:	c9                   	leave
c01043f7:	c3                   	ret

c01043f8 <delete_process>:
c01043f8:	55                   	push   %ebp
c01043f9:	89 e5                	mov    %esp,%ebp
c01043fb:	83 ec 18             	sub    $0x18,%esp
c01043fe:	a1 9c f0 10 c0       	mov    0xc010f09c,%eax
c0104403:	39 45 08             	cmp    %eax,0x8(%ebp)
c0104406:	75 26                	jne    c010442e <delete_process+0x36>
c0104408:	a1 9c f0 10 c0       	mov    0xc010f09c,%eax
c010440d:	8b 40 50             	mov    0x50(%eax),%eax
c0104410:	89 45 f0             	mov    %eax,-0x10(%ebp)
c0104413:	8b 45 f0             	mov    -0x10(%ebp),%eax
c0104416:	a3 9c f0 10 c0       	mov    %eax,0xc010f09c
c010441b:	83 ec 0c             	sub    $0xc,%esp
c010441e:	ff 75 08             	push   0x8(%ebp)
c0104421:	e8 1c f0 ff ff       	call   c0103442 <kfree>
c0104426:	83 c4 10             	add    $0x10,%esp
c0104429:	e9 84 00 00 00       	jmp    c01044b2 <delete_process+0xba>
c010442e:	a1 9c f0 10 c0       	mov    0xc010f09c,%eax
c0104433:	89 45 f4             	mov    %eax,-0xc(%ebp)
c0104436:	eb 14                	jmp    c010444c <delete_process+0x54>
c0104438:	8b 45 f4             	mov    -0xc(%ebp),%eax
c010443b:	8b 40 50             	mov    0x50(%eax),%eax
c010443e:	39 45 08             	cmp    %eax,0x8(%ebp)
c0104441:	74 15                	je     c0104458 <delete_process+0x60>
c0104443:	8b 45 f4             	mov    -0xc(%ebp),%eax
c0104446:	8b 40 50             	mov    0x50(%eax),%eax
c0104449:	89 45 f4             	mov    %eax,-0xc(%ebp)
c010444c:	8b 45 f4             	mov    -0xc(%ebp),%eax
c010444f:	8b 40 50             	mov    0x50(%eax),%eax
c0104452:	85 c0                	test   %eax,%eax
c0104454:	75 e2                	jne    c0104438 <delete_process+0x40>
c0104456:	eb 01                	jmp    c0104459 <delete_process+0x61>
c0104458:	90                   	nop
c0104459:	8b 45 08             	mov    0x8(%ebp),%eax
c010445c:	8b 50 50             	mov    0x50(%eax),%edx
c010445f:	8b 45 f4             	mov    -0xc(%ebp),%eax
c0104462:	89 50 50             	mov    %edx,0x50(%eax)
c0104465:	8b 45 08             	mov    0x8(%ebp),%eax
c0104468:	8b 00                	mov    (%eax),%eax
c010446a:	83 ec 08             	sub    $0x8,%esp
c010446d:	50                   	push   %eax
c010446e:	68 2f 7a 10 c0       	push   $0xc0107a2f
c0104473:	e8 b3 e8 ff ff       	call   c0102d2b <logf>
c0104478:	83 c4 10             	add    $0x10,%esp
c010447b:	8b 45 08             	mov    0x8(%ebp),%eax
c010447e:	8b 40 08             	mov    0x8(%eax),%eax
c0104481:	83 ec 08             	sub    $0x8,%esp
c0104484:	50                   	push   %eax
c0104485:	68 44 7a 10 c0       	push   $0xc0107a44
c010448a:	e8 9c e8 ff ff       	call   c0102d2b <logf>
c010448f:	83 c4 10             	add    $0x10,%esp
c0104492:	8b 45 08             	mov    0x8(%ebp),%eax
c0104495:	8b 40 08             	mov    0x8(%eax),%eax
c0104498:	83 ec 0c             	sub    $0xc,%esp
c010449b:	50                   	push   %eax
c010449c:	e8 a1 ef ff ff       	call   c0103442 <kfree>
c01044a1:	83 c4 10             	add    $0x10,%esp
c01044a4:	83 ec 0c             	sub    $0xc,%esp
c01044a7:	ff 75 08             	push   0x8(%ebp)
c01044aa:	e8 93 ef ff ff       	call   c0103442 <kfree>
c01044af:	83 c4 10             	add    $0x10,%esp
c01044b2:	c9                   	leave
c01044b3:	c3                   	ret

c01044b4 <get_process_head>:
c01044b4:	55                   	push   %ebp
c01044b5:	89 e5                	mov    %esp,%ebp
c01044b7:	a1 9c f0 10 c0       	mov    0xc010f09c,%eax
c01044bc:	5d                   	pop    %ebp
c01044bd:	c3                   	ret

c01044be <configure_page_directory>:
c01044be:	55                   	push   %ebp
c01044bf:	89 e5                	mov    %esp,%ebp
c01044c1:	83 ec 28             	sub    $0x28,%esp
c01044c4:	e8 dd cd ff ff       	call   c01012a6 <alloc_phys_page>
c01044c9:	89 45 f4             	mov    %eax,-0xc(%ebp)
c01044cc:	e8 d5 cd ff ff       	call   c01012a6 <alloc_phys_page>
c01044d1:	89 45 f0             	mov    %eax,-0x10(%ebp)
c01044d4:	8b 45 f0             	mov    -0x10(%ebp),%eax
c01044d7:	83 ec 04             	sub    $0x4,%esp
c01044da:	50                   	push   %eax
c01044db:	6a 03                	push   $0x3
c01044dd:	68 00 10 00 00       	push   $0x1000
c01044e2:	e8 70 d0 ff ff       	call   c0101557 <page_kalloc>
c01044e7:	83 c4 10             	add    $0x10,%esp
c01044ea:	89 45 ec             	mov    %eax,-0x14(%ebp)
c01044ed:	8b 45 f4             	mov    -0xc(%ebp),%eax
c01044f0:	83 ec 04             	sub    $0x4,%esp
c01044f3:	50                   	push   %eax
c01044f4:	6a 03                	push   $0x3
c01044f6:	68 00 10 00 00       	push   $0x1000
c01044fb:	e8 57 d0 ff ff       	call   c0101557 <page_kalloc>
c0104500:	83 c4 10             	add    $0x10,%esp
c0104503:	89 45 e8             	mov    %eax,-0x18(%ebp)
c0104506:	ff 75 ec             	push   -0x14(%ebp)
c0104509:	68 00 00 00 c0       	push   $0xc0000000
c010450e:	68 00 00 01 00       	push   $0x10000
c0104513:	ff 75 e8             	push   -0x18(%ebp)
c0104516:	e8 4a cf ff ff       	call   c0101465 <create_vmm>
c010451b:	83 c4 10             	add    $0x10,%esp
c010451e:	89 45 e4             	mov    %eax,-0x1c(%ebp)
c0104521:	8b 45 08             	mov    0x8(%ebp),%eax
c0104524:	8b 55 e4             	mov    -0x1c(%ebp),%edx
c0104527:	89 50 0c             	mov    %edx,0xc(%eax)
c010452a:	83 ec 0c             	sub    $0xc,%esp
c010452d:	ff 75 e8             	push   -0x18(%ebp)
c0104530:	e8 95 e1 ff ff       	call   c01026ca <copy_higher_half_kernel_pd>
c0104535:	83 c4 10             	add    $0x10,%esp
c0104538:	8b 55 f4             	mov    -0xc(%ebp),%edx
c010453b:	8b 45 e8             	mov    -0x18(%ebp),%eax
c010453e:	05 fc 0f 00 00       	add    $0xffc,%eax
c0104543:	83 ca 03             	or     $0x3,%edx
c0104546:	89 10                	mov    %edx,(%eax)
c0104548:	83 ec 0c             	sub    $0xc,%esp
c010454b:	ff 75 e4             	push   -0x1c(%ebp)
c010454e:	e8 4d d1 ff ff       	call   c01016a0 <set_current_vmm>
c0104553:	83 c4 10             	add    $0x10,%esp
c0104556:	83 ec 0c             	sub    $0xc,%esp
c0104559:	ff 75 f4             	push   -0xc(%ebp)
c010455c:	e8 be ca ff ff       	call   c010101f <load_directory>
c0104561:	83 c4 10             	add    $0x10,%esp
c0104564:	8b 45 f0             	mov    -0x10(%ebp),%eax
c0104567:	83 ec 04             	sub    $0x4,%esp
c010456a:	50                   	push   %eax
c010456b:	6a 03                	push   $0x3
c010456d:	68 00 10 00 00       	push   $0x1000
c0104572:	e8 22 d0 ff ff       	call   c0101599 <page_alloc>
c0104577:	83 c4 10             	add    $0x10,%esp
c010457a:	89 45 e0             	mov    %eax,-0x20(%ebp)
c010457d:	8b 45 f4             	mov    -0xc(%ebp),%eax
c0104580:	83 ec 04             	sub    $0x4,%esp
c0104583:	50                   	push   %eax
c0104584:	6a 03                	push   $0x3
c0104586:	68 00 10 00 00       	push   $0x1000
c010458b:	e8 09 d0 ff ff       	call   c0101599 <page_alloc>
c0104590:	83 c4 10             	add    $0x10,%esp
c0104593:	89 45 dc             	mov    %eax,-0x24(%ebp)
c0104596:	83 7d e0 00          	cmpl   $0x0,-0x20(%ebp)
c010459a:	74 06                	je     c01045a2 <configure_page_directory+0xe4>
c010459c:	83 7d dc 00          	cmpl   $0x0,-0x24(%ebp)
c01045a0:	75 10                	jne    c01045b2 <configure_page_directory+0xf4>
c01045a2:	83 ec 0c             	sub    $0xc,%esp
c01045a5:	68 64 7a 10 c0       	push   $0xc0107a64
c01045aa:	e8 f5 e8 ff ff       	call   c0102ea4 <panic>
c01045af:	83 c4 10             	add    $0x10,%esp
c01045b2:	8b 45 e4             	mov    -0x1c(%ebp),%eax
c01045b5:	8b 55 dc             	mov    -0x24(%ebp),%edx
c01045b8:	89 10                	mov    %edx,(%eax)
c01045ba:	8b 45 e4             	mov    -0x1c(%ebp),%eax
c01045bd:	8b 40 04             	mov    0x4(%eax),%eax
c01045c0:	89 c2                	mov    %eax,%edx
c01045c2:	8b 45 e4             	mov    -0x1c(%ebp),%eax
c01045c5:	8b 40 08             	mov    0x8(%eax),%eax
c01045c8:	29 c2                	sub    %eax,%edx
c01045ca:	89 55 d8             	mov    %edx,-0x28(%ebp)
c01045cd:	8b 45 e0             	mov    -0x20(%ebp),%eax
c01045d0:	8d 50 14             	lea    0x14(%eax),%edx
c01045d3:	8b 45 e4             	mov    -0x1c(%ebp),%eax
c01045d6:	89 50 08             	mov    %edx,0x8(%eax)
c01045d9:	8b 45 e4             	mov    -0x1c(%ebp),%eax
c01045dc:	8b 50 08             	mov    0x8(%eax),%edx
c01045df:	8b 45 d8             	mov    -0x28(%ebp),%eax
c01045e2:	01 d0                	add    %edx,%eax
c01045e4:	89 c2                	mov    %eax,%edx
c01045e6:	8b 45 e4             	mov    -0x1c(%ebp),%eax
c01045e9:	89 50 04             	mov    %edx,0x4(%eax)
c01045ec:	83 ec 0c             	sub    $0xc,%esp
c01045ef:	ff 75 e4             	push   -0x1c(%ebp)
c01045f2:	e8 19 d3 ff ff       	call   c0101910 <alloc_stack>
c01045f7:	83 c4 10             	add    $0x10,%esp
c01045fa:	89 c2                	mov    %eax,%edx
c01045fc:	8b 45 08             	mov    0x8(%ebp),%eax
c01045ff:	8b 40 08             	mov    0x8(%eax),%eax
c0104602:	83 ea 64             	sub    $0x64,%edx
c0104605:	89 50 0c             	mov    %edx,0xc(%eax)
c0104608:	8b 45 08             	mov    0x8(%ebp),%eax
c010460b:	8b 40 08             	mov    0x8(%eax),%eax
c010460e:	8b 55 f4             	mov    -0xc(%ebp),%edx
c0104611:	89 10                	mov    %edx,(%eax)
c0104613:	8b 45 08             	mov    0x8(%ebp),%eax
c0104616:	8b 40 08             	mov    0x8(%eax),%eax
c0104619:	c7 40 20 ef be 00 00 	movl   $0xbeef,0x20(%eax)
c0104620:	90                   	nop
c0104621:	c9                   	leave
c0104622:	c3                   	ret

c0104623 <kill_current_process>:
c0104623:	55                   	push   %ebp
c0104624:	89 e5                	mov    %esp,%ebp
c0104626:	83 ec 08             	sub    $0x8,%esp
c0104629:	a1 b4 f0 10 c0       	mov    0xc010f0b4,%eax
c010462e:	c7 40 04 03 00 00 00 	movl   $0x3,0x4(%eax)
c0104635:	a1 b4 f0 10 c0       	mov    0xc010f0b4,%eax
c010463a:	83 ec 08             	sub    $0x8,%esp
c010463d:	50                   	push   %eax
c010463e:	68 95 7a 10 c0       	push   $0xc0107a95
c0104643:	e8 e3 e6 ff ff       	call   c0102d2b <logf>
c0104648:	83 c4 10             	add    $0x10,%esp
c010464b:	a1 b4 f0 10 c0       	mov    0xc010f0b4,%eax
c0104650:	c7 40 50 00 00 00 00 	movl   $0x0,0x50(%eax)
c0104657:	f4                   	hlt
c0104658:	eb fd                	jmp    c0104657 <kill_current_process+0x34>

c010465a <create_process>:
c010465a:	55                   	push   %ebp
c010465b:	89 e5                	mov    %esp,%ebp
c010465d:	83 ec 18             	sub    $0x18,%esp
c0104660:	fa                   	cli
c0104661:	83 ec 0c             	sub    $0xc,%esp
c0104664:	6a 54                	push   $0x54
c0104666:	e8 5b ec ff ff       	call   c01032c6 <kalloc>
c010466b:	83 c4 10             	add    $0x10,%esp
c010466e:	89 45 f4             	mov    %eax,-0xc(%ebp)
c0104671:	83 ec 08             	sub    $0x8,%esp
c0104674:	ff 75 f4             	push   -0xc(%ebp)
c0104677:	68 b0 7a 10 c0       	push   $0xc0107ab0
c010467c:	e8 aa e6 ff ff       	call   c0102d2b <logf>
c0104681:	83 c4 10             	add    $0x10,%esp
c0104684:	83 ec 04             	sub    $0x4,%esp
c0104687:	6a 00                	push   $0x0
c0104689:	6a 04                	push   $0x4
c010468b:	ff 75 f4             	push   -0xc(%ebp)
c010468e:	e8 14 eb ff ff       	call   c01031a7 <memset>
c0104693:	83 c4 10             	add    $0x10,%esp
c0104696:	83 ec 08             	sub    $0x8,%esp
c0104699:	ff 75 08             	push   0x8(%ebp)
c010469c:	68 c8 7a 10 c0       	push   $0xc0107ac8
c01046a1:	e8 85 e6 ff ff       	call   c0102d2b <logf>
c01046a6:	83 c4 10             	add    $0x10,%esp
c01046a9:	8b 45 f4             	mov    -0xc(%ebp),%eax
c01046ac:	83 c0 10             	add    $0x10,%eax
c01046af:	83 ec 04             	sub    $0x4,%esp
c01046b2:	6a 40                	push   $0x40
c01046b4:	ff 75 08             	push   0x8(%ebp)
c01046b7:	50                   	push   %eax
c01046b8:	e8 7c eb ff ff       	call   c0103239 <strncpy>
c01046bd:	83 c4 10             	add    $0x10,%esp
c01046c0:	a1 a8 f0 10 c0       	mov    0xc010f0a8,%eax
c01046c5:	8d 50 01             	lea    0x1(%eax),%edx
c01046c8:	89 15 a8 f0 10 c0    	mov    %edx,0xc010f0a8
c01046ce:	8b 55 f4             	mov    -0xc(%ebp),%edx
c01046d1:	89 02                	mov    %eax,(%edx)
c01046d3:	8b 45 f4             	mov    -0xc(%ebp),%eax
c01046d6:	8b 00                	mov    (%eax),%eax
c01046d8:	83 ec 08             	sub    $0x8,%esp
c01046db:	50                   	push   %eax
c01046dc:	68 da 7a 10 c0       	push   $0xc0107ada
c01046e1:	e8 45 e6 ff ff       	call   c0102d2b <logf>
c01046e6:	83 c4 10             	add    $0x10,%esp
c01046e9:	8b 45 f4             	mov    -0xc(%ebp),%eax
c01046ec:	c7 40 04 00 00 00 00 	movl   $0x0,0x4(%eax)
c01046f3:	83 ec 0c             	sub    $0xc,%esp
c01046f6:	6a 3c                	push   $0x3c
c01046f8:	e8 c9 eb ff ff       	call   c01032c6 <kalloc>
c01046fd:	83 c4 10             	add    $0x10,%esp
c0104700:	8b 55 f4             	mov    -0xc(%ebp),%edx
c0104703:	89 42 08             	mov    %eax,0x8(%edx)
c0104706:	8b 45 f4             	mov    -0xc(%ebp),%eax
c0104709:	8b 40 08             	mov    0x8(%eax),%eax
c010470c:	83 ec 04             	sub    $0x4,%esp
c010470f:	6a 00                	push   $0x0
c0104711:	6a 3c                	push   $0x3c
c0104713:	50                   	push   %eax
c0104714:	e8 8e ea ff ff       	call   c01031a7 <memset>
c0104719:	83 c4 10             	add    $0x10,%esp
c010471c:	83 ec 0c             	sub    $0xc,%esp
c010471f:	ff 75 f4             	push   -0xc(%ebp)
c0104722:	e8 97 fd ff ff       	call   c01044be <configure_page_directory>
c0104727:	83 c4 10             	add    $0x10,%esp
c010472a:	8b 45 f4             	mov    -0xc(%ebp),%eax
c010472d:	8b 40 08             	mov    0x8(%eax),%eax
c0104730:	c7 40 38 02 02 00 00 	movl   $0x202,0x38(%eax)
c0104737:	8b 45 f4             	mov    -0xc(%ebp),%eax
c010473a:	8b 40 08             	mov    0x8(%eax),%eax
c010473d:	c7 40 34 08 00 00 00 	movl   $0x8,0x34(%eax)
c0104744:	8b 45 f4             	mov    -0xc(%ebp),%eax
c0104747:	8b 40 08             	mov    0x8(%eax),%eax
c010474a:	8b 55 0c             	mov    0xc(%ebp),%edx
c010474d:	89 50 30             	mov    %edx,0x30(%eax)
c0104750:	8b 45 f4             	mov    -0xc(%ebp),%eax
c0104753:	c7 40 50 00 00 00 00 	movl   $0x0,0x50(%eax)
c010475a:	c7 45 f0 00 00 00 00 	movl   $0x0,-0x10(%ebp)
c0104761:	0f 20 c0             	mov    %cr0,%eax
c0104764:	89 45 f0             	mov    %eax,-0x10(%ebp)
c0104767:	8b 45 f4             	mov    -0xc(%ebp),%eax
c010476a:	8b 40 08             	mov    0x8(%eax),%eax
c010476d:	8b 55 f0             	mov    -0x10(%ebp),%edx
c0104770:	89 50 08             	mov    %edx,0x8(%eax)
c0104773:	83 7d 14 02          	cmpl   $0x2,0x14(%ebp)
c0104777:	74 0e                	je     c0104787 <create_process+0x12d>
c0104779:	83 ec 0c             	sub    $0xc,%esp
c010477c:	ff 75 f4             	push   -0xc(%ebp)
c010477f:	e8 e1 fb ff ff       	call   c0104365 <add_process>
c0104784:	83 c4 10             	add    $0x10,%esp
c0104787:	8b 45 f4             	mov    -0xc(%ebp),%eax
c010478a:	8b 40 08             	mov    0x8(%eax),%eax
c010478d:	83 ec 08             	sub    $0x8,%esp
c0104790:	50                   	push   %eax
c0104791:	68 eb 7a 10 c0       	push   $0xc0107aeb
c0104796:	e8 90 e5 ff ff       	call   c0102d2b <logf>
c010479b:	83 c4 10             	add    $0x10,%esp
c010479e:	a1 10 c0 10 c0       	mov    0xc010c010,%eax
c01047a3:	8b 00                	mov    (%eax),%eax
c01047a5:	05 fc 0f 00 00       	add    $0xffc,%eax
c01047aa:	8b 00                	mov    (%eax),%eax
c01047ac:	25 00 fc ff ff       	and    $0xfffffc00,%eax
c01047b1:	83 ec 0c             	sub    $0xc,%esp
c01047b4:	50                   	push   %eax
c01047b5:	e8 65 c8 ff ff       	call   c010101f <load_directory>
c01047ba:	83 c4 10             	add    $0x10,%esp
c01047bd:	fb                   	sti
c01047be:	8b 45 f4             	mov    -0xc(%ebp),%eax
c01047c1:	c9                   	leave
c01047c2:	c3                   	ret

c01047c3 <schedule>:
c01047c3:	55                   	push   %ebp
c01047c4:	89 e5                	mov    %esp,%ebp
c01047c6:	83 ec 08             	sub    $0x8,%esp
c01047c9:	a1 b4 f0 10 c0       	mov    0xc010f0b4,%eax
c01047ce:	85 c0                	test   %eax,%eax
c01047d0:	74 60                	je     c0104832 <schedule+0x6f>
c01047d2:	a1 b4 f0 10 c0       	mov    0xc010f0b4,%eax
c01047d7:	8b 40 08             	mov    0x8(%eax),%eax
c01047da:	83 ec 04             	sub    $0x4,%esp
c01047dd:	6a 3c                	push   $0x3c
c01047df:	ff 75 08             	push   0x8(%ebp)
c01047e2:	50                   	push   %eax
c01047e3:	e8 6c e9 ff ff       	call   c0103154 <memcpy>
c01047e8:	83 c4 10             	add    $0x10,%esp
c01047eb:	eb 45                	jmp    c0104832 <schedule+0x6f>
c01047ed:	a1 b4 f0 10 c0       	mov    0xc010f0b4,%eax
c01047f2:	8b 40 04             	mov    0x4(%eax),%eax
c01047f5:	85 c0                	test   %eax,%eax
c01047f7:	74 44                	je     c010483d <schedule+0x7a>
c01047f9:	a1 b4 f0 10 c0       	mov    0xc010f0b4,%eax
c01047fe:	8b 40 04             	mov    0x4(%eax),%eax
c0104801:	83 f8 03             	cmp    $0x3,%eax
c0104804:	75 13                	jne    c0104819 <schedule+0x56>
c0104806:	a1 b4 f0 10 c0       	mov    0xc010f0b4,%eax
c010480b:	83 ec 0c             	sub    $0xc,%esp
c010480e:	50                   	push   %eax
c010480f:	e8 e4 fb ff ff       	call   c01043f8 <delete_process>
c0104814:	83 c4 10             	add    $0x10,%esp
c0104817:	eb 0c                	jmp    c0104825 <schedule+0x62>
c0104819:	a1 b4 f0 10 c0       	mov    0xc010f0b4,%eax
c010481e:	c7 40 04 00 00 00 00 	movl   $0x0,0x4(%eax)
c0104825:	a1 b4 f0 10 c0       	mov    0xc010f0b4,%eax
c010482a:	8b 40 50             	mov    0x50(%eax),%eax
c010482d:	a3 b4 f0 10 c0       	mov    %eax,0xc010f0b4
c0104832:	a1 b4 f0 10 c0       	mov    0xc010f0b4,%eax
c0104837:	85 c0                	test   %eax,%eax
c0104839:	75 b2                	jne    c01047ed <schedule+0x2a>
c010483b:	eb 01                	jmp    c010483e <schedule+0x7b>
c010483d:	90                   	nop
c010483e:	a1 b4 f0 10 c0       	mov    0xc010f0b4,%eax
c0104843:	85 c0                	test   %eax,%eax
c0104845:	75 1f                	jne    c0104866 <schedule+0xa3>
c0104847:	a1 9c f0 10 c0       	mov    0xc010f09c,%eax
c010484c:	85 c0                	test   %eax,%eax
c010484e:	74 0c                	je     c010485c <schedule+0x99>
c0104850:	a1 9c f0 10 c0       	mov    0xc010f09c,%eax
c0104855:	a3 b4 f0 10 c0       	mov    %eax,0xc010f0b4
c010485a:	eb 0a                	jmp    c0104866 <schedule+0xa3>
c010485c:	a1 a0 f0 10 c0       	mov    0xc010f0a0,%eax
c0104861:	a3 b4 f0 10 c0       	mov    %eax,0xc010f0b4
c0104866:	a1 b4 f0 10 c0       	mov    0xc010f0b4,%eax
c010486b:	c7 40 04 01 00 00 00 	movl   $0x1,0x4(%eax)
c0104872:	a1 b4 f0 10 c0       	mov    0xc010f0b4,%eax
c0104877:	8b 40 08             	mov    0x8(%eax),%eax
c010487a:	c9                   	leave
c010487b:	c3                   	ret

c010487c <handle_schedule>:
c010487c:	55                   	push   %ebp
c010487d:	89 e5                	mov    %esp,%ebp
c010487f:	83 ec 18             	sub    $0x18,%esp
c0104882:	a1 a4 f0 10 c0       	mov    0xc010f0a4,%eax
c0104887:	85 c0                	test   %eax,%eax
c0104889:	75 15                	jne    c01048a0 <handle_schedule+0x24>
c010488b:	83 ec 0c             	sub    $0xc,%esp
c010488e:	68 09 7b 10 c0       	push   $0xc0107b09
c0104893:	e8 93 e4 ff ff       	call   c0102d2b <logf>
c0104898:	83 c4 10             	add    $0x10,%esp
c010489b:	8b 45 08             	mov    0x8(%ebp),%eax
c010489e:	eb 14                	jmp    c01048b4 <handle_schedule+0x38>
c01048a0:	83 ec 0c             	sub    $0xc,%esp
c01048a3:	ff 75 08             	push   0x8(%ebp)
c01048a6:	e8 18 ff ff ff       	call   c01047c3 <schedule>
c01048ab:	83 c4 10             	add    $0x10,%esp
c01048ae:	89 45 f4             	mov    %eax,-0xc(%ebp)
c01048b1:	8b 45 f4             	mov    -0xc(%ebp),%eax
c01048b4:	c9                   	leave
c01048b5:	c3                   	ret

c01048b6 <keycode_to_keysym>:
c01048b6:	55                   	push   %ebp
c01048b7:	89 e5                	mov    %esp,%ebp
c01048b9:	83 ec 10             	sub    $0x10,%esp
c01048bc:	0f b6 45 09          	movzbl 0x9(%ebp),%eax
c01048c0:	83 e0 04             	and    $0x4,%eax
c01048c3:	88 45 ff             	mov    %al,-0x1(%ebp)
c01048c6:	0f b6 45 08          	movzbl 0x8(%ebp),%eax
c01048ca:	0f b6 c0             	movzbl %al,%eax
c01048cd:	83 f8 45             	cmp    $0x45,%eax
c01048d0:	0f 87 cd 04 00 00    	ja     c0104da3 <keycode_to_keysym+0x4ed>
c01048d6:	8b 04 85 1c 7b 10 c0 	mov    -0x3fef84e4(,%eax,4),%eax
c01048dd:	ff e0                	jmp    *%eax
c01048df:	80 7d ff 00          	cmpb   $0x0,-0x1(%ebp)
c01048e3:	74 0a                	je     c01048ef <keycode_to_keysym+0x39>
c01048e5:	b8 41 00 00 00       	mov    $0x41,%eax
c01048ea:	e9 b9 04 00 00       	jmp    c0104da8 <keycode_to_keysym+0x4f2>
c01048ef:	b8 61 00 00 00       	mov    $0x61,%eax
c01048f4:	e9 af 04 00 00       	jmp    c0104da8 <keycode_to_keysym+0x4f2>
c01048f9:	80 7d ff 00          	cmpb   $0x0,-0x1(%ebp)
c01048fd:	74 0a                	je     c0104909 <keycode_to_keysym+0x53>
c01048ff:	b8 42 00 00 00       	mov    $0x42,%eax
c0104904:	e9 9f 04 00 00       	jmp    c0104da8 <keycode_to_keysym+0x4f2>
c0104909:	b8 62 00 00 00       	mov    $0x62,%eax
c010490e:	e9 95 04 00 00       	jmp    c0104da8 <keycode_to_keysym+0x4f2>
c0104913:	80 7d ff 00          	cmpb   $0x0,-0x1(%ebp)
c0104917:	74 0a                	je     c0104923 <keycode_to_keysym+0x6d>
c0104919:	b8 43 00 00 00       	mov    $0x43,%eax
c010491e:	e9 85 04 00 00       	jmp    c0104da8 <keycode_to_keysym+0x4f2>
c0104923:	b8 63 00 00 00       	mov    $0x63,%eax
c0104928:	e9 7b 04 00 00       	jmp    c0104da8 <keycode_to_keysym+0x4f2>
c010492d:	80 7d ff 00          	cmpb   $0x0,-0x1(%ebp)
c0104931:	74 0a                	je     c010493d <keycode_to_keysym+0x87>
c0104933:	b8 44 00 00 00       	mov    $0x44,%eax
c0104938:	e9 6b 04 00 00       	jmp    c0104da8 <keycode_to_keysym+0x4f2>
c010493d:	b8 64 00 00 00       	mov    $0x64,%eax
c0104942:	e9 61 04 00 00       	jmp    c0104da8 <keycode_to_keysym+0x4f2>
c0104947:	80 7d ff 00          	cmpb   $0x0,-0x1(%ebp)
c010494b:	74 0a                	je     c0104957 <keycode_to_keysym+0xa1>
c010494d:	b8 45 00 00 00       	mov    $0x45,%eax
c0104952:	e9 51 04 00 00       	jmp    c0104da8 <keycode_to_keysym+0x4f2>
c0104957:	b8 65 00 00 00       	mov    $0x65,%eax
c010495c:	e9 47 04 00 00       	jmp    c0104da8 <keycode_to_keysym+0x4f2>
c0104961:	80 7d ff 00          	cmpb   $0x0,-0x1(%ebp)
c0104965:	74 0a                	je     c0104971 <keycode_to_keysym+0xbb>
c0104967:	b8 46 00 00 00       	mov    $0x46,%eax
c010496c:	e9 37 04 00 00       	jmp    c0104da8 <keycode_to_keysym+0x4f2>
c0104971:	b8 66 00 00 00       	mov    $0x66,%eax
c0104976:	e9 2d 04 00 00       	jmp    c0104da8 <keycode_to_keysym+0x4f2>
c010497b:	80 7d ff 00          	cmpb   $0x0,-0x1(%ebp)
c010497f:	74 0a                	je     c010498b <keycode_to_keysym+0xd5>
c0104981:	b8 47 00 00 00       	mov    $0x47,%eax
c0104986:	e9 1d 04 00 00       	jmp    c0104da8 <keycode_to_keysym+0x4f2>
c010498b:	b8 67 00 00 00       	mov    $0x67,%eax
c0104990:	e9 13 04 00 00       	jmp    c0104da8 <keycode_to_keysym+0x4f2>
c0104995:	80 7d ff 00          	cmpb   $0x0,-0x1(%ebp)
c0104999:	74 0a                	je     c01049a5 <keycode_to_keysym+0xef>
c010499b:	b8 48 00 00 00       	mov    $0x48,%eax
c01049a0:	e9 03 04 00 00       	jmp    c0104da8 <keycode_to_keysym+0x4f2>
c01049a5:	b8 68 00 00 00       	mov    $0x68,%eax
c01049aa:	e9 f9 03 00 00       	jmp    c0104da8 <keycode_to_keysym+0x4f2>
c01049af:	80 7d ff 00          	cmpb   $0x0,-0x1(%ebp)
c01049b3:	74 0a                	je     c01049bf <keycode_to_keysym+0x109>
c01049b5:	b8 49 00 00 00       	mov    $0x49,%eax
c01049ba:	e9 e9 03 00 00       	jmp    c0104da8 <keycode_to_keysym+0x4f2>
c01049bf:	b8 69 00 00 00       	mov    $0x69,%eax
c01049c4:	e9 df 03 00 00       	jmp    c0104da8 <keycode_to_keysym+0x4f2>
c01049c9:	80 7d ff 00          	cmpb   $0x0,-0x1(%ebp)
c01049cd:	74 0a                	je     c01049d9 <keycode_to_keysym+0x123>
c01049cf:	b8 4a 00 00 00       	mov    $0x4a,%eax
c01049d4:	e9 cf 03 00 00       	jmp    c0104da8 <keycode_to_keysym+0x4f2>
c01049d9:	b8 6a 00 00 00       	mov    $0x6a,%eax
c01049de:	e9 c5 03 00 00       	jmp    c0104da8 <keycode_to_keysym+0x4f2>
c01049e3:	80 7d ff 00          	cmpb   $0x0,-0x1(%ebp)
c01049e7:	74 0a                	je     c01049f3 <keycode_to_keysym+0x13d>
c01049e9:	b8 4b 00 00 00       	mov    $0x4b,%eax
c01049ee:	e9 b5 03 00 00       	jmp    c0104da8 <keycode_to_keysym+0x4f2>
c01049f3:	b8 6b 00 00 00       	mov    $0x6b,%eax
c01049f8:	e9 ab 03 00 00       	jmp    c0104da8 <keycode_to_keysym+0x4f2>
c01049fd:	80 7d ff 00          	cmpb   $0x0,-0x1(%ebp)
c0104a01:	74 0a                	je     c0104a0d <keycode_to_keysym+0x157>
c0104a03:	b8 4c 00 00 00       	mov    $0x4c,%eax
c0104a08:	e9 9b 03 00 00       	jmp    c0104da8 <keycode_to_keysym+0x4f2>
c0104a0d:	b8 6c 00 00 00       	mov    $0x6c,%eax
c0104a12:	e9 91 03 00 00       	jmp    c0104da8 <keycode_to_keysym+0x4f2>
c0104a17:	80 7d ff 00          	cmpb   $0x0,-0x1(%ebp)
c0104a1b:	74 0a                	je     c0104a27 <keycode_to_keysym+0x171>
c0104a1d:	b8 4d 00 00 00       	mov    $0x4d,%eax
c0104a22:	e9 81 03 00 00       	jmp    c0104da8 <keycode_to_keysym+0x4f2>
c0104a27:	b8 6d 00 00 00       	mov    $0x6d,%eax
c0104a2c:	e9 77 03 00 00       	jmp    c0104da8 <keycode_to_keysym+0x4f2>
c0104a31:	80 7d ff 00          	cmpb   $0x0,-0x1(%ebp)
c0104a35:	74 0a                	je     c0104a41 <keycode_to_keysym+0x18b>
c0104a37:	b8 4e 00 00 00       	mov    $0x4e,%eax
c0104a3c:	e9 67 03 00 00       	jmp    c0104da8 <keycode_to_keysym+0x4f2>
c0104a41:	b8 6e 00 00 00       	mov    $0x6e,%eax
c0104a46:	e9 5d 03 00 00       	jmp    c0104da8 <keycode_to_keysym+0x4f2>
c0104a4b:	80 7d ff 00          	cmpb   $0x0,-0x1(%ebp)
c0104a4f:	74 0a                	je     c0104a5b <keycode_to_keysym+0x1a5>
c0104a51:	b8 4f 00 00 00       	mov    $0x4f,%eax
c0104a56:	e9 4d 03 00 00       	jmp    c0104da8 <keycode_to_keysym+0x4f2>
c0104a5b:	b8 6f 00 00 00       	mov    $0x6f,%eax
c0104a60:	e9 43 03 00 00       	jmp    c0104da8 <keycode_to_keysym+0x4f2>
c0104a65:	80 7d ff 00          	cmpb   $0x0,-0x1(%ebp)
c0104a69:	74 0a                	je     c0104a75 <keycode_to_keysym+0x1bf>
c0104a6b:	b8 50 00 00 00       	mov    $0x50,%eax
c0104a70:	e9 33 03 00 00       	jmp    c0104da8 <keycode_to_keysym+0x4f2>
c0104a75:	b8 70 00 00 00       	mov    $0x70,%eax
c0104a7a:	e9 29 03 00 00       	jmp    c0104da8 <keycode_to_keysym+0x4f2>
c0104a7f:	80 7d ff 00          	cmpb   $0x0,-0x1(%ebp)
c0104a83:	74 0a                	je     c0104a8f <keycode_to_keysym+0x1d9>
c0104a85:	b8 51 00 00 00       	mov    $0x51,%eax
c0104a8a:	e9 19 03 00 00       	jmp    c0104da8 <keycode_to_keysym+0x4f2>
c0104a8f:	b8 71 00 00 00       	mov    $0x71,%eax
c0104a94:	e9 0f 03 00 00       	jmp    c0104da8 <keycode_to_keysym+0x4f2>
c0104a99:	80 7d ff 00          	cmpb   $0x0,-0x1(%ebp)
c0104a9d:	74 0a                	je     c0104aa9 <keycode_to_keysym+0x1f3>
c0104a9f:	b8 52 00 00 00       	mov    $0x52,%eax
c0104aa4:	e9 ff 02 00 00       	jmp    c0104da8 <keycode_to_keysym+0x4f2>
c0104aa9:	b8 72 00 00 00       	mov    $0x72,%eax
c0104aae:	e9 f5 02 00 00       	jmp    c0104da8 <keycode_to_keysym+0x4f2>
c0104ab3:	80 7d ff 00          	cmpb   $0x0,-0x1(%ebp)
c0104ab7:	74 0a                	je     c0104ac3 <keycode_to_keysym+0x20d>
c0104ab9:	b8 53 00 00 00       	mov    $0x53,%eax
c0104abe:	e9 e5 02 00 00       	jmp    c0104da8 <keycode_to_keysym+0x4f2>
c0104ac3:	b8 73 00 00 00       	mov    $0x73,%eax
c0104ac8:	e9 db 02 00 00       	jmp    c0104da8 <keycode_to_keysym+0x4f2>
c0104acd:	80 7d ff 00          	cmpb   $0x0,-0x1(%ebp)
c0104ad1:	74 0a                	je     c0104add <keycode_to_keysym+0x227>
c0104ad3:	b8 54 00 00 00       	mov    $0x54,%eax
c0104ad8:	e9 cb 02 00 00       	jmp    c0104da8 <keycode_to_keysym+0x4f2>
c0104add:	b8 74 00 00 00       	mov    $0x74,%eax
c0104ae2:	e9 c1 02 00 00       	jmp    c0104da8 <keycode_to_keysym+0x4f2>
c0104ae7:	80 7d ff 00          	cmpb   $0x0,-0x1(%ebp)
c0104aeb:	74 0a                	je     c0104af7 <keycode_to_keysym+0x241>
c0104aed:	b8 55 00 00 00       	mov    $0x55,%eax
c0104af2:	e9 b1 02 00 00       	jmp    c0104da8 <keycode_to_keysym+0x4f2>
c0104af7:	b8 75 00 00 00       	mov    $0x75,%eax
c0104afc:	e9 a7 02 00 00       	jmp    c0104da8 <keycode_to_keysym+0x4f2>
c0104b01:	80 7d ff 00          	cmpb   $0x0,-0x1(%ebp)
c0104b05:	74 0a                	je     c0104b11 <keycode_to_keysym+0x25b>
c0104b07:	b8 56 00 00 00       	mov    $0x56,%eax
c0104b0c:	e9 97 02 00 00       	jmp    c0104da8 <keycode_to_keysym+0x4f2>
c0104b11:	b8 76 00 00 00       	mov    $0x76,%eax
c0104b16:	e9 8d 02 00 00       	jmp    c0104da8 <keycode_to_keysym+0x4f2>
c0104b1b:	80 7d ff 00          	cmpb   $0x0,-0x1(%ebp)
c0104b1f:	74 0a                	je     c0104b2b <keycode_to_keysym+0x275>
c0104b21:	b8 57 00 00 00       	mov    $0x57,%eax
c0104b26:	e9 7d 02 00 00       	jmp    c0104da8 <keycode_to_keysym+0x4f2>
c0104b2b:	b8 77 00 00 00       	mov    $0x77,%eax
c0104b30:	e9 73 02 00 00       	jmp    c0104da8 <keycode_to_keysym+0x4f2>
c0104b35:	80 7d ff 00          	cmpb   $0x0,-0x1(%ebp)
c0104b39:	74 0a                	je     c0104b45 <keycode_to_keysym+0x28f>
c0104b3b:	b8 58 00 00 00       	mov    $0x58,%eax
c0104b40:	e9 63 02 00 00       	jmp    c0104da8 <keycode_to_keysym+0x4f2>
c0104b45:	b8 78 00 00 00       	mov    $0x78,%eax
c0104b4a:	e9 59 02 00 00       	jmp    c0104da8 <keycode_to_keysym+0x4f2>
c0104b4f:	80 7d ff 00          	cmpb   $0x0,-0x1(%ebp)
c0104b53:	74 0a                	je     c0104b5f <keycode_to_keysym+0x2a9>
c0104b55:	b8 59 00 00 00       	mov    $0x59,%eax
c0104b5a:	e9 49 02 00 00       	jmp    c0104da8 <keycode_to_keysym+0x4f2>
c0104b5f:	b8 79 00 00 00       	mov    $0x79,%eax
c0104b64:	e9 3f 02 00 00       	jmp    c0104da8 <keycode_to_keysym+0x4f2>
c0104b69:	80 7d ff 00          	cmpb   $0x0,-0x1(%ebp)
c0104b6d:	74 0a                	je     c0104b79 <keycode_to_keysym+0x2c3>
c0104b6f:	b8 5a 00 00 00       	mov    $0x5a,%eax
c0104b74:	e9 2f 02 00 00       	jmp    c0104da8 <keycode_to_keysym+0x4f2>
c0104b79:	b8 7a 00 00 00       	mov    $0x7a,%eax
c0104b7e:	e9 25 02 00 00       	jmp    c0104da8 <keycode_to_keysym+0x4f2>
c0104b83:	80 7d ff 00          	cmpb   $0x0,-0x1(%ebp)
c0104b87:	74 0a                	je     c0104b93 <keycode_to_keysym+0x2dd>
c0104b89:	b8 21 00 00 00       	mov    $0x21,%eax
c0104b8e:	e9 15 02 00 00       	jmp    c0104da8 <keycode_to_keysym+0x4f2>
c0104b93:	b8 31 00 00 00       	mov    $0x31,%eax
c0104b98:	e9 0b 02 00 00       	jmp    c0104da8 <keycode_to_keysym+0x4f2>
c0104b9d:	80 7d ff 00          	cmpb   $0x0,-0x1(%ebp)
c0104ba1:	74 0a                	je     c0104bad <keycode_to_keysym+0x2f7>
c0104ba3:	b8 40 00 00 00       	mov    $0x40,%eax
c0104ba8:	e9 fb 01 00 00       	jmp    c0104da8 <keycode_to_keysym+0x4f2>
c0104bad:	b8 32 00 00 00       	mov    $0x32,%eax
c0104bb2:	e9 f1 01 00 00       	jmp    c0104da8 <keycode_to_keysym+0x4f2>
c0104bb7:	80 7d ff 00          	cmpb   $0x0,-0x1(%ebp)
c0104bbb:	74 0a                	je     c0104bc7 <keycode_to_keysym+0x311>
c0104bbd:	b8 23 00 00 00       	mov    $0x23,%eax
c0104bc2:	e9 e1 01 00 00       	jmp    c0104da8 <keycode_to_keysym+0x4f2>
c0104bc7:	b8 33 00 00 00       	mov    $0x33,%eax
c0104bcc:	e9 d7 01 00 00       	jmp    c0104da8 <keycode_to_keysym+0x4f2>
c0104bd1:	80 7d ff 00          	cmpb   $0x0,-0x1(%ebp)
c0104bd5:	74 0a                	je     c0104be1 <keycode_to_keysym+0x32b>
c0104bd7:	b8 24 00 00 00       	mov    $0x24,%eax
c0104bdc:	e9 c7 01 00 00       	jmp    c0104da8 <keycode_to_keysym+0x4f2>
c0104be1:	b8 34 00 00 00       	mov    $0x34,%eax
c0104be6:	e9 bd 01 00 00       	jmp    c0104da8 <keycode_to_keysym+0x4f2>
c0104beb:	80 7d ff 00          	cmpb   $0x0,-0x1(%ebp)
c0104bef:	74 0a                	je     c0104bfb <keycode_to_keysym+0x345>
c0104bf1:	b8 25 00 00 00       	mov    $0x25,%eax
c0104bf6:	e9 ad 01 00 00       	jmp    c0104da8 <keycode_to_keysym+0x4f2>
c0104bfb:	b8 35 00 00 00       	mov    $0x35,%eax
c0104c00:	e9 a3 01 00 00       	jmp    c0104da8 <keycode_to_keysym+0x4f2>
c0104c05:	80 7d ff 00          	cmpb   $0x0,-0x1(%ebp)
c0104c09:	74 0a                	je     c0104c15 <keycode_to_keysym+0x35f>
c0104c0b:	b8 5e 00 00 00       	mov    $0x5e,%eax
c0104c10:	e9 93 01 00 00       	jmp    c0104da8 <keycode_to_keysym+0x4f2>
c0104c15:	b8 36 00 00 00       	mov    $0x36,%eax
c0104c1a:	e9 89 01 00 00       	jmp    c0104da8 <keycode_to_keysym+0x4f2>
c0104c1f:	80 7d ff 00          	cmpb   $0x0,-0x1(%ebp)
c0104c23:	74 0a                	je     c0104c2f <keycode_to_keysym+0x379>
c0104c25:	b8 26 00 00 00       	mov    $0x26,%eax
c0104c2a:	e9 79 01 00 00       	jmp    c0104da8 <keycode_to_keysym+0x4f2>
c0104c2f:	b8 37 00 00 00       	mov    $0x37,%eax
c0104c34:	e9 6f 01 00 00       	jmp    c0104da8 <keycode_to_keysym+0x4f2>
c0104c39:	80 7d ff 00          	cmpb   $0x0,-0x1(%ebp)
c0104c3d:	74 0a                	je     c0104c49 <keycode_to_keysym+0x393>
c0104c3f:	b8 2a 00 00 00       	mov    $0x2a,%eax
c0104c44:	e9 5f 01 00 00       	jmp    c0104da8 <keycode_to_keysym+0x4f2>
c0104c49:	b8 38 00 00 00       	mov    $0x38,%eax
c0104c4e:	e9 55 01 00 00       	jmp    c0104da8 <keycode_to_keysym+0x4f2>
c0104c53:	80 7d ff 00          	cmpb   $0x0,-0x1(%ebp)
c0104c57:	74 0a                	je     c0104c63 <keycode_to_keysym+0x3ad>
c0104c59:	b8 28 00 00 00       	mov    $0x28,%eax
c0104c5e:	e9 45 01 00 00       	jmp    c0104da8 <keycode_to_keysym+0x4f2>
c0104c63:	b8 39 00 00 00       	mov    $0x39,%eax
c0104c68:	e9 3b 01 00 00       	jmp    c0104da8 <keycode_to_keysym+0x4f2>
c0104c6d:	80 7d ff 00          	cmpb   $0x0,-0x1(%ebp)
c0104c71:	74 0a                	je     c0104c7d <keycode_to_keysym+0x3c7>
c0104c73:	b8 29 00 00 00       	mov    $0x29,%eax
c0104c78:	e9 2b 01 00 00       	jmp    c0104da8 <keycode_to_keysym+0x4f2>
c0104c7d:	b8 30 00 00 00       	mov    $0x30,%eax
c0104c82:	e9 21 01 00 00       	jmp    c0104da8 <keycode_to_keysym+0x4f2>
c0104c87:	80 7d ff 00          	cmpb   $0x0,-0x1(%ebp)
c0104c8b:	74 0a                	je     c0104c97 <keycode_to_keysym+0x3e1>
c0104c8d:	b8 7b 00 00 00       	mov    $0x7b,%eax
c0104c92:	e9 11 01 00 00       	jmp    c0104da8 <keycode_to_keysym+0x4f2>
c0104c97:	b8 5b 00 00 00       	mov    $0x5b,%eax
c0104c9c:	e9 07 01 00 00       	jmp    c0104da8 <keycode_to_keysym+0x4f2>
c0104ca1:	80 7d ff 00          	cmpb   $0x0,-0x1(%ebp)
c0104ca5:	74 0a                	je     c0104cb1 <keycode_to_keysym+0x3fb>
c0104ca7:	b8 7d 00 00 00       	mov    $0x7d,%eax
c0104cac:	e9 f7 00 00 00       	jmp    c0104da8 <keycode_to_keysym+0x4f2>
c0104cb1:	b8 5d 00 00 00       	mov    $0x5d,%eax
c0104cb6:	e9 ed 00 00 00       	jmp    c0104da8 <keycode_to_keysym+0x4f2>
c0104cbb:	80 7d ff 00          	cmpb   $0x0,-0x1(%ebp)
c0104cbf:	74 0a                	je     c0104ccb <keycode_to_keysym+0x415>
c0104cc1:	b8 3f 00 00 00       	mov    $0x3f,%eax
c0104cc6:	e9 dd 00 00 00       	jmp    c0104da8 <keycode_to_keysym+0x4f2>
c0104ccb:	b8 2f 00 00 00       	mov    $0x2f,%eax
c0104cd0:	e9 d3 00 00 00       	jmp    c0104da8 <keycode_to_keysym+0x4f2>
c0104cd5:	80 7d ff 00          	cmpb   $0x0,-0x1(%ebp)
c0104cd9:	74 0a                	je     c0104ce5 <keycode_to_keysym+0x42f>
c0104cdb:	b8 7c 00 00 00       	mov    $0x7c,%eax
c0104ce0:	e9 c3 00 00 00       	jmp    c0104da8 <keycode_to_keysym+0x4f2>
c0104ce5:	b8 5c 00 00 00       	mov    $0x5c,%eax
c0104cea:	e9 b9 00 00 00       	jmp    c0104da8 <keycode_to_keysym+0x4f2>
c0104cef:	80 7d ff 00          	cmpb   $0x0,-0x1(%ebp)
c0104cf3:	74 0a                	je     c0104cff <keycode_to_keysym+0x449>
c0104cf5:	b8 22 00 00 00       	mov    $0x22,%eax
c0104cfa:	e9 a9 00 00 00       	jmp    c0104da8 <keycode_to_keysym+0x4f2>
c0104cff:	b8 27 00 00 00       	mov    $0x27,%eax
c0104d04:	e9 9f 00 00 00       	jmp    c0104da8 <keycode_to_keysym+0x4f2>
c0104d09:	80 7d ff 00          	cmpb   $0x0,-0x1(%ebp)
c0104d0d:	74 0a                	je     c0104d19 <keycode_to_keysym+0x463>
c0104d0f:	b8 3a 00 00 00       	mov    $0x3a,%eax
c0104d14:	e9 8f 00 00 00       	jmp    c0104da8 <keycode_to_keysym+0x4f2>
c0104d19:	b8 3b 00 00 00       	mov    $0x3b,%eax
c0104d1e:	e9 85 00 00 00       	jmp    c0104da8 <keycode_to_keysym+0x4f2>
c0104d23:	80 7d ff 00          	cmpb   $0x0,-0x1(%ebp)
c0104d27:	74 07                	je     c0104d30 <keycode_to_keysym+0x47a>
c0104d29:	b8 3e 00 00 00       	mov    $0x3e,%eax
c0104d2e:	eb 78                	jmp    c0104da8 <keycode_to_keysym+0x4f2>
c0104d30:	b8 2e 00 00 00       	mov    $0x2e,%eax
c0104d35:	eb 71                	jmp    c0104da8 <keycode_to_keysym+0x4f2>
c0104d37:	80 7d ff 00          	cmpb   $0x0,-0x1(%ebp)
c0104d3b:	74 07                	je     c0104d44 <keycode_to_keysym+0x48e>
c0104d3d:	b8 3c 00 00 00       	mov    $0x3c,%eax
c0104d42:	eb 64                	jmp    c0104da8 <keycode_to_keysym+0x4f2>
c0104d44:	b8 2c 00 00 00       	mov    $0x2c,%eax
c0104d49:	eb 5d                	jmp    c0104da8 <keycode_to_keysym+0x4f2>
c0104d4b:	80 7d ff 00          	cmpb   $0x0,-0x1(%ebp)
c0104d4f:	74 07                	je     c0104d58 <keycode_to_keysym+0x4a2>
c0104d51:	b8 2b 00 00 00       	mov    $0x2b,%eax
c0104d56:	eb 50                	jmp    c0104da8 <keycode_to_keysym+0x4f2>
c0104d58:	b8 3d 00 00 00       	mov    $0x3d,%eax
c0104d5d:	eb 49                	jmp    c0104da8 <keycode_to_keysym+0x4f2>
c0104d5f:	80 7d ff 00          	cmpb   $0x0,-0x1(%ebp)
c0104d63:	74 07                	je     c0104d6c <keycode_to_keysym+0x4b6>
c0104d65:	b8 5f 00 00 00       	mov    $0x5f,%eax
c0104d6a:	eb 3c                	jmp    c0104da8 <keycode_to_keysym+0x4f2>
c0104d6c:	b8 2d 00 00 00       	mov    $0x2d,%eax
c0104d71:	eb 35                	jmp    c0104da8 <keycode_to_keysym+0x4f2>
c0104d73:	80 7d ff 00          	cmpb   $0x0,-0x1(%ebp)
c0104d77:	74 07                	je     c0104d80 <keycode_to_keysym+0x4ca>
c0104d79:	b8 7e 00 00 00       	mov    $0x7e,%eax
c0104d7e:	eb 28                	jmp    c0104da8 <keycode_to_keysym+0x4f2>
c0104d80:	b8 60 00 00 00       	mov    $0x60,%eax
c0104d85:	eb 21                	jmp    c0104da8 <keycode_to_keysym+0x4f2>
c0104d87:	b8 20 00 00 00       	mov    $0x20,%eax
c0104d8c:	eb 1a                	jmp    c0104da8 <keycode_to_keysym+0x4f2>
c0104d8e:	b8 09 00 00 00       	mov    $0x9,%eax
c0104d93:	eb 13                	jmp    c0104da8 <keycode_to_keysym+0x4f2>
c0104d95:	b8 08 00 00 00       	mov    $0x8,%eax
c0104d9a:	eb 0c                	jmp    c0104da8 <keycode_to_keysym+0x4f2>
c0104d9c:	b8 0a 00 00 00       	mov    $0xa,%eax
c0104da1:	eb 05                	jmp    c0104da8 <keycode_to_keysym+0x4f2>
c0104da3:	b8 00 00 00 00       	mov    $0x0,%eax
c0104da8:	c9                   	leave
c0104da9:	c3                   	ret

c0104daa <scroll_text_buffer_down>:
c0104daa:	55                   	push   %ebp
c0104dab:	89 e5                	mov    %esp,%ebp
c0104dad:	83 ec 18             	sub    $0x18,%esp
c0104db0:	c7 45 f4 00 00 00 00 	movl   $0x0,-0xc(%ebp)
c0104db7:	c7 45 f0 00 00 00 00 	movl   $0x0,-0x10(%ebp)
c0104dbe:	eb 21                	jmp    c0104de1 <scroll_text_buffer_down+0x37>
c0104dc0:	8b 15 bc f0 10 c0    	mov    0xc010f0bc,%edx
c0104dc6:	8b 45 f0             	mov    -0x10(%ebp),%eax
c0104dc9:	01 d0                	add    %edx,%eax
c0104dcb:	0f b6 00             	movzbl (%eax),%eax
c0104dce:	3c 0a                	cmp    $0xa,%al
c0104dd0:	75 0b                	jne    c0104ddd <scroll_text_buffer_down+0x33>
c0104dd2:	8b 45 f0             	mov    -0x10(%ebp),%eax
c0104dd5:	83 c0 01             	add    $0x1,%eax
c0104dd8:	89 45 f4             	mov    %eax,-0xc(%ebp)
c0104ddb:	eb 0e                	jmp    c0104deb <scroll_text_buffer_down+0x41>
c0104ddd:	83 45 f0 01          	addl   $0x1,-0x10(%ebp)
c0104de1:	a1 c8 f0 10 c0       	mov    0xc010f0c8,%eax
c0104de6:	39 45 f0             	cmp    %eax,-0x10(%ebp)
c0104de9:	7c d5                	jl     c0104dc0 <scroll_text_buffer_down+0x16>
c0104deb:	83 ec 08             	sub    $0x8,%esp
c0104dee:	ff 75 f4             	push   -0xc(%ebp)
c0104df1:	68 34 7c 10 c0       	push   $0xc0107c34
c0104df6:	e8 30 df ff ff       	call   c0102d2b <logf>
c0104dfb:	83 c4 10             	add    $0x10,%esp
c0104dfe:	c7 45 ec 00 00 00 00 	movl   $0x0,-0x14(%ebp)
c0104e05:	eb 39                	jmp    c0104e40 <scroll_text_buffer_down+0x96>
c0104e07:	a1 bc f0 10 c0       	mov    0xc010f0bc,%eax
c0104e0c:	8b 4d ec             	mov    -0x14(%ebp),%ecx
c0104e0f:	8b 55 f4             	mov    -0xc(%ebp),%edx
c0104e12:	01 ca                	add    %ecx,%edx
c0104e14:	01 d0                	add    %edx,%eax
c0104e16:	0f b6 00             	movzbl (%eax),%eax
c0104e19:	84 c0                	test   %al,%al
c0104e1b:	74 40                	je     c0104e5d <scroll_text_buffer_down+0xb3>
c0104e1d:	a1 bc f0 10 c0       	mov    0xc010f0bc,%eax
c0104e22:	8b 4d ec             	mov    -0x14(%ebp),%ecx
c0104e25:	8b 55 f4             	mov    -0xc(%ebp),%edx
c0104e28:	01 ca                	add    %ecx,%edx
c0104e2a:	01 d0                	add    %edx,%eax
c0104e2c:	8b 0d bc f0 10 c0    	mov    0xc010f0bc,%ecx
c0104e32:	8b 55 ec             	mov    -0x14(%ebp),%edx
c0104e35:	01 ca                	add    %ecx,%edx
c0104e37:	0f b6 00             	movzbl (%eax),%eax
c0104e3a:	88 02                	mov    %al,(%edx)
c0104e3c:	83 45 ec 01          	addl   $0x1,-0x14(%ebp)
c0104e40:	8b 55 ec             	mov    -0x14(%ebp),%edx
c0104e43:	8b 45 f4             	mov    -0xc(%ebp),%eax
c0104e46:	8d 0c 02             	lea    (%edx,%eax,1),%ecx
c0104e49:	8b 15 c8 f0 10 c0    	mov    0xc010f0c8,%edx
c0104e4f:	a1 cc f0 10 c0       	mov    0xc010f0cc,%eax
c0104e54:	0f af c2             	imul   %edx,%eax
c0104e57:	39 c1                	cmp    %eax,%ecx
c0104e59:	7c ac                	jl     c0104e07 <scroll_text_buffer_down+0x5d>
c0104e5b:	eb 01                	jmp    c0104e5e <scroll_text_buffer_down+0xb4>
c0104e5d:	90                   	nop
c0104e5e:	83 ec 08             	sub    $0x8,%esp
c0104e61:	ff 75 ec             	push   -0x14(%ebp)
c0104e64:	68 47 7c 10 c0       	push   $0xc0107c47
c0104e69:	e8 bd de ff ff       	call   c0102d2b <logf>
c0104e6e:	83 c4 10             	add    $0x10,%esp
c0104e71:	c7 45 e8 00 00 00 00 	movl   $0x0,-0x18(%ebp)
c0104e78:	eb 16                	jmp    c0104e90 <scroll_text_buffer_down+0xe6>
c0104e7a:	a1 bc f0 10 c0       	mov    0xc010f0bc,%eax
c0104e7f:	8b 4d ec             	mov    -0x14(%ebp),%ecx
c0104e82:	8b 55 e8             	mov    -0x18(%ebp),%edx
c0104e85:	01 ca                	add    %ecx,%edx
c0104e87:	01 d0                	add    %edx,%eax
c0104e89:	c6 00 00             	movb   $0x0,(%eax)
c0104e8c:	83 45 e8 01          	addl   $0x1,-0x18(%ebp)
c0104e90:	a1 bc f0 10 c0       	mov    0xc010f0bc,%eax
c0104e95:	8b 4d ec             	mov    -0x14(%ebp),%ecx
c0104e98:	8b 55 e8             	mov    -0x18(%ebp),%edx
c0104e9b:	01 ca                	add    %ecx,%edx
c0104e9d:	01 d0                	add    %edx,%eax
c0104e9f:	0f b6 00             	movzbl (%eax),%eax
c0104ea2:	84 c0                	test   %al,%al
c0104ea4:	75 d4                	jne    c0104e7a <scroll_text_buffer_down+0xd0>
c0104ea6:	0f b7 05 c6 f0 10 c0 	movzwl 0xc010f0c6,%eax
c0104ead:	83 e8 01             	sub    $0x1,%eax
c0104eb0:	66 a3 c6 f0 10 c0    	mov    %ax,0xc010f0c6
c0104eb6:	0f b7 05 c4 f0 10 c0 	movzwl 0xc010f0c4,%eax
c0104ebd:	8b 55 f4             	mov    -0xc(%ebp),%edx
c0104ec0:	29 d0                	sub    %edx,%eax
c0104ec2:	66 a3 c4 f0 10 c0    	mov    %ax,0xc010f0c4
c0104ec8:	90                   	nop
c0104ec9:	c9                   	leave
c0104eca:	c3                   	ret

c0104ecb <write_text_buffer>:
c0104ecb:	55                   	push   %ebp
c0104ecc:	89 e5                	mov    %esp,%ebp
c0104ece:	83 ec 18             	sub    $0x18,%esp
c0104ed1:	8b 15 c8 f0 10 c0    	mov    0xc010f0c8,%edx
c0104ed7:	a1 cc f0 10 c0       	mov    0xc010f0cc,%eax
c0104edc:	0f af c2             	imul   %edx,%eax
c0104edf:	89 45 f4             	mov    %eax,-0xc(%ebp)
c0104ee2:	eb 60                	jmp    c0104f44 <write_text_buffer+0x79>
c0104ee4:	8b 45 08             	mov    0x8(%ebp),%eax
c0104ee7:	0f b6 00             	movzbl (%eax),%eax
c0104eea:	3c 0a                	cmp    $0xa,%al
c0104eec:	75 10                	jne    c0104efe <write_text_buffer+0x33>
c0104eee:	0f b7 05 c6 f0 10 c0 	movzwl 0xc010f0c6,%eax
c0104ef5:	83 c0 01             	add    $0x1,%eax
c0104ef8:	66 a3 c6 f0 10 c0    	mov    %ax,0xc010f0c6
c0104efe:	0f b7 05 c6 f0 10 c0 	movzwl 0xc010f0c6,%eax
c0104f05:	0f b7 d0             	movzwl %ax,%edx
c0104f08:	a1 cc f0 10 c0       	mov    0xc010f0cc,%eax
c0104f0d:	39 c2                	cmp    %eax,%edx
c0104f0f:	7e 05                	jle    c0104f16 <write_text_buffer+0x4b>
c0104f11:	e8 94 fe ff ff       	call   c0104daa <scroll_text_buffer_down>
c0104f16:	8b 15 bc f0 10 c0    	mov    0xc010f0bc,%edx
c0104f1c:	0f b7 05 c4 f0 10 c0 	movzwl 0xc010f0c4,%eax
c0104f23:	0f b7 c0             	movzwl %ax,%eax
c0104f26:	01 c2                	add    %eax,%edx
c0104f28:	8b 45 08             	mov    0x8(%ebp),%eax
c0104f2b:	0f b6 00             	movzbl (%eax),%eax
c0104f2e:	88 02                	mov    %al,(%edx)
c0104f30:	83 45 08 01          	addl   $0x1,0x8(%ebp)
c0104f34:	0f b7 05 c4 f0 10 c0 	movzwl 0xc010f0c4,%eax
c0104f3b:	83 c0 01             	add    $0x1,%eax
c0104f3e:	66 a3 c4 f0 10 c0    	mov    %ax,0xc010f0c4
c0104f44:	8b 45 08             	mov    0x8(%ebp),%eax
c0104f47:	0f b6 00             	movzbl (%eax),%eax
c0104f4a:	84 c0                	test   %al,%al
c0104f4c:	75 96                	jne    c0104ee4 <write_text_buffer+0x19>
c0104f4e:	90                   	nop
c0104f4f:	90                   	nop
c0104f50:	c9                   	leave
c0104f51:	c3                   	ret

c0104f52 <write_char_text_buffer>:
c0104f52:	55                   	push   %ebp
c0104f53:	89 e5                	mov    %esp,%ebp
c0104f55:	83 ec 28             	sub    $0x28,%esp
c0104f58:	8b 45 08             	mov    0x8(%ebp),%eax
c0104f5b:	88 45 e4             	mov    %al,-0x1c(%ebp)
c0104f5e:	8b 15 c8 f0 10 c0    	mov    0xc010f0c8,%edx
c0104f64:	a1 cc f0 10 c0       	mov    0xc010f0cc,%eax
c0104f69:	0f af c2             	imul   %edx,%eax
c0104f6c:	89 45 f4             	mov    %eax,-0xc(%ebp)
c0104f6f:	80 7d e4 0a          	cmpb   $0xa,-0x1c(%ebp)
c0104f73:	75 10                	jne    c0104f85 <write_char_text_buffer+0x33>
c0104f75:	0f b7 05 c6 f0 10 c0 	movzwl 0xc010f0c6,%eax
c0104f7c:	83 c0 01             	add    $0x1,%eax
c0104f7f:	66 a3 c6 f0 10 c0    	mov    %ax,0xc010f0c6
c0104f85:	0f b7 05 c6 f0 10 c0 	movzwl 0xc010f0c6,%eax
c0104f8c:	0f b7 d0             	movzwl %ax,%edx
c0104f8f:	a1 cc f0 10 c0       	mov    0xc010f0cc,%eax
c0104f94:	39 c2                	cmp    %eax,%edx
c0104f96:	7c 05                	jl     c0104f9d <write_char_text_buffer+0x4b>
c0104f98:	e8 0d fe ff ff       	call   c0104daa <scroll_text_buffer_down>
c0104f9d:	8b 15 bc f0 10 c0    	mov    0xc010f0bc,%edx
c0104fa3:	0f b7 05 c4 f0 10 c0 	movzwl 0xc010f0c4,%eax
c0104faa:	0f b7 c0             	movzwl %ax,%eax
c0104fad:	01 c2                	add    %eax,%edx
c0104faf:	0f b6 45 e4          	movzbl -0x1c(%ebp),%eax
c0104fb3:	88 02                	mov    %al,(%edx)
c0104fb5:	0f b7 05 c4 f0 10 c0 	movzwl 0xc010f0c4,%eax
c0104fbc:	83 c0 01             	add    $0x1,%eax
c0104fbf:	66 a3 c4 f0 10 c0    	mov    %ax,0xc010f0c4
c0104fc5:	90                   	nop
c0104fc6:	c9                   	leave
c0104fc7:	c3                   	ret

c0104fc8 <single_shtoi>:
c0104fc8:	55                   	push   %ebp
c0104fc9:	89 e5                	mov    %esp,%ebp
c0104fcb:	83 ec 04             	sub    $0x4,%esp
c0104fce:	8b 45 08             	mov    0x8(%ebp),%eax
c0104fd1:	88 45 fc             	mov    %al,-0x4(%ebp)
c0104fd4:	80 7d fc 2f          	cmpb   $0x2f,-0x4(%ebp)
c0104fd8:	7e 0f                	jle    c0104fe9 <single_shtoi+0x21>
c0104fda:	80 7d fc 39          	cmpb   $0x39,-0x4(%ebp)
c0104fde:	7f 09                	jg     c0104fe9 <single_shtoi+0x21>
c0104fe0:	0f be 45 fc          	movsbl -0x4(%ebp),%eax
c0104fe4:	83 e8 30             	sub    $0x30,%eax
c0104fe7:	eb 1a                	jmp    c0105003 <single_shtoi+0x3b>
c0104fe9:	80 7d fc 60          	cmpb   $0x60,-0x4(%ebp)
c0104fed:	7e 0f                	jle    c0104ffe <single_shtoi+0x36>
c0104fef:	80 7d fc 66          	cmpb   $0x66,-0x4(%ebp)
c0104ff3:	7f 09                	jg     c0104ffe <single_shtoi+0x36>
c0104ff5:	0f be 45 fc          	movsbl -0x4(%ebp),%eax
c0104ff9:	83 e8 57             	sub    $0x57,%eax
c0104ffc:	eb 05                	jmp    c0105003 <single_shtoi+0x3b>
c0104ffe:	b8 ff ff ff ff       	mov    $0xffffffff,%eax
c0105003:	c9                   	leave
c0105004:	c3                   	ret

c0105005 <parse_color>:
c0105005:	55                   	push   %ebp
c0105006:	89 e5                	mov    %esp,%ebp
c0105008:	57                   	push   %edi
c0105009:	83 ec 50             	sub    $0x50,%esp
c010500c:	8d 55 b4             	lea    -0x4c(%ebp),%edx
c010500f:	b8 00 00 00 00       	mov    $0x0,%eax
c0105014:	b9 10 00 00 00       	mov    $0x10,%ecx
c0105019:	89 d7                	mov    %edx,%edi
c010501b:	f3 ab                	rep stos %eax,%es:(%edi)
c010501d:	c7 45 b8 00 ff ff ff 	movl   $0xffffff00,-0x48(%ebp)
c0105024:	c7 45 bc 00 00 00 ff 	movl   $0xff000000,-0x44(%ebp)
c010502b:	c7 45 c0 00 00 ff 00 	movl   $0xff0000,-0x40(%ebp)
c0105032:	c7 45 c4 00 ff 00 00 	movl   $0xff00,-0x3c(%ebp)
c0105039:	c7 45 c8 00 00 a0 c4 	movl   $0xc4a00000,-0x38(%ebp)
c0105040:	c7 45 cc 00 7b 50 75 	movl   $0x75507b00,-0x34(%ebp)
c0105047:	c7 45 d0 00 9a 98 06 	movl   $0x6989a00,-0x30(%ebp)
c010504e:	83 45 0c 01          	addl   $0x1,0xc(%ebp)
c0105052:	8b 55 0c             	mov    0xc(%ebp),%edx
c0105055:	8b 45 08             	mov    0x8(%ebp),%eax
c0105058:	01 d0                	add    %edx,%eax
c010505a:	0f b6 00             	movzbl (%eax),%eax
c010505d:	0f be c0             	movsbl %al,%eax
c0105060:	50                   	push   %eax
c0105061:	e8 62 ff ff ff       	call   c0104fc8 <single_shtoi>
c0105066:	83 c4 04             	add    $0x4,%esp
c0105069:	89 45 f8             	mov    %eax,-0x8(%ebp)
c010506c:	83 45 0c 01          	addl   $0x1,0xc(%ebp)
c0105070:	8b 55 0c             	mov    0xc(%ebp),%edx
c0105073:	8b 45 08             	mov    0x8(%ebp),%eax
c0105076:	01 d0                	add    %edx,%eax
c0105078:	0f b6 00             	movzbl (%eax),%eax
c010507b:	0f be c0             	movsbl %al,%eax
c010507e:	50                   	push   %eax
c010507f:	e8 44 ff ff ff       	call   c0104fc8 <single_shtoi>
c0105084:	83 c4 04             	add    $0x4,%esp
c0105087:	89 45 f4             	mov    %eax,-0xc(%ebp)
c010508a:	8b 45 f8             	mov    -0x8(%ebp),%eax
c010508d:	8b 44 85 b4          	mov    -0x4c(%ebp,%eax,4),%eax
c0105091:	a3 88 81 10 c0       	mov    %eax,0xc0108188
c0105096:	8b 45 f4             	mov    -0xc(%ebp),%eax
c0105099:	8b 44 85 b4          	mov    -0x4c(%ebp,%eax,4),%eax
c010509d:	a3 d0 f0 10 c0       	mov    %eax,0xc010f0d0
c01050a2:	90                   	nop
c01050a3:	8b 7d fc             	mov    -0x4(%ebp),%edi
c01050a6:	c9                   	leave
c01050a7:	c3                   	ret

c01050a8 <draw_text_buffer>:
c01050a8:	55                   	push   %ebp
c01050a9:	89 e5                	mov    %esp,%ebp
c01050ab:	57                   	push   %edi
c01050ac:	56                   	push   %esi
c01050ad:	53                   	push   %ebx
c01050ae:	83 ec 3c             	sub    $0x3c,%esp
c01050b1:	66 c7 45 e6 00 00    	movw   $0x0,-0x1a(%ebp)
c01050b7:	66 c7 45 e4 00 00    	movw   $0x0,-0x1c(%ebp)
c01050bd:	66 c7 45 e2 00 00    	movw   $0x0,-0x1e(%ebp)
c01050c3:	0f b6 05 84 81 10 c0 	movzbl 0xc0108184,%eax
c01050ca:	c1 e0 03             	shl    $0x3,%eax
c01050cd:	88 45 d7             	mov    %al,-0x29(%ebp)
c01050d0:	0f b6 05 84 81 10 c0 	movzbl 0xc0108184,%eax
c01050d7:	c1 e0 04             	shl    $0x4,%eax
c01050da:	88 45 d6             	mov    %al,-0x2a(%ebp)
c01050dd:	e9 54 01 00 00       	jmp    c0105236 <draw_text_buffer+0x18e>
c01050e2:	8b 15 bc f0 10 c0    	mov    0xc010f0bc,%edx
c01050e8:	0f b7 45 e6          	movzwl -0x1a(%ebp),%eax
c01050ec:	01 d0                	add    %edx,%eax
c01050ee:	0f b6 00             	movzbl (%eax),%eax
c01050f1:	3c ff                	cmp    $0xff,%al
c01050f3:	75 1d                	jne    c0105112 <draw_text_buffer+0x6a>
c01050f5:	0f b7 55 e6          	movzwl -0x1a(%ebp),%edx
c01050f9:	a1 bc f0 10 c0       	mov    0xc010f0bc,%eax
c01050fe:	52                   	push   %edx
c01050ff:	50                   	push   %eax
c0105100:	e8 00 ff ff ff       	call   c0105005 <parse_color>
c0105105:	83 c4 08             	add    $0x8,%esp
c0105108:	66 83 45 e6 03       	addw   $0x3,-0x1a(%ebp)
c010510d:	e9 24 01 00 00       	jmp    c0105236 <draw_text_buffer+0x18e>
c0105112:	8b 15 bc f0 10 c0    	mov    0xc010f0bc,%edx
c0105118:	0f b7 45 e6          	movzwl -0x1a(%ebp),%eax
c010511c:	01 d0                	add    %edx,%eax
c010511e:	0f b6 00             	movzbl (%eax),%eax
c0105121:	3c 0a                	cmp    $0xa,%al
c0105123:	75 79                	jne    c010519e <draw_text_buffer+0xf6>
c0105125:	0f b7 45 e4          	movzwl -0x1c(%ebp),%eax
c0105129:	89 45 dc             	mov    %eax,-0x24(%ebp)
c010512c:	eb 45                	jmp    c0105173 <draw_text_buffer+0xcb>
c010512e:	0f b6 05 84 81 10 c0 	movzbl 0xc0108184,%eax
c0105135:	0f b6 f0             	movzbl %al,%esi
c0105138:	8b 1d d0 f0 10 c0    	mov    0xc010f0d0,%ebx
c010513e:	8b 0d 88 81 10 c0    	mov    0xc0108188,%ecx
c0105144:	0f b6 45 d6          	movzbl -0x2a(%ebp),%eax
c0105148:	66 0f af 45 e2       	imul   -0x1e(%ebp),%ax
c010514d:	0f b7 d0             	movzwl %ax,%edx
c0105150:	0f b6 45 d7          	movzbl -0x29(%ebp),%eax
c0105154:	8b 7d dc             	mov    -0x24(%ebp),%edi
c0105157:	0f af c7             	imul   %edi,%eax
c010515a:	0f b7 c0             	movzwl %ax,%eax
c010515d:	83 ec 08             	sub    $0x8,%esp
c0105160:	56                   	push   %esi
c0105161:	53                   	push   %ebx
c0105162:	51                   	push   %ecx
c0105163:	52                   	push   %edx
c0105164:	50                   	push   %eax
c0105165:	6a 20                	push   $0x20
c0105167:	e8 ee ee ff ff       	call   c010405a <fb_put_glyph>
c010516c:	83 c4 20             	add    $0x20,%esp
c010516f:	83 45 dc 01          	addl   $0x1,-0x24(%ebp)
c0105173:	a1 c8 f0 10 c0       	mov    0xc010f0c8,%eax
c0105178:	39 45 dc             	cmp    %eax,-0x24(%ebp)
c010517b:	7c b1                	jl     c010512e <draw_text_buffer+0x86>
c010517d:	0f b7 45 e2          	movzwl -0x1e(%ebp),%eax
c0105181:	83 c0 01             	add    $0x1,%eax
c0105184:	66 89 45 e2          	mov    %ax,-0x1e(%ebp)
c0105188:	0f b7 45 e6          	movzwl -0x1a(%ebp),%eax
c010518c:	83 c0 01             	add    $0x1,%eax
c010518f:	66 89 45 e6          	mov    %ax,-0x1a(%ebp)
c0105193:	66 c7 45 e4 00 00    	movw   $0x0,-0x1c(%ebp)
c0105199:	e9 98 00 00 00       	jmp    c0105236 <draw_text_buffer+0x18e>
c010519e:	0f b7 45 e4          	movzwl -0x1c(%ebp),%eax
c01051a2:	8b 0d c8 f0 10 c0    	mov    0xc010f0c8,%ecx
c01051a8:	99                   	cltd
c01051a9:	f7 f9                	idiv   %ecx
c01051ab:	89 d0                	mov    %edx,%eax
c01051ad:	85 c0                	test   %eax,%eax
c01051af:	75 18                	jne    c01051c9 <draw_text_buffer+0x121>
c01051b1:	66 83 7d e4 00       	cmpw   $0x0,-0x1c(%ebp)
c01051b6:	74 11                	je     c01051c9 <draw_text_buffer+0x121>
c01051b8:	0f b7 45 e2          	movzwl -0x1e(%ebp),%eax
c01051bc:	83 c0 01             	add    $0x1,%eax
c01051bf:	66 89 45 e2          	mov    %ax,-0x1e(%ebp)
c01051c3:	66 c7 45 e4 00 00    	movw   $0x0,-0x1c(%ebp)
c01051c9:	0f b6 05 84 81 10 c0 	movzbl 0xc0108184,%eax
c01051d0:	0f b6 f8             	movzbl %al,%edi
c01051d3:	8b 35 d0 f0 10 c0    	mov    0xc010f0d0,%esi
c01051d9:	8b 1d 88 81 10 c0    	mov    0xc0108188,%ebx
c01051df:	0f b6 45 d6          	movzbl -0x2a(%ebp),%eax
c01051e3:	66 0f af 45 e2       	imul   -0x1e(%ebp),%ax
c01051e8:	0f b7 c8             	movzwl %ax,%ecx
c01051eb:	0f b6 45 d7          	movzbl -0x29(%ebp),%eax
c01051ef:	66 0f af 45 e4       	imul   -0x1c(%ebp),%ax
c01051f4:	0f b7 c0             	movzwl %ax,%eax
c01051f7:	89 45 c4             	mov    %eax,-0x3c(%ebp)
c01051fa:	a1 bc f0 10 c0       	mov    0xc010f0bc,%eax
c01051ff:	89 c2                	mov    %eax,%edx
c0105201:	0f b7 45 e6          	movzwl -0x1a(%ebp),%eax
c0105205:	01 d0                	add    %edx,%eax
c0105207:	0f b6 00             	movzbl (%eax),%eax
c010520a:	0f be c0             	movsbl %al,%eax
c010520d:	83 ec 08             	sub    $0x8,%esp
c0105210:	57                   	push   %edi
c0105211:	56                   	push   %esi
c0105212:	53                   	push   %ebx
c0105213:	51                   	push   %ecx
c0105214:	ff 75 c4             	push   -0x3c(%ebp)
c0105217:	50                   	push   %eax
c0105218:	e8 3d ee ff ff       	call   c010405a <fb_put_glyph>
c010521d:	83 c4 20             	add    $0x20,%esp
c0105220:	0f b7 45 e6          	movzwl -0x1a(%ebp),%eax
c0105224:	83 c0 01             	add    $0x1,%eax
c0105227:	66 89 45 e6          	mov    %ax,-0x1a(%ebp)
c010522b:	0f b7 45 e4          	movzwl -0x1c(%ebp),%eax
c010522f:	83 c0 01             	add    $0x1,%eax
c0105232:	66 89 45 e4          	mov    %ax,-0x1c(%ebp)
c0105236:	8b 15 bc f0 10 c0    	mov    0xc010f0bc,%edx
c010523c:	0f b7 45 e6          	movzwl -0x1a(%ebp),%eax
c0105240:	01 d0                	add    %edx,%eax
c0105242:	0f b6 00             	movzbl (%eax),%eax
c0105245:	84 c0                	test   %al,%al
c0105247:	0f 85 95 fe ff ff    	jne    c01050e2 <draw_text_buffer+0x3a>
c010524d:	c7 45 d8 00 00 00 00 	movl   $0x0,-0x28(%ebp)
c0105254:	eb 59                	jmp    c01052af <draw_text_buffer+0x207>
c0105256:	0f b6 05 84 81 10 c0 	movzbl 0xc0108184,%eax
c010525d:	0f b6 f0             	movzbl %al,%esi
c0105260:	8b 1d d0 f0 10 c0    	mov    0xc010f0d0,%ebx
c0105266:	8b 0d 88 81 10 c0    	mov    0xc0108188,%ecx
c010526c:	0f b6 45 d6          	movzbl -0x2a(%ebp),%eax
c0105270:	66 0f af 45 e2       	imul   -0x1e(%ebp),%ax
c0105275:	0f b7 d0             	movzwl %ax,%edx
c0105278:	0f b6 45 d7          	movzbl -0x29(%ebp),%eax
c010527c:	8b 7d d8             	mov    -0x28(%ebp),%edi
c010527f:	0f af c7             	imul   %edi,%eax
c0105282:	0f b7 c0             	movzwl %ax,%eax
c0105285:	83 ec 08             	sub    $0x8,%esp
c0105288:	56                   	push   %esi
c0105289:	53                   	push   %ebx
c010528a:	51                   	push   %ecx
c010528b:	52                   	push   %edx
c010528c:	50                   	push   %eax
c010528d:	6a 20                	push   $0x20
c010528f:	e8 c6 ed ff ff       	call   c010405a <fb_put_glyph>
c0105294:	83 c4 20             	add    $0x20,%esp
c0105297:	83 7d d8 01          	cmpl   $0x1,-0x28(%ebp)
c010529b:	7e 0e                	jle    c01052ab <draw_text_buffer+0x203>
c010529d:	8b 15 c0 f0 10 c0    	mov    0xc010f0c0,%edx
c01052a3:	8b 45 d8             	mov    -0x28(%ebp),%eax
c01052a6:	01 d0                	add    %edx,%eax
c01052a8:	c6 00 00             	movb   $0x0,(%eax)
c01052ab:	83 45 d8 01          	addl   $0x1,-0x28(%ebp)
c01052af:	a1 c8 f0 10 c0       	mov    0xc010f0c8,%eax
c01052b4:	39 45 d8             	cmp    %eax,-0x28(%ebp)
c01052b7:	7c 9d                	jl     c0105256 <draw_text_buffer+0x1ae>
c01052b9:	90                   	nop
c01052ba:	90                   	nop
c01052bb:	8d 65 f4             	lea    -0xc(%ebp),%esp
c01052be:	5b                   	pop    %ebx
c01052bf:	5e                   	pop    %esi
c01052c0:	5f                   	pop    %edi
c01052c1:	5d                   	pop    %ebp
c01052c2:	c3                   	ret

c01052c3 <draw_user_chars>:
c01052c3:	55                   	push   %ebp
c01052c4:	89 e5                	mov    %esp,%ebp
c01052c6:	57                   	push   %edi
c01052c7:	56                   	push   %esi
c01052c8:	53                   	push   %ebx
c01052c9:	83 ec 2c             	sub    $0x2c,%esp
c01052cc:	0f b6 05 84 81 10 c0 	movzbl 0xc0108184,%eax
c01052d3:	c1 e0 03             	shl    $0x3,%eax
c01052d6:	88 45 e3             	mov    %al,-0x1d(%ebp)
c01052d9:	0f b6 05 84 81 10 c0 	movzbl 0xc0108184,%eax
c01052e0:	c1 e0 04             	shl    $0x4,%eax
c01052e3:	88 45 e2             	mov    %al,-0x1e(%ebp)
c01052e6:	c7 45 e4 00 00 00 00 	movl   $0x0,-0x1c(%ebp)
c01052ed:	eb 60                	jmp    c010534f <draw_user_chars+0x8c>
c01052ef:	0f b6 05 84 81 10 c0 	movzbl 0xc0108184,%eax
c01052f6:	0f b6 f8             	movzbl %al,%edi
c01052f9:	8b 35 d0 f0 10 c0    	mov    0xc010f0d0,%esi
c01052ff:	8b 1d 88 81 10 c0    	mov    0xc0108188,%ebx
c0105305:	0f b6 55 e2          	movzbl -0x1e(%ebp),%edx
c0105309:	0f b7 05 c6 f0 10 c0 	movzwl 0xc010f0c6,%eax
c0105310:	0f af c2             	imul   %edx,%eax
c0105313:	0f b7 c8             	movzwl %ax,%ecx
c0105316:	0f b6 45 e3          	movzbl -0x1d(%ebp),%eax
c010531a:	8b 55 e4             	mov    -0x1c(%ebp),%edx
c010531d:	0f af c2             	imul   %edx,%eax
c0105320:	0f b7 c0             	movzwl %ax,%eax
c0105323:	89 45 d4             	mov    %eax,-0x2c(%ebp)
c0105326:	a1 c0 f0 10 c0       	mov    0xc010f0c0,%eax
c010532b:	89 c2                	mov    %eax,%edx
c010532d:	8b 45 e4             	mov    -0x1c(%ebp),%eax
c0105330:	01 d0                	add    %edx,%eax
c0105332:	0f b6 00             	movzbl (%eax),%eax
c0105335:	0f be c0             	movsbl %al,%eax
c0105338:	83 ec 08             	sub    $0x8,%esp
c010533b:	57                   	push   %edi
c010533c:	56                   	push   %esi
c010533d:	53                   	push   %ebx
c010533e:	51                   	push   %ecx
c010533f:	ff 75 d4             	push   -0x2c(%ebp)
c0105342:	50                   	push   %eax
c0105343:	e8 12 ed ff ff       	call   c010405a <fb_put_glyph>
c0105348:	83 c4 20             	add    $0x20,%esp
c010534b:	83 45 e4 01          	addl   $0x1,-0x1c(%ebp)
c010534f:	8b 15 c0 f0 10 c0    	mov    0xc010f0c0,%edx
c0105355:	8b 45 e4             	mov    -0x1c(%ebp),%eax
c0105358:	01 d0                	add    %edx,%eax
c010535a:	0f b6 00             	movzbl (%eax),%eax
c010535d:	84 c0                	test   %al,%al
c010535f:	75 8e                	jne    c01052ef <draw_user_chars+0x2c>
c0105361:	90                   	nop
c0105362:	90                   	nop
c0105363:	8d 65 f4             	lea    -0xc(%ebp),%esp
c0105366:	5b                   	pop    %ebx
c0105367:	5e                   	pop    %esi
c0105368:	5f                   	pop    %edi
c0105369:	5d                   	pop    %ebp
c010536a:	c3                   	ret

c010536b <term_render_hex>:
c010536b:	55                   	push   %ebp
c010536c:	89 e5                	mov    %esp,%ebp
c010536e:	83 ec 68             	sub    $0x68,%esp
c0105371:	83 7d 08 00          	cmpl   $0x0,0x8(%ebp)
c0105375:	75 15                	jne    c010538c <term_render_hex+0x21>
c0105377:	83 ec 0c             	sub    $0xc,%esp
c010537a:	68 57 7c 10 c0       	push   $0xc0107c57
c010537f:	e8 47 fb ff ff       	call   c0104ecb <write_text_buffer>
c0105384:	83 c4 10             	add    $0x10,%esp
c0105387:	e9 cc 00 00 00       	jmp    c0105458 <term_render_hex+0xed>
c010538c:	c6 45 a0 30          	movb   $0x30,-0x60(%ebp)
c0105390:	c6 45 a1 78          	movb   $0x78,-0x5f(%ebp)
c0105394:	c7 45 f4 02 00 00 00 	movl   $0x2,-0xc(%ebp)
c010539b:	8b 45 08             	mov    0x8(%ebp),%eax
c010539e:	89 45 f0             	mov    %eax,-0x10(%ebp)
c01053a1:	eb 42                	jmp    c01053e5 <term_render_hex+0x7a>
c01053a3:	8b 45 f0             	mov    -0x10(%ebp),%eax
c01053a6:	83 e0 0f             	and    $0xf,%eax
c01053a9:	89 45 e0             	mov    %eax,-0x20(%ebp)
c01053ac:	83 7d e0 09          	cmpl   $0x9,-0x20(%ebp)
c01053b0:	77 14                	ja     c01053c6 <term_render_hex+0x5b>
c01053b2:	8b 45 e0             	mov    -0x20(%ebp),%eax
c01053b5:	83 c0 30             	add    $0x30,%eax
c01053b8:	89 c1                	mov    %eax,%ecx
c01053ba:	8d 55 a0             	lea    -0x60(%ebp),%edx
c01053bd:	8b 45 f4             	mov    -0xc(%ebp),%eax
c01053c0:	01 d0                	add    %edx,%eax
c01053c2:	88 08                	mov    %cl,(%eax)
c01053c4:	eb 12                	jmp    c01053d8 <term_render_hex+0x6d>
c01053c6:	8b 45 e0             	mov    -0x20(%ebp),%eax
c01053c9:	83 c0 57             	add    $0x57,%eax
c01053cc:	89 c1                	mov    %eax,%ecx
c01053ce:	8d 55 a0             	lea    -0x60(%ebp),%edx
c01053d1:	8b 45 f4             	mov    -0xc(%ebp),%eax
c01053d4:	01 d0                	add    %edx,%eax
c01053d6:	88 08                	mov    %cl,(%eax)
c01053d8:	83 45 f4 01          	addl   $0x1,-0xc(%ebp)
c01053dc:	8b 45 f0             	mov    -0x10(%ebp),%eax
c01053df:	c1 e8 04             	shr    $0x4,%eax
c01053e2:	89 45 f0             	mov    %eax,-0x10(%ebp)
c01053e5:	83 7d f0 00          	cmpl   $0x0,-0x10(%ebp)
c01053e9:	75 b8                	jne    c01053a3 <term_render_hex+0x38>
c01053eb:	c7 45 ec 02 00 00 00 	movl   $0x2,-0x14(%ebp)
c01053f2:	8b 45 f4             	mov    -0xc(%ebp),%eax
c01053f5:	83 e8 01             	sub    $0x1,%eax
c01053f8:	89 45 e8             	mov    %eax,-0x18(%ebp)
c01053fb:	eb 39                	jmp    c0105436 <term_render_hex+0xcb>
c01053fd:	8d 55 a0             	lea    -0x60(%ebp),%edx
c0105400:	8b 45 e8             	mov    -0x18(%ebp),%eax
c0105403:	01 d0                	add    %edx,%eax
c0105405:	0f b6 00             	movzbl (%eax),%eax
c0105408:	88 45 e7             	mov    %al,-0x19(%ebp)
c010540b:	8d 55 a0             	lea    -0x60(%ebp),%edx
c010540e:	8b 45 ec             	mov    -0x14(%ebp),%eax
c0105411:	01 d0                	add    %edx,%eax
c0105413:	0f b6 00             	movzbl (%eax),%eax
c0105416:	8d 4d a0             	lea    -0x60(%ebp),%ecx
c0105419:	8b 55 e8             	mov    -0x18(%ebp),%edx
c010541c:	01 ca                	add    %ecx,%edx
c010541e:	88 02                	mov    %al,(%edx)
c0105420:	8d 55 a0             	lea    -0x60(%ebp),%edx
c0105423:	8b 45 ec             	mov    -0x14(%ebp),%eax
c0105426:	01 c2                	add    %eax,%edx
c0105428:	0f b6 45 e7          	movzbl -0x19(%ebp),%eax
c010542c:	88 02                	mov    %al,(%edx)
c010542e:	83 45 ec 01          	addl   $0x1,-0x14(%ebp)
c0105432:	83 6d e8 01          	subl   $0x1,-0x18(%ebp)
c0105436:	8b 45 ec             	mov    -0x14(%ebp),%eax
c0105439:	39 45 e8             	cmp    %eax,-0x18(%ebp)
c010543c:	73 bf                	jae    c01053fd <term_render_hex+0x92>
c010543e:	8d 55 a0             	lea    -0x60(%ebp),%edx
c0105441:	8b 45 f4             	mov    -0xc(%ebp),%eax
c0105444:	01 d0                	add    %edx,%eax
c0105446:	c6 00 00             	movb   $0x0,(%eax)
c0105449:	83 ec 0c             	sub    $0xc,%esp
c010544c:	8d 45 a0             	lea    -0x60(%ebp),%eax
c010544f:	50                   	push   %eax
c0105450:	e8 76 fa ff ff       	call   c0104ecb <write_text_buffer>
c0105455:	83 c4 10             	add    $0x10,%esp
c0105458:	c9                   	leave
c0105459:	c3                   	ret

c010545a <printf>:
c010545a:	55                   	push   %ebp
c010545b:	89 e5                	mov    %esp,%ebp
c010545d:	83 ec 18             	sub    $0x18,%esp
c0105460:	c7 45 f4 01 00 00 00 	movl   $0x1,-0xc(%ebp)
c0105467:	8d 45 0c             	lea    0xc(%ebp),%eax
c010546a:	89 45 ec             	mov    %eax,-0x14(%ebp)
c010546d:	e9 ee 00 00 00       	jmp    c0105560 <printf+0x106>
c0105472:	8b 45 08             	mov    0x8(%ebp),%eax
c0105475:	0f b6 00             	movzbl (%eax),%eax
c0105478:	3c 25                	cmp    $0x25,%al
c010547a:	0f 85 b8 00 00 00    	jne    c0105538 <printf+0xde>
c0105480:	83 45 08 01          	addl   $0x1,0x8(%ebp)
c0105484:	8b 45 08             	mov    0x8(%ebp),%eax
c0105487:	0f b6 00             	movzbl (%eax),%eax
c010548a:	0f be c0             	movsbl %al,%eax
c010548d:	83 f8 78             	cmp    $0x78,%eax
c0105490:	74 2d                	je     c01054bf <printf+0x65>
c0105492:	83 f8 78             	cmp    $0x78,%eax
c0105495:	0f 8f 97 00 00 00    	jg     c0105532 <printf+0xd8>
c010549b:	83 f8 74             	cmp    $0x74,%eax
c010549e:	74 47                	je     c01054e7 <printf+0x8d>
c01054a0:	83 f8 74             	cmp    $0x74,%eax
c01054a3:	0f 8f 89 00 00 00    	jg     c0105532 <printf+0xd8>
c01054a9:	83 f8 73             	cmp    $0x73,%eax
c01054ac:	74 4c                	je     c01054fa <printf+0xa0>
c01054ae:	83 f8 73             	cmp    $0x73,%eax
c01054b1:	7f 7f                	jg     c0105532 <printf+0xd8>
c01054b3:	83 f8 25             	cmp    $0x25,%eax
c01054b6:	74 20                	je     c01054d8 <printf+0x7e>
c01054b8:	83 f8 63             	cmp    $0x63,%eax
c01054bb:	74 56                	je     c0105513 <printf+0xb9>
c01054bd:	eb 73                	jmp    c0105532 <printf+0xd8>
c01054bf:	8b 45 ec             	mov    -0x14(%ebp),%eax
c01054c2:	8d 50 04             	lea    0x4(%eax),%edx
c01054c5:	89 55 ec             	mov    %edx,-0x14(%ebp)
c01054c8:	8b 00                	mov    (%eax),%eax
c01054ca:	83 ec 0c             	sub    $0xc,%esp
c01054cd:	50                   	push   %eax
c01054ce:	e8 98 fe ff ff       	call   c010536b <term_render_hex>
c01054d3:	83 c4 10             	add    $0x10,%esp
c01054d6:	eb 5a                	jmp    c0105532 <printf+0xd8>
c01054d8:	83 ec 0c             	sub    $0xc,%esp
c01054db:	6a 25                	push   $0x25
c01054dd:	e8 70 fa ff ff       	call   c0104f52 <write_char_text_buffer>
c01054e2:	83 c4 10             	add    $0x10,%esp
c01054e5:	eb 4b                	jmp    c0105532 <printf+0xd8>
c01054e7:	83 ec 0c             	sub    $0xc,%esp
c01054ea:	6a ff                	push   $0xffffffff
c01054ec:	e8 61 fa ff ff       	call   c0104f52 <write_char_text_buffer>
c01054f1:	83 c4 10             	add    $0x10,%esp
c01054f4:	83 45 08 01          	addl   $0x1,0x8(%ebp)
c01054f8:	eb 66                	jmp    c0105560 <printf+0x106>
c01054fa:	8b 45 ec             	mov    -0x14(%ebp),%eax
c01054fd:	8d 50 04             	lea    0x4(%eax),%edx
c0105500:	89 55 ec             	mov    %edx,-0x14(%ebp)
c0105503:	8b 00                	mov    (%eax),%eax
c0105505:	83 ec 0c             	sub    $0xc,%esp
c0105508:	50                   	push   %eax
c0105509:	e8 bd f9 ff ff       	call   c0104ecb <write_text_buffer>
c010550e:	83 c4 10             	add    $0x10,%esp
c0105511:	eb 1f                	jmp    c0105532 <printf+0xd8>
c0105513:	8b 45 ec             	mov    -0x14(%ebp),%eax
c0105516:	8d 50 04             	lea    0x4(%eax),%edx
c0105519:	89 55 ec             	mov    %edx,-0x14(%ebp)
c010551c:	8b 00                	mov    (%eax),%eax
c010551e:	88 45 f3             	mov    %al,-0xd(%ebp)
c0105521:	0f be 45 f3          	movsbl -0xd(%ebp),%eax
c0105525:	83 ec 0c             	sub    $0xc,%esp
c0105528:	50                   	push   %eax
c0105529:	e8 24 fa ff ff       	call   c0104f52 <write_char_text_buffer>
c010552e:	83 c4 10             	add    $0x10,%esp
c0105531:	90                   	nop
c0105532:	83 45 08 01          	addl   $0x1,0x8(%ebp)
c0105536:	eb 28                	jmp    c0105560 <printf+0x106>
c0105538:	8b 45 08             	mov    0x8(%ebp),%eax
c010553b:	0f b6 00             	movzbl (%eax),%eax
c010553e:	0f be c0             	movsbl %al,%eax
c0105541:	83 ec 0c             	sub    $0xc,%esp
c0105544:	50                   	push   %eax
c0105545:	e8 08 fa ff ff       	call   c0104f52 <write_char_text_buffer>
c010554a:	83 c4 10             	add    $0x10,%esp
c010554d:	8b 45 08             	mov    0x8(%ebp),%eax
c0105550:	0f b6 00             	movzbl (%eax),%eax
c0105553:	3c 0a                	cmp    $0xa,%al
c0105555:	75 05                	jne    c010555c <printf+0x102>
c0105557:	e8 4c fb ff ff       	call   c01050a8 <draw_text_buffer>
c010555c:	83 45 08 01          	addl   $0x1,0x8(%ebp)
c0105560:	8b 45 08             	mov    0x8(%ebp),%eax
c0105563:	0f b6 00             	movzbl (%eax),%eax
c0105566:	84 c0                	test   %al,%al
c0105568:	0f 85 04 ff ff ff    	jne    c0105472 <printf+0x18>
c010556e:	90                   	nop
c010556f:	90                   	nop
c0105570:	c9                   	leave
c0105571:	c3                   	ret

c0105572 <write_user_char>:
c0105572:	55                   	push   %ebp
c0105573:	89 e5                	mov    %esp,%ebp
c0105575:	83 ec 04             	sub    $0x4,%esp
c0105578:	8b 45 08             	mov    0x8(%ebp),%eax
c010557b:	88 45 fc             	mov    %al,-0x4(%ebp)
c010557e:	80 7d fc 08          	cmpb   $0x8,-0x4(%ebp)
c0105582:	75 38                	jne    c01055bc <write_user_char+0x4a>
c0105584:	0f b7 05 86 81 10 c0 	movzwl 0xc0108186,%eax
c010558b:	66 83 f8 02          	cmp    $0x2,%ax
c010558f:	0f 86 87 00 00 00    	jbe    c010561c <write_user_char+0xaa>
c0105595:	0f b7 05 86 81 10 c0 	movzwl 0xc0108186,%eax
c010559c:	83 e8 01             	sub    $0x1,%eax
c010559f:	66 a3 86 81 10 c0    	mov    %ax,0xc0108186
c01055a5:	8b 15 c0 f0 10 c0    	mov    0xc010f0c0,%edx
c01055ab:	0f b7 05 86 81 10 c0 	movzwl 0xc0108186,%eax
c01055b2:	0f b7 c0             	movzwl %ax,%eax
c01055b5:	01 d0                	add    %edx,%eax
c01055b7:	c6 00 20             	movb   $0x20,(%eax)
c01055ba:	eb 64                	jmp    c0105620 <write_user_char+0xae>
c01055bc:	0f b7 05 86 81 10 c0 	movzwl 0xc0108186,%eax
c01055c3:	0f b7 d0             	movzwl %ax,%edx
c01055c6:	a1 c8 f0 10 c0       	mov    0xc010f0c8,%eax
c01055cb:	39 c2                	cmp    %eax,%edx
c01055cd:	74 50                	je     c010561f <write_user_char+0xad>
c01055cf:	8b 15 c0 f0 10 c0    	mov    0xc010f0c0,%edx
c01055d5:	0f b7 05 86 81 10 c0 	movzwl 0xc0108186,%eax
c01055dc:	0f b7 c0             	movzwl %ax,%eax
c01055df:	01 c2                	add    %eax,%edx
c01055e1:	0f b6 45 fc          	movzbl -0x4(%ebp),%eax
c01055e5:	88 02                	mov    %al,(%edx)
c01055e7:	a1 bc f0 10 c0       	mov    0xc010f0bc,%eax
c01055ec:	0f b7 15 c4 f0 10 c0 	movzwl 0xc010f0c4,%edx
c01055f3:	0f b7 ca             	movzwl %dx,%ecx
c01055f6:	0f b7 15 86 81 10 c0 	movzwl 0xc0108186,%edx
c01055fd:	0f b7 d2             	movzwl %dx,%edx
c0105600:	01 ca                	add    %ecx,%edx
c0105602:	01 c2                	add    %eax,%edx
c0105604:	0f b6 45 fc          	movzbl -0x4(%ebp),%eax
c0105608:	88 02                	mov    %al,(%edx)
c010560a:	0f b7 05 86 81 10 c0 	movzwl 0xc0108186,%eax
c0105611:	83 c0 01             	add    $0x1,%eax
c0105614:	66 a3 86 81 10 c0    	mov    %ax,0xc0108186
c010561a:	eb 04                	jmp    c0105620 <write_user_char+0xae>
c010561c:	90                   	nop
c010561d:	eb 01                	jmp    c0105620 <write_user_char+0xae>
c010561f:	90                   	nop
c0105620:	c9                   	leave
c0105621:	c3                   	ret

c0105622 <tflush>:
c0105622:	55                   	push   %ebp
c0105623:	89 e5                	mov    %esp,%ebp
c0105625:	83 ec 08             	sub    $0x8,%esp
c0105628:	e8 7b fa ff ff       	call   c01050a8 <draw_text_buffer>
c010562d:	90                   	nop
c010562e:	c9                   	leave
c010562f:	c3                   	ret

c0105630 <parse_user_chars>:
c0105630:	55                   	push   %ebp
c0105631:	89 e5                	mov    %esp,%ebp
c0105633:	83 ec 18             	sub    $0x18,%esp
c0105636:	c6 45 f7 02          	movb   $0x2,-0x9(%ebp)
c010563a:	a1 c8 f0 10 c0       	mov    0xc010f0c8,%eax
c010563f:	83 ec 0c             	sub    $0xc,%esp
c0105642:	50                   	push   %eax
c0105643:	e8 7e dc ff ff       	call   c01032c6 <kalloc>
c0105648:	83 c4 10             	add    $0x10,%esp
c010564b:	89 45 f0             	mov    %eax,-0x10(%ebp)
c010564e:	83 ec 08             	sub    $0x8,%esp
c0105651:	ff 75 f0             	push   -0x10(%ebp)
c0105654:	68 5b 7c 10 c0       	push   $0xc0107c5b
c0105659:	e8 cd d6 ff ff       	call   c0102d2b <logf>
c010565e:	83 c4 10             	add    $0x10,%esp
c0105661:	eb 4d                	jmp    c01056b0 <parse_user_chars+0x80>
c0105663:	8b 15 c0 f0 10 c0    	mov    0xc010f0c0,%edx
c0105669:	0f be 45 f7          	movsbl -0x9(%ebp),%eax
c010566d:	01 d0                	add    %edx,%eax
c010566f:	0f b6 00             	movzbl (%eax),%eax
c0105672:	3c 20                	cmp    $0x20,%al
c0105674:	74 4f                	je     c01056c5 <parse_user_chars+0x95>
c0105676:	8b 15 c0 f0 10 c0    	mov    0xc010f0c0,%edx
c010567c:	0f be 45 f7          	movsbl -0x9(%ebp),%eax
c0105680:	01 d0                	add    %edx,%eax
c0105682:	0f b6 00             	movzbl (%eax),%eax
c0105685:	3c 0a                	cmp    $0xa,%al
c0105687:	74 3f                	je     c01056c8 <parse_user_chars+0x98>
c0105689:	8b 15 c0 f0 10 c0    	mov    0xc010f0c0,%edx
c010568f:	0f be 45 f7          	movsbl -0x9(%ebp),%eax
c0105693:	01 d0                	add    %edx,%eax
c0105695:	0f be 55 f7          	movsbl -0x9(%ebp),%edx
c0105699:	8d 4a fe             	lea    -0x2(%edx),%ecx
c010569c:	8b 55 f0             	mov    -0x10(%ebp),%edx
c010569f:	01 ca                	add    %ecx,%edx
c01056a1:	0f b6 00             	movzbl (%eax),%eax
c01056a4:	88 02                	mov    %al,(%edx)
c01056a6:	0f b6 45 f7          	movzbl -0x9(%ebp),%eax
c01056aa:	83 c0 01             	add    $0x1,%eax
c01056ad:	88 45 f7             	mov    %al,-0x9(%ebp)
c01056b0:	8b 15 c0 f0 10 c0    	mov    0xc010f0c0,%edx
c01056b6:	0f be 45 f7          	movsbl -0x9(%ebp),%eax
c01056ba:	01 d0                	add    %edx,%eax
c01056bc:	0f b6 00             	movzbl (%eax),%eax
c01056bf:	84 c0                	test   %al,%al
c01056c1:	75 a0                	jne    c0105663 <parse_user_chars+0x33>
c01056c3:	eb 04                	jmp    c01056c9 <parse_user_chars+0x99>
c01056c5:	90                   	nop
c01056c6:	eb 01                	jmp    c01056c9 <parse_user_chars+0x99>
c01056c8:	90                   	nop
c01056c9:	83 ec 0c             	sub    $0xc,%esp
c01056cc:	68 72 7c 10 c0       	push   $0xc0107c72
c01056d1:	e8 fc da ff ff       	call   c01031d2 <strlen>
c01056d6:	83 c4 10             	add    $0x10,%esp
c01056d9:	83 ec 04             	sub    $0x4,%esp
c01056dc:	50                   	push   %eax
c01056dd:	ff 75 f0             	push   -0x10(%ebp)
c01056e0:	68 72 7c 10 c0       	push   $0xc0107c72
c01056e5:	e8 0c db ff ff       	call   c01031f6 <strcmp>
c01056ea:	83 c4 10             	add    $0x10,%esp
c01056ed:	84 c0                	test   %al,%al
c01056ef:	74 17                	je     c0105708 <parse_user_chars+0xd8>
c01056f1:	83 ec 08             	sub    $0x8,%esp
c01056f4:	68 7a 7c 10 c0       	push   $0xc0107c7a
c01056f9:	68 80 7c 10 c0       	push   $0xc0107c80
c01056fe:	e8 57 fd ff ff       	call   c010545a <printf>
c0105703:	83 c4 10             	add    $0x10,%esp
c0105706:	eb 4d                	jmp    c0105755 <parse_user_chars+0x125>
c0105708:	83 ec 0c             	sub    $0xc,%esp
c010570b:	68 a3 7c 10 c0       	push   $0xc0107ca3
c0105710:	e8 bd da ff ff       	call   c01031d2 <strlen>
c0105715:	83 c4 10             	add    $0x10,%esp
c0105718:	83 ec 04             	sub    $0x4,%esp
c010571b:	50                   	push   %eax
c010571c:	ff 75 f0             	push   -0x10(%ebp)
c010571f:	68 a3 7c 10 c0       	push   $0xc0107ca3
c0105724:	e8 cd da ff ff       	call   c01031f6 <strcmp>
c0105729:	83 c4 10             	add    $0x10,%esp
c010572c:	84 c0                	test   %al,%al
c010572e:	74 12                	je     c0105742 <parse_user_chars+0x112>
c0105730:	83 ec 0c             	sub    $0xc,%esp
c0105733:	68 a8 7c 10 c0       	push   $0xc0107ca8
c0105738:	e8 1d fd ff ff       	call   c010545a <printf>
c010573d:	83 c4 10             	add    $0x10,%esp
c0105740:	eb 13                	jmp    c0105755 <parse_user_chars+0x125>
c0105742:	83 ec 08             	sub    $0x8,%esp
c0105745:	ff 75 f0             	push   -0x10(%ebp)
c0105748:	68 ba 7c 10 c0       	push   $0xc0107cba
c010574d:	e8 08 fd ff ff       	call   c010545a <printf>
c0105752:	83 c4 10             	add    $0x10,%esp
c0105755:	83 ec 0c             	sub    $0xc,%esp
c0105758:	ff 75 f0             	push   -0x10(%ebp)
c010575b:	e8 e2 dc ff ff       	call   c0103442 <kfree>
c0105760:	83 c4 10             	add    $0x10,%esp
c0105763:	90                   	nop
c0105764:	c9                   	leave
c0105765:	c3                   	ret

c0105766 <next_keycode>:
c0105766:	55                   	push   %ebp
c0105767:	89 e5                	mov    %esp,%ebp
c0105769:	83 ec 10             	sub    $0x10,%esp
c010576c:	0f b6 15 b8 f0 10 c0 	movzbl 0xc010f0b8,%edx
c0105773:	0f b6 05 88 f0 10 c0 	movzbl 0xc010f088,%eax
c010577a:	38 c2                	cmp    %al,%dl
c010577c:	75 14                	jne    c0105792 <next_keycode+0x2c>
c010577e:	c6 45 fc 00          	movb   $0x0,-0x4(%ebp)
c0105782:	c6 45 fd 00          	movb   $0x0,-0x3(%ebp)
c0105786:	8b 45 08             	mov    0x8(%ebp),%eax
c0105789:	0f b7 55 fc          	movzwl -0x4(%ebp),%edx
c010578d:	66 89 10             	mov    %dx,(%eax)
c0105790:	eb 55                	jmp    c01057e7 <next_keycode+0x81>
c0105792:	0f b6 05 b8 f0 10 c0 	movzbl 0xc010f0b8,%eax
c0105799:	0f b6 c0             	movzbl %al,%eax
c010579c:	8d 48 01             	lea    0x1(%eax),%ecx
c010579f:	ba 67 66 66 66       	mov    $0x66666667,%edx
c01057a4:	89 c8                	mov    %ecx,%eax
c01057a6:	f7 ea                	imul   %edx
c01057a8:	c1 fa 03             	sar    $0x3,%edx
c01057ab:	89 c8                	mov    %ecx,%eax
c01057ad:	c1 f8 1f             	sar    $0x1f,%eax
c01057b0:	29 c2                	sub    %eax,%edx
c01057b2:	89 d0                	mov    %edx,%eax
c01057b4:	c1 e0 02             	shl    $0x2,%eax
c01057b7:	01 d0                	add    %edx,%eax
c01057b9:	c1 e0 02             	shl    $0x2,%eax
c01057bc:	29 c1                	sub    %eax,%ecx
c01057be:	89 ca                	mov    %ecx,%edx
c01057c0:	89 d0                	mov    %edx,%eax
c01057c2:	a2 b8 f0 10 c0       	mov    %al,0xc010f0b8
c01057c7:	0f b6 05 b8 f0 10 c0 	movzbl 0xc010f0b8,%eax
c01057ce:	0f b6 c0             	movzbl %al,%eax
c01057d1:	0f b7 84 00 60 f0 10 	movzwl -0x3fef0fa0(%eax,%eax,1),%eax
c01057d8:	c0 
c01057d9:	66 89 45 fe          	mov    %ax,-0x2(%ebp)
c01057dd:	8b 45 08             	mov    0x8(%ebp),%eax
c01057e0:	0f b7 55 fe          	movzwl -0x2(%ebp),%edx
c01057e4:	66 89 10             	mov    %dx,(%eax)
c01057e7:	8b 45 08             	mov    0x8(%ebp),%eax
c01057ea:	c9                   	leave
c01057eb:	c2 04 00             	ret    $0x4

c01057ee <terminal_loop>:
c01057ee:	55                   	push   %ebp
c01057ef:	89 e5                	mov    %esp,%ebp
c01057f1:	83 ec 18             	sub    $0x18,%esp
c01057f4:	8d 45 f5             	lea    -0xb(%ebp),%eax
c01057f7:	50                   	push   %eax
c01057f8:	e8 69 ff ff ff       	call   c0105766 <next_keycode>
c01057fd:	0f b6 45 f5          	movzbl -0xb(%ebp),%eax
c0105801:	84 c0                	test   %al,%al
c0105803:	75 01                	jne    c0105806 <terminal_loop+0x18>
c0105805:	f4                   	hlt
c0105806:	83 ec 0c             	sub    $0xc,%esp
c0105809:	68 d7 7c 10 c0       	push   $0xc0107cd7
c010580e:	e8 18 d5 ff ff       	call   c0102d2b <logf>
c0105813:	83 c4 10             	add    $0x10,%esp
c0105816:	83 ec 0c             	sub    $0xc,%esp
c0105819:	0f b7 45 f5          	movzwl -0xb(%ebp),%eax
c010581d:	50                   	push   %eax
c010581e:	e8 93 f0 ff ff       	call   c01048b6 <keycode_to_keysym>
c0105823:	83 c4 10             	add    $0x10,%esp
c0105826:	88 45 f7             	mov    %al,-0x9(%ebp)
c0105829:	0f b6 45 f6          	movzbl -0xa(%ebp),%eax
c010582d:	0f b6 c0             	movzbl %al,%eax
c0105830:	83 e0 08             	and    $0x8,%eax
c0105833:	85 c0                	test   %eax,%eax
c0105835:	74 04                	je     c010583b <terminal_loop+0x4d>
c0105837:	c6 45 f7 00          	movb   $0x0,-0x9(%ebp)
c010583b:	80 7d f7 00          	cmpb   $0x0,-0x9(%ebp)
c010583f:	74 b3                	je     c01057f4 <terminal_loop+0x6>
c0105841:	0f be 45 f7          	movsbl -0x9(%ebp),%eax
c0105845:	83 ec 0c             	sub    $0xc,%esp
c0105848:	50                   	push   %eax
c0105849:	e8 24 fd ff ff       	call   c0105572 <write_user_char>
c010584e:	83 c4 10             	add    $0x10,%esp
c0105851:	80 7d f7 0a          	cmpb   $0xa,-0x9(%ebp)
c0105855:	75 24                	jne    c010587b <terminal_loop+0x8d>
c0105857:	a1 c0 f0 10 c0       	mov    0xc010f0c0,%eax
c010585c:	83 ec 0c             	sub    $0xc,%esp
c010585f:	50                   	push   %eax
c0105860:	e8 66 f6 ff ff       	call   c0104ecb <write_text_buffer>
c0105865:	83 c4 10             	add    $0x10,%esp
c0105868:	e8 c3 fd ff ff       	call   c0105630 <parse_user_chars>
c010586d:	66 c7 05 86 81 10 c0 	movw   $0x2,0xc0108186
c0105874:	02 00 
c0105876:	e8 a7 fd ff ff       	call   c0105622 <tflush>
c010587b:	e8 43 fa ff ff       	call   c01052c3 <draw_user_chars>
c0105880:	e9 6f ff ff ff       	jmp    c01057f4 <terminal_loop+0x6>

c0105885 <start_terminal>:
c0105885:	55                   	push   %ebp
c0105886:	89 e5                	mov    %esp,%ebp
c0105888:	83 ec 18             	sub    $0x18,%esp
c010588b:	6a 00                	push   $0x0
c010588d:	6a 00                	push   $0x0
c010588f:	68 ee 57 10 c0       	push   $0xc01057ee
c0105894:	68 e4 7c 10 c0       	push   $0xc0107ce4
c0105899:	e8 bc ed ff ff       	call   c010465a <create_process>
c010589e:	83 c4 10             	add    $0x10,%esp
c01058a1:	89 45 f4             	mov    %eax,-0xc(%ebp)
c01058a4:	83 ec 0c             	sub    $0xc,%esp
c01058a7:	68 ed 7c 10 c0       	push   $0xc0107ced
c01058ac:	e8 7a d4 ff ff       	call   c0102d2b <logf>
c01058b1:	83 c4 10             	add    $0x10,%esp
c01058b4:	e8 0a fa ff ff       	call   c01052c3 <draw_user_chars>
c01058b9:	90                   	nop
c01058ba:	c9                   	leave
c01058bb:	c3                   	ret

c01058bc <init_terminal>:
c01058bc:	55                   	push   %ebp
c01058bd:	89 e5                	mov    %esp,%ebp
c01058bf:	83 ec 18             	sub    $0x18,%esp
c01058c2:	0f b7 05 98 f0 10 c0 	movzwl 0xc010f098,%eax
c01058c9:	0f b7 c0             	movzwl %ax,%eax
c01058cc:	0f b6 15 84 81 10 c0 	movzbl 0xc0108184,%edx
c01058d3:	0f b6 d2             	movzbl %dl,%edx
c01058d6:	8d 0c d5 00 00 00 00 	lea    0x0(,%edx,8),%ecx
c01058dd:	99                   	cltd
c01058de:	f7 f9                	idiv   %ecx
c01058e0:	83 e8 01             	sub    $0x1,%eax
c01058e3:	a3 c8 f0 10 c0       	mov    %eax,0xc010f0c8
c01058e8:	0f b7 05 9a f0 10 c0 	movzwl 0xc010f09a,%eax
c01058ef:	0f b7 c0             	movzwl %ax,%eax
c01058f2:	0f b6 15 84 81 10 c0 	movzbl 0xc0108184,%edx
c01058f9:	0f b6 d2             	movzbl %dl,%edx
c01058fc:	89 d1                	mov    %edx,%ecx
c01058fe:	c1 e1 04             	shl    $0x4,%ecx
c0105901:	99                   	cltd
c0105902:	f7 f9                	idiv   %ecx
c0105904:	83 e8 02             	sub    $0x2,%eax
c0105907:	a3 cc f0 10 c0       	mov    %eax,0xc010f0cc
c010590c:	8b 15 c8 f0 10 c0    	mov    0xc010f0c8,%edx
c0105912:	a1 cc f0 10 c0       	mov    0xc010f0cc,%eax
c0105917:	0f af c2             	imul   %edx,%eax
c010591a:	83 c0 01             	add    $0x1,%eax
c010591d:	83 ec 0c             	sub    $0xc,%esp
c0105920:	50                   	push   %eax
c0105921:	e8 a0 d9 ff ff       	call   c01032c6 <kalloc>
c0105926:	83 c4 10             	add    $0x10,%esp
c0105929:	a3 bc f0 10 c0       	mov    %eax,0xc010f0bc
c010592e:	a1 c8 f0 10 c0       	mov    0xc010f0c8,%eax
c0105933:	83 c0 01             	add    $0x1,%eax
c0105936:	83 ec 0c             	sub    $0xc,%esp
c0105939:	50                   	push   %eax
c010593a:	e8 87 d9 ff ff       	call   c01032c6 <kalloc>
c010593f:	83 c4 10             	add    $0x10,%esp
c0105942:	a3 c0 f0 10 c0       	mov    %eax,0xc010f0c0
c0105947:	a1 c0 f0 10 c0       	mov    0xc010f0c0,%eax
c010594c:	c6 00 3e             	movb   $0x3e,(%eax)
c010594f:	a1 c0 f0 10 c0       	mov    0xc010f0c0,%eax
c0105954:	83 c0 01             	add    $0x1,%eax
c0105957:	c6 00 20             	movb   $0x20,(%eax)
c010595a:	0f b7 05 c4 f0 10 c0 	movzwl 0xc010f0c4,%eax
c0105961:	0f b7 c0             	movzwl %ax,%eax
c0105964:	89 45 f4             	mov    %eax,-0xc(%ebp)
c0105967:	83 ec 0c             	sub    $0xc,%esp
c010596a:	68 08 7d 10 c0       	push   $0xc0107d08
c010596f:	e8 e6 fa ff ff       	call   c010545a <printf>
c0105974:	83 c4 10             	add    $0x10,%esp
c0105977:	e8 a6 fc ff ff       	call   c0105622 <tflush>
c010597c:	90                   	nop
c010597d:	c9                   	leave
c010597e:	c3                   	ret

c010597f <alloc_node_obj>:
c010597f:	55                   	push   %ebp
c0105980:	89 e5                	mov    %esp,%ebp
c0105982:	83 ec 10             	sub    $0x10,%esp
c0105985:	8b 45 08             	mov    0x8(%ebp),%eax
c0105988:	8b 40 08             	mov    0x8(%eax),%eax
c010598b:	83 c0 14             	add    $0x14,%eax
c010598e:	89 45 fc             	mov    %eax,-0x4(%ebp)
c0105991:	eb 04                	jmp    c0105997 <alloc_node_obj+0x18>
c0105993:	83 45 fc 20          	addl   $0x20,-0x4(%ebp)
c0105997:	8b 45 fc             	mov    -0x4(%ebp),%eax
c010599a:	8b 40 0c             	mov    0xc(%eax),%eax
c010599d:	83 e0 01             	and    $0x1,%eax
c01059a0:	85 c0                	test   %eax,%eax
c01059a2:	75 ef                	jne    c0105993 <alloc_node_obj+0x14>
c01059a4:	8b 45 fc             	mov    -0x4(%ebp),%eax
c01059a7:	c7 40 0c 03 00 00 00 	movl   $0x3,0xc(%eax)
c01059ae:	8b 45 fc             	mov    -0x4(%ebp),%eax
c01059b1:	c9                   	leave
c01059b2:	c3                   	ret

c01059b3 <free_node_obj>:
c01059b3:	55                   	push   %ebp
c01059b4:	89 e5                	mov    %esp,%ebp
c01059b6:	83 ec 18             	sub    $0x18,%esp
c01059b9:	8b 45 08             	mov    0x8(%ebp),%eax
c01059bc:	89 45 f4             	mov    %eax,-0xc(%ebp)
c01059bf:	8b 45 f4             	mov    -0xc(%ebp),%eax
c01059c2:	8b 40 0c             	mov    0xc(%eax),%eax
c01059c5:	83 e0 02             	and    $0x2,%eax
c01059c8:	85 c0                	test   %eax,%eax
c01059ca:	75 15                	jne    c01059e1 <free_node_obj+0x2e>
c01059cc:	83 ec 08             	sub    $0x8,%esp
c01059cf:	ff 75 08             	push   0x8(%ebp)
c01059d2:	68 28 7d 10 c0       	push   $0xc0107d28
c01059d7:	e8 4f d3 ff ff       	call   c0102d2b <logf>
c01059dc:	83 c4 10             	add    $0x10,%esp
c01059df:	eb 1b                	jmp    c01059fc <free_node_obj+0x49>
c01059e1:	8b 45 f4             	mov    -0xc(%ebp),%eax
c01059e4:	8b 40 0c             	mov    0xc(%eax),%eax
c01059e7:	83 e0 fd             	and    $0xfffffffd,%eax
c01059ea:	89 c2                	mov    %eax,%edx
c01059ec:	8b 45 f4             	mov    -0xc(%ebp),%eax
c01059ef:	89 50 0c             	mov    %edx,0xc(%eax)
c01059f2:	8b 45 f4             	mov    -0xc(%ebp),%eax
c01059f5:	c7 40 04 00 00 00 00 	movl   $0x0,0x4(%eax)
c01059fc:	c9                   	leave
c01059fd:	c3                   	ret

c01059fe <rb_left_rotation>:
c01059fe:	55                   	push   %ebp
c01059ff:	89 e5                	mov    %esp,%ebp
c0105a01:	83 ec 10             	sub    $0x10,%esp
c0105a04:	8b 45 0c             	mov    0xc(%ebp),%eax
c0105a07:	8b 40 18             	mov    0x18(%eax),%eax
c0105a0a:	89 45 fc             	mov    %eax,-0x4(%ebp)
c0105a0d:	8b 45 fc             	mov    -0x4(%ebp),%eax
c0105a10:	8b 50 14             	mov    0x14(%eax),%edx
c0105a13:	8b 45 0c             	mov    0xc(%ebp),%eax
c0105a16:	89 50 18             	mov    %edx,0x18(%eax)
c0105a19:	8b 45 fc             	mov    -0x4(%ebp),%eax
c0105a1c:	8b 40 14             	mov    0x14(%eax),%eax
c0105a1f:	85 c0                	test   %eax,%eax
c0105a21:	74 0c                	je     c0105a2f <rb_left_rotation+0x31>
c0105a23:	8b 45 fc             	mov    -0x4(%ebp),%eax
c0105a26:	8b 40 14             	mov    0x14(%eax),%eax
c0105a29:	8b 55 0c             	mov    0xc(%ebp),%edx
c0105a2c:	89 50 1c             	mov    %edx,0x1c(%eax)
c0105a2f:	8b 45 0c             	mov    0xc(%ebp),%eax
c0105a32:	8b 50 1c             	mov    0x1c(%eax),%edx
c0105a35:	8b 45 fc             	mov    -0x4(%ebp),%eax
c0105a38:	89 50 1c             	mov    %edx,0x1c(%eax)
c0105a3b:	8b 45 fc             	mov    -0x4(%ebp),%eax
c0105a3e:	8b 40 1c             	mov    0x1c(%eax),%eax
c0105a41:	85 c0                	test   %eax,%eax
c0105a43:	75 0a                	jne    c0105a4f <rb_left_rotation+0x51>
c0105a45:	8b 45 08             	mov    0x8(%ebp),%eax
c0105a48:	8b 55 fc             	mov    -0x4(%ebp),%edx
c0105a4b:	89 10                	mov    %edx,(%eax)
c0105a4d:	eb 28                	jmp    c0105a77 <rb_left_rotation+0x79>
c0105a4f:	8b 45 0c             	mov    0xc(%ebp),%eax
c0105a52:	8b 40 1c             	mov    0x1c(%eax),%eax
c0105a55:	8b 40 14             	mov    0x14(%eax),%eax
c0105a58:	39 45 0c             	cmp    %eax,0xc(%ebp)
c0105a5b:	75 0e                	jne    c0105a6b <rb_left_rotation+0x6d>
c0105a5d:	8b 45 0c             	mov    0xc(%ebp),%eax
c0105a60:	8b 40 1c             	mov    0x1c(%eax),%eax
c0105a63:	8b 55 fc             	mov    -0x4(%ebp),%edx
c0105a66:	89 50 14             	mov    %edx,0x14(%eax)
c0105a69:	eb 0c                	jmp    c0105a77 <rb_left_rotation+0x79>
c0105a6b:	8b 45 0c             	mov    0xc(%ebp),%eax
c0105a6e:	8b 40 1c             	mov    0x1c(%eax),%eax
c0105a71:	8b 55 fc             	mov    -0x4(%ebp),%edx
c0105a74:	89 50 18             	mov    %edx,0x18(%eax)
c0105a77:	8b 45 fc             	mov    -0x4(%ebp),%eax
c0105a7a:	8b 55 0c             	mov    0xc(%ebp),%edx
c0105a7d:	89 50 14             	mov    %edx,0x14(%eax)
c0105a80:	8b 45 0c             	mov    0xc(%ebp),%eax
c0105a83:	8b 55 fc             	mov    -0x4(%ebp),%edx
c0105a86:	89 50 1c             	mov    %edx,0x1c(%eax)
c0105a89:	90                   	nop
c0105a8a:	c9                   	leave
c0105a8b:	c3                   	ret

c0105a8c <rb_right_rotation>:
c0105a8c:	55                   	push   %ebp
c0105a8d:	89 e5                	mov    %esp,%ebp
c0105a8f:	83 ec 10             	sub    $0x10,%esp
c0105a92:	8b 45 0c             	mov    0xc(%ebp),%eax
c0105a95:	8b 40 14             	mov    0x14(%eax),%eax
c0105a98:	89 45 fc             	mov    %eax,-0x4(%ebp)
c0105a9b:	8b 45 fc             	mov    -0x4(%ebp),%eax
c0105a9e:	8b 50 18             	mov    0x18(%eax),%edx
c0105aa1:	8b 45 0c             	mov    0xc(%ebp),%eax
c0105aa4:	89 50 14             	mov    %edx,0x14(%eax)
c0105aa7:	8b 45 fc             	mov    -0x4(%ebp),%eax
c0105aaa:	8b 40 18             	mov    0x18(%eax),%eax
c0105aad:	85 c0                	test   %eax,%eax
c0105aaf:	74 0c                	je     c0105abd <rb_right_rotation+0x31>
c0105ab1:	8b 45 fc             	mov    -0x4(%ebp),%eax
c0105ab4:	8b 40 18             	mov    0x18(%eax),%eax
c0105ab7:	8b 55 0c             	mov    0xc(%ebp),%edx
c0105aba:	89 50 1c             	mov    %edx,0x1c(%eax)
c0105abd:	8b 45 0c             	mov    0xc(%ebp),%eax
c0105ac0:	8b 50 1c             	mov    0x1c(%eax),%edx
c0105ac3:	8b 45 fc             	mov    -0x4(%ebp),%eax
c0105ac6:	89 50 1c             	mov    %edx,0x1c(%eax)
c0105ac9:	8b 45 fc             	mov    -0x4(%ebp),%eax
c0105acc:	8b 40 1c             	mov    0x1c(%eax),%eax
c0105acf:	85 c0                	test   %eax,%eax
c0105ad1:	75 0a                	jne    c0105add <rb_right_rotation+0x51>
c0105ad3:	8b 45 08             	mov    0x8(%ebp),%eax
c0105ad6:	8b 55 fc             	mov    -0x4(%ebp),%edx
c0105ad9:	89 10                	mov    %edx,(%eax)
c0105adb:	eb 28                	jmp    c0105b05 <rb_right_rotation+0x79>
c0105add:	8b 45 0c             	mov    0xc(%ebp),%eax
c0105ae0:	8b 40 1c             	mov    0x1c(%eax),%eax
c0105ae3:	8b 40 14             	mov    0x14(%eax),%eax
c0105ae6:	39 45 0c             	cmp    %eax,0xc(%ebp)
c0105ae9:	75 0e                	jne    c0105af9 <rb_right_rotation+0x6d>
c0105aeb:	8b 45 0c             	mov    0xc(%ebp),%eax
c0105aee:	8b 40 1c             	mov    0x1c(%eax),%eax
c0105af1:	8b 55 fc             	mov    -0x4(%ebp),%edx
c0105af4:	89 50 14             	mov    %edx,0x14(%eax)
c0105af7:	eb 0c                	jmp    c0105b05 <rb_right_rotation+0x79>
c0105af9:	8b 45 0c             	mov    0xc(%ebp),%eax
c0105afc:	8b 40 1c             	mov    0x1c(%eax),%eax
c0105aff:	8b 55 fc             	mov    -0x4(%ebp),%edx
c0105b02:	89 50 18             	mov    %edx,0x18(%eax)
c0105b05:	8b 45 fc             	mov    -0x4(%ebp),%eax
c0105b08:	8b 55 0c             	mov    0xc(%ebp),%edx
c0105b0b:	89 50 18             	mov    %edx,0x18(%eax)
c0105b0e:	8b 45 0c             	mov    0xc(%ebp),%eax
c0105b11:	8b 55 fc             	mov    -0x4(%ebp),%edx
c0105b14:	89 50 1c             	mov    %edx,0x1c(%eax)
c0105b17:	90                   	nop
c0105b18:	c9                   	leave
c0105b19:	c3                   	ret

c0105b1a <insert_violations>:
c0105b1a:	55                   	push   %ebp
c0105b1b:	89 e5                	mov    %esp,%ebp
c0105b1d:	83 ec 18             	sub    $0x18,%esp
c0105b20:	83 7d 0c 00          	cmpl   $0x0,0xc(%ebp)
c0105b24:	0f 84 b7 01 00 00    	je     c0105ce1 <insert_violations+0x1c7>
c0105b2a:	8b 45 0c             	mov    0xc(%ebp),%eax
c0105b2d:	8b 40 1c             	mov    0x1c(%eax),%eax
c0105b30:	85 c0                	test   %eax,%eax
c0105b32:	75 0f                	jne    c0105b43 <insert_violations+0x29>
c0105b34:	8b 45 0c             	mov    0xc(%ebp),%eax
c0105b37:	c7 40 10 01 00 00 00 	movl   $0x1,0x10(%eax)
c0105b3e:	e9 a2 01 00 00       	jmp    c0105ce5 <insert_violations+0x1cb>
c0105b43:	8b 45 0c             	mov    0xc(%ebp),%eax
c0105b46:	8b 40 1c             	mov    0x1c(%eax),%eax
c0105b49:	8b 40 10             	mov    0x10(%eax),%eax
c0105b4c:	83 f8 01             	cmp    $0x1,%eax
c0105b4f:	0f 84 8f 01 00 00    	je     c0105ce4 <insert_violations+0x1ca>
c0105b55:	8b 45 0c             	mov    0xc(%ebp),%eax
c0105b58:	8b 40 1c             	mov    0x1c(%eax),%eax
c0105b5b:	8b 40 1c             	mov    0x1c(%eax),%eax
c0105b5e:	8b 40 14             	mov    0x14(%eax),%eax
c0105b61:	89 45 f4             	mov    %eax,-0xc(%ebp)
c0105b64:	8b 45 0c             	mov    0xc(%ebp),%eax
c0105b67:	8b 40 1c             	mov    0x1c(%eax),%eax
c0105b6a:	8b 40 1c             	mov    0x1c(%eax),%eax
c0105b6d:	8b 50 14             	mov    0x14(%eax),%edx
c0105b70:	8b 45 0c             	mov    0xc(%ebp),%eax
c0105b73:	8b 40 1c             	mov    0x1c(%eax),%eax
c0105b76:	39 c2                	cmp    %eax,%edx
c0105b78:	75 0f                	jne    c0105b89 <insert_violations+0x6f>
c0105b7a:	8b 45 0c             	mov    0xc(%ebp),%eax
c0105b7d:	8b 40 1c             	mov    0x1c(%eax),%eax
c0105b80:	8b 40 1c             	mov    0x1c(%eax),%eax
c0105b83:	8b 40 18             	mov    0x18(%eax),%eax
c0105b86:	89 45 f4             	mov    %eax,-0xc(%ebp)
c0105b89:	c7 45 f0 01 00 00 00 	movl   $0x1,-0x10(%ebp)
c0105b90:	83 7d f4 00          	cmpl   $0x0,-0xc(%ebp)
c0105b94:	74 09                	je     c0105b9f <insert_violations+0x85>
c0105b96:	8b 45 f4             	mov    -0xc(%ebp),%eax
c0105b99:	8b 40 10             	mov    0x10(%eax),%eax
c0105b9c:	89 45 f0             	mov    %eax,-0x10(%ebp)
c0105b9f:	83 7d f0 00          	cmpl   $0x0,-0x10(%ebp)
c0105ba3:	75 44                	jne    c0105be9 <insert_violations+0xcf>
c0105ba5:	8b 45 0c             	mov    0xc(%ebp),%eax
c0105ba8:	8b 40 1c             	mov    0x1c(%eax),%eax
c0105bab:	c7 40 10 01 00 00 00 	movl   $0x1,0x10(%eax)
c0105bb2:	8b 45 f4             	mov    -0xc(%ebp),%eax
c0105bb5:	c7 40 10 01 00 00 00 	movl   $0x1,0x10(%eax)
c0105bbc:	8b 45 0c             	mov    0xc(%ebp),%eax
c0105bbf:	8b 40 1c             	mov    0x1c(%eax),%eax
c0105bc2:	8b 40 1c             	mov    0x1c(%eax),%eax
c0105bc5:	c7 40 10 00 00 00 00 	movl   $0x0,0x10(%eax)
c0105bcc:	8b 45 0c             	mov    0xc(%ebp),%eax
c0105bcf:	8b 40 1c             	mov    0x1c(%eax),%eax
c0105bd2:	8b 40 1c             	mov    0x1c(%eax),%eax
c0105bd5:	83 ec 08             	sub    $0x8,%esp
c0105bd8:	50                   	push   %eax
c0105bd9:	ff 75 08             	push   0x8(%ebp)
c0105bdc:	e8 39 ff ff ff       	call   c0105b1a <insert_violations>
c0105be1:	83 c4 10             	add    $0x10,%esp
c0105be4:	e9 ea 00 00 00       	jmp    c0105cd3 <insert_violations+0x1b9>
c0105be9:	8b 45 0c             	mov    0xc(%ebp),%eax
c0105bec:	8b 40 1c             	mov    0x1c(%eax),%eax
c0105bef:	8b 40 1c             	mov    0x1c(%eax),%eax
c0105bf2:	8b 50 14             	mov    0x14(%eax),%edx
c0105bf5:	8b 45 0c             	mov    0xc(%ebp),%eax
c0105bf8:	8b 40 1c             	mov    0x1c(%eax),%eax
c0105bfb:	39 c2                	cmp    %eax,%edx
c0105bfd:	75 2e                	jne    c0105c2d <insert_violations+0x113>
c0105bff:	8b 45 0c             	mov    0xc(%ebp),%eax
c0105c02:	8b 40 1c             	mov    0x1c(%eax),%eax
c0105c05:	8b 40 18             	mov    0x18(%eax),%eax
c0105c08:	39 45 0c             	cmp    %eax,0xc(%ebp)
c0105c0b:	75 4c                	jne    c0105c59 <insert_violations+0x13f>
c0105c0d:	8b 45 0c             	mov    0xc(%ebp),%eax
c0105c10:	8b 40 1c             	mov    0x1c(%eax),%eax
c0105c13:	83 ec 08             	sub    $0x8,%esp
c0105c16:	50                   	push   %eax
c0105c17:	ff 75 08             	push   0x8(%ebp)
c0105c1a:	e8 df fd ff ff       	call   c01059fe <rb_left_rotation>
c0105c1f:	83 c4 10             	add    $0x10,%esp
c0105c22:	8b 45 0c             	mov    0xc(%ebp),%eax
c0105c25:	8b 40 14             	mov    0x14(%eax),%eax
c0105c28:	89 45 0c             	mov    %eax,0xc(%ebp)
c0105c2b:	eb 2c                	jmp    c0105c59 <insert_violations+0x13f>
c0105c2d:	8b 45 0c             	mov    0xc(%ebp),%eax
c0105c30:	8b 40 1c             	mov    0x1c(%eax),%eax
c0105c33:	8b 40 14             	mov    0x14(%eax),%eax
c0105c36:	39 45 0c             	cmp    %eax,0xc(%ebp)
c0105c39:	75 1e                	jne    c0105c59 <insert_violations+0x13f>
c0105c3b:	8b 45 0c             	mov    0xc(%ebp),%eax
c0105c3e:	8b 40 1c             	mov    0x1c(%eax),%eax
c0105c41:	83 ec 08             	sub    $0x8,%esp
c0105c44:	50                   	push   %eax
c0105c45:	ff 75 08             	push   0x8(%ebp)
c0105c48:	e8 3f fe ff ff       	call   c0105a8c <rb_right_rotation>
c0105c4d:	83 c4 10             	add    $0x10,%esp
c0105c50:	8b 45 0c             	mov    0xc(%ebp),%eax
c0105c53:	8b 40 18             	mov    0x18(%eax),%eax
c0105c56:	89 45 0c             	mov    %eax,0xc(%ebp)
c0105c59:	8b 45 0c             	mov    0xc(%ebp),%eax
c0105c5c:	8b 40 1c             	mov    0x1c(%eax),%eax
c0105c5f:	8b 40 14             	mov    0x14(%eax),%eax
c0105c62:	39 45 0c             	cmp    %eax,0xc(%ebp)
c0105c65:	75 37                	jne    c0105c9e <insert_violations+0x184>
c0105c67:	8b 45 0c             	mov    0xc(%ebp),%eax
c0105c6a:	8b 40 1c             	mov    0x1c(%eax),%eax
c0105c6d:	c7 40 10 01 00 00 00 	movl   $0x1,0x10(%eax)
c0105c74:	8b 45 0c             	mov    0xc(%ebp),%eax
c0105c77:	8b 40 1c             	mov    0x1c(%eax),%eax
c0105c7a:	8b 40 1c             	mov    0x1c(%eax),%eax
c0105c7d:	c7 40 10 00 00 00 00 	movl   $0x0,0x10(%eax)
c0105c84:	8b 45 0c             	mov    0xc(%ebp),%eax
c0105c87:	8b 40 1c             	mov    0x1c(%eax),%eax
c0105c8a:	8b 40 1c             	mov    0x1c(%eax),%eax
c0105c8d:	83 ec 08             	sub    $0x8,%esp
c0105c90:	50                   	push   %eax
c0105c91:	ff 75 08             	push   0x8(%ebp)
c0105c94:	e8 f3 fd ff ff       	call   c0105a8c <rb_right_rotation>
c0105c99:	83 c4 10             	add    $0x10,%esp
c0105c9c:	eb 35                	jmp    c0105cd3 <insert_violations+0x1b9>
c0105c9e:	8b 45 0c             	mov    0xc(%ebp),%eax
c0105ca1:	8b 40 1c             	mov    0x1c(%eax),%eax
c0105ca4:	c7 40 10 01 00 00 00 	movl   $0x1,0x10(%eax)
c0105cab:	8b 45 0c             	mov    0xc(%ebp),%eax
c0105cae:	8b 40 1c             	mov    0x1c(%eax),%eax
c0105cb1:	8b 40 1c             	mov    0x1c(%eax),%eax
c0105cb4:	c7 40 10 00 00 00 00 	movl   $0x0,0x10(%eax)
c0105cbb:	8b 45 0c             	mov    0xc(%ebp),%eax
c0105cbe:	8b 40 1c             	mov    0x1c(%eax),%eax
c0105cc1:	8b 40 1c             	mov    0x1c(%eax),%eax
c0105cc4:	83 ec 08             	sub    $0x8,%esp
c0105cc7:	50                   	push   %eax
c0105cc8:	ff 75 08             	push   0x8(%ebp)
c0105ccb:	e8 2e fd ff ff       	call   c01059fe <rb_left_rotation>
c0105cd0:	83 c4 10             	add    $0x10,%esp
c0105cd3:	8b 45 08             	mov    0x8(%ebp),%eax
c0105cd6:	8b 00                	mov    (%eax),%eax
c0105cd8:	c7 40 10 01 00 00 00 	movl   $0x1,0x10(%eax)
c0105cdf:	eb 04                	jmp    c0105ce5 <insert_violations+0x1cb>
c0105ce1:	90                   	nop
c0105ce2:	eb 01                	jmp    c0105ce5 <insert_violations+0x1cb>
c0105ce4:	90                   	nop
c0105ce5:	c9                   	leave
c0105ce6:	c3                   	ret

c0105ce7 <insert_node>:
c0105ce7:	55                   	push   %ebp
c0105ce8:	89 e5                	mov    %esp,%ebp
c0105cea:	83 ec 18             	sub    $0x18,%esp
c0105ced:	8b 45 08             	mov    0x8(%ebp),%eax
c0105cf0:	8b 00                	mov    (%eax),%eax
c0105cf2:	85 c0                	test   %eax,%eax
c0105cf4:	0f 84 a7 00 00 00    	je     c0105da1 <insert_node+0xba>
c0105cfa:	8b 45 08             	mov    0x8(%ebp),%eax
c0105cfd:	8b 00                	mov    (%eax),%eax
c0105cff:	89 45 f4             	mov    %eax,-0xc(%ebp)
c0105d02:	c7 45 f0 00 00 00 00 	movl   $0x0,-0x10(%ebp)
c0105d09:	8b 45 08             	mov    0x8(%ebp),%eax
c0105d0c:	8b 00                	mov    (%eax),%eax
c0105d0e:	c7 40 10 01 00 00 00 	movl   $0x1,0x10(%eax)
c0105d15:	c6 45 ef 00          	movb   $0x0,-0x11(%ebp)
c0105d19:	eb 32                	jmp    c0105d4d <insert_node+0x66>
c0105d1b:	8b 45 f4             	mov    -0xc(%ebp),%eax
c0105d1e:	89 45 f0             	mov    %eax,-0x10(%ebp)
c0105d21:	8b 45 0c             	mov    0xc(%ebp),%eax
c0105d24:	8b 40 08             	mov    0x8(%eax),%eax
c0105d27:	8b 55 f4             	mov    -0xc(%ebp),%edx
c0105d2a:	8b 52 08             	mov    0x8(%edx),%edx
c0105d2d:	39 c2                	cmp    %eax,%edx
c0105d2f:	73 0f                	jae    c0105d40 <insert_node+0x59>
c0105d31:	c6 45 ef 01          	movb   $0x1,-0x11(%ebp)
c0105d35:	8b 45 f4             	mov    -0xc(%ebp),%eax
c0105d38:	8b 40 18             	mov    0x18(%eax),%eax
c0105d3b:	89 45 f4             	mov    %eax,-0xc(%ebp)
c0105d3e:	eb 0d                	jmp    c0105d4d <insert_node+0x66>
c0105d40:	c6 45 ef 00          	movb   $0x0,-0x11(%ebp)
c0105d44:	8b 45 f4             	mov    -0xc(%ebp),%eax
c0105d47:	8b 40 14             	mov    0x14(%eax),%eax
c0105d4a:	89 45 f4             	mov    %eax,-0xc(%ebp)
c0105d4d:	83 7d f4 00          	cmpl   $0x0,-0xc(%ebp)
c0105d51:	75 c8                	jne    c0105d1b <insert_node+0x34>
c0105d53:	80 7d ef 00          	cmpb   $0x0,-0x11(%ebp)
c0105d57:	74 0b                	je     c0105d64 <insert_node+0x7d>
c0105d59:	8b 45 f0             	mov    -0x10(%ebp),%eax
c0105d5c:	8b 55 0c             	mov    0xc(%ebp),%edx
c0105d5f:	89 50 18             	mov    %edx,0x18(%eax)
c0105d62:	eb 09                	jmp    c0105d6d <insert_node+0x86>
c0105d64:	8b 45 f0             	mov    -0x10(%ebp),%eax
c0105d67:	8b 55 0c             	mov    0xc(%ebp),%edx
c0105d6a:	89 50 14             	mov    %edx,0x14(%eax)
c0105d6d:	8b 45 0c             	mov    0xc(%ebp),%eax
c0105d70:	8b 55 f0             	mov    -0x10(%ebp),%edx
c0105d73:	89 50 1c             	mov    %edx,0x1c(%eax)
c0105d76:	8b 45 0c             	mov    0xc(%ebp),%eax
c0105d79:	c7 40 10 00 00 00 00 	movl   $0x0,0x10(%eax)
c0105d80:	8b 45 0c             	mov    0xc(%ebp),%eax
c0105d83:	8b 40 1c             	mov    0x1c(%eax),%eax
c0105d86:	8b 40 10             	mov    0x10(%eax),%eax
c0105d89:	83 f8 01             	cmp    $0x1,%eax
c0105d8c:	74 14                	je     c0105da2 <insert_node+0xbb>
c0105d8e:	83 ec 08             	sub    $0x8,%esp
c0105d91:	ff 75 0c             	push   0xc(%ebp)
c0105d94:	ff 75 08             	push   0x8(%ebp)
c0105d97:	e8 7e fd ff ff       	call   c0105b1a <insert_violations>
c0105d9c:	83 c4 10             	add    $0x10,%esp
c0105d9f:	eb 01                	jmp    c0105da2 <insert_node+0xbb>
c0105da1:	90                   	nop
c0105da2:	c9                   	leave
c0105da3:	c3                   	ret

c0105da4 <delete_violations>:
c0105da4:	55                   	push   %ebp
c0105da5:	89 e5                	mov    %esp,%ebp
c0105da7:	83 ec 28             	sub    $0x28,%esp
c0105daa:	8b 45 0c             	mov    0xc(%ebp),%eax
c0105dad:	8b 40 1c             	mov    0x1c(%eax),%eax
c0105db0:	85 c0                	test   %eax,%eax
c0105db2:	75 0f                	jne    c0105dc3 <delete_violations+0x1f>
c0105db4:	8b 45 0c             	mov    0xc(%ebp),%eax
c0105db7:	c7 40 10 01 00 00 00 	movl   $0x1,0x10(%eax)
c0105dbe:	e9 17 03 00 00       	jmp    c01060da <delete_violations+0x336>
c0105dc3:	8b 45 0c             	mov    0xc(%ebp),%eax
c0105dc6:	8b 40 10             	mov    0x10(%eax),%eax
c0105dc9:	83 f8 02             	cmp    $0x2,%eax
c0105dcc:	74 10                	je     c0105dde <delete_violations+0x3a>
c0105dce:	8b 45 0c             	mov    0xc(%ebp),%eax
c0105dd1:	8b 40 10             	mov    0x10(%eax),%eax
c0105dd4:	85 c0                	test   %eax,%eax
c0105dd6:	0f 84 fd 02 00 00    	je     c01060d9 <delete_violations+0x335>
c0105ddc:	eb 01                	jmp    c0105ddf <delete_violations+0x3b>
c0105dde:	90                   	nop
c0105ddf:	c7 45 f4 00 00 00 00 	movl   $0x0,-0xc(%ebp)
c0105de6:	8b 45 0c             	mov    0xc(%ebp),%eax
c0105de9:	8b 40 1c             	mov    0x1c(%eax),%eax
c0105dec:	8b 40 14             	mov    0x14(%eax),%eax
c0105def:	89 45 f0             	mov    %eax,-0x10(%ebp)
c0105df2:	8b 45 f0             	mov    -0x10(%ebp),%eax
c0105df5:	3b 45 0c             	cmp    0xc(%ebp),%eax
c0105df8:	75 13                	jne    c0105e0d <delete_violations+0x69>
c0105dfa:	8b 45 0c             	mov    0xc(%ebp),%eax
c0105dfd:	8b 40 1c             	mov    0x1c(%eax),%eax
c0105e00:	8b 40 18             	mov    0x18(%eax),%eax
c0105e03:	89 45 f0             	mov    %eax,-0x10(%ebp)
c0105e06:	c7 45 f4 01 00 00 00 	movl   $0x1,-0xc(%ebp)
c0105e0d:	8b 45 0c             	mov    0xc(%ebp),%eax
c0105e10:	8b 40 10             	mov    0x10(%eax),%eax
c0105e13:	83 f8 01             	cmp    $0x1,%eax
c0105e16:	74 0f                	je     c0105e27 <delete_violations+0x83>
c0105e18:	8b 45 0c             	mov    0xc(%ebp),%eax
c0105e1b:	8b 40 10             	mov    0x10(%eax),%eax
c0105e1e:	83 f8 02             	cmp    $0x2,%eax
c0105e21:	0f 85 b3 02 00 00    	jne    c01060da <delete_violations+0x336>
c0105e27:	8b 45 0c             	mov    0xc(%ebp),%eax
c0105e2a:	c7 40 10 02 00 00 00 	movl   $0x2,0x10(%eax)
c0105e31:	c7 45 ec 01 00 00 00 	movl   $0x1,-0x14(%ebp)
c0105e38:	c7 45 e8 01 00 00 00 	movl   $0x1,-0x18(%ebp)
c0105e3f:	8b 45 f0             	mov    -0x10(%ebp),%eax
c0105e42:	8b 40 14             	mov    0x14(%eax),%eax
c0105e45:	85 c0                	test   %eax,%eax
c0105e47:	74 0c                	je     c0105e55 <delete_violations+0xb1>
c0105e49:	8b 45 f0             	mov    -0x10(%ebp),%eax
c0105e4c:	8b 40 14             	mov    0x14(%eax),%eax
c0105e4f:	8b 40 10             	mov    0x10(%eax),%eax
c0105e52:	89 45 ec             	mov    %eax,-0x14(%ebp)
c0105e55:	8b 45 f0             	mov    -0x10(%ebp),%eax
c0105e58:	8b 40 18             	mov    0x18(%eax),%eax
c0105e5b:	85 c0                	test   %eax,%eax
c0105e5d:	74 0c                	je     c0105e6b <delete_violations+0xc7>
c0105e5f:	8b 45 f0             	mov    -0x10(%ebp),%eax
c0105e62:	8b 40 18             	mov    0x18(%eax),%eax
c0105e65:	8b 40 10             	mov    0x10(%eax),%eax
c0105e68:	89 45 e8             	mov    %eax,-0x18(%ebp)
c0105e6b:	8b 45 f0             	mov    -0x10(%ebp),%eax
c0105e6e:	8b 40 10             	mov    0x10(%eax),%eax
c0105e71:	83 f8 01             	cmp    $0x1,%eax
c0105e74:	75 67                	jne    c0105edd <delete_violations+0x139>
c0105e76:	83 7d ec 01          	cmpl   $0x1,-0x14(%ebp)
c0105e7a:	75 61                	jne    c0105edd <delete_violations+0x139>
c0105e7c:	83 7d e8 01          	cmpl   $0x1,-0x18(%ebp)
c0105e80:	75 5b                	jne    c0105edd <delete_violations+0x139>
c0105e82:	8b 45 0c             	mov    0xc(%ebp),%eax
c0105e85:	c7 40 10 01 00 00 00 	movl   $0x1,0x10(%eax)
c0105e8c:	8b 45 f0             	mov    -0x10(%ebp),%eax
c0105e8f:	c7 40 10 00 00 00 00 	movl   $0x0,0x10(%eax)
c0105e96:	8b 45 0c             	mov    0xc(%ebp),%eax
c0105e99:	8b 40 1c             	mov    0x1c(%eax),%eax
c0105e9c:	8b 40 10             	mov    0x10(%eax),%eax
c0105e9f:	83 f8 01             	cmp    $0x1,%eax
c0105ea2:	75 27                	jne    c0105ecb <delete_violations+0x127>
c0105ea4:	8b 45 0c             	mov    0xc(%ebp),%eax
c0105ea7:	8b 40 1c             	mov    0x1c(%eax),%eax
c0105eaa:	c7 40 10 02 00 00 00 	movl   $0x2,0x10(%eax)
c0105eb1:	8b 45 0c             	mov    0xc(%ebp),%eax
c0105eb4:	8b 40 1c             	mov    0x1c(%eax),%eax
c0105eb7:	83 ec 08             	sub    $0x8,%esp
c0105eba:	50                   	push   %eax
c0105ebb:	ff 75 08             	push   0x8(%ebp)
c0105ebe:	e8 e1 fe ff ff       	call   c0105da4 <delete_violations>
c0105ec3:	83 c4 10             	add    $0x10,%esp
c0105ec6:	e9 0f 02 00 00       	jmp    c01060da <delete_violations+0x336>
c0105ecb:	8b 45 0c             	mov    0xc(%ebp),%eax
c0105ece:	8b 40 1c             	mov    0x1c(%eax),%eax
c0105ed1:	c7 40 10 01 00 00 00 	movl   $0x1,0x10(%eax)
c0105ed8:	e9 fd 01 00 00       	jmp    c01060da <delete_violations+0x336>
c0105edd:	8b 45 f0             	mov    -0x10(%ebp),%eax
c0105ee0:	8b 40 10             	mov    0x10(%eax),%eax
c0105ee3:	85 c0                	test   %eax,%eax
c0105ee5:	75 6c                	jne    c0105f53 <delete_violations+0x1af>
c0105ee7:	8b 45 f0             	mov    -0x10(%ebp),%eax
c0105eea:	8b 40 10             	mov    0x10(%eax),%eax
c0105eed:	89 45 dc             	mov    %eax,-0x24(%ebp)
c0105ef0:	8b 45 0c             	mov    0xc(%ebp),%eax
c0105ef3:	8b 40 1c             	mov    0x1c(%eax),%eax
c0105ef6:	8b 50 10             	mov    0x10(%eax),%edx
c0105ef9:	8b 45 f0             	mov    -0x10(%ebp),%eax
c0105efc:	89 50 10             	mov    %edx,0x10(%eax)
c0105eff:	8b 45 0c             	mov    0xc(%ebp),%eax
c0105f02:	8b 40 1c             	mov    0x1c(%eax),%eax
c0105f05:	8b 55 dc             	mov    -0x24(%ebp),%edx
c0105f08:	89 50 10             	mov    %edx,0x10(%eax)
c0105f0b:	83 7d f4 00          	cmpl   $0x0,-0xc(%ebp)
c0105f0f:	74 17                	je     c0105f28 <delete_violations+0x184>
c0105f11:	8b 45 0c             	mov    0xc(%ebp),%eax
c0105f14:	8b 40 1c             	mov    0x1c(%eax),%eax
c0105f17:	83 ec 08             	sub    $0x8,%esp
c0105f1a:	50                   	push   %eax
c0105f1b:	ff 75 08             	push   0x8(%ebp)
c0105f1e:	e8 db fa ff ff       	call   c01059fe <rb_left_rotation>
c0105f23:	83 c4 10             	add    $0x10,%esp
c0105f26:	eb 15                	jmp    c0105f3d <delete_violations+0x199>
c0105f28:	8b 45 0c             	mov    0xc(%ebp),%eax
c0105f2b:	8b 40 1c             	mov    0x1c(%eax),%eax
c0105f2e:	83 ec 08             	sub    $0x8,%esp
c0105f31:	50                   	push   %eax
c0105f32:	ff 75 08             	push   0x8(%ebp)
c0105f35:	e8 52 fb ff ff       	call   c0105a8c <rb_right_rotation>
c0105f3a:	83 c4 10             	add    $0x10,%esp
c0105f3d:	83 ec 08             	sub    $0x8,%esp
c0105f40:	ff 75 0c             	push   0xc(%ebp)
c0105f43:	ff 75 08             	push   0x8(%ebp)
c0105f46:	e8 59 fe ff ff       	call   c0105da4 <delete_violations>
c0105f4b:	83 c4 10             	add    $0x10,%esp
c0105f4e:	e9 87 01 00 00       	jmp    c01060da <delete_violations+0x336>
c0105f53:	8b 45 f0             	mov    -0x10(%ebp),%eax
c0105f56:	8b 40 10             	mov    0x10(%eax),%eax
c0105f59:	83 f8 01             	cmp    $0x1,%eax
c0105f5c:	0f 85 78 01 00 00    	jne    c01060da <delete_violations+0x336>
c0105f62:	83 7d ec 01          	cmpl   $0x1,-0x14(%ebp)
c0105f66:	75 3f                	jne    c0105fa7 <delete_violations+0x203>
c0105f68:	83 7d e8 00          	cmpl   $0x0,-0x18(%ebp)
c0105f6c:	75 39                	jne    c0105fa7 <delete_violations+0x203>
c0105f6e:	83 7d f4 00          	cmpl   $0x0,-0xc(%ebp)
c0105f72:	75 33                	jne    c0105fa7 <delete_violations+0x203>
c0105f74:	8b 45 f0             	mov    -0x10(%ebp),%eax
c0105f77:	c7 40 10 00 00 00 00 	movl   $0x0,0x10(%eax)
c0105f7e:	8b 45 f0             	mov    -0x10(%ebp),%eax
c0105f81:	8b 40 18             	mov    0x18(%eax),%eax
c0105f84:	c7 40 10 01 00 00 00 	movl   $0x1,0x10(%eax)
c0105f8b:	83 ec 08             	sub    $0x8,%esp
c0105f8e:	ff 75 f0             	push   -0x10(%ebp)
c0105f91:	ff 75 08             	push   0x8(%ebp)
c0105f94:	e8 65 fa ff ff       	call   c01059fe <rb_left_rotation>
c0105f99:	83 c4 10             	add    $0x10,%esp
c0105f9c:	8b 45 f0             	mov    -0x10(%ebp),%eax
c0105f9f:	8b 40 14             	mov    0x14(%eax),%eax
c0105fa2:	89 45 f0             	mov    %eax,-0x10(%ebp)
c0105fa5:	eb 43                	jmp    c0105fea <delete_violations+0x246>
c0105fa7:	83 7d e8 01          	cmpl   $0x1,-0x18(%ebp)
c0105fab:	75 3d                	jne    c0105fea <delete_violations+0x246>
c0105fad:	83 7d ec 00          	cmpl   $0x0,-0x14(%ebp)
c0105fb1:	75 37                	jne    c0105fea <delete_violations+0x246>
c0105fb3:	83 7d f4 00          	cmpl   $0x0,-0xc(%ebp)
c0105fb7:	74 31                	je     c0105fea <delete_violations+0x246>
c0105fb9:	8b 45 f0             	mov    -0x10(%ebp),%eax
c0105fbc:	c7 40 10 00 00 00 00 	movl   $0x0,0x10(%eax)
c0105fc3:	8b 45 f0             	mov    -0x10(%ebp),%eax
c0105fc6:	8b 40 14             	mov    0x14(%eax),%eax
c0105fc9:	c7 40 10 01 00 00 00 	movl   $0x1,0x10(%eax)
c0105fd0:	83 ec 08             	sub    $0x8,%esp
c0105fd3:	ff 75 f0             	push   -0x10(%ebp)
c0105fd6:	ff 75 08             	push   0x8(%ebp)
c0105fd9:	e8 ae fa ff ff       	call   c0105a8c <rb_right_rotation>
c0105fde:	83 c4 10             	add    $0x10,%esp
c0105fe1:	8b 45 f0             	mov    -0x10(%ebp),%eax
c0105fe4:	8b 40 18             	mov    0x18(%eax),%eax
c0105fe7:	89 45 f0             	mov    %eax,-0x10(%ebp)
c0105fea:	8b 45 0c             	mov    0xc(%ebp),%eax
c0105fed:	8b 40 1c             	mov    0x1c(%eax),%eax
c0105ff0:	8b 40 14             	mov    0x14(%eax),%eax
c0105ff3:	89 45 f0             	mov    %eax,-0x10(%ebp)
c0105ff6:	8b 45 f0             	mov    -0x10(%ebp),%eax
c0105ff9:	3b 45 0c             	cmp    0xc(%ebp),%eax
c0105ffc:	75 13                	jne    c0106011 <delete_violations+0x26d>
c0105ffe:	8b 45 0c             	mov    0xc(%ebp),%eax
c0106001:	8b 40 1c             	mov    0x1c(%eax),%eax
c0106004:	8b 40 18             	mov    0x18(%eax),%eax
c0106007:	89 45 f0             	mov    %eax,-0x10(%ebp)
c010600a:	c7 45 f4 01 00 00 00 	movl   $0x1,-0xc(%ebp)
c0106011:	83 7d ec 00          	cmpl   $0x0,-0x14(%ebp)
c0106015:	75 5e                	jne    c0106075 <delete_violations+0x2d1>
c0106017:	83 7d f4 00          	cmpl   $0x0,-0xc(%ebp)
c010601b:	74 58                	je     c0106075 <delete_violations+0x2d1>
c010601d:	8b 45 0c             	mov    0xc(%ebp),%eax
c0106020:	8b 40 1c             	mov    0x1c(%eax),%eax
c0106023:	8b 40 10             	mov    0x10(%eax),%eax
c0106026:	89 45 e4             	mov    %eax,-0x1c(%ebp)
c0106029:	8b 45 0c             	mov    0xc(%ebp),%eax
c010602c:	8b 40 1c             	mov    0x1c(%eax),%eax
c010602f:	8b 55 f0             	mov    -0x10(%ebp),%edx
c0106032:	8b 52 10             	mov    0x10(%edx),%edx
c0106035:	89 50 10             	mov    %edx,0x10(%eax)
c0106038:	8b 45 f0             	mov    -0x10(%ebp),%eax
c010603b:	8b 55 e4             	mov    -0x1c(%ebp),%edx
c010603e:	89 50 10             	mov    %edx,0x10(%eax)
c0106041:	8b 45 0c             	mov    0xc(%ebp),%eax
c0106044:	8b 40 1c             	mov    0x1c(%eax),%eax
c0106047:	83 ec 08             	sub    $0x8,%esp
c010604a:	50                   	push   %eax
c010604b:	ff 75 08             	push   0x8(%ebp)
c010604e:	e8 ab f9 ff ff       	call   c01059fe <rb_left_rotation>
c0106053:	83 c4 10             	add    $0x10,%esp
c0106056:	8b 45 0c             	mov    0xc(%ebp),%eax
c0106059:	c7 40 10 01 00 00 00 	movl   $0x1,0x10(%eax)
c0106060:	8b 45 0c             	mov    0xc(%ebp),%eax
c0106063:	8b 40 1c             	mov    0x1c(%eax),%eax
c0106066:	8b 40 1c             	mov    0x1c(%eax),%eax
c0106069:	8b 40 18             	mov    0x18(%eax),%eax
c010606c:	c7 40 10 01 00 00 00 	movl   $0x1,0x10(%eax)
c0106073:	eb 65                	jmp    c01060da <delete_violations+0x336>
c0106075:	83 7d e8 00          	cmpl   $0x0,-0x18(%ebp)
c0106079:	75 5f                	jne    c01060da <delete_violations+0x336>
c010607b:	83 7d f4 00          	cmpl   $0x0,-0xc(%ebp)
c010607f:	75 59                	jne    c01060da <delete_violations+0x336>
c0106081:	8b 45 0c             	mov    0xc(%ebp),%eax
c0106084:	8b 40 1c             	mov    0x1c(%eax),%eax
c0106087:	8b 40 10             	mov    0x10(%eax),%eax
c010608a:	89 45 e0             	mov    %eax,-0x20(%ebp)
c010608d:	8b 45 0c             	mov    0xc(%ebp),%eax
c0106090:	8b 40 1c             	mov    0x1c(%eax),%eax
c0106093:	8b 55 f0             	mov    -0x10(%ebp),%edx
c0106096:	8b 52 10             	mov    0x10(%edx),%edx
c0106099:	89 50 10             	mov    %edx,0x10(%eax)
c010609c:	8b 45 f0             	mov    -0x10(%ebp),%eax
c010609f:	8b 55 e0             	mov    -0x20(%ebp),%edx
c01060a2:	89 50 10             	mov    %edx,0x10(%eax)
c01060a5:	8b 45 0c             	mov    0xc(%ebp),%eax
c01060a8:	8b 40 1c             	mov    0x1c(%eax),%eax
c01060ab:	83 ec 08             	sub    $0x8,%esp
c01060ae:	50                   	push   %eax
c01060af:	ff 75 08             	push   0x8(%ebp)
c01060b2:	e8 d5 f9 ff ff       	call   c0105a8c <rb_right_rotation>
c01060b7:	83 c4 10             	add    $0x10,%esp
c01060ba:	8b 45 0c             	mov    0xc(%ebp),%eax
c01060bd:	c7 40 10 01 00 00 00 	movl   $0x1,0x10(%eax)
c01060c4:	8b 45 0c             	mov    0xc(%ebp),%eax
c01060c7:	8b 40 1c             	mov    0x1c(%eax),%eax
c01060ca:	8b 40 1c             	mov    0x1c(%eax),%eax
c01060cd:	8b 40 14             	mov    0x14(%eax),%eax
c01060d0:	c7 40 10 01 00 00 00 	movl   $0x1,0x10(%eax)
c01060d7:	eb 01                	jmp    c01060da <delete_violations+0x336>
c01060d9:	90                   	nop
c01060da:	c9                   	leave
c01060db:	c3                   	ret

c01060dc <delete_node>:
c01060dc:	55                   	push   %ebp
c01060dd:	89 e5                	mov    %esp,%ebp
c01060df:	83 ec 18             	sub    $0x18,%esp
c01060e2:	8b 45 0c             	mov    0xc(%ebp),%eax
c01060e5:	8b 00                	mov    (%eax),%eax
c01060e7:	39 45 10             	cmp    %eax,0x10(%ebp)
c01060ea:	75 2e                	jne    c010611a <delete_node+0x3e>
c01060ec:	8b 45 10             	mov    0x10(%ebp),%eax
c01060ef:	8b 40 14             	mov    0x14(%eax),%eax
c01060f2:	85 c0                	test   %eax,%eax
c01060f4:	75 24                	jne    c010611a <delete_node+0x3e>
c01060f6:	8b 45 10             	mov    0x10(%ebp),%eax
c01060f9:	8b 40 18             	mov    0x18(%eax),%eax
c01060fc:	85 c0                	test   %eax,%eax
c01060fe:	75 1a                	jne    c010611a <delete_node+0x3e>
c0106100:	8b 45 0c             	mov    0xc(%ebp),%eax
c0106103:	c7 00 00 00 00 00    	movl   $0x0,(%eax)
c0106109:	83 ec 08             	sub    $0x8,%esp
c010610c:	ff 75 08             	push   0x8(%ebp)
c010610f:	ff 75 10             	push   0x10(%ebp)
c0106112:	e8 9c f8 ff ff       	call   c01059b3 <free_node_obj>
c0106117:	83 c4 10             	add    $0x10,%esp
c010611a:	8b 45 10             	mov    0x10(%ebp),%eax
c010611d:	8b 40 14             	mov    0x14(%eax),%eax
c0106120:	85 c0                	test   %eax,%eax
c0106122:	75 60                	jne    c0106184 <delete_node+0xa8>
c0106124:	8b 45 10             	mov    0x10(%ebp),%eax
c0106127:	8b 40 18             	mov    0x18(%eax),%eax
c010612a:	85 c0                	test   %eax,%eax
c010612c:	75 56                	jne    c0106184 <delete_node+0xa8>
c010612e:	8b 45 10             	mov    0x10(%ebp),%eax
c0106131:	8b 40 1c             	mov    0x1c(%eax),%eax
c0106134:	89 45 ec             	mov    %eax,-0x14(%ebp)
c0106137:	83 ec 08             	sub    $0x8,%esp
c010613a:	ff 75 10             	push   0x10(%ebp)
c010613d:	ff 75 0c             	push   0xc(%ebp)
c0106140:	e8 5f fc ff ff       	call   c0105da4 <delete_violations>
c0106145:	83 c4 10             	add    $0x10,%esp
c0106148:	8b 45 10             	mov    0x10(%ebp),%eax
c010614b:	8b 40 08             	mov    0x8(%eax),%eax
c010614e:	8b 55 ec             	mov    -0x14(%ebp),%edx
c0106151:	8b 52 08             	mov    0x8(%edx),%edx
c0106154:	39 c2                	cmp    %eax,%edx
c0106156:	73 0c                	jae    c0106164 <delete_node+0x88>
c0106158:	8b 45 ec             	mov    -0x14(%ebp),%eax
c010615b:	c7 40 18 00 00 00 00 	movl   $0x0,0x18(%eax)
c0106162:	eb 0a                	jmp    c010616e <delete_node+0x92>
c0106164:	8b 45 ec             	mov    -0x14(%ebp),%eax
c0106167:	c7 40 14 00 00 00 00 	movl   $0x0,0x14(%eax)
c010616e:	83 ec 08             	sub    $0x8,%esp
c0106171:	ff 75 08             	push   0x8(%ebp)
c0106174:	ff 75 10             	push   0x10(%ebp)
c0106177:	e8 37 f8 ff ff       	call   c01059b3 <free_node_obj>
c010617c:	83 c4 10             	add    $0x10,%esp
c010617f:	e9 60 01 00 00       	jmp    c01062e4 <delete_node+0x208>
c0106184:	8b 45 10             	mov    0x10(%ebp),%eax
c0106187:	8b 40 14             	mov    0x14(%eax),%eax
c010618a:	85 c0                	test   %eax,%eax
c010618c:	0f 84 b8 00 00 00    	je     c010624a <delete_node+0x16e>
c0106192:	8b 45 10             	mov    0x10(%ebp),%eax
c0106195:	8b 40 18             	mov    0x18(%eax),%eax
c0106198:	85 c0                	test   %eax,%eax
c010619a:	0f 84 aa 00 00 00    	je     c010624a <delete_node+0x16e>
c01061a0:	8b 45 10             	mov    0x10(%ebp),%eax
c01061a3:	8b 40 14             	mov    0x14(%eax),%eax
c01061a6:	89 45 f4             	mov    %eax,-0xc(%ebp)
c01061a9:	eb 13                	jmp    c01061be <delete_node+0xe2>
c01061ab:	8b 45 f4             	mov    -0xc(%ebp),%eax
c01061ae:	8b 40 18             	mov    0x18(%eax),%eax
c01061b1:	85 c0                	test   %eax,%eax
c01061b3:	74 11                	je     c01061c6 <delete_node+0xea>
c01061b5:	8b 45 f4             	mov    -0xc(%ebp),%eax
c01061b8:	8b 40 18             	mov    0x18(%eax),%eax
c01061bb:	89 45 f4             	mov    %eax,-0xc(%ebp)
c01061be:	83 7d f4 00          	cmpl   $0x0,-0xc(%ebp)
c01061c2:	75 e7                	jne    c01061ab <delete_node+0xcf>
c01061c4:	eb 01                	jmp    c01061c7 <delete_node+0xeb>
c01061c6:	90                   	nop
c01061c7:	83 ec 08             	sub    $0x8,%esp
c01061ca:	ff 75 f4             	push   -0xc(%ebp)
c01061cd:	ff 75 0c             	push   0xc(%ebp)
c01061d0:	e8 cf fb ff ff       	call   c0105da4 <delete_violations>
c01061d5:	83 c4 10             	add    $0x10,%esp
c01061d8:	8b 45 f4             	mov    -0xc(%ebp),%eax
c01061db:	8b 50 04             	mov    0x4(%eax),%edx
c01061de:	8b 45 10             	mov    0x10(%ebp),%eax
c01061e1:	89 50 04             	mov    %edx,0x4(%eax)
c01061e4:	8b 45 f4             	mov    -0xc(%ebp),%eax
c01061e7:	8b 50 08             	mov    0x8(%eax),%edx
c01061ea:	8b 45 10             	mov    0x10(%ebp),%eax
c01061ed:	89 50 08             	mov    %edx,0x8(%eax)
c01061f0:	8b 45 f4             	mov    -0xc(%ebp),%eax
c01061f3:	8b 50 0c             	mov    0xc(%eax),%edx
c01061f6:	8b 45 10             	mov    0x10(%ebp),%eax
c01061f9:	89 50 0c             	mov    %edx,0xc(%eax)
c01061fc:	8b 45 10             	mov    0x10(%ebp),%eax
c01061ff:	8b 40 14             	mov    0x14(%eax),%eax
c0106202:	39 45 f4             	cmp    %eax,-0xc(%ebp)
c0106205:	75 0c                	jne    c0106213 <delete_node+0x137>
c0106207:	8b 45 10             	mov    0x10(%ebp),%eax
c010620a:	c7 40 14 00 00 00 00 	movl   $0x0,0x14(%eax)
c0106211:	eb 0d                	jmp    c0106220 <delete_node+0x144>
c0106213:	8b 45 f4             	mov    -0xc(%ebp),%eax
c0106216:	8b 40 1c             	mov    0x1c(%eax),%eax
c0106219:	c7 40 18 00 00 00 00 	movl   $0x0,0x18(%eax)
c0106220:	8b 45 0c             	mov    0xc(%ebp),%eax
c0106223:	8b 00                	mov    (%eax),%eax
c0106225:	39 45 10             	cmp    %eax,0x10(%ebp)
c0106228:	75 0a                	jne    c0106234 <delete_node+0x158>
c010622a:	8b 45 10             	mov    0x10(%ebp),%eax
c010622d:	c7 40 10 01 00 00 00 	movl   $0x1,0x10(%eax)
c0106234:	83 ec 08             	sub    $0x8,%esp
c0106237:	ff 75 08             	push   0x8(%ebp)
c010623a:	ff 75 f4             	push   -0xc(%ebp)
c010623d:	e8 71 f7 ff ff       	call   c01059b3 <free_node_obj>
c0106242:	83 c4 10             	add    $0x10,%esp
c0106245:	e9 9a 00 00 00       	jmp    c01062e4 <delete_node+0x208>
c010624a:	8b 45 10             	mov    0x10(%ebp),%eax
c010624d:	8b 40 18             	mov    0x18(%eax),%eax
c0106250:	89 45 f0             	mov    %eax,-0x10(%ebp)
c0106253:	8b 45 10             	mov    0x10(%ebp),%eax
c0106256:	8b 40 14             	mov    0x14(%eax),%eax
c0106259:	85 c0                	test   %eax,%eax
c010625b:	74 09                	je     c0106266 <delete_node+0x18a>
c010625d:	8b 45 10             	mov    0x10(%ebp),%eax
c0106260:	8b 40 14             	mov    0x14(%eax),%eax
c0106263:	89 45 f0             	mov    %eax,-0x10(%ebp)
c0106266:	8b 45 f0             	mov    -0x10(%ebp),%eax
c0106269:	8b 50 04             	mov    0x4(%eax),%edx
c010626c:	8b 45 10             	mov    0x10(%ebp),%eax
c010626f:	89 50 04             	mov    %edx,0x4(%eax)
c0106272:	8b 45 f0             	mov    -0x10(%ebp),%eax
c0106275:	8b 50 08             	mov    0x8(%eax),%edx
c0106278:	8b 45 10             	mov    0x10(%ebp),%eax
c010627b:	89 50 08             	mov    %edx,0x8(%eax)
c010627e:	8b 45 f0             	mov    -0x10(%ebp),%eax
c0106281:	8b 50 0c             	mov    0xc(%eax),%edx
c0106284:	8b 45 10             	mov    0x10(%ebp),%eax
c0106287:	89 50 0c             	mov    %edx,0xc(%eax)
c010628a:	83 ec 08             	sub    $0x8,%esp
c010628d:	ff 75 f0             	push   -0x10(%ebp)
c0106290:	ff 75 0c             	push   0xc(%ebp)
c0106293:	e8 0c fb ff ff       	call   c0105da4 <delete_violations>
c0106298:	83 c4 10             	add    $0x10,%esp
c010629b:	8b 45 f0             	mov    -0x10(%ebp),%eax
c010629e:	8b 50 10             	mov    0x10(%eax),%edx
c01062a1:	8b 45 10             	mov    0x10(%ebp),%eax
c01062a4:	89 50 10             	mov    %edx,0x10(%eax)
c01062a7:	8b 45 f0             	mov    -0x10(%ebp),%eax
c01062aa:	8b 50 18             	mov    0x18(%eax),%edx
c01062ad:	8b 45 10             	mov    0x10(%ebp),%eax
c01062b0:	89 50 18             	mov    %edx,0x18(%eax)
c01062b3:	8b 45 f0             	mov    -0x10(%ebp),%eax
c01062b6:	8b 50 14             	mov    0x14(%eax),%edx
c01062b9:	8b 45 10             	mov    0x10(%ebp),%eax
c01062bc:	89 50 14             	mov    %edx,0x14(%eax)
c01062bf:	8b 45 0c             	mov    0xc(%ebp),%eax
c01062c2:	8b 00                	mov    (%eax),%eax
c01062c4:	39 45 10             	cmp    %eax,0x10(%ebp)
c01062c7:	75 0a                	jne    c01062d3 <delete_node+0x1f7>
c01062c9:	8b 45 10             	mov    0x10(%ebp),%eax
c01062cc:	c7 40 10 01 00 00 00 	movl   $0x1,0x10(%eax)
c01062d3:	83 ec 08             	sub    $0x8,%esp
c01062d6:	ff 75 08             	push   0x8(%ebp)
c01062d9:	ff 75 f0             	push   -0x10(%ebp)
c01062dc:	e8 d2 f6 ff ff       	call   c01059b3 <free_node_obj>
c01062e1:	83 c4 10             	add    $0x10,%esp
c01062e4:	c9                   	leave
c01062e5:	c3                   	ret

c01062e6 <make_node>:
c01062e6:	55                   	push   %ebp
c01062e7:	89 e5                	mov    %esp,%ebp
c01062e9:	83 ec 18             	sub    $0x18,%esp
c01062ec:	ff 75 08             	push   0x8(%ebp)
c01062ef:	e8 8b f6 ff ff       	call   c010597f <alloc_node_obj>
c01062f4:	83 c4 04             	add    $0x4,%esp
c01062f7:	89 45 f4             	mov    %eax,-0xc(%ebp)
c01062fa:	8b 45 f4             	mov    -0xc(%ebp),%eax
c01062fd:	8b 55 10             	mov    0x10(%ebp),%edx
c0106300:	89 50 08             	mov    %edx,0x8(%eax)
c0106303:	8b 55 14             	mov    0x14(%ebp),%edx
c0106306:	8b 45 f4             	mov    -0xc(%ebp),%eax
c0106309:	89 10                	mov    %edx,(%eax)
c010630b:	8b 45 f4             	mov    -0xc(%ebp),%eax
c010630e:	8b 55 0c             	mov    0xc(%ebp),%edx
c0106311:	89 50 04             	mov    %edx,0x4(%eax)
c0106314:	8b 45 08             	mov    0x8(%ebp),%eax
c0106317:	8b 40 04             	mov    0x4(%eax),%eax
c010631a:	85 c0                	test   %eax,%eax
c010631c:	75 33                	jne    c0106351 <make_node+0x6b>
c010631e:	8b 45 f4             	mov    -0xc(%ebp),%eax
c0106321:	c7 40 10 01 00 00 00 	movl   $0x1,0x10(%eax)
c0106328:	8b 45 f4             	mov    -0xc(%ebp),%eax
c010632b:	c7 40 14 00 00 00 00 	movl   $0x0,0x14(%eax)
c0106332:	8b 45 f4             	mov    -0xc(%ebp),%eax
c0106335:	c7 40 18 00 00 00 00 	movl   $0x0,0x18(%eax)
c010633c:	8b 45 f4             	mov    -0xc(%ebp),%eax
c010633f:	c7 40 1c 00 00 00 00 	movl   $0x0,0x1c(%eax)
c0106346:	8b 45 08             	mov    0x8(%ebp),%eax
c0106349:	8b 55 f4             	mov    -0xc(%ebp),%edx
c010634c:	89 50 04             	mov    %edx,0x4(%eax)
c010634f:	eb 15                	jmp    c0106366 <make_node+0x80>
c0106351:	8b 45 08             	mov    0x8(%ebp),%eax
c0106354:	83 c0 04             	add    $0x4,%eax
c0106357:	83 ec 08             	sub    $0x8,%esp
c010635a:	ff 75 f4             	push   -0xc(%ebp)
c010635d:	50                   	push   %eax
c010635e:	e8 84 f9 ff ff       	call   c0105ce7 <insert_node>
c0106363:	83 c4 10             	add    $0x10,%esp
c0106366:	8b 45 f4             	mov    -0xc(%ebp),%eax
c0106369:	c9                   	leave
c010636a:	c3                   	ret

c010636b <find_node>:
c010636b:	55                   	push   %ebp
c010636c:	89 e5                	mov    %esp,%ebp
c010636e:	83 ec 18             	sub    $0x18,%esp
c0106371:	8b 45 08             	mov    0x8(%ebp),%eax
c0106374:	89 45 f4             	mov    %eax,-0xc(%ebp)
c0106377:	c7 45 f0 00 00 00 00 	movl   $0x0,-0x10(%ebp)
c010637e:	eb 33                	jmp    c01063b3 <find_node+0x48>
c0106380:	8b 45 f4             	mov    -0xc(%ebp),%eax
c0106383:	8b 40 08             	mov    0x8(%eax),%eax
c0106386:	39 45 0c             	cmp    %eax,0xc(%ebp)
c0106389:	75 09                	jne    c0106394 <find_node+0x29>
c010638b:	c7 45 f0 01 00 00 00 	movl   $0x1,-0x10(%ebp)
c0106392:	eb 25                	jmp    c01063b9 <find_node+0x4e>
c0106394:	8b 45 f4             	mov    -0xc(%ebp),%eax
c0106397:	8b 40 08             	mov    0x8(%eax),%eax
c010639a:	39 45 0c             	cmp    %eax,0xc(%ebp)
c010639d:	72 0b                	jb     c01063aa <find_node+0x3f>
c010639f:	8b 45 f4             	mov    -0xc(%ebp),%eax
c01063a2:	8b 40 18             	mov    0x18(%eax),%eax
c01063a5:	89 45 f4             	mov    %eax,-0xc(%ebp)
c01063a8:	eb 09                	jmp    c01063b3 <find_node+0x48>
c01063aa:	8b 45 f4             	mov    -0xc(%ebp),%eax
c01063ad:	8b 40 14             	mov    0x14(%eax),%eax
c01063b0:	89 45 f4             	mov    %eax,-0xc(%ebp)
c01063b3:	83 7d f4 00          	cmpl   $0x0,-0xc(%ebp)
c01063b7:	75 c7                	jne    c0106380 <find_node+0x15>
c01063b9:	83 7d f0 00          	cmpl   $0x0,-0x10(%ebp)
c01063bd:	74 05                	je     c01063c4 <find_node+0x59>
c01063bf:	8b 45 f4             	mov    -0xc(%ebp),%eax
c01063c2:	eb 18                	jmp    c01063dc <find_node+0x71>
c01063c4:	83 ec 08             	sub    $0x8,%esp
c01063c7:	ff 75 0c             	push   0xc(%ebp)
c01063ca:	68 4c 7d 10 c0       	push   $0xc0107d4c
c01063cf:	e8 57 c9 ff ff       	call   c0102d2b <logf>
c01063d4:	83 c4 10             	add    $0x10,%esp
c01063d7:	b8 00 00 00 00       	mov    $0x0,%eax
c01063dc:	c9                   	leave
c01063dd:	c3                   	ret

Disassembly of section .rodata:

c0107000 <.rodata>:
c0107000:	41                   	inc    %ecx
c0107001:	76 61                	jbe    c0107064 <find_node+0xcf9>
c0107003:	69 6c 61 62 6c 65 20 	imul   $0x6d20656c,0x62(%ecx,%eiz,2),%ebp
c010700a:	6d 
c010700b:	65 6d                	gs insl (%dx),%es:(%edi)
c010700d:	6f                   	outsl  %ds:(%esi),(%dx)
c010700e:	72 79                	jb     c0107089 <find_node+0xd1e>
c0107010:	20 66 72             	and    %ah,0x72(%esi)
c0107013:	6f                   	outsl  %ds:(%esi),(%dx)
c0107014:	6d                   	insl   (%dx),%es:(%edi)
c0107015:	20 25 78 20 74 6f    	and    %ah,0x6f742078
c010701b:	20 25 78 0a 00 4f    	and    %ah,0x4f000a78
c0107021:	75 74                	jne    c0107097 <find_node+0xd2c>
c0107023:	20 6f 66             	and    %ch,0x66(%edi)
c0107026:	20 6d 65             	and    %ch,0x65(%ebp)
c0107029:	6d                   	insl   (%dx),%es:(%edi)
c010702a:	6f                   	outsl  %ds:(%esi),(%dx)
c010702b:	72 79                	jb     c01070a6 <find_node+0xd3b>
c010702d:	21 00                	and    %eax,(%eax)
c010702f:	4f                   	dec    %edi
c0107030:	6c                   	insb   (%dx),%es:(%edi)
c0107031:	64 20 46 72          	and    %al,%fs:0x72(%esi)
c0107035:	61                   	popa
c0107036:	6d                   	insl   (%dx),%es:(%edi)
c0107037:	65 20 73 74          	and    %dh,%gs:0x74(%ebx)
c010703b:	6f                   	outsl  %ds:(%esi),(%dx)
c010703c:	72 61                	jb     c010709f <find_node+0xd34>
c010703e:	67 65 20 61 74       	and    %ah,%gs:0x74(%bx,%di)
c0107043:	20 25 78 20 00 4e    	and    %ah,0x4e002078
c0107049:	65 77 20             	gs ja  c010706c <find_node+0xd01>
c010704c:	66 72 61             	data16 jb c01070b0 <find_node+0xd45>
c010704f:	6d                   	insl   (%dx),%es:(%edi)
c0107050:	65 20 73 74          	and    %dh,%gs:0x74(%ebx)
c0107054:	6f                   	outsl  %ds:(%esi),(%dx)
c0107055:	72 61                	jb     c01070b8 <find_node+0xd4d>
c0107057:	67 65 20 61 74       	and    %ah,%gs:0x74(%bx,%di)
c010705c:	20 25 78 0a 00 61    	and    %ah,0x61000a78
c0107062:	66 74 65             	data16 je c01070ca <find_node+0xd5f>
c0107065:	72 5f                	jb     c01070c6 <find_node+0xd5b>
c0107067:	6d                   	insl   (%dx),%es:(%edi)
c0107068:	62 3a                	bound  %edi,(%edx)
c010706a:	20 25 78 0a 00 00    	and    %ah,0xa78
c0107070:	4b                   	dec    %ebx
c0107071:	45                   	inc    %ebp
c0107072:	4e                   	dec    %esi
c0107073:	44                   	inc    %esp
c0107074:	20 25 78 2c 20 61    	and    %ah,0x61202c78
c010707a:	66 74 65             	data16 je c01070e2 <find_node+0xd77>
c010707d:	72 5f                	jb     c01070de <find_node+0xd73>
c010707f:	6d                   	insl   (%dx),%es:(%edi)
c0107080:	62 20                	bound  %esp,(%eax)
c0107082:	25 78 2c 20 50       	and    $0x50202c78,%eax
c0107087:	52                   	push   %edx
c0107088:	45                   	inc    %ebp
c0107089:	4d                   	dec    %ebp
c010708a:	45                   	inc    %ebp
c010708b:	4d                   	dec    %ebp
c010708c:	3a 20                	cmp    (%eax),%ah
c010708e:	25 78 0a 00 4e       	and    $0x4e000a78,%eax
c0107093:	55                   	push   %ebp
c0107094:	4d                   	dec    %ebp
c0107095:	20 46 52             	and    %al,0x52(%esi)
c0107098:	41                   	inc    %ecx
c0107099:	4d                   	dec    %ebp
c010709a:	45                   	inc    %ebp
c010709b:	53                   	push   %ebx
c010709c:	20 25 78 0a 00 00    	and    %ah,0xa78
c01070a2:	00 00                	add    %al,(%eax)
c01070a4:	53                   	push   %ebx
c01070a5:	74 6f                	je     c0107116 <find_node+0xdab>
c01070a7:	72 65                	jb     c010710e <find_node+0xda3>
c01070a9:	20 70 61             	and    %dh,0x61(%eax)
c01070ac:	67 65 20 6c 6f       	and    %ch,%gs:0x6f(%si)
c01070b1:	63 61 74             	arpl   %esp,0x74(%ecx)
c01070b4:	65 64 20 61 74       	gs and %ah,%fs:0x74(%ecx)
c01070b9:	20 3a                	and    %bh,(%edx)
c01070bb:	25 78 0a 00 00       	and    $0xa78,%eax
c01070c0:	4c                   	dec    %esp
c01070c1:	6f                   	outsl  %ds:(%esi),(%dx)
c01070c2:	77 20                	ja     c01070e4 <find_node+0xd79>
c01070c4:	61                   	popa
c01070c5:	64 64 72 20          	fs fs jb c01070e9 <find_node+0xd7e>
c01070c9:	6d                   	insl   (%dx),%es:(%edi)
c01070ca:	61                   	popa
c01070cb:	72 6b                	jb     c0107138 <find_node+0xdcd>
c01070cd:	65 64 20 61 74       	gs and %ah,%fs:0x74(%ecx)
c01070d2:	20 25 78 2e 20 48    	and    %ah,0x48202e78
c01070d8:	69 67 68 20 6d 61 72 	imul   $0x72616d20,0x68(%edi),%esp
c01070df:	6b 65 64 20          	imul   $0x20,0x64(%ebp),%esp
c01070e3:	61                   	popa
c01070e4:	74 20                	je     c0107106 <find_node+0xd9b>
c01070e6:	25 78 0a 0a 00       	and    $0xa0a78,%eax
c01070eb:	00 56 4d             	add    %dl,0x4d(%esi)
c01070ee:	4d                   	dec    %ebp
c01070ef:	20 46 72             	and    %al,0x72(%esi)
c01070f2:	65 65 20 74 72 65    	gs and %dh,%gs:0x65(%edx,%esi,2)
c01070f8:	65 20 63 72          	and    %ah,%gs:0x72(%ebx)
c01070fc:	65 61                	gs popa
c01070fe:	74 65                	je     c0107165 <find_node+0xdfa>
c0107100:	64 2e 20 53 69       	fs and %dl,%cs:0x69(%ebx)
c0107105:	7a 65                	jp     c010716c <find_node+0xe01>
c0107107:	20 25 78 0a 00 4f    	and    %ah,0x4f000a78
c010710d:	6c                   	insb   (%dx),%es:(%edi)
c010710e:	64 20 56 4d          	and    %dl,%fs:0x4d(%esi)
c0107112:	4d                   	dec    %ebp
c0107113:	20 73 74             	and    %dh,0x74(%ebx)
c0107116:	6f                   	outsl  %ds:(%esi),(%dx)
c0107117:	72 61                	jb     c010717a <find_node+0xe0f>
c0107119:	67 65 3a 20          	cmp    %gs:(%bx,%si),%ah
c010711d:	25 78 2c 20 4e       	and    $0x4e202c78,%eax
c0107122:	65 77 20             	gs ja  c0107145 <find_node+0xdda>
c0107125:	56                   	push   %esi
c0107126:	4d                   	dec    %ebp
c0107127:	4d                   	dec    %ebp
c0107128:	20 73 74             	and    %dh,0x74(%ebx)
c010712b:	6f                   	outsl  %ds:(%esi),(%dx)
c010712c:	72 61                	jb     c010718f <find_node+0xe24>
c010712e:	67 65 3a 20          	cmp    %gs:(%bx,%si),%ah
c0107132:	25 78 0a 00 00       	and    $0xa78,%eax
c0107137:	00 41 6c             	add    %al,0x6c(%ecx)
c010713a:	6c                   	insb   (%dx),%es:(%edi)
c010713b:	6f                   	outsl  %ds:(%esi),(%dx)
c010713c:	63 61 74             	arpl   %esp,0x74(%ecx)
c010713f:	69 6e 67 20 70 61 67 	imul   $0x67617020,0x67(%esi),%ebp
c0107146:	65 20 69 6e          	and    %ch,%gs:0x6e(%ecx)
c010714a:	20 76 6d             	and    %dh,0x6d(%esi)
c010714d:	6d                   	insl   (%dx),%es:(%edi)
c010714e:	20 73 74             	and    %dh,0x74(%ebx)
c0107151:	6f                   	outsl  %ds:(%esi),(%dx)
c0107152:	72 65                	jb     c01071b9 <find_node+0xe4e>
c0107154:	64 20 61 74          	and    %ah,%fs:0x74(%ecx)
c0107158:	20 6c 6f 63          	and    %ch,0x63(%edi,%ebp,2)
c010715c:	61                   	popa
c010715d:	74 69                	je     c01071c8 <find_node+0xe5d>
c010715f:	6f                   	outsl  %ds:(%esi),(%dx)
c0107160:	6e                   	outsb  %ds:(%esi),(%dx)
c0107161:	3a 20                	cmp    (%eax),%ah
c0107163:	25 78 0a 00 00       	and    $0xa78,%eax
c0107168:	50                   	push   %eax
c0107169:	61                   	popa
c010716a:	67 65 20 6e 6f       	and    %ch,%gs:0x6f(%bp)
c010716f:	74 20                	je     c0107191 <find_node+0xe26>
c0107171:	61                   	popa
c0107172:	6c                   	insb   (%dx),%es:(%edi)
c0107173:	6c                   	insb   (%dx),%es:(%edi)
c0107174:	6f                   	outsl  %ds:(%esi),(%dx)
c0107175:	63 61 74             	arpl   %esp,0x74(%ecx)
c0107178:	65 64 2e 20 4e 6f    	gs fs and %cl,%cs:0x6f(%esi)
c010717e:	20 66 72             	and    %ah,0x72(%esi)
c0107181:	65 65 20 6c 69 73    	gs and %ch,%gs:0x73(%ecx,%ebp,2)
c0107187:	74 0a                	je     c0107193 <find_node+0xe28>
c0107189:	00 4e 6f             	add    %cl,0x6f(%esi)
c010718c:	20 66 72             	and    %ah,0x72(%esi)
c010718f:	65 65 20 6d 65       	gs and %ch,%gs:0x65(%ebp)
c0107194:	6d                   	insl   (%dx),%es:(%edi)
c0107195:	6f                   	outsl  %ds:(%esi),(%dx)
c0107196:	72 79                	jb     c0107211 <find_node+0xea6>
c0107198:	20 66 6f             	and    %ah,0x6f(%esi)
c010719b:	75 6e                	jne    c010720b <find_node+0xea0>
c010719d:	64 2e 0a 00          	fs or  %cs:(%eax),%al
c01071a1:	4d                   	dec    %ebp
c01071a2:	61                   	popa
c01071a3:	70 70                	jo     c0107215 <find_node+0xeaa>
c01071a5:	65 64 20 70 68       	gs and %dh,%fs:0x68(%eax)
c01071aa:	79 73                	jns    c010721f <find_node+0xeb4>
c01071ac:	20 69 73             	and    %ch,0x73(%ecx)
c01071af:	20 25 78 0a 00 54    	and    %ah,0x54000a78
c01071b5:	79 70                	jns    c0107227 <find_node+0xebc>
c01071b7:	65 20 6f 66          	and    %ch,%gs:0x66(%edi)
c01071bb:	20 46 72             	and    %al,0x72(%esi)
c01071be:	61                   	popa
c01071bf:	6d                   	insl   (%dx),%es:(%edi)
c01071c0:	65 42                	gs inc %edx
c01071c2:	75 66                	jne    c010722a <find_node+0xebf>
c01071c4:	66 65 72 3a          	data16 gs jb c0107202 <find_node+0xe97>
c01071c8:	20 25 64 0a 00 46    	and    %ah,0x46000a64
c01071ce:	42                   	inc    %edx
c01071cf:	5f                   	pop    %edi
c01071d0:	41                   	inc    %ecx
c01071d1:	44                   	inc    %esp
c01071d2:	44                   	inc    %esp
c01071d3:	52                   	push   %edx
c01071d4:	3a 20                	cmp    (%eax),%ah
c01071d6:	25 78 0a 00 41       	and    $0x41000a78,%eax
c01071db:	50                   	push   %eax
c01071dc:	49                   	dec    %ecx
c01071dd:	43                   	inc    %ebx
c01071de:	00 00                	add    %al,(%eax)
c01071e0:	4d                   	dec    %ebp
c01071e1:	41                   	inc    %ecx
c01071e2:	44                   	inc    %esp
c01071e3:	54                   	push   %esp
c01071e4:	20 65 6e             	and    %ah,0x6e(%ebp)
c01071e7:	74 72                	je     c010725b <find_node+0xef0>
c01071e9:	79 20                	jns    c010720b <find_node+0xea0>
c01071eb:	77 69                	ja     c0107256 <find_node+0xeeb>
c01071ed:	74 68                	je     c0107257 <find_node+0xeec>
c01071ef:	20 69 64             	and    %ch,0x64(%ecx)
c01071f2:	20 25 64 20 4e 4f    	and    %ah,0x4f4e2064
c01071f8:	54                   	push   %esp
c01071f9:	20 46 4f             	and    %al,0x4f(%esi)
c01071fc:	55                   	push   %ebp
c01071fd:	4e                   	dec    %esi
c01071fe:	44                   	inc    %esp
c01071ff:	21 0a                	and    %ecx,(%edx)
c0107201:	00 00                	add    %al,(%eax)
c0107203:	00 53 69             	add    %dl,0x69(%ebx)
c0107206:	67 6e                	outsb  %ds:(%si),(%dx)
c0107208:	61                   	popa
c0107209:	74 75                	je     c0107280 <find_node+0xf15>
c010720b:	72 65                	jb     c0107272 <find_node+0xf07>
c010720d:	20 6e 6f             	and    %ch,0x6f(%esi)
c0107210:	74 20                	je     c0107232 <find_node+0xec7>
c0107212:	66 6f                	outsw  %ds:(%esi),(%dx)
c0107214:	75 6e                	jne    c0107284 <find_node+0xf19>
c0107216:	64 20 69 6e          	and    %ch,%fs:0x6e(%ecx)
c010721a:	20 41 43             	and    %al,0x43(%ecx)
c010721d:	50                   	push   %eax
c010721e:	49                   	dec    %ecx
c010721f:	20 74 61 62          	and    %dh,0x62(%ecx,%eiz,2)
c0107223:	6c                   	insb   (%dx),%es:(%edi)
c0107224:	65 73 0a             	gs jae c0107231 <find_node+0xec6>
c0107227:	00 52 53             	add    %dl,0x53(%edx)
c010722a:	44                   	inc    %esp
c010722b:	50                   	push   %eax
c010722c:	20 4e 4f             	and    %cl,0x4f(%esi)
c010722f:	54                   	push   %esp
c0107230:	20 56 41             	and    %dl,0x41(%esi)
c0107233:	4c                   	dec    %esp
c0107234:	49                   	dec    %ecx
c0107235:	44                   	inc    %esp
c0107236:	41                   	inc    %ecx
c0107237:	54                   	push   %esp
c0107238:	45                   	inc    %ebp
c0107239:	44                   	inc    %esp
c010723a:	20 3e                	and    %bh,(%esi)
c010723c:	3e 3c 3c             	ds cmp $0x3c,%al
c010723f:	20 0a                	and    %cl,(%edx)
c0107241:	00 4d 75             	add    %cl,0x75(%ebp)
c0107244:	6c                   	insb   (%dx),%es:(%edi)
c0107245:	74 69                	je     c01072b0 <find_node+0xf45>
c0107247:	62 6f 6f             	bound  %ebp,0x6f(%edi)
c010724a:	74 20                	je     c010726c <find_node+0xf01>
c010724c:	4d                   	dec    %ebp
c010724d:	4d                   	dec    %ebp
c010724e:	41                   	inc    %ecx
c010724f:	50                   	push   %eax
c0107250:	20 74 61 67          	and    %dh,0x67(%ecx,%eiz,2)
c0107254:	20 66 6f             	and    %ah,0x6f(%esi)
c0107257:	75 6e                	jne    c01072c7 <find_node+0xf5c>
c0107259:	64 2e 2e 2e 0a 00    	fs cs cs or %cs:(%eax),%al
c010725f:	00 4c 6f 61          	add    %cl,0x61(%edi,%ebp,2)
c0107263:	64 65 64 20 49 44    	fs gs and %cl,%fs:0x44(%ecx)
c0107269:	54                   	push   %esp
c010726a:	0a 00                	or     (%eax),%al
c010726c:	46                   	inc    %esi
c010726d:	75 6e                	jne    c01072dd <find_node+0xf72>
c010726f:	63 74 69 6f          	arpl   %esi,0x6f(%ecx,%ebp,2)
c0107273:	6e                   	outsb  %ds:(%esi),(%dx)
c0107274:	20 28                	and    %ch,(%eax)
c0107276:	25 64 29 20 61       	and    $0x61202964,%eax
c010727b:	74 3a                	je     c01072b7 <find_node+0xf4c>
c010727d:	20 25 78 0a 00 00    	and    %ah,0xa78
c0107283:	00 45 41             	add    %al,0x41(%ebp)
c0107286:	58                   	pop    %eax
c0107287:	3a 20                	cmp    (%eax),%ah
c0107289:	25 78 2c 20 45       	and    $0x45202c78,%eax
c010728e:	42                   	inc    %edx
c010728f:	58                   	pop    %eax
c0107290:	3a 20                	cmp    (%eax),%ah
c0107292:	25 78 2c 20 45       	and    $0x45202c78,%eax
c0107297:	43                   	inc    %ebx
c0107298:	58                   	pop    %eax
c0107299:	3a 20                	cmp    (%eax),%ah
c010729b:	25 78 2c 20 0a       	and    $0xa202c78,%eax
c01072a0:	45                   	inc    %ebp
c01072a1:	44                   	inc    %esp
c01072a2:	58                   	pop    %eax
c01072a3:	3a 20                	cmp    (%eax),%ah
c01072a5:	25 78 2c 20 45       	and    $0x45202c78,%eax
c01072aa:	44                   	inc    %esp
c01072ab:	49                   	dec    %ecx
c01072ac:	3a 20                	cmp    (%eax),%ah
c01072ae:	25 78 2c 20 45       	and    $0x45202c78,%eax
c01072b3:	53                   	push   %ebx
c01072b4:	49                   	dec    %ecx
c01072b5:	3a 20                	cmp    (%eax),%ah
c01072b7:	25 78 2c 20 0a       	and    $0xa202c78,%eax
c01072bc:	43                   	inc    %ebx
c01072bd:	52                   	push   %edx
c01072be:	33 3a                	xor    (%edx),%edi
c01072c0:	20 25 78 2c 20 43    	and    %ah,0x43202c78
c01072c6:	52                   	push   %edx
c01072c7:	32 3a                	xor    (%edx),%bh
c01072c9:	20 25 78 2c 20 43    	and    %ah,0x43202c78
c01072cf:	52                   	push   %edx
c01072d0:	30 3a                	xor    %bh,(%edx)
c01072d2:	20 25 78 2c 20 0a    	and    %ah,0xa202c78
c01072d8:	45                   	inc    %ebp
c01072d9:	49                   	dec    %ecx
c01072da:	50                   	push   %eax
c01072db:	3a 20                	cmp    (%eax),%ah
c01072dd:	25 78 2c 20 43       	and    $0x43202c78,%eax
c01072e2:	53                   	push   %ebx
c01072e3:	3a 20                	cmp    (%eax),%ah
c01072e5:	25 78 2c 20 45       	and    $0x45202c78,%eax
c01072ea:	46                   	inc    %esi
c01072eb:	4c                   	dec    %esp
c01072ec:	41                   	inc    %ecx
c01072ed:	47                   	inc    %edi
c01072ee:	53                   	push   %ebx
c01072ef:	3a 20                	cmp    (%eax),%ah
c01072f1:	25 78 0a 00 00       	and    $0xa78,%eax
c01072f6:	00 00                	add    %al,(%eax)
c01072f8:	44                   	inc    %esp
c01072f9:	69 76 69 73 69 6f 6e 	imul   $0x6e6f6973,0x69(%esi),%esi
c0107300:	20 62 79             	and    %ah,0x79(%edx)
c0107303:	20 7a 65             	and    %bh,0x65(%edx)
c0107306:	72 6f                	jb     c0107377 <find_node+0x100c>
c0107308:	20 69 6e             	and    %ch,0x6e(%ecx)
c010730b:	20 6b 65             	and    %ch,0x65(%ebx)
c010730e:	72 6e                	jb     c010737e <find_node+0x1013>
c0107310:	65 6c                	gs insb (%dx),%es:(%edi)
c0107312:	20 73 70             	and    %dh,0x70(%ebx)
c0107315:	61                   	popa
c0107316:	63 65 21             	arpl   %esp,0x21(%ebp)
c0107319:	0a 00                	or     (%eax),%al
c010731b:	00 49 6e             	add    %cl,0x6e(%ecx)
c010731e:	76 61                	jbe    c0107381 <find_node+0x1016>
c0107320:	6c                   	insb   (%dx),%es:(%edi)
c0107321:	69 64 20 6f 70 63 6f 	imul   $0x646f6370,0x6f(%eax,%eiz,1),%esp
c0107328:	64 
c0107329:	65 20 69 6e          	and    %ch,%gs:0x6e(%ecx)
c010732d:	20 6b 65             	and    %ch,0x65(%ebx)
c0107330:	72 6e                	jb     c01073a0 <find_node+0x1035>
c0107332:	65 6c                	gs insb (%dx),%es:(%edi)
c0107334:	20 73 70             	and    %dh,0x70(%ebx)
c0107337:	61                   	popa
c0107338:	63 65 21             	arpl   %esp,0x21(%ebp)
c010733b:	0a 00                	or     (%eax),%al
c010733d:	45                   	inc    %ebp
c010733e:	72 72                	jb     c01073b2 <find_node+0x1047>
c0107340:	20 63 6f             	and    %ah,0x6f(%ebx)
c0107343:	64 65 3a 20          	fs cmp %gs:(%eax),%ah
c0107347:	25 78 20 00 00       	and    $0x2078,%eax
c010734c:	44                   	inc    %esp
c010734d:	6f                   	outsl  %ds:(%esi),(%dx)
c010734e:	75 62                	jne    c01073b2 <find_node+0x1047>
c0107350:	6c                   	insb   (%dx),%es:(%edi)
c0107351:	65 20 66 61          	and    %ah,%gs:0x61(%esi)
c0107355:	75 6c                	jne    c01073c3 <find_node+0x1058>
c0107357:	74 20                	je     c0107379 <find_node+0x100e>
c0107359:	69 6e 20 6b 65 72 6e 	imul   $0x6e72656b,0x20(%esi),%ebp
c0107360:	65 6c                	gs insb (%dx),%es:(%edi)
c0107362:	20 73 70             	and    %dh,0x70(%ebx)
c0107365:	61                   	popa
c0107366:	63 65 21             	arpl   %esp,0x21(%ebp)
c0107369:	0a 00                	or     (%eax),%al
c010736b:	00 59 6f             	add    %bl,0x6f(%ecx)
c010736e:	75 20                	jne    c0107390 <find_node+0x1025>
c0107370:	6d                   	insl   (%dx),%es:(%edi)
c0107371:	65 73 73             	gs jae c01073e7 <find_node+0x107c>
c0107374:	20 77 69             	and    %dh,0x69(%edi)
c0107377:	74 68                	je     c01073e1 <find_node+0x1076>
c0107379:	20 74 68 65          	and    %dh,0x65(%eax,%ebp,2)
c010737d:	20 69 6e             	and    %ch,0x6e(%ecx)
c0107380:	73 74                	jae    c01073f6 <find_node+0x108b>
c0107382:	72 75                	jb     c01073f9 <find_node+0x108e>
c0107384:	63 74 69 6f          	arpl   %esi,0x6f(%ecx,%ebp,2)
c0107388:	6e                   	outsb  %ds:(%esi),(%dx)
c0107389:	20 70 6f             	and    %dh,0x6f(%eax)
c010738c:	69 6e 74 65 72 20 79 	imul   $0x79207265,0x74(%esi),%ebp
c0107393:	6f                   	outsl  %ds:(%esi),(%dx)
c0107394:	75 20                	jne    c01073b6 <find_node+0x104b>
c0107396:	4d                   	dec    %ebp
c0107397:	45                   	inc    %ebp
c0107398:	53                   	push   %ebx
c0107399:	53                   	push   %ebx
c010739a:	20 57 49             	and    %dl,0x49(%edi)
c010739d:	54                   	push   %esp
c010739e:	48                   	dec    %eax
c010739f:	20 4d 45             	and    %cl,0x45(%ebp)
c01073a2:	21 0a                	and    %ecx,(%edx)
c01073a4:	00 49 6e             	add    %cl,0x6e(%ecx)
c01073a7:	74 65                	je     c010740e <find_node+0x10a3>
c01073a9:	72 75                	jb     c0107420 <find_node+0x10b5>
c01073ab:	70 74                	jo     c0107421 <find_node+0x10b6>
c01073ad:	20 6f 66             	and    %ch,0x66(%edi)
c01073b0:	20 30                	and    %dh,(%eax)
c01073b2:	78 32                	js     c01073e6 <find_node+0x107b>
c01073b4:	37                   	aaa
c01073b5:	20 64 65 74          	and    %ah,0x74(%ebp,%eiz,2)
c01073b9:	65 63 74 65 64       	arpl   %esi,%gs:0x64(%ebp,%eiz,2)
c01073be:	0a 00                	or     (%eax),%al
c01073c0:	53                   	push   %ebx
c01073c1:	74 61                	je     c0107424 <find_node+0x10b9>
c01073c3:	63 6b 20             	arpl   %ebp,0x20(%ebx)
c01073c6:	61                   	popa
c01073c7:	74 20                	je     c01073e9 <find_node+0x107e>
c01073c9:	25 78 2c 20 49       	and    $0x49202c78,%eax
c01073ce:	6e                   	outsb  %ds:(%esi),(%dx)
c01073cf:	74 65                	je     c0107436 <find_node+0x10cb>
c01073d1:	72 72                	jb     c0107445 <find_node+0x10da>
c01073d3:	75 70                	jne    c0107445 <find_node+0x10da>
c01073d5:	74 20                	je     c01073f7 <find_node+0x108c>
c01073d7:	6f                   	outsl  %ds:(%esi),(%dx)
c01073d8:	63 63 75             	arpl   %esp,0x75(%ebx)
c01073db:	72 65                	jb     c0107442 <find_node+0x10d7>
c01073dd:	64 3a 20             	cmp    %fs:(%eax),%ah
c01073e0:	25 64 00 0a 00       	and    $0xa0064,%eax
c01073e5:	00 00                	add    %al,(%eax)
c01073e7:	00 5b 23             	add    %bl,0x23(%ebx)
c01073ea:	10 c0                	adc    %al,%al
c01073ec:	f7 23                	mull   (%ebx)
c01073ee:	10 c0                	adc    %al,%al
c01073f0:	f7 23                	mull   (%ebx)
c01073f2:	10 c0                	adc    %al,%al
c01073f4:	f7 23                	mull   (%ebx)
c01073f6:	10 c0                	adc    %al,%al
c01073f8:	f7 23                	mull   (%ebx)
c01073fa:	10 c0                	adc    %al,%al
c01073fc:	f7 23                	mull   (%ebx)
c01073fe:	10 c0                	adc    %al,%al
c0107400:	70 23                	jo     c0107425 <find_node+0x10ba>
c0107402:	10 c0                	adc    %al,%al
c0107404:	f7 23                	mull   (%ebx)
c0107406:	10 c0                	adc    %al,%al
c0107408:	f7 23                	mull   (%ebx)
c010740a:	10 c0                	adc    %al,%al
c010740c:	f7 23                	mull   (%ebx)
c010740e:	10 c0                	adc    %al,%al
c0107410:	f7 23                	mull   (%ebx)
c0107412:	10 c0                	adc    %al,%al
c0107414:	f7 23                	mull   (%ebx)
c0107416:	10 c0                	adc    %al,%al
c0107418:	f7 23                	mull   (%ebx)
c010741a:	10 c0                	adc    %al,%al
c010741c:	85 23                	test   %esp,(%ebx)
c010741e:	10 c0                	adc    %al,%al
c0107420:	c7                   	(bad)
c0107421:	23 10                	and    (%eax),%edx
c0107423:	c0 f7 23             	shl    $0x23,%bh
c0107426:	10 c0                	adc    %al,%al
c0107428:	f7 23                	mull   (%ebx)
c010742a:	10 c0                	adc    %al,%al
c010742c:	f7 23                	mull   (%ebx)
c010742e:	10 c0                	adc    %al,%al
c0107430:	f7 23                	mull   (%ebx)
c0107432:	10 c0                	adc    %al,%al
c0107434:	f7 23                	mull   (%ebx)
c0107436:	10 c0                	adc    %al,%al
c0107438:	f7 23                	mull   (%ebx)
c010743a:	10 c0                	adc    %al,%al
c010743c:	f7 23                	mull   (%ebx)
c010743e:	10 c0                	adc    %al,%al
c0107440:	f7 23                	mull   (%ebx)
c0107442:	10 c0                	adc    %al,%al
c0107444:	f7 23                	mull   (%ebx)
c0107446:	10 c0                	adc    %al,%al
c0107448:	f7 23                	mull   (%ebx)
c010744a:	10 c0                	adc    %al,%al
c010744c:	f7 23                	mull   (%ebx)
c010744e:	10 c0                	adc    %al,%al
c0107450:	ae                   	scas   %es:(%edi),%al
c0107451:	23 10                	and    (%eax),%edx
c0107453:	c0 e2 23             	shl    $0x23,%dl
c0107456:	10 c0                	adc    %al,%al
c0107458:	53                   	push   %ebx
c0107459:	63 68 65             	arpl   %ebp,0x65(%eax)
c010745c:	64 75 6c             	fs jne c01074cb <find_node+0x1160>
c010745f:	69 6e 67 20 65 69 70 	imul   $0x70696520,0x67(%esi),%ebp
c0107466:	20 25 78 0a 00 00    	and    %ah,0xa78
c010746c:	50                   	push   %eax
c010746d:	48                   	dec    %eax
c010746e:	59                   	pop    %ecx
c010746f:	53                   	push   %ebx
c0107470:	49                   	dec    %ecx
c0107471:	43                   	inc    %ebx
c0107472:	41                   	inc    %ecx
c0107473:	4c                   	dec    %esp
c0107474:	20 41 44             	and    %al,0x44(%ecx)
c0107477:	44                   	inc    %esp
c0107478:	52                   	push   %edx
c0107479:	45                   	inc    %ebp
c010747a:	53                   	push   %ebx
c010747b:	53                   	push   %ebx
c010747c:	20 4e 4f             	and    %cl,0x4f(%esi)
c010747f:	54                   	push   %esp
c0107480:	20 50 41             	and    %dl,0x41(%eax)
c0107483:	47                   	inc    %edi
c0107484:	45                   	inc    %ebp
c0107485:	20 41 4c             	and    %al,0x4c(%ecx)
c0107488:	49                   	dec    %ecx
c0107489:	47                   	inc    %edi
c010748a:	4e                   	dec    %esi
c010748b:	45                   	inc    %ebp
c010748c:	44                   	inc    %esp
c010748d:	0a 00                	or     (%eax),%al
c010748f:	00 50 48             	add    %dl,0x48(%eax)
c0107492:	59                   	pop    %ecx
c0107493:	53                   	push   %ebx
c0107494:	49                   	dec    %ecx
c0107495:	43                   	inc    %ebx
c0107496:	41                   	inc    %ecx
c0107497:	4c                   	dec    %esp
c0107498:	20 41 44             	and    %al,0x44(%ecx)
c010749b:	44                   	inc    %esp
c010749c:	52                   	push   %edx
c010749d:	45                   	inc    %ebp
c010749e:	53                   	push   %ebx
c010749f:	53                   	push   %ebx
c01074a0:	20 25 78 20 4e 4f    	and    %ah,0x4f4e2078
c01074a6:	54                   	push   %esp
c01074a7:	20 50 41             	and    %dl,0x41(%eax)
c01074aa:	47                   	inc    %edi
c01074ab:	45                   	inc    %ebp
c01074ac:	20 41 4c             	and    %al,0x4c(%ecx)
c01074af:	49                   	dec    %ecx
c01074b0:	47                   	inc    %edi
c01074b1:	4e                   	dec    %esi
c01074b2:	45                   	inc    %ebp
c01074b3:	44                   	inc    %esp
c01074b4:	0a 00                	or     (%eax),%al
c01074b6:	43                   	inc    %ebx
c01074b7:	52                   	push   %edx
c01074b8:	45                   	inc    %ebp
c01074b9:	41                   	inc    %ecx
c01074ba:	54                   	push   %esp
c01074bb:	49                   	dec    %ecx
c01074bc:	4e                   	dec    %esi
c01074bd:	47                   	inc    %edi
c01074be:	20 4e 45             	and    %cl,0x45(%esi)
c01074c1:	57                   	push   %edi
c01074c2:	20 50 54             	and    %dl,0x54(%eax)
c01074c5:	0a 00                	or     (%eax),%al
c01074c7:	4e                   	dec    %esi
c01074c8:	65 77 20             	gs ja  c01074eb <find_node+0x1180>
c01074cb:	50                   	push   %eax
c01074cc:	54                   	push   %esp
c01074cd:	20 63 72             	and    %ah,0x72(%ebx)
c01074d0:	65 61                	gs popa
c01074d2:	74 65                	je     c0107539 <find_node+0x11ce>
c01074d4:	64 20 61 74          	and    %ah,%fs:0x74(%ecx)
c01074d8:	20 65 6e             	and    %ah,0x6e(%ebp)
c01074db:	74 72                	je     c010754f <find_node+0x11e4>
c01074dd:	79 20                	jns    c01074ff <find_node+0x1194>
c01074df:	25 64 0a 00 50       	and    $0x50000a64,%eax
c01074e4:	41                   	inc    %ecx
c01074e5:	47                   	inc    %edi
c01074e6:	45                   	inc    %ebp
c01074e7:	53                   	push   %ebx
c01074e8:	3a 20                	cmp    (%eax),%ah
c01074ea:	25 64 0a 00 34       	and    $0x34000a64,%eax
c01074ef:	30 34 3a             	xor    %dh,(%edx,%edi,1)
c01074f2:	20 50 61             	and    %dl,0x61(%eax)
c01074f5:	67 65 20 6e 6f       	and    %ch,%gs:0x6f(%bp)
c01074fa:	74 20                	je     c010751c <find_node+0x11b1>
c01074fc:	66 6f                	outsw  %ds:(%esi),(%dx)
c01074fe:	75 6e                	jne    c010756e <find_node+0x1203>
c0107500:	64 0a 00             	or     %fs:(%eax),%al
c0107503:	57                   	push   %edi
c0107504:	72 69                	jb     c010756f <find_node+0x1204>
c0107506:	74 65                	je     c010756d <find_node+0x1202>
c0107508:	20 61 63             	and    %ah,0x63(%ecx)
c010750b:	63 65 73             	arpl   %esp,0x73(%ebp)
c010750e:	73 20                	jae    c0107530 <find_node+0x11c5>
c0107510:	61                   	popa
c0107511:	74 20                	je     c0107533 <find_node+0x11c8>
c0107513:	25 78 0a 00 00       	and    $0xa78,%eax
c0107518:	43                   	inc    %ebx
c0107519:	50                   	push   %eax
c010751a:	4c                   	dec    %esp
c010751b:	20 3d 20 33 20 65    	and    %bh,0x65203320
c0107521:	72 72                	jb     c0107595 <find_node+0x122a>
c0107523:	6f                   	outsl  %ds:(%esi),(%dx)
c0107524:	72 2c                	jb     c0107552 <find_node+0x11e7>
c0107526:	20 63 6f             	and    %ah,0x6f(%ebx)
c0107529:	75 6c                	jne    c0107597 <find_node+0x122c>
c010752b:	64 20 62 65          	and    %ah,%fs:0x65(%edx)
c010752f:	20 70 72             	and    %dh,0x72(%eax)
c0107532:	69 76 69 6c 65 67 65 	imul   $0x6567656c,0x69(%esi),%esi
c0107539:	0a 00                	or     (%eax),%al
c010753b:	52                   	push   %edx
c010753c:	65 73 65             	gs jae c01075a4 <find_node+0x1239>
c010753f:	72 76                	jb     c01075b7 <find_node+0x124c>
c0107541:	65 64 20 57 72       	gs and %dl,%fs:0x72(%edi)
c0107546:	69 74 65 0a 00 49 6e 	imul   $0x736e4900,0xa(%ebp,%eiz,2),%esi
c010754d:	73 
c010754e:	74 72                	je     c01075c2 <find_node+0x1257>
c0107550:	75 63                	jne    c01075b5 <find_node+0x124a>
c0107552:	74 69                	je     c01075bd <find_node+0x1252>
c0107554:	6f                   	outsl  %ds:(%esi),(%dx)
c0107555:	6e                   	outsb  %ds:(%esi),(%dx)
c0107556:	20 46 65             	and    %al,0x65(%esi)
c0107559:	74 63                	je     c01075be <find_node+0x1253>
c010755b:	68 0a 00 50 72       	push   $0x7250000a
c0107560:	6f                   	outsl  %ds:(%esi),(%dx)
c0107561:	74 65                	je     c01075c8 <find_node+0x125d>
c0107563:	63 74 69 6f          	arpl   %esi,0x6f(%ecx,%ebp,2)
c0107567:	6e                   	outsb  %ds:(%esi),(%dx)
c0107568:	20 46 61             	and    %al,0x61(%esi)
c010756b:	75 6c                	jne    c01075d9 <find_node+0x126e>
c010756d:	74 0a                	je     c0107579 <find_node+0x120e>
c010756f:	00 53 68             	add    %dl,0x68(%ebx)
c0107572:	61                   	popa
c0107573:	64 6f                	outsl  %fs:(%esi),(%dx)
c0107575:	77 20                	ja     c0107597 <find_node+0x122c>
c0107577:	53                   	push   %ebx
c0107578:	74 61                	je     c01075db <find_node+0x1270>
c010757a:	63 6b 0a             	arpl   %ebp,0xa(%ebx)
c010757d:	00 4e 75             	add    %cl,0x75(%esi)
c0107580:	6c                   	insb   (%dx),%es:(%edi)
c0107581:	6c                   	insb   (%dx),%es:(%edi)
c0107582:	20 70 6f             	and    %dh,0x6f(%eax)
c0107585:	69 6e 74 65 72 20 61 	imul   $0x61207265,0x74(%esi),%ebp
c010758c:	63 63 65             	arpl   %esp,0x65(%ebx)
c010758f:	73 73                	jae    c0107604 <find_node+0x1299>
c0107591:	3f                   	aas
c0107592:	0a 00                	or     (%eax),%al
c0107594:	50                   	push   %eax
c0107595:	61                   	popa
c0107596:	67 65 20 66 61       	and    %ah,%gs:0x61(%bp)
c010759b:	75 6c                	jne    c0107609 <find_node+0x129e>
c010759d:	74 20                	je     c01075bf <find_node+0x1254>
c010759f:	61                   	popa
c01075a0:	74 20                	je     c01075c2 <find_node+0x1257>
c01075a2:	25 78 0a 00 4d       	and    $0x4d000a78,%eax
c01075a7:	45                   	inc    %ebp
c01075a8:	4d                   	dec    %ebp
c01075a9:	4f                   	dec    %edi
c01075aa:	52                   	push   %edx
c01075ab:	59                   	pop    %ecx
c01075ac:	20 50 41             	and    %dl,0x41(%eax)
c01075af:	47                   	inc    %edi
c01075b0:	45                   	inc    %ebp
c01075b1:	20 46 41             	and    %al,0x41(%esi)
c01075b4:	55                   	push   %ebp
c01075b5:	4c                   	dec    %esp
c01075b6:	54                   	push   %esp
c01075b7:	0a 00                	or     (%eax),%al
c01075b9:	00 00                	add    %al,(%eax)
c01075bb:	00 30                	add    %dh,(%eax)
c01075bd:	78 30                	js     c01075ef <find_node+0x1284>
c01075bf:	00 55 4e             	add    %dl,0x4e(%ebp)
c01075c2:	4b                   	dec    %ebx
c01075c3:	4e                   	dec    %esi
c01075c4:	4f                   	dec    %edi
c01075c5:	57                   	push   %edi
c01075c6:	4e                   	dec    %esi
c01075c7:	20 4f 50             	and    %cl,0x50(%edi)
c01075ca:	54                   	push   %esp
c01075cb:	49                   	dec    %ecx
c01075cc:	4f                   	dec    %edi
c01075cd:	4e                   	dec    %esi
c01075ce:	20 25 00 21 0a 00    	and    %ah,0xa2100
c01075d4:	0a 2e                	or     (%esi),%ch
c01075d6:	10 c0                	adc    %al,%al
c01075d8:	d5 2d                	aad    $0x2d
c01075da:	10 c0                	adc    %al,%al
c01075dc:	2f                   	das
c01075dd:	2e 10 c0             	cs adc %al,%al
c01075e0:	2f                   	das
c01075e1:	2e 10 c0             	cs adc %al,%al
c01075e4:	2f                   	das
c01075e5:	2e 10 c0             	cs adc %al,%al
c01075e8:	2f                   	das
c01075e9:	2e 10 c0             	cs adc %al,%al
c01075ec:	2f                   	das
c01075ed:	2e 10 c0             	cs adc %al,%al
c01075f0:	2f                   	das
c01075f1:	2e 10 c0             	cs adc %al,%al
c01075f4:	2f                   	das
c01075f5:	2e 10 c0             	cs adc %al,%al
c01075f8:	2f                   	das
c01075f9:	2e 10 c0             	cs adc %al,%al
c01075fc:	2f                   	das
c01075fd:	2e 10 c0             	cs adc %al,%al
c0107600:	2f                   	das
c0107601:	2e 10 c0             	cs adc %al,%al
c0107604:	2f                   	das
c0107605:	2e 10 c0             	cs adc %al,%al
c0107608:	2f                   	das
c0107609:	2e 10 c0             	cs adc %al,%al
c010760c:	2f                   	das
c010760d:	2e 10 c0             	cs adc %al,%al
c0107610:	2f                   	das
c0107611:	2e 10 c0             	cs adc %al,%al
c0107614:	f1                   	int1
c0107615:	2d 10 c0 cc 2d       	sub    $0x2dccc010,%eax
c010761a:	10 c0                	adc    %al,%al
c010761c:	2f                   	das
c010761d:	2e 10 c0             	cs adc %al,%al
c0107620:	2f                   	das
c0107621:	2e 10 c0             	cs adc %al,%al
c0107624:	2f                   	das
c0107625:	2e 10 c0             	cs adc %al,%al
c0107628:	91                   	xchg   %eax,%ecx
c0107629:	2d 10 c0 20 3c       	sub    $0x3c20c010,%eax
c010762e:	3c 20                	cmp    $0x20,%al
c0107630:	4b                   	dec    %ebx
c0107631:	45                   	inc    %ebp
c0107632:	52                   	push   %edx
c0107633:	4e                   	dec    %esi
c0107634:	45                   	inc    %ebp
c0107635:	4c                   	dec    %esp
c0107636:	20 50 41             	and    %dl,0x41(%eax)
c0107639:	4e                   	dec    %esi
c010763a:	49                   	dec    %ecx
c010763b:	43                   	inc    %ebx
c010763c:	20 3e                	and    %bh,(%esi)
c010763e:	3e 20 52 65          	and    %dl,%ds:0x65(%edx)
c0107642:	61                   	popa
c0107643:	73 6f                	jae    c01076b4 <find_node+0x1349>
c0107645:	6e                   	outsb  %ds:(%esi),(%dx)
c0107646:	3a 20                	cmp    (%eax),%ah
c0107648:	25 73 0a 00 54       	and    $0x54000a73,%eax
c010764d:	65 73 74             	gs jae c01076c4 <find_node+0x1359>
c0107650:	20 66 75             	and    %ah,0x75(%esi)
c0107653:	6e                   	outsb  %ds:(%esi),(%dx)
c0107654:	63 20                	arpl   %esp,(%eax)
c0107656:	72 61                	jb     c01076b9 <find_node+0x134e>
c0107658:	6e                   	outsb  %ds:(%esi),(%dx)
c0107659:	20 62 72             	and    %ah,0x72(%edx)
c010765c:	75 68                	jne    c01076c6 <find_node+0x135b>
c010765e:	0a 00                	or     (%eax),%al
c0107660:	45                   	inc    %ebp
c0107661:	52                   	push   %edx
c0107662:	52                   	push   %edx
c0107663:	4f                   	dec    %edi
c0107664:	52                   	push   %edx
c0107665:	0a 00                	or     (%eax),%al
c0107667:	00 4b 65             	add    %cl,0x65(%ebx)
c010766a:	72 6e                	jb     c01076da <find_node+0x136f>
c010766c:	65 6c                	gs insb (%dx),%es:(%edi)
c010766e:	20 53 69             	and    %dl,0x69(%ebx)
c0107671:	7a 65                	jp     c01076d8 <find_node+0x136d>
c0107673:	20 25 78 2c 20 6d    	and    %ah,0x6d202c78
c0107679:	75 6c                	jne    c01076e7 <find_node+0x137c>
c010767b:	74 69                	je     c01076e6 <find_node+0x137b>
c010767d:	62 6f 6f             	bound  %ebp,0x6f(%edi)
c0107680:	74 5f                	je     c01076e1 <find_node+0x1376>
c0107682:	6c                   	insb   (%dx),%es:(%edi)
c0107683:	6f                   	outsl  %ds:(%esi),(%dx)
c0107684:	63 3a                	arpl   %edi,(%edx)
c0107686:	20 25 78 2c 20 74    	and    %ah,0x74202c78
c010768c:	61                   	popa
c010768d:	67 5f                	addr16 pop %edi
c010768f:	73 69                	jae    c01076fa <find_node+0x138f>
c0107691:	7a 65                	jp     c01076f8 <find_node+0x138d>
c0107693:	3a 20                	cmp    (%eax),%ah
c0107695:	25 78 0a 00 50       	and    $0x50000a78,%eax
c010769a:	53                   	push   %ebx
c010769b:	46                   	inc    %esi
c010769c:	20 53 54             	and    %dl,0x54(%ebx)
c010769f:	41                   	inc    %ecx
c01076a0:	52                   	push   %edx
c01076a1:	54                   	push   %esp
c01076a2:	3a 20                	cmp    (%eax),%ah
c01076a4:	25 78 0a 00 4b       	and    $0x4b000a78,%eax
c01076a9:	45                   	inc    %ebp
c01076aa:	52                   	push   %edx
c01076ab:	4e                   	dec    %esi
c01076ac:	45                   	inc    %ebp
c01076ad:	4c                   	dec    %esp
c01076ae:	20 53 54             	and    %dl,0x54(%ebx)
c01076b1:	41                   	inc    %ecx
c01076b2:	52                   	push   %edx
c01076b3:	54                   	push   %esp
c01076b4:	49                   	dec    %ecx
c01076b5:	4e                   	dec    %esi
c01076b6:	47                   	inc    %edi
c01076b7:	20 4c 4f 43          	and    %cl,0x43(%edi,%ecx,2)
c01076bb:	3a 20                	cmp    (%eax),%ah
c01076bd:	25 78 20 4b 45       	and    $0x454b2078,%eax
c01076c2:	52                   	push   %edx
c01076c3:	4e                   	dec    %esi
c01076c4:	45                   	inc    %ebp
c01076c5:	4c                   	dec    %esp
c01076c6:	20 45 4e             	and    %al,0x4e(%ebp)
c01076c9:	44                   	inc    %esp
c01076ca:	49                   	dec    %ecx
c01076cb:	4e                   	dec    %esi
c01076cc:	47                   	inc    %edi
c01076cd:	20 4c 4f 43          	and    %cl,0x43(%edi,%ecx,2)
c01076d1:	3a 20                	cmp    (%eax),%ah
c01076d3:	25 78 20 53 49       	and    $0x49532078,%eax
c01076d8:	5a                   	pop    %edx
c01076d9:	45                   	inc    %ebp
c01076da:	3a 20                	cmp    (%eax),%ah
c01076dc:	25 78 0a 00 57       	and    $0x57000a78,%eax
c01076e1:	65 6c                	gs insb (%dx),%es:(%edi)
c01076e3:	63 6f 6d             	arpl   %ebp,0x6d(%edi)
c01076e6:	65 20 74 6f 20       	and    %dh,%gs:0x20(%edi,%ebp,2)
c01076eb:	57                   	push   %edi
c01076ec:	6f                   	outsl  %ds:(%esi),(%dx)
c01076ed:	72 64                	jb     c0107753 <find_node+0x13e8>
c01076ef:	4f                   	dec    %edi
c01076f0:	53                   	push   %ebx
c01076f1:	2e 20 48 6f          	and    %cl,%cs:0x6f(%eax)
c01076f5:	6d                   	insl   (%dx),%es:(%edi)
c01076f6:	65 20 6f 66          	and    %ch,%gs:0x66(%edi)
c01076fa:	20 74 68 65          	and    %dh,0x65(%eax,%ebp,2)
c01076fe:	20 4d 45             	and    %cl,0x45(%ebp)
c0107701:	54                   	push   %esp
c0107702:	53                   	push   %ebx
c0107703:	21 0a                	and    %ecx,(%edx)
c0107705:	00 00                	add    %al,(%eax)
c0107707:	00 46 75             	add    %al,0x75(%esi)
c010770a:	63 6b 20             	arpl   %ebp,0x20(%ebx)
c010770d:	74 68                	je     c0107777 <find_node+0x140c>
c010770f:	65 20 79 61          	and    %bh,%gs:0x61(%ecx)
c0107713:	6e                   	outsb  %ds:(%esi),(%dx)
c0107714:	6b 65 65 73          	imul   $0x73,0x65(%ebp),%esp
c0107718:	2e 2e 2e 20 25 74 33 	cs cs and %ah,%cs:0x4d303374
c010771f:	30 4d 
c0107721:	61                   	popa
c0107722:	79 20                	jns    c0107744 <find_node+0x13d9>
c0107724:	74 68                	je     c010778e <find_node+0x1423>
c0107726:	65 20 64 6f 64       	and    %ah,%gs:0x64(%edi,%ebp,2)
c010772b:	67 65 72 73          	addr16 gs jb c01077a2 <find_node+0x1437>
c010772f:	20 77 69             	and    %dh,0x69(%edi)
c0107732:	6e                   	outsb  %ds:(%esi),(%dx)
c0107733:	21 25 74 31 30 0a    	and    %esp,0xa303174
c0107739:	00 00                	add    %al,(%eax)
c010773b:	00 42 61             	add    %al,0x61(%edx)
c010773e:	73 69                	jae    c01077a9 <find_node+0x143e>
c0107740:	63 20                	arpl   %esp,(%eax)
c0107742:	6b 65 72 6e          	imul   $0x6e,0x72(%ebp),%esp
c0107746:	65 6c                	gs insb (%dx),%es:(%edi)
c0107748:	20 66 75             	and    %ah,0x75(%esi)
c010774b:	6e                   	outsb  %ds:(%esi),(%dx)
c010774c:	63 74 69 6f          	arpl   %esi,0x6f(%ecx,%ebp,2)
c0107750:	6e                   	outsb  %ds:(%esi),(%dx)
c0107751:	20 25 74 33 30 4f    	and    %ah,0x4f303374
c0107757:	4b                   	dec    %ebx
c0107758:	21 25 74 31 30 0a    	and    %esp,0xa303174
c010775e:	00 53 74             	add    %dl,0x74(%ebx)
c0107761:	61                   	popa
c0107762:	72 74                	jb     c01077d8 <find_node+0x146d>
c0107764:	69 6e 67 20 74 65 72 	imul   $0x72657420,0x67(%esi),%ebp
c010776b:	6d                   	insl   (%dx),%es:(%edi)
c010776c:	69 6e 61 6c 2e 2e 2e 	imul   $0x2e2e2e6c,0x61(%esi),%ebp
c0107773:	0a 00                	or     (%eax),%al
c0107775:	54                   	push   %esp
c0107776:	65 73 74             	gs jae c01077ed <find_node+0x1482>
c0107779:	00 00                	add    %al,(%eax)
c010777b:	00 48 65             	add    %cl,0x65(%eax)
c010777e:	61                   	popa
c010777f:	70 20                	jo     c01077a1 <find_node+0x1436>
c0107781:	69 6e 69 74 69 61 6c 	imul   $0x6c616974,0x69(%esi),%ebp
c0107788:	69 7a 65 64 0a 00 53 	imul   $0x53000a64,0x65(%edx),%edi
c010778f:	69 7a 65 20 6f 66 20 	imul   $0x20666f20,0x65(%edx),%edi
c0107796:	6d                   	insl   (%dx),%es:(%edi)
c0107797:	65 6d                	gs insl (%dx),%es:(%edi)
c0107799:	6f                   	outsl  %ds:(%esi),(%dx)
c010779a:	72 79                	jb     c0107815 <find_node+0x14aa>
c010779c:	20 61 6c             	and    %ah,0x6c(%ecx)
c010779f:	6c                   	insb   (%dx),%es:(%edi)
c01077a0:	6f                   	outsl  %ds:(%esi),(%dx)
c01077a1:	63 65 64             	arpl   %esp,0x64(%ebp)
c01077a4:	20 25 78 0a 00 00    	and    %ah,0xa78
c01077aa:	00 00                	add    %al,(%eax)
c01077ac:	53                   	push   %ebx
c01077ad:	70 6c                	jo     c010781b <find_node+0x14b0>
c01077af:	69 74 20 68 65 61 70 	imul   $0x20706165,0x68(%eax,%eiz,1),%esi
c01077b6:	20 
c01077b7:	6e                   	outsb  %ds:(%esi),(%dx)
c01077b8:	6f                   	outsl  %ds:(%esi),(%dx)
c01077b9:	64 65 3a 20          	fs cmp %gs:(%eax),%ah
c01077bd:	25 78 20 77 69       	and    $0x69772078,%eax
c01077c2:	74 68                	je     c010782c <find_node+0x14c1>
c01077c4:	20 73 69             	and    %dh,0x69(%ebx)
c01077c7:	7a 65                	jp     c010782e <find_node+0x14c3>
c01077c9:	20 25 78 0a 00 00    	and    %ah,0xa78
c01077cf:	00 41 6c             	add    %al,0x6c(%ecx)
c01077d2:	6c                   	insb   (%dx),%es:(%edi)
c01077d3:	6f                   	outsl  %ds:(%esi),(%dx)
c01077d4:	63 61 74             	arpl   %esp,0x74(%ecx)
c01077d7:	65 64 20 68 65       	gs and %ch,%fs:0x65(%eax)
c01077dc:	61                   	popa
c01077dd:	70 20                	jo     c01077ff <find_node+0x1494>
c01077df:	6e                   	outsb  %ds:(%esi),(%dx)
c01077e0:	6f                   	outsl  %ds:(%esi),(%dx)
c01077e1:	64 65 20 61 74       	fs and %ah,%gs:0x74(%ecx)
c01077e6:	20 25 78 20 77 69    	and    %ah,0x69772078
c01077ec:	74 68                	je     c0107856 <find_node+0x14eb>
c01077ee:	20 73 69             	and    %dh,0x69(%ebx)
c01077f1:	7a 65                	jp     c0107858 <find_node+0x14ed>
c01077f3:	20 25 78 0a 00 4d    	and    %ah,0x4d000a78
c01077f9:	45                   	inc    %ebp
c01077fa:	4d                   	dec    %ebp
c01077fb:	53                   	push   %ebx
c01077fc:	45                   	inc    %ebp
c01077fd:	54                   	push   %esp
c01077fe:	49                   	dec    %ecx
c01077ff:	4e                   	dec    %esi
c0107800:	47                   	inc    %edi
c0107801:	20 25 78 0a 00 00    	and    %ah,0xa78
c0107807:	00 44 65 66          	add    %al,0x66(%ebp,%eiz,2)
c010780b:	72 61                	jb     c010786e <find_node+0x1503>
c010780d:	67 6d                	insl   (%dx),%es:(%di)
c010780f:	65 6e                	outsb  %gs:(%esi),(%dx)
c0107811:	74 65                	je     c0107878 <find_node+0x150d>
c0107813:	64 20 6e 6f          	and    %ch,%fs:0x6f(%esi)
c0107817:	64 65 20 25 74 33 30 	fs and %ah,%gs:0x25303374
c010781e:	25 
c010781f:	78 25                	js     c0107846 <find_node+0x14db>
c0107821:	74 31                	je     c0107854 <find_node+0x14e9>
c0107823:	30 20                	xor    %ah,(%eax)
c0107825:	77 69                	ja     c0107890 <find_node+0x1525>
c0107827:	74 68                	je     c0107891 <find_node+0x1526>
c0107829:	20 25 74 33 30 25    	and    %ah,0x25303374
c010782f:	78 25                	js     c0107856 <find_node+0x14eb>
c0107831:	74 31                	je     c0107864 <find_node+0x14f9>
c0107833:	30 2e                	xor    %ch,(%esi)
c0107835:	20 4e 65             	and    %cl,0x65(%esi)
c0107838:	77 20                	ja     c010785a <find_node+0x14ef>
c010783a:	73 69                	jae    c01078a5 <find_node+0x153a>
c010783c:	7a 65                	jp     c01078a3 <find_node+0x1538>
c010783e:	3a 20                	cmp    (%eax),%ah
c0107840:	25 78 0a 00 43       	and    $0x43000a78,%eax
c0107845:	50                   	push   %eax
c0107846:	55                   	push   %ebp
c0107847:	5f                   	pop    %edi
c0107848:	49                   	dec    %ecx
c0107849:	44                   	inc    %esp
c010784a:	3a 20                	cmp    (%eax),%ah
c010784c:	25 64 20 45 41       	and    $0x41452064,%eax
c0107851:	58                   	pop    %eax
c0107852:	20 45 42             	and    %al,0x42(%ebp)
c0107855:	58                   	pop    %eax
c0107856:	20 45 43             	and    %al,0x43(%ebp)
c0107859:	58                   	pop    %eax
c010785a:	20 45 44             	and    %al,0x44(%ebp)
c010785d:	58                   	pop    %eax
c010785e:	0a 25 78 0a 25 78    	or     0x78250a78,%ah
c0107864:	0a 25 78 0a 25 78    	or     0x78250a78,%ah
c010786a:	0a 45 4e             	or     0x4e(%ebp),%al
c010786d:	44                   	inc    %esp
c010786e:	2e 2e 2e 0a 00       	cs cs or %cs:(%eax),%al
c0107873:	00 0a                	add    %cl,(%edx)
c0107875:	2d 2d 2d 2d 53       	sub    $0x532d2d2d,%eax
c010787a:	74 61                	je     c01078dd <find_node+0x1572>
c010787c:	72 74                	jb     c01078f2 <find_node+0x1587>
c010787e:	69 6e 67 20 41 50 49 	imul   $0x49504120,0x67(%esi),%ebp
c0107885:	43                   	inc    %ebx
c0107886:	20 49 6e             	and    %cl,0x6e(%ecx)
c0107889:	69 74 69 61 6c 69 7a 	imul   $0x617a696c,0x61(%ecx,%ebp,2),%esi
c0107890:	61 
c0107891:	74 69                	je     c01078fc <find_node+0x1591>
c0107893:	6f                   	outsl  %ds:(%esi),(%dx)
c0107894:	6e                   	outsb  %ds:(%esi),(%dx)
c0107895:	73 2d                	jae    c01078c4 <find_node+0x1559>
c0107897:	2d 2d 2d 0a 00       	sub    $0xa2d2d,%eax
c010789c:	4c                   	dec    %esp
c010789d:	41                   	inc    %ecx
c010789e:	50                   	push   %eax
c010789f:	49                   	dec    %ecx
c01078a0:	43                   	inc    %ebx
c01078a1:	20 53 70             	and    %dl,0x70(%ebx)
c01078a4:	75 72                	jne    c0107918 <find_node+0x15ad>
c01078a6:	69 6f 75 73 20 76 65 	imul   $0x65762073,0x75(%edi),%ebp
c01078ad:	63 74 6f 72          	arpl   %esi,0x72(%edi,%ebp,2)
c01078b1:	20 73 65             	and    %dh,0x65(%ebx)
c01078b4:	74 0a                	je     c01078c0 <find_node+0x1555>
c01078b6:	00 00                	add    %al,(%eax)
c01078b8:	43                   	inc    %ebx
c01078b9:	61                   	popa
c01078ba:	6c                   	insb   (%dx),%es:(%edi)
c01078bb:	69 62 72 61 74 69 6f 	imul   $0x6f697461,0x72(%edx),%esp
c01078c2:	6e                   	outsb  %ds:(%esi),(%dx)
c01078c3:	20 63 6f             	and    %ah,0x6f(%ebx)
c01078c6:	6d                   	insl   (%dx),%es:(%edi)
c01078c7:	70 6c                	jo     c0107935 <find_node+0x15ca>
c01078c9:	65 74 65             	gs je  c0107931 <find_node+0x15c6>
c01078cc:	21 20                	and    %esp,(%eax)
c01078ce:	54                   	push   %esp
c01078cf:	69 63 6b 73 20 70 65 	imul   $0x65702073,0x6b(%ebx),%esp
c01078d6:	72 20                	jb     c01078f8 <find_node+0x158d>
c01078d8:	6d                   	insl   (%dx),%es:(%edi)
c01078d9:	73 3a                	jae    c0107915 <find_node+0x15aa>
c01078db:	20 25 64 0a 00 54    	and    %ah,0x54000a64
c01078e1:	72 61                	jb     c0107944 <find_node+0x15d9>
c01078e3:	6e                   	outsb  %ds:(%esi),(%dx)
c01078e4:	73 20                	jae    c0107906 <find_node+0x159b>
c01078e6:	62 69 74             	bound  %ebp,0x74(%ecx)
c01078e9:	20 25 78 0a 00 00    	and    %ah,0xa78
c01078ef:	00 52 65             	add    %dl,0x65(%edx)
c01078f2:	63 69 65             	arpl   %ebp,0x65(%ecx)
c01078f5:	76 65                	jbe    c010795c <find_node+0x15f1>
c01078f7:	64 3a 20             	cmp    %fs:(%eax),%ah
c01078fa:	25 78 20 7c 20       	and    $0x207c2078,%eax
c01078ff:	53                   	push   %ebx
c0107900:	63 61 6e             	arpl   %esp,0x6e(%ecx)
c0107903:	63 6f 64             	arpl   %ebp,0x64(%edi)
c0107906:	65 20 73 65          	and    %dh,%gs:0x65(%ebx)
c010790a:	74 3a                	je     c0107946 <find_node+0x15db>
c010790c:	20 20                	and    %ah,(%eax)
c010790e:	25 78 0a 00 00       	and    $0xa78,%eax
c0107913:	00 4b 65             	add    %cl,0x65(%ebx)
c0107916:	79 62                	jns    c010797a <find_node+0x160f>
c0107918:	6f                   	outsl  %ds:(%esi),(%dx)
c0107919:	61                   	popa
c010791a:	72 64                	jb     c0107980 <find_node+0x1615>
c010791c:	20 74 79 70          	and    %dh,0x70(%ecx,%edi,2)
c0107920:	65 20 6e 6f          	and    %ch,%gs:0x6f(%esi)
c0107924:	74 20                	je     c0107946 <find_node+0x15db>
c0107926:	73 75                	jae    c010799d <find_node+0x1632>
c0107928:	70 70                	jo     c010799a <find_node+0x162f>
c010792a:	6f                   	outsl  %ds:(%esi),(%dx)
c010792b:	72 74                	jb     c01079a1 <find_node+0x1636>
c010792d:	65 64 21 20          	gs and %esp,%fs:(%eax)
c0107931:	53                   	push   %ebx
c0107932:	6f                   	outsl  %ds:(%esi),(%dx)
c0107933:	77 77                	ja     c01079ac <find_node+0x1641>
c0107935:	79 20                	jns    c0107957 <find_node+0x15ec>
c0107937:	3a 33                	cmp    (%ebx),%dh
c0107939:	00 00                	add    %al,(%eax)
c010793b:	00 4b 65             	add    %cl,0x65(%ebx)
c010793e:	79 62                	jns    c01079a2 <find_node+0x1637>
c0107940:	6f                   	outsl  %ds:(%esi),(%dx)
c0107941:	61                   	popa
c0107942:	72 64                	jb     c01079a8 <find_node+0x163d>
c0107944:	20 74 79 70          	and    %dh,0x70(%ecx,%edi,2)
c0107948:	65 20 73 75          	and    %dh,%gs:0x75(%ebx)
c010794c:	70 70                	jo     c01079be <find_node+0x1653>
c010794e:	6f                   	outsl  %ds:(%esi),(%dx)
c010794f:	72 74                	jb     c01079c5 <find_node+0x165a>
c0107951:	65 64 21 20          	gs and %esp,%fs:(%eax)
c0107955:	43                   	inc    %ebx
c0107956:	6f                   	outsl  %ds:(%esi),(%dx)
c0107957:	6e                   	outsb  %ds:(%esi),(%dx)
c0107958:	74 69                	je     c01079c3 <find_node+0x1658>
c010795a:	6e                   	outsb  %ds:(%esi),(%dx)
c010795b:	75 65                	jne    c01079c2 <find_node+0x1657>
c010795d:	21 0a                	and    %ecx,(%edx)
c010795f:	00 4b 65             	add    %cl,0x65(%ebx)
c0107962:	79 62                	jns    c01079c6 <find_node+0x165b>
c0107964:	6f                   	outsl  %ds:(%esi),(%dx)
c0107965:	61                   	popa
c0107966:	72 64                	jb     c01079cc <find_node+0x1661>
c0107968:	20 46 75             	and    %al,0x75(%esi)
c010796b:	6e                   	outsb  %ds:(%esi),(%dx)
c010796c:	63 74 69 6f          	arpl   %esi,0x6f(%ecx,%ebp,2)
c0107970:	6e                   	outsb  %ds:(%esi),(%dx)
c0107971:	3a 20                	cmp    (%eax),%ah
c0107973:	25 74 33 30 4f       	and    $0x4f303374,%eax
c0107978:	4b                   	dec    %ebx
c0107979:	21 25 74 31 30 0a    	and    %esp,0xa303174
c010797f:	00 66 6f             	add    %ah,0x6f(%esi)
c0107982:	6e                   	outsb  %ds:(%esi),(%dx)
c0107983:	74 5f                	je     c01079e4 <find_node+0x1679>
c0107985:	6d                   	insl   (%dx),%es:(%edi)
c0107986:	6f                   	outsl  %ds:(%esi),(%dx)
c0107987:	64 65 3a 20          	fs cmp %gs:(%eax),%ah
c010798b:	25 78 2c 20 63       	and    $0x63202c78,%eax
c0107990:	68 61 72 5f 73       	push   $0x735f7261
c0107995:	69 7a 65 3a 20 25 64 	imul   $0x6425203a,0x65(%edx),%edi
c010799c:	0a 00                	or     (%eax),%al
c010799e:	00 00                	add    %al,(%eax)
c01079a0:	69 64 6c 65 00 00 00 	imul   $0x0,0x65(%esp,%ebp,2),%esp
c01079a7:	00 
c01079a8:	41                   	inc    %ecx
c01079a9:	64 64 69 6e 67 20 70 	fs imul $0x6f727020,%fs:0x67(%esi),%ebp
c01079b0:	72 6f 
c01079b2:	63 65 73             	arpl   %esp,0x73(%ebp)
c01079b5:	73 20                	jae    c01079d7 <find_node+0x166c>
c01079b7:	25 78 20 74 6f       	and    $0x6f742078,%eax
c01079bc:	20 74 68 65          	and    %dh,0x65(%eax,%ebp,2)
c01079c0:	20 6c 69 73          	and    %ch,0x73(%ecx,%ebp,2)
c01079c4:	74 20                	je     c01079e6 <find_node+0x167b>
c01079c6:	77 69                	ja     c0107a31 <find_node+0x16c6>
c01079c8:	74 68                	je     c0107a32 <find_node+0x16c7>
c01079ca:	20 6e 65             	and    %ch,0x65(%esi)
c01079cd:	78 74                	js     c0107a43 <find_node+0x16d8>
c01079cf:	20 25 78 2e 0a 00    	and    %ah,0xa2e78
c01079d5:	4d                   	dec    %ebp
c01079d6:	75 73                	jne    c0107a4b <find_node+0x16e0>
c01079d8:	74 20                	je     c01079fa <find_node+0x168f>
c01079da:	63 75 74             	arpl   %esi,0x74(%ebp)
c01079dd:	20 6f 0a             	and    %ch,0xa(%edi)
c01079e0:	00 00                	add    %al,(%eax)
c01079e2:	00 00                	add    %al,(%eax)
c01079e4:	43                   	inc    %ebx
c01079e5:	75 74                	jne    c0107a5b <find_node+0x16f0>
c01079e7:	6f                   	outsl  %ds:(%esi),(%dx)
c01079e8:	66 66 2d 2d 2d       	data16 sub $0x2d2d,%ax
c01079ed:	2d 2d 2d 2d 2d       	sub    $0x2d2d2d2d,%eax
c01079f2:	2d 2d 2d 2d 2d       	sub    $0x2d2d2d2d,%eax
c01079f7:	2d 2d 2d 2d 2d       	sub    $0x2d2d2d2d,%eax
c01079fc:	2d 2d 2d 2d 2d       	sub    $0x2d2d2d2d,%eax
c0107a01:	2d 20 50 49 44       	sub    $0x44495020,%eax
c0107a06:	3a 20                	cmp    (%eax),%ah
c0107a08:	25 78 0a 00 4e       	and    $0x4e000a78,%eax
c0107a0d:	65 77 20             	gs ja  c0107a30 <find_node+0x16c5>
c0107a10:	70 72                	jo     c0107a84 <find_node+0x1719>
c0107a12:	6f                   	outsl  %ds:(%esi),(%dx)
c0107a13:	63 65 73             	arpl   %esp,0x73(%ebp)
c0107a16:	73 27                	jae    c0107a3f <find_node+0x16d4>
c0107a18:	20 43 6f             	and    %al,0x6f(%ebx)
c0107a1b:	6e                   	outsb  %ds:(%esi),(%dx)
c0107a1c:	74 65                	je     c0107a83 <find_node+0x1718>
c0107a1e:	78 74                	js     c0107a94 <find_node+0x1729>
c0107a20:	20 73 74             	and    %dh,0x74(%ebx)
c0107a23:	6f                   	outsl  %ds:(%esi),(%dx)
c0107a24:	72 65                	jb     c0107a8b <find_node+0x1720>
c0107a26:	64 20 61 74          	and    %ah,%fs:0x74(%ecx)
c0107a2a:	20 25 78 0a 00 50    	and    %ah,0x50000a78
c0107a30:	72 6f                	jb     c0107aa1 <find_node+0x1736>
c0107a32:	63 65 73             	arpl   %esp,0x73(%ebp)
c0107a35:	73 20                	jae    c0107a57 <find_node+0x16ec>
c0107a37:	25 64 20 66 72       	and    $0x72662064,%eax
c0107a3c:	65 65 64 0a 00       	gs gs or %fs:(%eax),%al
c0107a41:	00 00                	add    %al,(%eax)
c0107a43:	00 50 72             	add    %dl,0x72(%eax)
c0107a46:	6f                   	outsl  %ds:(%esi),(%dx)
c0107a47:	63 65 73             	arpl   %esp,0x73(%ebp)
c0107a4a:	73 20                	jae    c0107a6c <find_node+0x1701>
c0107a4c:	64 65 6c             	fs gs insb (%dx),%es:(%edi)
c0107a4f:	65 74 69             	gs je  c0107abb <find_node+0x1750>
c0107a52:	6e                   	outsb  %ds:(%esi),(%dx)
c0107a53:	67 20 63 6f          	and    %ah,0x6f(%bp,%di)
c0107a57:	6e                   	outsb  %ds:(%esi),(%dx)
c0107a58:	74 65                	je     c0107abf <find_node+0x1754>
c0107a5a:	78 74                	js     c0107ad0 <find_node+0x1765>
c0107a5c:	20 61 74             	and    %ah,0x74(%ecx)
c0107a5f:	20 25 78 0a 00 4e    	and    %ah,0x4e000a78
c0107a65:	6f                   	outsl  %ds:(%esi),(%dx)
c0107a66:	20 76 6d             	and    %dh,0x6d(%esi)
c0107a69:	6d                   	insl   (%dx),%es:(%edi)
c0107a6a:	5f                   	pop    %edi
c0107a6b:	73 70                	jae    c0107add <find_node+0x1772>
c0107a6d:	61                   	popa
c0107a6e:	63 65 20             	arpl   %esp,0x20(%ebp)
c0107a71:	6f                   	outsl  %ds:(%esi),(%dx)
c0107a72:	72 20                	jb     c0107a94 <find_node+0x1729>
c0107a74:	70 64                	jo     c0107ada <find_node+0x176f>
c0107a76:	5f                   	pop    %edi
c0107a77:	73 70                	jae    c0107ae9 <find_node+0x177e>
c0107a79:	61                   	popa
c0107a7a:	63 65 20             	arpl   %esp,0x20(%ebp)
c0107a7d:	61                   	popa
c0107a7e:	6c                   	insb   (%dx),%es:(%edi)
c0107a7f:	6c                   	insb   (%dx),%es:(%edi)
c0107a80:	6f                   	outsl  %ds:(%esi),(%dx)
c0107a81:	63 61 74             	arpl   %esp,0x74(%ecx)
c0107a84:	65 64 20 66 6f       	gs and %ah,%fs:0x6f(%esi)
c0107a89:	72 20                	jb     c0107aab <find_node+0x1740>
c0107a8b:	70 72                	jo     c0107aff <find_node+0x1794>
c0107a8d:	6f                   	outsl  %ds:(%esi),(%dx)
c0107a8e:	63 65 73             	arpl   %esp,0x73(%ebp)
c0107a91:	73 21                	jae    c0107ab4 <find_node+0x1749>
c0107a93:	0a 00                	or     (%eax),%al
c0107a95:	50                   	push   %eax
c0107a96:	72 6f                	jb     c0107b07 <find_node+0x179c>
c0107a98:	63 65 73             	arpl   %esp,0x73(%ebp)
c0107a9b:	73 20                	jae    c0107abd <find_node+0x1752>
c0107a9d:	4b                   	dec    %ebx
c0107a9e:	69 6c 6c 65 64 20 68 	imul   $0x61682064,0x65(%esp,%ebp,2),%ebp
c0107aa5:	61 
c0107aa6:	68 61 68 68 61       	push   $0x61686861
c0107aab:	20 25 78 0a 00 43    	and    %ah,0x43000a78
c0107ab1:	72 65                	jb     c0107b18 <find_node+0x17ad>
c0107ab3:	61                   	popa
c0107ab4:	74 69                	je     c0107b1f <find_node+0x17b4>
c0107ab6:	6e                   	outsb  %ds:(%esi),(%dx)
c0107ab7:	67 20 70 72          	and    %dh,0x72(%bx,%si)
c0107abb:	6f                   	outsl  %ds:(%esi),(%dx)
c0107abc:	63 65 73             	arpl   %esp,0x73(%ebp)
c0107abf:	73 20                	jae    c0107ae1 <find_node+0x1776>
c0107ac1:	61                   	popa
c0107ac2:	74 20                	je     c0107ae4 <find_node+0x1779>
c0107ac4:	25 78 0a 00 50       	and    $0x50000a78,%eax
c0107ac9:	72 6f                	jb     c0107b3a <find_node+0x17cf>
c0107acb:	63 65 73             	arpl   %esp,0x73(%ebp)
c0107ace:	73 20                	jae    c0107af0 <find_node+0x1785>
c0107ad0:	6e                   	outsb  %ds:(%esi),(%dx)
c0107ad1:	61                   	popa
c0107ad2:	6d                   	insl   (%dx),%es:(%edi)
c0107ad3:	65 3a 20             	cmp    %gs:(%eax),%ah
c0107ad6:	25 73 0a 00 50       	and    $0x50000a73,%eax
c0107adb:	72 6f                	jb     c0107b4c <find_node+0x17e1>
c0107add:	63 65 73             	arpl   %esp,0x73(%ebp)
c0107ae0:	73 20                	jae    c0107b02 <find_node+0x1797>
c0107ae2:	70 69                	jo     c0107b4d <find_node+0x17e2>
c0107ae4:	64 3a 20             	cmp    %fs:(%eax),%ah
c0107ae7:	25 64 0a 00 50       	and    $0x50000a64,%eax
c0107aec:	72 6f                	jb     c0107b5d <find_node+0x17f2>
c0107aee:	63 65 73             	arpl   %esp,0x73(%ebp)
c0107af1:	73 20                	jae    c0107b13 <find_node+0x17a8>
c0107af3:	63 6f 6e             	arpl   %ebp,0x6e(%edi)
c0107af6:	74 65                	je     c0107b5d <find_node+0x17f2>
c0107af8:	78 74                	js     c0107b6e <find_node+0x1803>
c0107afa:	20 73 74             	and    %dh,0x74(%ebx)
c0107afd:	6f                   	outsl  %ds:(%esi),(%dx)
c0107afe:	72 65                	jb     c0107b65 <find_node+0x17fa>
c0107b00:	64 20 61 74          	and    %ah,%fs:0x74(%ecx)
c0107b04:	20 25 78 0a 00 43    	and    %ah,0x43000a78
c0107b0a:	6f                   	outsl  %ds:(%esi),(%dx)
c0107b0b:	6e                   	outsb  %ds:(%esi),(%dx)
c0107b0c:	74 65                	je     c0107b73 <find_node+0x1808>
c0107b0e:	78 74                	js     c0107b84 <find_node+0x1819>
c0107b10:	20 72 65             	and    %dh,0x65(%edx)
c0107b13:	74 75                	je     c0107b8a <find_node+0x181f>
c0107b15:	72 6e                	jb     c0107b85 <find_node+0x181a>
c0107b17:	73 65                	jae    c0107b7e <find_node+0x1813>
c0107b19:	64 0a 00             	or     %fs:(%eax),%al
c0107b1c:	a3 4d 10 c0 87       	mov    %eax,0x87c0104d
c0107b21:	4d                   	dec    %ebp
c0107b22:	10 c0                	adc    %al,%al
c0107b24:	95                   	xchg   %eax,%ebp
c0107b25:	4d                   	dec    %ebp
c0107b26:	10 c0                	adc    %al,%al
c0107b28:	8e 4d 10             	mov    0x10(%ebp),%cs
c0107b2b:	c0 a3 4d 10 c0 9c 4d 	shlb   $0x4d,-0x633fefb3(%ebx)
c0107b32:	10 c0                	adc    %al,%al
c0107b34:	a3 4d 10 c0 a3       	mov    %eax,0xa3c0104d
c0107b39:	4d                   	dec    %ebp
c0107b3a:	10 c0                	adc    %al,%al
c0107b3c:	a3 4d 10 c0 a3       	mov    %eax,0xa3c0104d
c0107b41:	4d                   	dec    %ebp
c0107b42:	10 c0                	adc    %al,%al
c0107b44:	83 4b 10 c0          	orl    $0xffffffc0,0x10(%ebx)
c0107b48:	9d                   	popf
c0107b49:	4b                   	dec    %ebx
c0107b4a:	10 c0                	adc    %al,%al
c0107b4c:	b7 4b                	mov    $0x4b,%bh
c0107b4e:	10 c0                	adc    %al,%al
c0107b50:	d1 4b 10             	rorl   $1,0x10(%ebx)
c0107b53:	c0 eb 4b             	shr    $0x4b,%bl
c0107b56:	10 c0                	adc    %al,%al
c0107b58:	05 4c 10 c0 1f       	add    $0x1fc0104c,%eax
c0107b5d:	4c                   	dec    %esp
c0107b5e:	10 c0                	adc    %al,%al
c0107b60:	39 4c 10 c0          	cmp    %ecx,-0x40(%eax,%edx,1)
c0107b64:	53                   	push   %ebx
c0107b65:	4c                   	dec    %esp
c0107b66:	10 c0                	adc    %al,%al
c0107b68:	6d                   	insl   (%dx),%es:(%edi)
c0107b69:	4c                   	dec    %esp
c0107b6a:	10 c0                	adc    %al,%al
c0107b6c:	df 48 10             	fisttps 0x10(%eax)
c0107b6f:	c0 f9 48             	sar    $0x48,%cl
c0107b72:	10 c0                	adc    %al,%al
c0107b74:	13 49 10             	adc    0x10(%ecx),%ecx
c0107b77:	c0 2d 49 10 c0 47 49 	shrb   $0x49,0x47c01049
c0107b7e:	10 c0                	adc    %al,%al
c0107b80:	61                   	popa
c0107b81:	49                   	dec    %ecx
c0107b82:	10 c0                	adc    %al,%al
c0107b84:	7b 49                	jnp    c0107bcf <find_node+0x1864>
c0107b86:	10 c0                	adc    %al,%al
c0107b88:	95                   	xchg   %eax,%ebp
c0107b89:	49                   	dec    %ecx
c0107b8a:	10 c0                	adc    %al,%al
c0107b8c:	af                   	scas   %es:(%edi),%eax
c0107b8d:	49                   	dec    %ecx
c0107b8e:	10 c0                	adc    %al,%al
c0107b90:	c9                   	leave
c0107b91:	49                   	dec    %ecx
c0107b92:	10 c0                	adc    %al,%al
c0107b94:	e3 49                	jecxz  c0107bdf <find_node+0x1874>
c0107b96:	10 c0                	adc    %al,%al
c0107b98:	fd                   	std
c0107b99:	49                   	dec    %ecx
c0107b9a:	10 c0                	adc    %al,%al
c0107b9c:	17                   	pop    %ss
c0107b9d:	4a                   	dec    %edx
c0107b9e:	10 c0                	adc    %al,%al
c0107ba0:	31 4a 10             	xor    %ecx,0x10(%edx)
c0107ba3:	c0 4b 4a 10          	rorb   $0x10,0x4a(%ebx)
c0107ba7:	c0 65 4a 10          	shlb   $0x10,0x4a(%ebp)
c0107bab:	c0 7f 4a 10          	sarb   $0x10,0x4a(%edi)
c0107baf:	c0 99 4a 10 c0 b3 4a 	rcrb   $0x4a,-0x4c3fefb6(%ecx)
c0107bb6:	10 c0                	adc    %al,%al
c0107bb8:	cd 4a                	int    $0x4a
c0107bba:	10 c0                	adc    %al,%al
c0107bbc:	e7 4a                	out    %eax,$0x4a
c0107bbe:	10 c0                	adc    %al,%al
c0107bc0:	01 4b 10             	add    %ecx,0x10(%ebx)
c0107bc3:	c0 1b 4b             	rcrb   $0x4b,(%ebx)
c0107bc6:	10 c0                	adc    %al,%al
c0107bc8:	35 4b 10 c0 4f       	xor    $0x4fc0104b,%eax
c0107bcd:	4b                   	dec    %ebx
c0107bce:	10 c0                	adc    %al,%al
c0107bd0:	69 4b 10 c0 a3 4d 10 	imul   $0x104da3c0,0x10(%ebx),%ecx
c0107bd7:	c0 a3 4d 10 c0 a3 4d 	shlb   $0x4d,-0x5c3fefb3(%ebx)
c0107bde:	10 c0                	adc    %al,%al
c0107be0:	a3 4d 10 c0 a3       	mov    %eax,0xa3c0104d
c0107be5:	4d                   	dec    %ebp
c0107be6:	10 c0                	adc    %al,%al
c0107be8:	a3 4d 10 c0 a3       	mov    %eax,0xa3c0104d
c0107bed:	4d                   	dec    %ebp
c0107bee:	10 c0                	adc    %al,%al
c0107bf0:	a3 4d 10 c0 a3       	mov    %eax,0xa3c0104d
c0107bf5:	4d                   	dec    %ebp
c0107bf6:	10 c0                	adc    %al,%al
c0107bf8:	a3 4d 10 c0 a3       	mov    %eax,0xa3c0104d
c0107bfd:	4d                   	dec    %ebp
c0107bfe:	10 c0                	adc    %al,%al
c0107c00:	a3 4d 10 c0 4b       	mov    %eax,0x4bc0104d
c0107c05:	4d                   	dec    %ebp
c0107c06:	10 c0                	adc    %al,%al
c0107c08:	5f                   	pop    %edi
c0107c09:	4d                   	dec    %ebp
c0107c0a:	10 c0                	adc    %al,%al
c0107c0c:	a3 4d 10 c0 bb       	mov    %eax,0xbbc0104d
c0107c11:	4c                   	dec    %esp
c0107c12:	10 c0                	adc    %al,%al
c0107c14:	d5 4c                	aad    $0x4c
c0107c16:	10 c0                	adc    %al,%al
c0107c18:	a1 4c 10 c0 87       	mov    0x87c0104c,%eax
c0107c1d:	4c                   	dec    %esp
c0107c1e:	10 c0                	adc    %al,%al
c0107c20:	23 4d 10             	and    0x10(%ebp),%ecx
c0107c23:	c0 37 4d             	shlb   $0x4d,(%edi)
c0107c26:	10 c0                	adc    %al,%al
c0107c28:	73 4d                	jae    c0107c77 <find_node+0x190c>
c0107c2a:	10 c0                	adc    %al,%al
c0107c2c:	ef                   	out    %eax,(%dx)
c0107c2d:	4c                   	dec    %esp
c0107c2e:	10 c0                	adc    %al,%al
c0107c30:	09 4d 10             	or     %ecx,0x10(%ebp)
c0107c33:	c0 45 6e 64          	rolb   $0x64,0x6e(%ebp)
c0107c37:	20 66 69             	and    %ah,0x69(%esi)
c0107c3a:	72 73                	jb     c0107caf <find_node+0x1944>
c0107c3c:	74 20                	je     c0107c5e <find_node+0x18f3>
c0107c3e:	6c                   	insb   (%dx),%es:(%edi)
c0107c3f:	69 6e 65 20 25 64 0a 	imul   $0xa642520,0x65(%esi),%ebp
c0107c46:	00 63 75             	add    %ah,0x75(%ebx)
c0107c49:	72 5f                	jb     c0107caa <find_node+0x193f>
c0107c4b:	6c                   	insb   (%dx),%es:(%edi)
c0107c4c:	65 74 74             	gs je  c0107cc3 <find_node+0x1958>
c0107c4f:	65 72 3a             	gs jb  c0107c8c <find_node+0x1921>
c0107c52:	20 25 78 0a 00 30    	and    %ah,0x30000a78
c0107c58:	78 30                	js     c0107c8a <find_node+0x191f>
c0107c5a:	00 41 71             	add    %al,0x71(%ecx)
c0107c5d:	75 69                	jne    c0107cc8 <find_node+0x195d>
c0107c5f:	72 65                	jb     c0107cc6 <find_node+0x195b>
c0107c61:	64 20 63 6f          	and    %ah,%fs:0x6f(%ebx)
c0107c65:	6d                   	insl   (%dx),%es:(%edi)
c0107c66:	6d                   	insl   (%dx),%es:(%edi)
c0107c67:	61                   	popa
c0107c68:	6e                   	outsb  %ds:(%esi),(%dx)
c0107c69:	64 20 61 74          	and    %ah,%fs:0x74(%ecx)
c0107c6d:	20 25 78 0a 00 76    	and    %ah,0x76000a78
c0107c73:	65 72 73             	gs jb  c0107ce9 <find_node+0x197e>
c0107c76:	69 6f 6e 00 30 2e 30 	imul   $0x302e3000,0x6e(%edi),%ebp
c0107c7d:	2e 34 00             	cs xor $0x0,%al
c0107c80:	57                   	push   %edi
c0107c81:	6f                   	outsl  %ds:(%esi),(%dx)
c0107c82:	72 64                	jb     c0107ce8 <find_node+0x197d>
c0107c84:	4f                   	dec    %edi
c0107c85:	53                   	push   %ebx
c0107c86:	20 6b 65             	and    %ch,0x65(%ebx)
c0107c89:	72 6e                	jb     c0107cf9 <find_node+0x198e>
c0107c8b:	65 6c                	gs insb (%dx),%es:(%edi)
c0107c8d:	20 76 65             	and    %dh,0x65(%esi)
c0107c90:	72 73                	jb     c0107d05 <find_node+0x199a>
c0107c92:	69 6f 6e 3a 20 25 74 	imul   $0x7425203a,0x6e(%edi),%ebp
c0107c99:	33 30                	xor    (%eax),%esi
c0107c9b:	25 73 25 74 31       	and    $0x31742573,%eax
c0107ca0:	30 0a                	xor    %cl,(%edx)
c0107ca2:	00 77 6f             	add    %dh,0x6f(%edi)
c0107ca5:	6f                   	outsl  %ds:(%esi),(%dx)
c0107ca6:	66 00 25 74 35 34 42 	data16 add %ah,0x42343574
c0107cad:	61                   	popa
c0107cae:	72 6b                	jb     c0107d1b <find_node+0x19b0>
c0107cb0:	21 20                	and    %esp,(%eax)
c0107cb2:	3a 33                	cmp    (%ebx),%dh
c0107cb4:	25 74 31 30 0a       	and    $0xa303174,%eax
c0107cb9:	00 43 6f             	add    %al,0x6f(%ebx)
c0107cbc:	6d                   	insl   (%dx),%es:(%edi)
c0107cbd:	6d                   	insl   (%dx),%es:(%edi)
c0107cbe:	61                   	popa
c0107cbf:	6e                   	outsb  %ds:(%esi),(%dx)
c0107cc0:	64 20 25 74 32 30 25 	and    %ah,%fs:0x25303274
c0107cc7:	73 25                	jae    c0107cee <find_node+0x1983>
c0107cc9:	74 31                	je     c0107cfc <find_node+0x1991>
c0107ccb:	30 20                	xor    %ah,(%eax)
c0107ccd:	75 6e                	jne    c0107d3d <find_node+0x19d2>
c0107ccf:	6b 6e 6f 77          	imul   $0x77,0x6f(%esi),%ebp
c0107cd3:	6e                   	outsb  %ds:(%esi),(%dx)
c0107cd4:	2e 0a 00             	or     %cs:(%eax),%al
c0107cd7:	4b                   	dec    %ebx
c0107cd8:	65 79 20             	gs jns c0107cfb <find_node+0x1990>
c0107cdb:	70 72                	jo     c0107d4f <find_node+0x19e4>
c0107cdd:	65 73 73             	gs jae c0107d53 <find_node+0x19e8>
c0107ce0:	65 64 0a 00          	gs or  %fs:(%eax),%al
c0107ce4:	54                   	push   %esp
c0107ce5:	65 72 6d             	gs jb  c0107d55 <find_node+0x19ea>
c0107ce8:	69 6e 61 6c 00 43 72 	imul   $0x7243006c,0x61(%esi),%ebp
c0107cef:	65 61                	gs popa
c0107cf1:	74 65                	je     c0107d58 <find_node+0x19ed>
c0107cf3:	64 20 74 65 72       	and    %dh,%fs:0x72(%ebp,%eiz,2)
c0107cf8:	6d                   	insl   (%dx),%es:(%edi)
c0107cf9:	69 6e 61 6c 20 70 72 	imul   $0x7270206c,0x61(%esi),%ebp
c0107d00:	6f                   	outsl  %ds:(%esi),(%dx)
c0107d01:	63 65 73             	arpl   %esp,0x73(%ebp)
c0107d04:	73 0a                	jae    c0107d10 <find_node+0x19a5>
c0107d06:	00 00                	add    %al,(%eax)
c0107d08:	54                   	push   %esp
c0107d09:	65 72 6d             	gs jb  c0107d79 <find_node+0x1a0e>
c0107d0c:	69 6e 61 6c 20 66 75 	imul   $0x7566206c,0x61(%esi),%ebp
c0107d13:	6e                   	outsb  %ds:(%esi),(%dx)
c0107d14:	63 74 69 6f          	arpl   %esi,0x6f(%ecx,%ebp,2)
c0107d18:	6e                   	outsb  %ds:(%esi),(%dx)
c0107d19:	3a 20                	cmp    (%eax),%ah
c0107d1b:	25 74 37 30 4f       	and    $0x4f303774,%eax
c0107d20:	4b                   	dec    %ebx
c0107d21:	21 25 74 31 30 0a    	and    %esp,0xa303174
c0107d27:	00 4e 6f             	add    %cl,0x6f(%esi)
c0107d2a:	64 65 20 77 69       	fs and %dh,%gs:0x69(%edi)
c0107d2f:	74 68                	je     c0107d99 <find_node+0x1a2e>
c0107d31:	20 62 61             	and    %ah,0x61(%edx)
c0107d34:	73 65                	jae    c0107d9b <find_node+0x1a30>
c0107d36:	20 25 78 20 64 6f    	and    %ah,0x6f642078
c0107d3c:	65 73 20             	gs jae c0107d5f <find_node+0x19f4>
c0107d3f:	6e                   	outsb  %ds:(%esi),(%dx)
c0107d40:	6f                   	outsl  %ds:(%esi),(%dx)
c0107d41:	74 20                	je     c0107d63 <find_node+0x19f8>
c0107d43:	65 78 69             	gs js  c0107daf <find_node+0x1a44>
c0107d46:	73 74                	jae    c0107dbc <find_node+0x1a51>
c0107d48:	0a 00                	or     (%eax),%al
c0107d4a:	00 00                	add    %al,(%eax)
c0107d4c:	4e                   	dec    %esi
c0107d4d:	6f                   	outsl  %ds:(%esi),(%dx)
c0107d4e:	64 65 20 6f 66       	fs and %ch,%gs:0x66(%edi)
c0107d53:	20 73 69             	and    %dh,0x69(%ebx)
c0107d56:	7a 65                	jp     c0107dbd <find_node+0x1a52>
c0107d58:	20 25 64 20 77 61    	and    %ah,0x61772064
c0107d5e:	73 20                	jae    c0107d80 <find_node+0x1a15>
c0107d60:	6e                   	outsb  %ds:(%esi),(%dx)
c0107d61:	6f                   	outsl  %ds:(%esi),(%dx)
c0107d62:	74 20                	je     c0107d84 <find_node+0x1a19>
c0107d64:	66 6f                	outsw  %ds:(%esi),(%dx)
c0107d66:	75 6e                	jne    c0107dd6 <find_node+0x1a6b>
c0107d68:	64 0a 00             	or     %fs:(%eax),%al

Disassembly of section .data:

c0108000 <mem_top>:
c0108000:	00 00                	add    %al,(%eax)
c0108002:	00 02                	add    %al,(%edx)

c0108004 <mem_bottom>:
c0108004:	00 00                	add    %al,(%eax)
c0108006:	00 01                	add    %al,(%ecx)

c0108008 <pre_mem>:
c0108008:	d4 00                	aam    $0x0
c010800a:	11 c0                	adc    %eax,%eax
	...

c0108020 <key_lookup>:
c0108020:	00 00                	add    %al,(%eax)
c0108022:	00 00                	add    %al,(%eax)
c0108024:	04 00                	add    $0x0,%al
c0108026:	00 00                	add    %al,(%eax)
c0108028:	0a 00                	or     (%eax),%al
c010802a:	00 00                	add    %al,(%eax)
c010802c:	0b 00                	or     (%eax),%eax
c010802e:	00 00                	add    %al,(%eax)
c0108030:	0c 00                	or     $0x0,%al
c0108032:	00 00                	add    %al,(%eax)
c0108034:	0d 00 00 00 0e       	or     $0xe000000,%eax
c0108039:	00 00                	add    %al,(%eax)
c010803b:	00 0f                	add    %cl,(%edi)
c010803d:	00 00                	add    %al,(%eax)
c010803f:	00 10                	add    %dl,(%eax)
c0108041:	00 00                	add    %al,(%eax)
c0108043:	00 11                	add    %dl,(%ecx)
c0108045:	00 00                	add    %al,(%eax)
c0108047:	00 12                	add    %dl,(%edx)
c0108049:	00 00                	add    %al,(%eax)
c010804b:	00 13                	add    %dl,(%ebx)
c010804d:	00 00                	add    %al,(%eax)
c010804f:	00 3b                	add    %bh,(%ebx)
c0108051:	00 00                	add    %al,(%eax)
c0108053:	00 3a                	add    %bh,(%edx)
c0108055:	00 00                	add    %al,(%eax)
c0108057:	00 02                	add    %al,(%edx)
c0108059:	00 00                	add    %al,(%eax)
c010805b:	00 03                	add    %al,(%ebx)
c010805d:	00 00                	add    %al,(%eax)
c010805f:	00 24 00             	add    %ah,(%eax,%eax,1)
c0108062:	00 00                	add    %al,(%eax)
c0108064:	2a 00                	sub    (%eax),%al
c0108066:	00 00                	add    %al,(%eax)
c0108068:	18 00                	sbb    %al,(%eax)
c010806a:	00 00                	add    %al,(%eax)
c010806c:	25 00 00 00 27       	and    $0x27000000,%eax
c0108071:	00 00                	add    %al,(%eax)
c0108073:	00 2c 00             	add    %ch,(%eax,%eax,1)
c0108076:	00 00                	add    %al,(%eax)
c0108078:	28 00                	sub    %al,(%eax)
c010807a:	00 00                	add    %al,(%eax)
c010807c:	1c 00                	sbb    $0x0,%al
c010807e:	00 00                	add    %al,(%eax)
c0108080:	22 00                	and    (%eax),%al
c0108082:	00 00                	add    %al,(%eax)
c0108084:	23 00                	and    (%eax),%eax
c0108086:	00 00                	add    %al,(%eax)
c0108088:	40                   	inc    %eax
c0108089:	00 00                	add    %al,(%eax)
c010808b:	00 3f                	add    %bh,(%edi)
c010808d:	00 00                	add    %al,(%eax)
c010808f:	00 05 00 00 00 07    	add    %al,0x7000000
c0108095:	00 00                	add    %al,(%eax)
c0108097:	00 14 00             	add    %dl,(%eax,%eax,1)
c010809a:	00 00                	add    %al,(%eax)
c010809c:	26 00 00             	add    %al,%es:(%eax)
c010809f:	00 17                	add    %dl,(%edi)
c01080a1:	00 00                	add    %al,(%eax)
c01080a3:	00 19                	add    %bl,(%ecx)
c01080a5:	00 00                	add    %al,(%eax)
c01080a7:	00 1a                	add    %bl,(%edx)
c01080a9:	00 00                	add    %al,(%eax)
c01080ab:	00 1b                	add    %bl,(%ebx)
c01080ad:	00 00                	add    %al,(%eax)
c01080af:	00 1d 00 00 00 1e    	add    %bl,0x1e000000
c01080b5:	00 00                	add    %al,(%eax)
c01080b7:	00 1f                	add    %bl,(%edi)
c01080b9:	00 00                	add    %al,(%eax)
c01080bb:	00 45 00             	add    %al,0x0(%ebp)
c01080be:	00 00                	add    %al,(%eax)
c01080c0:	44                   	inc    %esp
c01080c1:	00 00                	add    %al,(%eax)
c01080c3:	00 43 00             	add    %al,0x0(%ebx)
c01080c6:	00 00                	add    %al,(%eax)
c01080c8:	06                   	push   %es
c01080c9:	00 00                	add    %al,(%eax)
c01080cb:	00 3e                	add    %bh,(%esi)
c01080cd:	00 00                	add    %al,(%eax)
c01080cf:	00 2d 00 00 00 2b    	add    %ch,0x2b000000
c01080d5:	00 00                	add    %al,(%eax)
c01080d7:	00 16                	add    %dl,(%esi)
c01080d9:	00 00                	add    %al,(%eax)
c01080db:	00 29                	add    %ch,(%ecx)
c01080dd:	00 00                	add    %al,(%eax)
c01080df:	00 15 00 00 00 21    	add    %dl,0x21000000
c01080e5:	00 00                	add    %al,(%eax)
c01080e7:	00 20                	add    %ah,(%eax)
c01080e9:	00 00                	add    %al,(%eax)
c01080eb:	00 42 00             	add    %al,0x0(%edx)
c01080ee:	00 00                	add    %al,(%eax)
c01080f0:	41                   	inc    %ecx
c01080f1:	00 00                	add    %al,(%eax)
c01080f3:	00 3d 00 00 00 06    	add    %bh,0x6000000
c01080f9:	00 00                	add    %al,(%eax)
c01080fb:	00 00                	add    %al,(%eax)
c01080fd:	00 00                	add    %al,(%eax)
c01080ff:	00 08                	add    %cl,(%eax)
c0108101:	00 00                	add    %al,(%eax)
c0108103:	00 01                	add    %al,(%ecx)
c0108105:	00 00                	add    %al,(%eax)
c0108107:	00 09                	add    %cl,(%ecx)
c0108109:	00 00                	add    %al,(%eax)
c010810b:	00 2e                	add    %ch,(%esi)
c010810d:	00 00                	add    %al,(%eax)
c010810f:	00 2f                	add    %ch,(%edi)
c0108111:	00 00                	add    %al,(%eax)
c0108113:	00 30                	add    %dh,(%eax)
c0108115:	00 00                	add    %al,(%eax)
c0108117:	00 31                	add    %dh,(%ecx)
c0108119:	00 00                	add    %al,(%eax)
c010811b:	00 32                	add    %dh,(%edx)
c010811d:	00 00                	add    %al,(%eax)
c010811f:	00 33                	add    %dh,(%ebx)
c0108121:	00 00                	add    %al,(%eax)
c0108123:	00 34 00             	add    %dh,(%eax,%eax,1)
c0108126:	00 00                	add    %al,(%eax)
c0108128:	35 00 00 00 36       	xor    $0x36000000,%eax
c010812d:	00 00                	add    %al,(%eax)
c010812f:	00 37                	add    %dh,(%edi)
	...
c0108179:	00 00                	add    %al,(%eax)
c010817b:	00 38                	add    %bh,(%eax)
c010817d:	00 00                	add    %al,(%eax)
c010817f:	00 39                	add    %bh,(%ecx)
c0108181:	00 00                	add    %al,(%eax)
	...

c0108184 <font_size>:
c0108184:	01 00                	add    %eax,(%eax)

c0108186 <user_char_index>:
c0108186:	02 00                	add    (%eax),%al

c0108188 <term_fg>:
c0108188:	00 f0                	add    %dh,%al
c010818a:	f0 f0          	lock lock ss add $0x2,%al

c010818c <_binary_font_psf_start>:
c010818c:	36 04 02             	ss add $0x2,%al
c010818f:	10 00                	adc    %al,(%eax)
c0108191:	00 00                	add    %al,(%eax)
c0108193:	3e 63 5d 7d          	arpl   %ebx,%ds:0x7d(%ebp)
c0108197:	7b 77                	jnp    c0108210 <_binary_font_psf_start+0x84>
c0108199:	77 7f                	ja     c010821a <_binary_font_psf_start+0x8e>
c010819b:	77 3e                	ja     c01081db <_binary_font_psf_start+0x4f>
	...
c01081a5:	7e 24                	jle    c01081cb <_binary_font_psf_start+0x3f>
c01081a7:	24 24                	and    $0x24,%al
c01081a9:	24 24                	and    $0x24,%al
c01081ab:	24 22                	and    $0x22,%al
c01081ad:	00 00                	add    %al,(%eax)
c01081af:	00 00                	add    %al,(%eax)
c01081b1:	00 00                	add    %al,(%eax)
c01081b3:	00 01                	add    %al,(%ecx)
c01081b5:	02 7f 04             	add    0x4(%edi),%bh
c01081b8:	08 10                	or     %dl,(%eax)
c01081ba:	7f 20                	jg     c01081dc <_binary_font_psf_start+0x50>
c01081bc:	40                   	inc    %eax
c01081bd:	00 00                	add    %al,(%eax)
c01081bf:	00 00                	add    %al,(%eax)
c01081c1:	00 00                	add    %al,(%eax)
c01081c3:	00 08                	add    %cl,(%eax)
c01081c5:	10 20                	adc    %ah,(%eax)
c01081c7:	40                   	inc    %eax
c01081c8:	20 10                	and    %dl,(%eax)
c01081ca:	08 00                	or     %al,(%eax)
c01081cc:	7c 00                	jl     c01081ce <_binary_font_psf_start+0x42>
c01081ce:	00 00                	add    %al,(%eax)
c01081d0:	00 00                	add    %al,(%eax)
c01081d2:	00 00                	add    %al,(%eax)
c01081d4:	10 08                	adc    %cl,(%eax)
c01081d6:	04 02                	add    $0x2,%al
c01081d8:	04 08                	add    $0x8,%al
c01081da:	10 00                	adc    %al,(%eax)
c01081dc:	3e 00 00             	add    %al,%ds:(%eax)
c01081df:	00 00                	add    %al,(%eax)
c01081e1:	00 00                	add    %al,(%eax)
c01081e3:	00 00                	add    %al,(%eax)
c01081e5:	7e 7e                	jle    c0108265 <_binary_font_psf_start+0xd9>
c01081e7:	7e 7e                	jle    c0108267 <_binary_font_psf_start+0xdb>
c01081e9:	7e 7e                	jle    c0108269 <_binary_font_psf_start+0xdd>
c01081eb:	7e 00                	jle    c01081ed <_binary_font_psf_start+0x61>
	...
c01081f5:	10 38                	adc    %bh,(%eax)
c01081f7:	7c fe                	jl     c01081f7 <_binary_font_psf_start+0x6b>
c01081f9:	7c 38                	jl     c0108233 <_binary_font_psf_start+0xa7>
c01081fb:	10 00                	adc    %al,(%eax)
c01081fd:	00 00                	add    %al,(%eax)
c01081ff:	00 00                	add    %al,(%eax)
c0108201:	00 10                	add    %dl,(%eax)
c0108203:	30 10                	xor    %dl,(%eax)
c0108205:	11 12                	adc    %edx,(%edx)
c0108207:	04 08                	add    $0x8,%al
c0108209:	12 26                	adc    (%esi),%ah
c010820b:	4a                   	dec    %edx
c010820c:	0f 02 02             	lar    (%edx),%eax
c010820f:	00 00                	add    %al,(%eax)
c0108211:	00 10                	add    %dl,(%eax)
c0108213:	30 10                	xor    %dl,(%eax)
c0108215:	11 12                	adc    %edx,(%edx)
c0108217:	04 08                	add    $0x8,%al
c0108219:	10 26                	adc    %ah,(%esi)
c010821b:	49                   	dec    %ecx
c010821c:	02 04 0f             	add    (%edi,%ecx,1),%al
c010821f:	00 00                	add    %al,(%eax)
c0108221:	00 70 08             	add    %dh,0x8(%eax)
c0108224:	30 09                	xor    %cl,(%ecx)
c0108226:	72 04                	jb     c010822c <_binary_font_psf_start+0xa0>
c0108228:	08 12                	or     %dl,(%edx)
c010822a:	26 4a                	es dec %edx
c010822c:	0f 02 02             	lar    (%edx),%eax
c010822f:	00 00                	add    %al,(%eax)
c0108231:	00 08                	add    %cl,(%eax)
c0108233:	08 08                	or     %cl,(%eax)
c0108235:	08 08                	or     %cl,(%eax)
c0108237:	00 00                	add    %al,(%eax)
c0108239:	08 08                	or     %cl,(%eax)
c010823b:	08 08                	or     %cl,(%eax)
c010823d:	08 00                	or     %al,(%eax)
c010823f:	00 00                	add    %al,(%eax)
c0108241:	24 24                	and    $0x24,%al
	...
c010825b:	00 00                	add    %al,(%eax)
c010825d:	08 08                	or     %cl,(%eax)
c010825f:	30 00                	xor    %al,(%eax)
c0108261:	00 07                	add    %al,(%edi)
c0108263:	08 08                	or     %cl,(%eax)
c0108265:	08 3e                	or     %bh,(%esi)
c0108267:	08 08                	or     %cl,(%eax)
c0108269:	08 08                	or     %cl,(%eax)
c010826b:	08 08                	or     %cl,(%eax)
c010826d:	70 00                	jo     c010826f <_binary_font_psf_start+0xe3>
c010826f:	00 00                	add    %al,(%eax)
c0108271:	00 00                	add    %al,(%eax)
c0108273:	08 08                	or     %cl,(%eax)
c0108275:	3e 08 08             	or     %cl,%ds:(%eax)
c0108278:	08 08                	or     %cl,(%eax)
c010827a:	08 08                	or     %cl,(%eax)
c010827c:	08 00                	or     %al,(%eax)
c010827e:	00 00                	add    %al,(%eax)
c0108280:	00 00                	add    %al,(%eax)
c0108282:	00 08                	add    %cl,(%eax)
c0108284:	08 3e                	or     %bh,(%esi)
c0108286:	08 08                	or     %cl,(%eax)
c0108288:	08 08                	or     %cl,(%eax)
c010828a:	3e 08 08             	or     %cl,%ds:(%eax)
c010828d:	00 00                	add    %al,(%eax)
c010828f:	00 00                	add    %al,(%eax)
c0108291:	00 00                	add    %al,(%eax)
c0108293:	42                   	inc    %edx
c0108294:	a4                   	movsb  %ds:(%esi),%es:(%edi)
c0108295:	a4                   	movsb  %ds:(%esi),%es:(%edi)
c0108296:	48                   	dec    %eax
c0108297:	10 10                	adc    %dl,(%eax)
c0108299:	2a 55 55             	sub    0x55(%ebp),%dl
c010829c:	8a 00                	mov    (%eax),%al
c010829e:	00 00                	add    %al,(%eax)
c01082a0:	00 00                	add    %al,(%eax)
c01082a2:	00 f1                	add    %dh,%cl
c01082a4:	5b                   	pop    %ebx
c01082a5:	55                   	push   %ebp
c01082a6:	51                   	push   %ecx
	...
c01082bb:	49                   	dec    %ecx
c01082bc:	49                   	dec    %ecx
	...
c01082c5:	00 08                	add    %cl,(%eax)
c01082c7:	10 20                	adc    %ah,(%eax)
c01082c9:	10 08                	adc    %cl,(%eax)
	...
c01082d3:	00 00                	add    %al,(%eax)
c01082d5:	00 10                	add    %dl,(%eax)
c01082d7:	08 04 08             	or     %al,(%eax,%ecx,1)
c01082da:	10 00                	adc    %al,(%eax)
c01082dc:	00 00                	add    %al,(%eax)
c01082de:	00 00                	add    %al,(%eax)
c01082e0:	00 24 24             	add    %ah,(%esp)
c01082e3:	24 12                	and    $0x12,%al
	...
c01082f1:	24 24                	and    $0x24,%al
c01082f3:	24 48                	and    $0x48,%al
	...
c0108309:	00 00                	add    %al,(%eax)
c010830b:	24 24                	and    $0x24,%al
c010830d:	24 48                	and    $0x48,%al
	...
c010831b:	24 24                	and    $0x24,%al
c010831d:	24 12                	and    $0x12,%al
	...
c010832b:	10 10                	adc    %dl,(%eax)
c010832d:	10 08                	adc    %cl,(%eax)
c010832f:	00 42 3c             	add    %al,0x3c(%edx)
c0108332:	00 3c 42             	add    %bh,(%edx,%eax,2)
c0108335:	42                   	inc    %edx
c0108336:	40                   	inc    %eax
c0108337:	40                   	inc    %eax
c0108338:	4e                   	dec    %esi
c0108339:	42                   	inc    %edx
c010833a:	42                   	inc    %edx
c010833b:	42                   	inc    %edx
c010833c:	3c 00                	cmp    $0x0,%al
c010833e:	00 00                	add    %al,(%eax)
c0108340:	00 42 3c             	add    %al,0x3c(%edx)
c0108343:	00 00                	add    %al,(%eax)
c0108345:	3a 46 42             	cmp    0x42(%esi),%al
c0108348:	42                   	inc    %edx
c0108349:	42                   	inc    %edx
c010834a:	46                   	inc    %esi
c010834b:	3a 02                	cmp    (%edx),%al
c010834d:	02 42 3c             	add    0x3c(%edx),%al
c0108350:	08 08                	or     %cl,(%eax)
c0108352:	00 3e                	add    %bh,(%esi)
c0108354:	08 08                	or     %cl,(%eax)
c0108356:	08 08                	or     %cl,(%eax)
c0108358:	08 08                	or     %cl,(%eax)
c010835a:	08 08                	or     %cl,(%eax)
c010835c:	3e 00 00             	add    %al,%ds:(%eax)
c010835f:	00 00                	add    %al,(%eax)
c0108361:	00 00                	add    %al,(%eax)
c0108363:	00 00                	add    %al,(%eax)
c0108365:	18 08                	sbb    %cl,(%eax)
c0108367:	08 08                	or     %cl,(%eax)
c0108369:	08 08                	or     %cl,(%eax)
c010836b:	08 3e                	or     %bh,(%esi)
c010836d:	00 00                	add    %al,(%eax)
c010836f:	00 00                	add    %al,(%eax)
c0108371:	00 00                	add    %al,(%eax)
c0108373:	3c 42                	cmp    $0x42,%al
c0108375:	42                   	inc    %edx
c0108376:	40                   	inc    %eax
c0108377:	30 0c 02             	xor    %cl,(%edx,%eax,1)
c010837a:	42                   	inc    %edx
c010837b:	42                   	inc    %edx
c010837c:	3c 08                	cmp    $0x8,%al
c010837e:	08 30                	or     %dh,(%eax)
c0108380:	00 00                	add    %al,(%eax)
c0108382:	00 00                	add    %al,(%eax)
c0108384:	00 3c 42             	add    %bh,(%edx,%eax,2)
c0108387:	40                   	inc    %eax
c0108388:	30 0c 02             	xor    %cl,(%edx,%eax,1)
c010838b:	42                   	inc    %edx
c010838c:	3c 08                	cmp    $0x8,%al
c010838e:	08 30                	or     %dh,(%eax)
	...
c01083a0:	00 00                	add    %al,(%eax)
c01083a2:	00 08                	add    %cl,(%eax)
c01083a4:	08 08                	or     %cl,(%eax)
c01083a6:	08 08                	or     %cl,(%eax)
c01083a8:	08 08                	or     %cl,(%eax)
c01083aa:	00 08                	add    %cl,(%eax)
c01083ac:	08 00                	or     %al,(%eax)
c01083ae:	00 00                	add    %al,(%eax)
c01083b0:	00 24 24             	add    %ah,(%esp)
c01083b3:	24 24                	and    $0x24,%al
	...
c01083c1:	00 00                	add    %al,(%eax)
c01083c3:	24 24                	and    $0x24,%al
c01083c5:	24 7e                	and    $0x7e,%al
c01083c7:	24 24                	and    $0x24,%al
c01083c9:	7e 24                	jle    c01083ef <_binary_font_psf_start+0x263>
c01083cb:	24 24                	and    $0x24,%al
c01083cd:	00 00                	add    %al,(%eax)
c01083cf:	00 00                	add    %al,(%eax)
c01083d1:	00 08                	add    %cl,(%eax)
c01083d3:	08 3e                	or     %bh,(%esi)
c01083d5:	49                   	dec    %ecx
c01083d6:	48                   	dec    %eax
c01083d7:	48                   	dec    %eax
c01083d8:	3e 09 09             	or     %ecx,%ds:(%ecx)
c01083db:	49                   	dec    %ecx
c01083dc:	3e 08 08             	or     %cl,%ds:(%eax)
c01083df:	00 00                	add    %al,(%eax)
c01083e1:	00 00                	add    %al,(%eax)
c01083e3:	31 4a 4a             	xor    %ecx,0x4a(%edx)
c01083e6:	34 08                	xor    $0x8,%al
c01083e8:	08 16                	or     %dl,(%esi)
c01083ea:	29 29                	sub    %ebp,(%ecx)
c01083ec:	46                   	inc    %esi
c01083ed:	00 00                	add    %al,(%eax)
c01083ef:	00 00                	add    %al,(%eax)
c01083f1:	00 00                	add    %al,(%eax)
c01083f3:	18 24 24             	sbb    %ah,(%esp)
c01083f6:	24 18                	and    $0x18,%al
c01083f8:	28 45 42             	sub    %al,0x42(%ebp)
c01083fb:	46                   	inc    %esi
c01083fc:	39 00                	cmp    %eax,(%eax)
c01083fe:	00 00                	add    %al,(%eax)
c0108400:	00 08                	add    %cl,(%eax)
c0108402:	08 08                	or     %cl,(%eax)
c0108404:	10 00                	adc    %al,(%eax)
	...
c0108412:	04 08                	add    $0x8,%al
c0108414:	08 10                	or     %dl,(%eax)
c0108416:	10 10                	adc    %dl,(%eax)
c0108418:	10 10                	adc    %dl,(%eax)
c010841a:	10 08                	adc    %cl,(%eax)
c010841c:	08 04 00             	or     %al,(%eax,%eax,1)
c010841f:	00 00                	add    %al,(%eax)
c0108421:	00 20                	add    %ah,(%eax)
c0108423:	10 10                	adc    %dl,(%eax)
c0108425:	08 08                	or     %cl,(%eax)
c0108427:	08 08                	or     %cl,(%eax)
c0108429:	08 08                	or     %cl,(%eax)
c010842b:	10 10                	adc    %dl,(%eax)
c010842d:	20 00                	and    %al,(%eax)
c010842f:	00 00                	add    %al,(%eax)
c0108431:	00 00                	add    %al,(%eax)
c0108433:	00 00                	add    %al,(%eax)
c0108435:	08 49 2a             	or     %cl,0x2a(%ecx)
c0108438:	1c 2a                	sbb    $0x2a,%al
c010843a:	49                   	dec    %ecx
c010843b:	08 00                	or     %al,(%eax)
	...
c0108445:	08 08                	or     %cl,(%eax)
c0108447:	08 7f 08             	or     %bh,0x8(%edi)
c010844a:	08 08                	or     %cl,(%eax)
	...
c0108458:	00 00                	add    %al,(%eax)
c010845a:	00 08                	add    %cl,(%eax)
c010845c:	08 08                	or     %cl,(%eax)
c010845e:	10 00                	adc    %al,(%eax)
	...
c0108468:	7e 00                	jle    c010846a <_binary_font_psf_start+0x2de>
	...
c010847a:	00 08                	add    %cl,(%eax)
c010847c:	08 00                	or     %al,(%eax)
c010847e:	00 00                	add    %al,(%eax)
c0108480:	00 00                	add    %al,(%eax)
c0108482:	00 02                	add    %al,(%edx)
c0108484:	02 04 04             	add    (%esp,%eax,1),%al
c0108487:	08 08                	or     %cl,(%eax)
c0108489:	10 10                	adc    %dl,(%eax)
c010848b:	20 20                	and    %ah,(%eax)
c010848d:	00 00                	add    %al,(%eax)
c010848f:	00 00                	add    %al,(%eax)
c0108491:	00 00                	add    %al,(%eax)
c0108493:	3c 42                	cmp    $0x42,%al
c0108495:	42                   	inc    %edx
c0108496:	42                   	inc    %edx
c0108497:	4a                   	dec    %edx
c0108498:	52                   	push   %edx
c0108499:	42                   	inc    %edx
c010849a:	42                   	inc    %edx
c010849b:	42                   	inc    %edx
c010849c:	3c 00                	cmp    $0x0,%al
c010849e:	00 00                	add    %al,(%eax)
c01084a0:	00 00                	add    %al,(%eax)
c01084a2:	00 08                	add    %cl,(%eax)
c01084a4:	18 28                	sbb    %ch,(%eax)
c01084a6:	08 08                	or     %cl,(%eax)
c01084a8:	08 08                	or     %cl,(%eax)
c01084aa:	08 08                	or     %cl,(%eax)
c01084ac:	3e 00 00             	add    %al,%ds:(%eax)
c01084af:	00 00                	add    %al,(%eax)
c01084b1:	00 00                	add    %al,(%eax)
c01084b3:	3c 42                	cmp    $0x42,%al
c01084b5:	42                   	inc    %edx
c01084b6:	02 04 08             	add    (%eax,%ecx,1),%al
c01084b9:	10 20                	adc    %ah,(%eax)
c01084bb:	40                   	inc    %eax
c01084bc:	7e 00                	jle    c01084be <_binary_font_psf_start+0x332>
c01084be:	00 00                	add    %al,(%eax)
c01084c0:	00 00                	add    %al,(%eax)
c01084c2:	00 3c 42             	add    %bh,(%edx,%eax,2)
c01084c5:	42                   	inc    %edx
c01084c6:	02 1c 02             	add    (%edx,%eax,1),%bl
c01084c9:	02 42 42             	add    0x42(%edx),%al
c01084cc:	3c 00                	cmp    $0x0,%al
c01084ce:	00 00                	add    %al,(%eax)
c01084d0:	00 00                	add    %al,(%eax)
c01084d2:	00 04 0c             	add    %al,(%esp,%ecx,1)
c01084d5:	14 24                	adc    $0x24,%al
c01084d7:	44                   	inc    %esp
c01084d8:	44                   	inc    %esp
c01084d9:	7e 04                	jle    c01084df <_binary_font_psf_start+0x353>
c01084db:	04 04                	add    $0x4,%al
c01084dd:	00 00                	add    %al,(%eax)
c01084df:	00 00                	add    %al,(%eax)
c01084e1:	00 00                	add    %al,(%eax)
c01084e3:	7e 40                	jle    c0108525 <_binary_font_psf_start+0x399>
c01084e5:	40                   	inc    %eax
c01084e6:	40                   	inc    %eax
c01084e7:	7c 02                	jl     c01084eb <_binary_font_psf_start+0x35f>
c01084e9:	02 02                	add    (%edx),%al
c01084eb:	42                   	inc    %edx
c01084ec:	3c 00                	cmp    $0x0,%al
c01084ee:	00 00                	add    %al,(%eax)
c01084f0:	00 00                	add    %al,(%eax)
c01084f2:	00 1c 20             	add    %bl,(%eax,%eiz,1)
c01084f5:	40                   	inc    %eax
c01084f6:	40                   	inc    %eax
c01084f7:	7c 42                	jl     c010853b <_binary_font_psf_start+0x3af>
c01084f9:	42                   	inc    %edx
c01084fa:	42                   	inc    %edx
c01084fb:	42                   	inc    %edx
c01084fc:	3c 00                	cmp    $0x0,%al
c01084fe:	00 00                	add    %al,(%eax)
c0108500:	00 00                	add    %al,(%eax)
c0108502:	00 7e 02             	add    %bh,0x2(%esi)
c0108505:	02 04 04             	add    (%esp,%eax,1),%al
c0108508:	08 08                	or     %cl,(%eax)
c010850a:	10 10                	adc    %dl,(%eax)
c010850c:	10 00                	adc    %al,(%eax)
c010850e:	00 00                	add    %al,(%eax)
c0108510:	00 00                	add    %al,(%eax)
c0108512:	00 3c 42             	add    %bh,(%edx,%eax,2)
c0108515:	42                   	inc    %edx
c0108516:	42                   	inc    %edx
c0108517:	3c 42                	cmp    $0x42,%al
c0108519:	42                   	inc    %edx
c010851a:	42                   	inc    %edx
c010851b:	42                   	inc    %edx
c010851c:	3c 00                	cmp    $0x0,%al
c010851e:	00 00                	add    %al,(%eax)
c0108520:	00 00                	add    %al,(%eax)
c0108522:	00 3c 42             	add    %bh,(%edx,%eax,2)
c0108525:	42                   	inc    %edx
c0108526:	42                   	inc    %edx
c0108527:	42                   	inc    %edx
c0108528:	3e 02 02             	add    %ds:(%edx),%al
c010852b:	04 38                	add    $0x38,%al
	...
c0108535:	00 08                	add    %cl,(%eax)
c0108537:	08 00                	or     %al,(%eax)
c0108539:	00 00                	add    %al,(%eax)
c010853b:	08 08                	or     %cl,(%eax)
	...
c0108545:	00 08                	add    %cl,(%eax)
c0108547:	08 00                	or     %al,(%eax)
c0108549:	00 00                	add    %al,(%eax)
c010854b:	08 08                	or     %cl,(%eax)
c010854d:	08 10                	or     %dl,(%eax)
c010854f:	00 00                	add    %al,(%eax)
c0108551:	00 00                	add    %al,(%eax)
c0108553:	00 04 08             	add    %al,(%eax,%ecx,1)
c0108556:	10 20                	adc    %ah,(%eax)
c0108558:	40                   	inc    %eax
c0108559:	20 10                	and    %dl,(%eax)
c010855b:	08 04 00             	or     %al,(%eax,%eax,1)
	...
c0108566:	7e 00                	jle    c0108568 <_binary_font_psf_start+0x3dc>
c0108568:	00 00                	add    %al,(%eax)
c010856a:	7e 00                	jle    c010856c <_binary_font_psf_start+0x3e0>
	...
c0108574:	20 10                	and    %dl,(%eax)
c0108576:	08 04 02             	or     %al,(%edx,%eax,1)
c0108579:	04 08                	add    $0x8,%al
c010857b:	10 20                	adc    %ah,(%eax)
c010857d:	00 00                	add    %al,(%eax)
c010857f:	00 00                	add    %al,(%eax)
c0108581:	00 00                	add    %al,(%eax)
c0108583:	3c 42                	cmp    $0x42,%al
c0108585:	42                   	inc    %edx
c0108586:	02 04 08             	add    (%eax,%ecx,1),%al
c0108589:	08 00                	or     %al,(%eax)
c010858b:	08 08                	or     %cl,(%eax)
c010858d:	00 00                	add    %al,(%eax)
c010858f:	00 00                	add    %al,(%eax)
c0108591:	00 00                	add    %al,(%eax)
c0108593:	1c 22                	sbb    $0x22,%al
c0108595:	4a                   	dec    %edx
c0108596:	56                   	push   %esi
c0108597:	52                   	push   %edx
c0108598:	52                   	push   %edx
c0108599:	52                   	push   %edx
c010859a:	4e                   	dec    %esi
c010859b:	20 1e                	and    %bl,(%esi)
c010859d:	00 00                	add    %al,(%eax)
c010859f:	00 00                	add    %al,(%eax)
c01085a1:	00 00                	add    %al,(%eax)
c01085a3:	18 24 24             	sbb    %ah,(%esp)
c01085a6:	42                   	inc    %edx
c01085a7:	42                   	inc    %edx
c01085a8:	7e 42                	jle    c01085ec <_binary_font_psf_start+0x460>
c01085aa:	42                   	inc    %edx
c01085ab:	42                   	inc    %edx
c01085ac:	42                   	inc    %edx
c01085ad:	00 00                	add    %al,(%eax)
c01085af:	00 00                	add    %al,(%eax)
c01085b1:	00 00                	add    %al,(%eax)
c01085b3:	7c 42                	jl     c01085f7 <_binary_font_psf_start+0x46b>
c01085b5:	42                   	inc    %edx
c01085b6:	42                   	inc    %edx
c01085b7:	7c 42                	jl     c01085fb <_binary_font_psf_start+0x46f>
c01085b9:	42                   	inc    %edx
c01085ba:	42                   	inc    %edx
c01085bb:	42                   	inc    %edx
c01085bc:	7c 00                	jl     c01085be <_binary_font_psf_start+0x432>
c01085be:	00 00                	add    %al,(%eax)
c01085c0:	00 00                	add    %al,(%eax)
c01085c2:	00 3c 42             	add    %bh,(%edx,%eax,2)
c01085c5:	42                   	inc    %edx
c01085c6:	40                   	inc    %eax
c01085c7:	40                   	inc    %eax
c01085c8:	40                   	inc    %eax
c01085c9:	40                   	inc    %eax
c01085ca:	42                   	inc    %edx
c01085cb:	42                   	inc    %edx
c01085cc:	3c 00                	cmp    $0x0,%al
c01085ce:	00 00                	add    %al,(%eax)
c01085d0:	00 00                	add    %al,(%eax)
c01085d2:	00 78 44             	add    %bh,0x44(%eax)
c01085d5:	42                   	inc    %edx
c01085d6:	42                   	inc    %edx
c01085d7:	42                   	inc    %edx
c01085d8:	42                   	inc    %edx
c01085d9:	42                   	inc    %edx
c01085da:	42                   	inc    %edx
c01085db:	44                   	inc    %esp
c01085dc:	78 00                	js     c01085de <_binary_font_psf_start+0x452>
c01085de:	00 00                	add    %al,(%eax)
c01085e0:	00 00                	add    %al,(%eax)
c01085e2:	00 7e 40             	add    %bh,0x40(%esi)
c01085e5:	40                   	inc    %eax
c01085e6:	40                   	inc    %eax
c01085e7:	7c 40                	jl     c0108629 <_binary_font_psf_start+0x49d>
c01085e9:	40                   	inc    %eax
c01085ea:	40                   	inc    %eax
c01085eb:	40                   	inc    %eax
c01085ec:	7e 00                	jle    c01085ee <_binary_font_psf_start+0x462>
c01085ee:	00 00                	add    %al,(%eax)
c01085f0:	00 00                	add    %al,(%eax)
c01085f2:	00 7e 40             	add    %bh,0x40(%esi)
c01085f5:	40                   	inc    %eax
c01085f6:	40                   	inc    %eax
c01085f7:	7c 40                	jl     c0108639 <_binary_font_psf_start+0x4ad>
c01085f9:	40                   	inc    %eax
c01085fa:	40                   	inc    %eax
c01085fb:	40                   	inc    %eax
c01085fc:	40                   	inc    %eax
c01085fd:	00 00                	add    %al,(%eax)
c01085ff:	00 00                	add    %al,(%eax)
c0108601:	00 00                	add    %al,(%eax)
c0108603:	3c 42                	cmp    $0x42,%al
c0108605:	42                   	inc    %edx
c0108606:	40                   	inc    %eax
c0108607:	40                   	inc    %eax
c0108608:	4e                   	dec    %esi
c0108609:	42                   	inc    %edx
c010860a:	42                   	inc    %edx
c010860b:	42                   	inc    %edx
c010860c:	3c 00                	cmp    $0x0,%al
c010860e:	00 00                	add    %al,(%eax)
c0108610:	00 00                	add    %al,(%eax)
c0108612:	00 42 42             	add    %al,0x42(%edx)
c0108615:	42                   	inc    %edx
c0108616:	42                   	inc    %edx
c0108617:	7e 42                	jle    c010865b <_binary_font_psf_start+0x4cf>
c0108619:	42                   	inc    %edx
c010861a:	42                   	inc    %edx
c010861b:	42                   	inc    %edx
c010861c:	42                   	inc    %edx
c010861d:	00 00                	add    %al,(%eax)
c010861f:	00 00                	add    %al,(%eax)
c0108621:	00 00                	add    %al,(%eax)
c0108623:	3e 08 08             	or     %cl,%ds:(%eax)
c0108626:	08 08                	or     %cl,(%eax)
c0108628:	08 08                	or     %cl,(%eax)
c010862a:	08 08                	or     %cl,(%eax)
c010862c:	3e 00 00             	add    %al,%ds:(%eax)
c010862f:	00 00                	add    %al,(%eax)
c0108631:	00 00                	add    %al,(%eax)
c0108633:	1f                   	pop    %ds
c0108634:	04 04                	add    $0x4,%al
c0108636:	04 04                	add    $0x4,%al
c0108638:	04 04                	add    $0x4,%al
c010863a:	44                   	inc    %esp
c010863b:	44                   	inc    %esp
c010863c:	38 00                	cmp    %al,(%eax)
c010863e:	00 00                	add    %al,(%eax)
c0108640:	00 00                	add    %al,(%eax)
c0108642:	00 42 44             	add    %al,0x44(%edx)
c0108645:	48                   	dec    %eax
c0108646:	50                   	push   %eax
c0108647:	60                   	pusha
c0108648:	60                   	pusha
c0108649:	50                   	push   %eax
c010864a:	48                   	dec    %eax
c010864b:	44                   	inc    %esp
c010864c:	42                   	inc    %edx
c010864d:	00 00                	add    %al,(%eax)
c010864f:	00 00                	add    %al,(%eax)
c0108651:	00 00                	add    %al,(%eax)
c0108653:	40                   	inc    %eax
c0108654:	40                   	inc    %eax
c0108655:	40                   	inc    %eax
c0108656:	40                   	inc    %eax
c0108657:	40                   	inc    %eax
c0108658:	40                   	inc    %eax
c0108659:	40                   	inc    %eax
c010865a:	40                   	inc    %eax
c010865b:	40                   	inc    %eax
c010865c:	7e 00                	jle    c010865e <_binary_font_psf_start+0x4d2>
c010865e:	00 00                	add    %al,(%eax)
c0108660:	00 00                	add    %al,(%eax)
c0108662:	00 41 63             	add    %al,0x63(%ecx)
c0108665:	63 55 55             	arpl   %edx,0x55(%ebp)
c0108668:	49                   	dec    %ecx
c0108669:	49                   	dec    %ecx
c010866a:	41                   	inc    %ecx
c010866b:	41                   	inc    %ecx
c010866c:	41                   	inc    %ecx
c010866d:	00 00                	add    %al,(%eax)
c010866f:	00 00                	add    %al,(%eax)
c0108671:	00 00                	add    %al,(%eax)
c0108673:	42                   	inc    %edx
c0108674:	62 62 52             	bound  %esp,0x52(%edx)
c0108677:	52                   	push   %edx
c0108678:	4a                   	dec    %edx
c0108679:	4a                   	dec    %edx
c010867a:	46                   	inc    %esi
c010867b:	46                   	inc    %esi
c010867c:	42                   	inc    %edx
c010867d:	00 00                	add    %al,(%eax)
c010867f:	00 00                	add    %al,(%eax)
c0108681:	00 00                	add    %al,(%eax)
c0108683:	3c 42                	cmp    $0x42,%al
c0108685:	42                   	inc    %edx
c0108686:	42                   	inc    %edx
c0108687:	42                   	inc    %edx
c0108688:	42                   	inc    %edx
c0108689:	42                   	inc    %edx
c010868a:	42                   	inc    %edx
c010868b:	42                   	inc    %edx
c010868c:	3c 00                	cmp    $0x0,%al
c010868e:	00 00                	add    %al,(%eax)
c0108690:	00 00                	add    %al,(%eax)
c0108692:	00 7c 42 42          	add    %bh,0x42(%edx,%eax,2)
c0108696:	42                   	inc    %edx
c0108697:	42                   	inc    %edx
c0108698:	7c 40                	jl     c01086da <_binary_font_psf_start+0x54e>
c010869a:	40                   	inc    %eax
c010869b:	40                   	inc    %eax
c010869c:	40                   	inc    %eax
c010869d:	00 00                	add    %al,(%eax)
c010869f:	00 00                	add    %al,(%eax)
c01086a1:	00 00                	add    %al,(%eax)
c01086a3:	3c 42                	cmp    $0x42,%al
c01086a5:	42                   	inc    %edx
c01086a6:	42                   	inc    %edx
c01086a7:	42                   	inc    %edx
c01086a8:	42                   	inc    %edx
c01086a9:	42                   	inc    %edx
c01086aa:	5a                   	pop    %edx
c01086ab:	66 3c 03             	data16 cmp $0x3,%al
c01086ae:	00 00                	add    %al,(%eax)
c01086b0:	00 00                	add    %al,(%eax)
c01086b2:	00 7c 42 42          	add    %bh,0x42(%edx,%eax,2)
c01086b6:	42                   	inc    %edx
c01086b7:	7c 48                	jl     c0108701 <_binary_font_psf_start+0x575>
c01086b9:	44                   	inc    %esp
c01086ba:	44                   	inc    %esp
c01086bb:	42                   	inc    %edx
c01086bc:	42                   	inc    %edx
c01086bd:	00 00                	add    %al,(%eax)
c01086bf:	00 00                	add    %al,(%eax)
c01086c1:	00 00                	add    %al,(%eax)
c01086c3:	3c 42                	cmp    $0x42,%al
c01086c5:	42                   	inc    %edx
c01086c6:	40                   	inc    %eax
c01086c7:	30 0c 02             	xor    %cl,(%edx,%eax,1)
c01086ca:	42                   	inc    %edx
c01086cb:	42                   	inc    %edx
c01086cc:	3c 00                	cmp    $0x0,%al
c01086ce:	00 00                	add    %al,(%eax)
c01086d0:	00 00                	add    %al,(%eax)
c01086d2:	00 7f 08             	add    %bh,0x8(%edi)
c01086d5:	08 08                	or     %cl,(%eax)
c01086d7:	08 08                	or     %cl,(%eax)
c01086d9:	08 08                	or     %cl,(%eax)
c01086db:	08 08                	or     %cl,(%eax)
c01086dd:	00 00                	add    %al,(%eax)
c01086df:	00 00                	add    %al,(%eax)
c01086e1:	00 00                	add    %al,(%eax)
c01086e3:	42                   	inc    %edx
c01086e4:	42                   	inc    %edx
c01086e5:	42                   	inc    %edx
c01086e6:	42                   	inc    %edx
c01086e7:	42                   	inc    %edx
c01086e8:	42                   	inc    %edx
c01086e9:	42                   	inc    %edx
c01086ea:	42                   	inc    %edx
c01086eb:	42                   	inc    %edx
c01086ec:	3c 00                	cmp    $0x0,%al
c01086ee:	00 00                	add    %al,(%eax)
c01086f0:	00 00                	add    %al,(%eax)
c01086f2:	00 41 41             	add    %al,0x41(%ecx)
c01086f5:	41                   	inc    %ecx
c01086f6:	22 22                	and    (%edx),%ah
c01086f8:	22 14 14             	and    (%esp,%edx,1),%dl
c01086fb:	08 08                	or     %cl,(%eax)
c01086fd:	00 00                	add    %al,(%eax)
c01086ff:	00 00                	add    %al,(%eax)
c0108701:	00 00                	add    %al,(%eax)
c0108703:	41                   	inc    %ecx
c0108704:	41                   	inc    %ecx
c0108705:	41                   	inc    %ecx
c0108706:	49                   	dec    %ecx
c0108707:	49                   	dec    %ecx
c0108708:	55                   	push   %ebp
c0108709:	55                   	push   %ebp
c010870a:	63 63 41             	arpl   %esp,0x41(%ebx)
c010870d:	00 00                	add    %al,(%eax)
c010870f:	00 00                	add    %al,(%eax)
c0108711:	00 00                	add    %al,(%eax)
c0108713:	42                   	inc    %edx
c0108714:	42                   	inc    %edx
c0108715:	24 24                	and    $0x24,%al
c0108717:	18 18                	sbb    %bl,(%eax)
c0108719:	24 24                	and    $0x24,%al
c010871b:	42                   	inc    %edx
c010871c:	42                   	inc    %edx
c010871d:	00 00                	add    %al,(%eax)
c010871f:	00 00                	add    %al,(%eax)
c0108721:	00 00                	add    %al,(%eax)
c0108723:	41                   	inc    %ecx
c0108724:	41                   	inc    %ecx
c0108725:	22 22                	and    (%edx),%ah
c0108727:	14 08                	adc    $0x8,%al
c0108729:	08 08                	or     %cl,(%eax)
c010872b:	08 08                	or     %cl,(%eax)
c010872d:	00 00                	add    %al,(%eax)
c010872f:	00 00                	add    %al,(%eax)
c0108731:	00 00                	add    %al,(%eax)
c0108733:	7e 02                	jle    c0108737 <_binary_font_psf_start+0x5ab>
c0108735:	02 04 08             	add    (%eax,%ecx,1),%al
c0108738:	10 20                	adc    %ah,(%eax)
c010873a:	40                   	inc    %eax
c010873b:	40                   	inc    %eax
c010873c:	7e 00                	jle    c010873e <_binary_font_psf_start+0x5b2>
c010873e:	00 00                	add    %al,(%eax)
c0108740:	00 00                	add    %al,(%eax)
c0108742:	1c 10                	sbb    $0x10,%al
c0108744:	10 10                	adc    %dl,(%eax)
c0108746:	10 10                	adc    %dl,(%eax)
c0108748:	10 10                	adc    %dl,(%eax)
c010874a:	10 10                	adc    %dl,(%eax)
c010874c:	10 1c 00             	adc    %bl,(%eax,%eax,1)
c010874f:	00 00                	add    %al,(%eax)
c0108751:	00 00                	add    %al,(%eax)
c0108753:	20 20                	and    %ah,(%eax)
c0108755:	10 10                	adc    %dl,(%eax)
c0108757:	08 08                	or     %cl,(%eax)
c0108759:	04 04                	add    $0x4,%al
c010875b:	02 02                	add    (%edx),%al
c010875d:	00 00                	add    %al,(%eax)
c010875f:	00 00                	add    %al,(%eax)
c0108761:	00 38                	add    %bh,(%eax)
c0108763:	08 08                	or     %cl,(%eax)
c0108765:	08 08                	or     %cl,(%eax)
c0108767:	08 08                	or     %cl,(%eax)
c0108769:	08 08                	or     %cl,(%eax)
c010876b:	08 08                	or     %cl,(%eax)
c010876d:	38 00                	cmp    %al,(%eax)
c010876f:	00 00                	add    %al,(%eax)
c0108771:	08 14 22             	or     %dl,(%edx,%eiz,1)
c0108774:	41                   	inc    %ecx
	...
c010878d:	7f 00                	jg     c010878f <_binary_font_psf_start+0x603>
c010878f:	00 00                	add    %al,(%eax)
c0108791:	10 10                	adc    %dl,(%eax)
c0108793:	10 08                	adc    %cl,(%eax)
	...
c01087a5:	3c 42                	cmp    $0x42,%al
c01087a7:	02 3e                	add    (%esi),%bh
c01087a9:	42                   	inc    %edx
c01087aa:	42                   	inc    %edx
c01087ab:	46                   	inc    %esi
c01087ac:	3a 00                	cmp    (%eax),%al
c01087ae:	00 00                	add    %al,(%eax)
c01087b0:	00 00                	add    %al,(%eax)
c01087b2:	40                   	inc    %eax
c01087b3:	40                   	inc    %eax
c01087b4:	40                   	inc    %eax
c01087b5:	5c                   	pop    %esp
c01087b6:	62 42 42             	bound  %eax,0x42(%edx)
c01087b9:	42                   	inc    %edx
c01087ba:	42                   	inc    %edx
c01087bb:	62 5c 00 00          	bound  %ebx,0x0(%eax,%eax,1)
c01087bf:	00 00                	add    %al,(%eax)
c01087c1:	00 00                	add    %al,(%eax)
c01087c3:	00 00                	add    %al,(%eax)
c01087c5:	3c 42                	cmp    $0x42,%al
c01087c7:	40                   	inc    %eax
c01087c8:	40                   	inc    %eax
c01087c9:	40                   	inc    %eax
c01087ca:	40                   	inc    %eax
c01087cb:	42                   	inc    %edx
c01087cc:	3c 00                	cmp    $0x0,%al
c01087ce:	00 00                	add    %al,(%eax)
c01087d0:	00 00                	add    %al,(%eax)
c01087d2:	02 02                	add    (%edx),%al
c01087d4:	02 3a                	add    (%edx),%bh
c01087d6:	46                   	inc    %esi
c01087d7:	42                   	inc    %edx
c01087d8:	42                   	inc    %edx
c01087d9:	42                   	inc    %edx
c01087da:	42                   	inc    %edx
c01087db:	46                   	inc    %esi
c01087dc:	3a 00                	cmp    (%eax),%al
c01087de:	00 00                	add    %al,(%eax)
c01087e0:	00 00                	add    %al,(%eax)
c01087e2:	00 00                	add    %al,(%eax)
c01087e4:	00 3c 42             	add    %bh,(%edx,%eax,2)
c01087e7:	42                   	inc    %edx
c01087e8:	7e 40                	jle    c010882a <_binary_font_psf_start+0x69e>
c01087ea:	40                   	inc    %eax
c01087eb:	42                   	inc    %edx
c01087ec:	3c 00                	cmp    $0x0,%al
c01087ee:	00 00                	add    %al,(%eax)
c01087f0:	00 00                	add    %al,(%eax)
c01087f2:	0e                   	push   %cs
c01087f3:	10 10                	adc    %dl,(%eax)
c01087f5:	10 7c 10 10          	adc    %bh,0x10(%eax,%edx,1)
c01087f9:	10 10                	adc    %dl,(%eax)
c01087fb:	10 10                	adc    %dl,(%eax)
	...
c0108805:	3a 46 42             	cmp    0x42(%esi),%al
c0108808:	42                   	inc    %edx
c0108809:	42                   	inc    %edx
c010880a:	46                   	inc    %esi
c010880b:	3a 02                	cmp    (%edx),%al
c010880d:	02 42 3c             	add    0x3c(%edx),%al
c0108810:	00 00                	add    %al,(%eax)
c0108812:	40                   	inc    %eax
c0108813:	40                   	inc    %eax
c0108814:	40                   	inc    %eax
c0108815:	5c                   	pop    %esp
c0108816:	62 42 42             	bound  %eax,0x42(%edx)
c0108819:	42                   	inc    %edx
c010881a:	42                   	inc    %edx
c010881b:	42                   	inc    %edx
c010881c:	42                   	inc    %edx
c010881d:	00 00                	add    %al,(%eax)
c010881f:	00 00                	add    %al,(%eax)
c0108821:	00 08                	add    %cl,(%eax)
c0108823:	08 00                	or     %al,(%eax)
c0108825:	18 08                	sbb    %cl,(%eax)
c0108827:	08 08                	or     %cl,(%eax)
c0108829:	08 08                	or     %cl,(%eax)
c010882b:	08 3e                	or     %bh,(%esi)
c010882d:	00 00                	add    %al,(%eax)
c010882f:	00 00                	add    %al,(%eax)
c0108831:	00 04 04             	add    %al,(%esp,%eax,1)
c0108834:	00 0c 04             	add    %cl,(%esp,%eax,1)
c0108837:	04 04                	add    $0x4,%al
c0108839:	04 04                	add    $0x4,%al
c010883b:	04 04                	add    $0x4,%al
c010883d:	04 44                	add    $0x44,%al
c010883f:	38 00                	cmp    %al,(%eax)
c0108841:	00 40 40             	add    %al,0x40(%eax)
c0108844:	40                   	inc    %eax
c0108845:	44                   	inc    %esp
c0108846:	48                   	dec    %eax
c0108847:	50                   	push   %eax
c0108848:	60                   	pusha
c0108849:	50                   	push   %eax
c010884a:	48                   	dec    %eax
c010884b:	44                   	inc    %esp
c010884c:	42                   	inc    %edx
c010884d:	00 00                	add    %al,(%eax)
c010884f:	00 00                	add    %al,(%eax)
c0108851:	00 18                	add    %bl,(%eax)
c0108853:	08 08                	or     %cl,(%eax)
c0108855:	08 08                	or     %cl,(%eax)
c0108857:	08 08                	or     %cl,(%eax)
c0108859:	08 08                	or     %cl,(%eax)
c010885b:	08 3e                	or     %bh,(%esi)
	...
c0108865:	76 49                	jbe    c01088b0 <_binary_font_psf_start+0x724>
c0108867:	49                   	dec    %ecx
c0108868:	49                   	dec    %ecx
c0108869:	49                   	dec    %ecx
c010886a:	49                   	dec    %ecx
c010886b:	49                   	dec    %ecx
c010886c:	49                   	dec    %ecx
	...
c0108875:	5c                   	pop    %esp
c0108876:	62 42 42             	bound  %eax,0x42(%edx)
c0108879:	42                   	inc    %edx
c010887a:	42                   	inc    %edx
c010887b:	42                   	inc    %edx
c010887c:	42                   	inc    %edx
	...
c0108885:	3c 42                	cmp    $0x42,%al
c0108887:	42                   	inc    %edx
c0108888:	42                   	inc    %edx
c0108889:	42                   	inc    %edx
c010888a:	42                   	inc    %edx
c010888b:	42                   	inc    %edx
c010888c:	3c 00                	cmp    $0x0,%al
c010888e:	00 00                	add    %al,(%eax)
c0108890:	00 00                	add    %al,(%eax)
c0108892:	00 00                	add    %al,(%eax)
c0108894:	00 5c 62 42          	add    %bl,0x42(%edx,%eiz,2)
c0108898:	42                   	inc    %edx
c0108899:	42                   	inc    %edx
c010889a:	42                   	inc    %edx
c010889b:	62 5c 40 40          	bound  %ebx,0x40(%eax,%eax,2)
c010889f:	40                   	inc    %eax
c01088a0:	00 00                	add    %al,(%eax)
c01088a2:	00 00                	add    %al,(%eax)
c01088a4:	00 3a                	add    %bh,(%edx)
c01088a6:	46                   	inc    %esi
c01088a7:	42                   	inc    %edx
c01088a8:	42                   	inc    %edx
c01088a9:	42                   	inc    %edx
c01088aa:	42                   	inc    %edx
c01088ab:	46                   	inc    %esi
c01088ac:	3a 02                	cmp    (%edx),%al
c01088ae:	02 02                	add    (%edx),%al
c01088b0:	00 00                	add    %al,(%eax)
c01088b2:	00 00                	add    %al,(%eax)
c01088b4:	00 5c 62 40          	add    %bl,0x40(%edx,%eiz,2)
c01088b8:	40                   	inc    %eax
c01088b9:	40                   	inc    %eax
c01088ba:	40                   	inc    %eax
c01088bb:	40                   	inc    %eax
c01088bc:	40                   	inc    %eax
	...
c01088c5:	3c 42                	cmp    $0x42,%al
c01088c7:	40                   	inc    %eax
c01088c8:	30 0c 02             	xor    %cl,(%edx,%eax,1)
c01088cb:	42                   	inc    %edx
c01088cc:	3c 00                	cmp    $0x0,%al
c01088ce:	00 00                	add    %al,(%eax)
c01088d0:	00 00                	add    %al,(%eax)
c01088d2:	10 10                	adc    %dl,(%eax)
c01088d4:	10 10                	adc    %dl,(%eax)
c01088d6:	7c 10                	jl     c01088e8 <_binary_font_psf_start+0x75c>
c01088d8:	10 10                	adc    %dl,(%eax)
c01088da:	10 10                	adc    %dl,(%eax)
c01088dc:	0e                   	push   %cs
	...
c01088e5:	42                   	inc    %edx
c01088e6:	42                   	inc    %edx
c01088e7:	42                   	inc    %edx
c01088e8:	42                   	inc    %edx
c01088e9:	42                   	inc    %edx
c01088ea:	42                   	inc    %edx
c01088eb:	46                   	inc    %esi
c01088ec:	3a 00                	cmp    (%eax),%al
c01088ee:	00 00                	add    %al,(%eax)
c01088f0:	00 00                	add    %al,(%eax)
c01088f2:	00 00                	add    %al,(%eax)
c01088f4:	00 41 41             	add    %al,0x41(%ecx)
c01088f7:	41                   	inc    %ecx
c01088f8:	22 22                	and    (%edx),%ah
c01088fa:	14 14                	adc    $0x14,%al
c01088fc:	08 00                	or     %al,(%eax)
c01088fe:	00 00                	add    %al,(%eax)
c0108900:	00 00                	add    %al,(%eax)
c0108902:	00 00                	add    %al,(%eax)
c0108904:	00 41 41             	add    %al,0x41(%ecx)
c0108907:	49                   	dec    %ecx
c0108908:	49                   	dec    %ecx
c0108909:	49                   	dec    %ecx
c010890a:	49                   	dec    %ecx
c010890b:	49                   	dec    %ecx
c010890c:	36 00 00             	add    %al,%ss:(%eax)
c010890f:	00 00                	add    %al,(%eax)
c0108911:	00 00                	add    %al,(%eax)
c0108913:	00 00                	add    %al,(%eax)
c0108915:	42                   	inc    %edx
c0108916:	42                   	inc    %edx
c0108917:	24 18                	and    $0x18,%al
c0108919:	18 24 42             	sbb    %ah,(%edx,%eax,2)
c010891c:	42                   	inc    %edx
	...
c0108925:	42                   	inc    %edx
c0108926:	42                   	inc    %edx
c0108927:	42                   	inc    %edx
c0108928:	42                   	inc    %edx
c0108929:	42                   	inc    %edx
c010892a:	46                   	inc    %esi
c010892b:	3a 02                	cmp    (%edx),%al
c010892d:	02 42 3c             	add    0x3c(%edx),%al
c0108930:	00 00                	add    %al,(%eax)
c0108932:	00 00                	add    %al,(%eax)
c0108934:	00 7e 02             	add    %bh,0x2(%esi)
c0108937:	04 08                	add    $0x8,%al
c0108939:	10 20                	adc    %ah,(%eax)
c010893b:	40                   	inc    %eax
c010893c:	7e 00                	jle    c010893e <_binary_font_psf_start+0x7b2>
c010893e:	00 00                	add    %al,(%eax)
c0108940:	00 00                	add    %al,(%eax)
c0108942:	06                   	push   %es
c0108943:	08 08                	or     %cl,(%eax)
c0108945:	08 08                	or     %cl,(%eax)
c0108947:	30 08                	xor    %cl,(%eax)
c0108949:	08 08                	or     %cl,(%eax)
c010894b:	08 08                	or     %cl,(%eax)
c010894d:	06                   	push   %es
c010894e:	00 00                	add    %al,(%eax)
c0108950:	00 00                	add    %al,(%eax)
c0108952:	08 08                	or     %cl,(%eax)
c0108954:	08 08                	or     %cl,(%eax)
c0108956:	08 08                	or     %cl,(%eax)
c0108958:	08 08                	or     %cl,(%eax)
c010895a:	08 08                	or     %cl,(%eax)
c010895c:	08 08                	or     %cl,(%eax)
c010895e:	00 00                	add    %al,(%eax)
c0108960:	00 00                	add    %al,(%eax)
c0108962:	30 08                	xor    %cl,(%eax)
c0108964:	08 08                	or     %cl,(%eax)
c0108966:	08 06                	or     %al,(%esi)
c0108968:	08 08                	or     %cl,(%eax)
c010896a:	08 08                	or     %cl,(%eax)
c010896c:	08 30                	or     %dh,(%eax)
c010896e:	00 00                	add    %al,(%eax)
c0108970:	00 31                	add    %dh,(%ecx)
c0108972:	49                   	dec    %ecx
c0108973:	46                   	inc    %esi
	...
c0108984:	00 00                	add    %al,(%eax)
c0108986:	18 3c 3c             	sbb    %bh,(%esp,%edi,1)
c0108989:	18 00                	sbb    %al,(%eax)
c010898b:	00 00                	add    %al,(%eax)
c010898d:	00 00                	add    %al,(%eax)
c010898f:	00 30                	add    %dh,(%eax)
c0108991:	0c 00                	or     $0x0,%al
c0108993:	18 24 24             	sbb    %ah,(%esp)
c0108996:	42                   	inc    %edx
c0108997:	42                   	inc    %edx
c0108998:	7e 42                	jle    c01089dc <_binary_font_psf_start+0x850>
c010899a:	42                   	inc    %edx
c010899b:	42                   	inc    %edx
c010899c:	42                   	inc    %edx
c010899d:	00 00                	add    %al,(%eax)
c010899f:	00 0c 30             	add    %cl,(%eax,%esi,1)
c01089a2:	00 18                	add    %bl,(%eax)
c01089a4:	24 24                	and    $0x24,%al
c01089a6:	42                   	inc    %edx
c01089a7:	42                   	inc    %edx
c01089a8:	7e 42                	jle    c01089ec <_binary_font_psf_start+0x860>
c01089aa:	42                   	inc    %edx
c01089ab:	42                   	inc    %edx
c01089ac:	42                   	inc    %edx
c01089ad:	00 00                	add    %al,(%eax)
c01089af:	00 18                	add    %bl,(%eax)
c01089b1:	24 00                	and    $0x0,%al
c01089b3:	18 24 24             	sbb    %ah,(%esp)
c01089b6:	42                   	inc    %edx
c01089b7:	42                   	inc    %edx
c01089b8:	7e 42                	jle    c01089fc <_binary_font_psf_start+0x870>
c01089ba:	42                   	inc    %edx
c01089bb:	42                   	inc    %edx
c01089bc:	42                   	inc    %edx
c01089bd:	00 00                	add    %al,(%eax)
c01089bf:	00 32                	add    %dh,(%edx)
c01089c1:	4c                   	dec    %esp
c01089c2:	00 18                	add    %bl,(%eax)
c01089c4:	24 24                	and    $0x24,%al
c01089c6:	42                   	inc    %edx
c01089c7:	42                   	inc    %edx
c01089c8:	7e 42                	jle    c0108a0c <_binary_font_psf_start+0x880>
c01089ca:	42                   	inc    %edx
c01089cb:	42                   	inc    %edx
c01089cc:	42                   	inc    %edx
c01089cd:	00 00                	add    %al,(%eax)
c01089cf:	00 24 24             	add    %ah,(%esp)
c01089d2:	00 18                	add    %bl,(%eax)
c01089d4:	24 24                	and    $0x24,%al
c01089d6:	42                   	inc    %edx
c01089d7:	42                   	inc    %edx
c01089d8:	7e 42                	jle    c0108a1c <_binary_font_psf_start+0x890>
c01089da:	42                   	inc    %edx
c01089db:	42                   	inc    %edx
c01089dc:	42                   	inc    %edx
c01089dd:	00 00                	add    %al,(%eax)
c01089df:	00 18                	add    %bl,(%eax)
c01089e1:	24 24                	and    $0x24,%al
c01089e3:	18 24 24             	sbb    %ah,(%esp)
c01089e6:	42                   	inc    %edx
c01089e7:	42                   	inc    %edx
c01089e8:	7e 42                	jle    c0108a2c <_binary_font_psf_start+0x8a0>
c01089ea:	42                   	inc    %edx
c01089eb:	42                   	inc    %edx
c01089ec:	42                   	inc    %edx
c01089ed:	00 00                	add    %al,(%eax)
c01089ef:	00 00                	add    %al,(%eax)
c01089f1:	00 00                	add    %al,(%eax)
c01089f3:	1f                   	pop    %ds
c01089f4:	28 48 48             	sub    %cl,0x48(%eax)
c01089f7:	7e 48                	jle    c0108a41 <_binary_font_psf_start+0x8b5>
c01089f9:	48                   	dec    %eax
c01089fa:	48                   	dec    %eax
c01089fb:	48                   	dec    %eax
c01089fc:	4f                   	dec    %edi
c01089fd:	00 00                	add    %al,(%eax)
c01089ff:	00 00                	add    %al,(%eax)
c0108a01:	00 00                	add    %al,(%eax)
c0108a03:	3c 42                	cmp    $0x42,%al
c0108a05:	42                   	inc    %edx
c0108a06:	40                   	inc    %eax
c0108a07:	40                   	inc    %eax
c0108a08:	40                   	inc    %eax
c0108a09:	40                   	inc    %eax
c0108a0a:	42                   	inc    %edx
c0108a0b:	42                   	inc    %edx
c0108a0c:	3c 08                	cmp    $0x8,%al
c0108a0e:	08 30                	or     %dh,(%eax)
c0108a10:	30 0c 00             	xor    %cl,(%eax,%eax,1)
c0108a13:	7e 40                	jle    c0108a55 <_binary_font_psf_start+0x8c9>
c0108a15:	40                   	inc    %eax
c0108a16:	40                   	inc    %eax
c0108a17:	7c 40                	jl     c0108a59 <_binary_font_psf_start+0x8cd>
c0108a19:	40                   	inc    %eax
c0108a1a:	40                   	inc    %eax
c0108a1b:	40                   	inc    %eax
c0108a1c:	7e 00                	jle    c0108a1e <_binary_font_psf_start+0x892>
c0108a1e:	00 00                	add    %al,(%eax)
c0108a20:	0c 30                	or     $0x30,%al
c0108a22:	00 7e 40             	add    %bh,0x40(%esi)
c0108a25:	40                   	inc    %eax
c0108a26:	40                   	inc    %eax
c0108a27:	7c 40                	jl     c0108a69 <_binary_font_psf_start+0x8dd>
c0108a29:	40                   	inc    %eax
c0108a2a:	40                   	inc    %eax
c0108a2b:	40                   	inc    %eax
c0108a2c:	7e 00                	jle    c0108a2e <_binary_font_psf_start+0x8a2>
c0108a2e:	00 00                	add    %al,(%eax)
c0108a30:	18 24 00             	sbb    %ah,(%eax,%eax,1)
c0108a33:	7e 40                	jle    c0108a75 <_binary_font_psf_start+0x8e9>
c0108a35:	40                   	inc    %eax
c0108a36:	40                   	inc    %eax
c0108a37:	7c 40                	jl     c0108a79 <_binary_font_psf_start+0x8ed>
c0108a39:	40                   	inc    %eax
c0108a3a:	40                   	inc    %eax
c0108a3b:	40                   	inc    %eax
c0108a3c:	7e 00                	jle    c0108a3e <_binary_font_psf_start+0x8b2>
c0108a3e:	00 00                	add    %al,(%eax)
c0108a40:	24 24                	and    $0x24,%al
c0108a42:	00 7e 40             	add    %bh,0x40(%esi)
c0108a45:	40                   	inc    %eax
c0108a46:	40                   	inc    %eax
c0108a47:	7c 40                	jl     c0108a89 <_binary_font_psf_start+0x8fd>
c0108a49:	40                   	inc    %eax
c0108a4a:	40                   	inc    %eax
c0108a4b:	40                   	inc    %eax
c0108a4c:	7e 00                	jle    c0108a4e <_binary_font_psf_start+0x8c2>
c0108a4e:	00 00                	add    %al,(%eax)
c0108a50:	30 0c 00             	xor    %cl,(%eax,%eax,1)
c0108a53:	3e 08 08             	or     %cl,%ds:(%eax)
c0108a56:	08 08                	or     %cl,(%eax)
c0108a58:	08 08                	or     %cl,(%eax)
c0108a5a:	08 08                	or     %cl,(%eax)
c0108a5c:	3e 00 00             	add    %al,%ds:(%eax)
c0108a5f:	00 06                	add    %al,(%esi)
c0108a61:	18 00                	sbb    %al,(%eax)
c0108a63:	3e 08 08             	or     %cl,%ds:(%eax)
c0108a66:	08 08                	or     %cl,(%eax)
c0108a68:	08 08                	or     %cl,(%eax)
c0108a6a:	08 08                	or     %cl,(%eax)
c0108a6c:	3e 00 00             	add    %al,%ds:(%eax)
c0108a6f:	00 18                	add    %bl,(%eax)
c0108a71:	24 00                	and    $0x0,%al
c0108a73:	3e 08 08             	or     %cl,%ds:(%eax)
c0108a76:	08 08                	or     %cl,(%eax)
c0108a78:	08 08                	or     %cl,(%eax)
c0108a7a:	08 08                	or     %cl,(%eax)
c0108a7c:	3e 00 00             	add    %al,%ds:(%eax)
c0108a7f:	00 22                	add    %ah,(%edx)
c0108a81:	22 00                	and    (%eax),%al
c0108a83:	3e 08 08             	or     %cl,%ds:(%eax)
c0108a86:	08 08                	or     %cl,(%eax)
c0108a88:	08 08                	or     %cl,(%eax)
c0108a8a:	08 08                	or     %cl,(%eax)
c0108a8c:	3e 00 00             	add    %al,%ds:(%eax)
c0108a8f:	00 00                	add    %al,(%eax)
c0108a91:	00 00                	add    %al,(%eax)
c0108a93:	78 44                	js     c0108ad9 <_binary_font_psf_start+0x94d>
c0108a95:	42                   	inc    %edx
c0108a96:	42                   	inc    %edx
c0108a97:	f2 42                	repnz inc %edx
c0108a99:	42                   	inc    %edx
c0108a9a:	42                   	inc    %edx
c0108a9b:	44                   	inc    %esp
c0108a9c:	78 00                	js     c0108a9e <_binary_font_psf_start+0x912>
c0108a9e:	00 00                	add    %al,(%eax)
c0108aa0:	32 4c 00 42          	xor    0x42(%eax,%eax,1),%cl
c0108aa4:	62 62 52             	bound  %esp,0x52(%edx)
c0108aa7:	52                   	push   %edx
c0108aa8:	4a                   	dec    %edx
c0108aa9:	4a                   	dec    %edx
c0108aaa:	46                   	inc    %esi
c0108aab:	46                   	inc    %esi
c0108aac:	42                   	inc    %edx
c0108aad:	00 00                	add    %al,(%eax)
c0108aaf:	00 30                	add    %dh,(%eax)
c0108ab1:	0c 00                	or     $0x0,%al
c0108ab3:	3c 42                	cmp    $0x42,%al
c0108ab5:	42                   	inc    %edx
c0108ab6:	42                   	inc    %edx
c0108ab7:	42                   	inc    %edx
c0108ab8:	42                   	inc    %edx
c0108ab9:	42                   	inc    %edx
c0108aba:	42                   	inc    %edx
c0108abb:	42                   	inc    %edx
c0108abc:	3c 00                	cmp    $0x0,%al
c0108abe:	00 00                	add    %al,(%eax)
c0108ac0:	0c 30                	or     $0x30,%al
c0108ac2:	00 3c 42             	add    %bh,(%edx,%eax,2)
c0108ac5:	42                   	inc    %edx
c0108ac6:	42                   	inc    %edx
c0108ac7:	42                   	inc    %edx
c0108ac8:	42                   	inc    %edx
c0108ac9:	42                   	inc    %edx
c0108aca:	42                   	inc    %edx
c0108acb:	42                   	inc    %edx
c0108acc:	3c 00                	cmp    $0x0,%al
c0108ace:	00 00                	add    %al,(%eax)
c0108ad0:	18 24 00             	sbb    %ah,(%eax,%eax,1)
c0108ad3:	3c 42                	cmp    $0x42,%al
c0108ad5:	42                   	inc    %edx
c0108ad6:	42                   	inc    %edx
c0108ad7:	42                   	inc    %edx
c0108ad8:	42                   	inc    %edx
c0108ad9:	42                   	inc    %edx
c0108ada:	42                   	inc    %edx
c0108adb:	42                   	inc    %edx
c0108adc:	3c 00                	cmp    $0x0,%al
c0108ade:	00 00                	add    %al,(%eax)
c0108ae0:	32 4c 00 3c          	xor    0x3c(%eax,%eax,1),%cl
c0108ae4:	42                   	inc    %edx
c0108ae5:	42                   	inc    %edx
c0108ae6:	42                   	inc    %edx
c0108ae7:	42                   	inc    %edx
c0108ae8:	42                   	inc    %edx
c0108ae9:	42                   	inc    %edx
c0108aea:	42                   	inc    %edx
c0108aeb:	42                   	inc    %edx
c0108aec:	3c 00                	cmp    $0x0,%al
c0108aee:	00 00                	add    %al,(%eax)
c0108af0:	24 24                	and    $0x24,%al
c0108af2:	00 3c 42             	add    %bh,(%edx,%eax,2)
c0108af5:	42                   	inc    %edx
c0108af6:	42                   	inc    %edx
c0108af7:	42                   	inc    %edx
c0108af8:	42                   	inc    %edx
c0108af9:	42                   	inc    %edx
c0108afa:	42                   	inc    %edx
c0108afb:	42                   	inc    %edx
c0108afc:	3c 00                	cmp    $0x0,%al
	...
c0108b06:	22 14 08             	and    (%eax,%ecx,1),%dl
c0108b09:	14 22                	adc    $0x22,%al
c0108b0b:	00 00                	add    %al,(%eax)
c0108b0d:	00 00                	add    %al,(%eax)
c0108b0f:	00 00                	add    %al,(%eax)
c0108b11:	00 02                	add    %al,(%edx)
c0108b13:	3a 44 46 4a          	cmp    0x4a(%esi,%eax,2),%al
c0108b17:	4a                   	dec    %edx
c0108b18:	52                   	push   %edx
c0108b19:	52                   	push   %edx
c0108b1a:	62 22                	bound  %esp,(%edx)
c0108b1c:	5c                   	pop    %esp
c0108b1d:	40                   	inc    %eax
c0108b1e:	00 00                	add    %al,(%eax)
c0108b20:	30 0c 00             	xor    %cl,(%eax,%eax,1)
c0108b23:	42                   	inc    %edx
c0108b24:	42                   	inc    %edx
c0108b25:	42                   	inc    %edx
c0108b26:	42                   	inc    %edx
c0108b27:	42                   	inc    %edx
c0108b28:	42                   	inc    %edx
c0108b29:	42                   	inc    %edx
c0108b2a:	42                   	inc    %edx
c0108b2b:	42                   	inc    %edx
c0108b2c:	3c 00                	cmp    $0x0,%al
c0108b2e:	00 00                	add    %al,(%eax)
c0108b30:	0c 30                	or     $0x30,%al
c0108b32:	00 42 42             	add    %al,0x42(%edx)
c0108b35:	42                   	inc    %edx
c0108b36:	42                   	inc    %edx
c0108b37:	42                   	inc    %edx
c0108b38:	42                   	inc    %edx
c0108b39:	42                   	inc    %edx
c0108b3a:	42                   	inc    %edx
c0108b3b:	42                   	inc    %edx
c0108b3c:	3c 00                	cmp    $0x0,%al
c0108b3e:	00 00                	add    %al,(%eax)
c0108b40:	18 24 00             	sbb    %ah,(%eax,%eax,1)
c0108b43:	42                   	inc    %edx
c0108b44:	42                   	inc    %edx
c0108b45:	42                   	inc    %edx
c0108b46:	42                   	inc    %edx
c0108b47:	42                   	inc    %edx
c0108b48:	42                   	inc    %edx
c0108b49:	42                   	inc    %edx
c0108b4a:	42                   	inc    %edx
c0108b4b:	42                   	inc    %edx
c0108b4c:	3c 00                	cmp    $0x0,%al
c0108b4e:	00 00                	add    %al,(%eax)
c0108b50:	24 24                	and    $0x24,%al
c0108b52:	00 42 42             	add    %al,0x42(%edx)
c0108b55:	42                   	inc    %edx
c0108b56:	42                   	inc    %edx
c0108b57:	42                   	inc    %edx
c0108b58:	42                   	inc    %edx
c0108b59:	42                   	inc    %edx
c0108b5a:	42                   	inc    %edx
c0108b5b:	42                   	inc    %edx
c0108b5c:	3c 00                	cmp    $0x0,%al
c0108b5e:	00 00                	add    %al,(%eax)
c0108b60:	06                   	push   %es
c0108b61:	18 00                	sbb    %al,(%eax)
c0108b63:	41                   	inc    %ecx
c0108b64:	41                   	inc    %ecx
c0108b65:	22 22                	and    (%edx),%ah
c0108b67:	14 08                	adc    $0x8,%al
c0108b69:	08 08                	or     %cl,(%eax)
c0108b6b:	08 08                	or     %cl,(%eax)
c0108b6d:	00 00                	add    %al,(%eax)
c0108b6f:	00 00                	add    %al,(%eax)
c0108b71:	00 00                	add    %al,(%eax)
c0108b73:	40                   	inc    %eax
c0108b74:	40                   	inc    %eax
c0108b75:	7c 42                	jl     c0108bb9 <_binary_font_psf_start+0xa2d>
c0108b77:	42                   	inc    %edx
c0108b78:	42                   	inc    %edx
c0108b79:	42                   	inc    %edx
c0108b7a:	7c 40                	jl     c0108bbc <_binary_font_psf_start+0xa30>
c0108b7c:	40                   	inc    %eax
c0108b7d:	00 00                	add    %al,(%eax)
c0108b7f:	00 00                	add    %al,(%eax)
c0108b81:	00 00                	add    %al,(%eax)
c0108b83:	38 44 4c 50          	cmp    %al,0x50(%esp,%ecx,2)
c0108b87:	50                   	push   %eax
c0108b88:	4c                   	dec    %esp
c0108b89:	42                   	inc    %edx
c0108b8a:	42                   	inc    %edx
c0108b8b:	52                   	push   %edx
c0108b8c:	4c                   	dec    %esp
c0108b8d:	00 00                	add    %al,(%eax)
c0108b8f:	00 aa 55 aa 55 aa    	add    %ch,-0x55aa55ab(%edx)
c0108b95:	55                   	push   %ebp
c0108b96:	aa                   	stos   %al,%es:(%edi)
c0108b97:	55                   	push   %ebp
c0108b98:	aa                   	stos   %al,%es:(%edi)
c0108b99:	55                   	push   %ebp
c0108b9a:	aa                   	stos   %al,%es:(%edi)
c0108b9b:	55                   	push   %ebp
c0108b9c:	aa                   	stos   %al,%es:(%edi)
c0108b9d:	55                   	push   %ebp
c0108b9e:	aa                   	stos   %al,%es:(%edi)
c0108b9f:	55                   	push   %ebp
c0108ba0:	00 00                	add    %al,(%eax)
c0108ba2:	00 08                	add    %cl,(%eax)
c0108ba4:	08 00                	or     %al,(%eax)
c0108ba6:	08 08                	or     %cl,(%eax)
c0108ba8:	08 08                	or     %cl,(%eax)
c0108baa:	08 08                	or     %cl,(%eax)
c0108bac:	08 00                	or     %al,(%eax)
c0108bae:	00 00                	add    %al,(%eax)
c0108bb0:	00 00                	add    %al,(%eax)
c0108bb2:	00 08                	add    %cl,(%eax)
c0108bb4:	08 3e                	or     %bh,(%esi)
c0108bb6:	49                   	dec    %ecx
c0108bb7:	48                   	dec    %eax
c0108bb8:	48                   	dec    %eax
c0108bb9:	48                   	dec    %eax
c0108bba:	48                   	dec    %eax
c0108bbb:	49                   	dec    %ecx
c0108bbc:	3e 08 08             	or     %cl,%ds:(%eax)
c0108bbf:	00 00                	add    %al,(%eax)
c0108bc1:	00 00                	add    %al,(%eax)
c0108bc3:	1c 20                	sbb    $0x20,%al
c0108bc5:	20 20                	and    %ah,(%eax)
c0108bc7:	78 20                	js     c0108be9 <_binary_font_psf_start+0xa5d>
c0108bc9:	20 20                	and    %ah,(%eax)
c0108bcb:	22 7e 00             	and    0x0(%esi),%bh
c0108bce:	00 00                	add    %al,(%eax)
c0108bd0:	00 00                	add    %al,(%eax)
c0108bd2:	00 00                	add    %al,(%eax)
c0108bd4:	0e                   	push   %cs
c0108bd5:	11 20                	adc    %esp,(%eax)
c0108bd7:	7e 20                	jle    c0108bf9 <_binary_font_psf_start+0xa6d>
c0108bd9:	7c 20                	jl     c0108bfb <_binary_font_psf_start+0xa6f>
c0108bdb:	11 0e                	adc    %ecx,(%esi)
c0108bdd:	00 00                	add    %al,(%eax)
c0108bdf:	00 00                	add    %al,(%eax)
c0108be1:	00 00                	add    %al,(%eax)
c0108be3:	41                   	inc    %ecx
c0108be4:	41                   	inc    %ecx
c0108be5:	22 14 08             	and    (%eax,%ecx,1),%dl
c0108be8:	3e 08 3e             	or     %bh,%ds:(%esi)
c0108beb:	08 08                	or     %cl,(%eax)
c0108bed:	00 00                	add    %al,(%eax)
c0108bef:	00 24 18             	add    %ah,(%eax,%ebx,1)
c0108bf2:	00 3c 42             	add    %bh,(%edx,%eax,2)
c0108bf5:	42                   	inc    %edx
c0108bf6:	40                   	inc    %eax
c0108bf7:	30 0c 02             	xor    %cl,(%edx,%eax,1)
c0108bfa:	42                   	inc    %edx
c0108bfb:	42                   	inc    %edx
c0108bfc:	3c 00                	cmp    $0x0,%al
c0108bfe:	00 00                	add    %al,(%eax)
c0108c00:	00 00                	add    %al,(%eax)
c0108c02:	1c 22                	sbb    $0x22,%al
c0108c04:	20 18                	and    %bl,(%eax)
c0108c06:	24 22                	and    $0x22,%al
c0108c08:	22 12                	and    (%edx),%dl
c0108c0a:	0c 02                	or     $0x2,%al
c0108c0c:	22 1c 00             	and    (%eax,%eax,1),%bl
c0108c0f:	00 00                	add    %al,(%eax)
c0108c11:	24 18                	and    $0x18,%al
c0108c13:	00 00                	add    %al,(%eax)
c0108c15:	3c 42                	cmp    $0x42,%al
c0108c17:	40                   	inc    %eax
c0108c18:	30 0c 02             	xor    %cl,(%edx,%eax,1)
c0108c1b:	42                   	inc    %edx
c0108c1c:	3c 00                	cmp    $0x0,%al
c0108c1e:	00 00                	add    %al,(%eax)
c0108c20:	00 00                	add    %al,(%eax)
c0108c22:	00 3c 42             	add    %bh,(%edx,%eax,2)
c0108c25:	99                   	cltd
c0108c26:	a5                   	movsl  %ds:(%esi),%es:(%edi)
c0108c27:	a1 a1 a5 99 42       	mov    0x4299a5a1,%eax
c0108c2c:	3c 00                	cmp    $0x0,%al
c0108c2e:	00 00                	add    %al,(%eax)
c0108c30:	00 00                	add    %al,(%eax)
c0108c32:	38 04 3c             	cmp    %al,(%esp,%edi,1)
c0108c35:	44                   	inc    %esp
c0108c36:	3c 00                	cmp    $0x0,%al
c0108c38:	7c 00                	jl     c0108c3a <_binary_font_psf_start+0xaae>
	...
c0108c46:	12 24 48             	adc    (%eax,%ecx,2),%ah
c0108c49:	24 12                	and    $0x12,%al
	...
c0108c57:	00 7e 02             	add    %bh,0x2(%esi)
c0108c5a:	02 02                	add    (%edx),%al
	...
c0108c64:	00 22                	add    %ah,(%edx)
c0108c66:	1c 22                	sbb    $0x22,%al
c0108c68:	22 22                	and    (%edx),%ah
c0108c6a:	1c 22                	sbb    $0x22,%al
c0108c6c:	00 00                	add    %al,(%eax)
c0108c6e:	00 00                	add    %al,(%eax)
c0108c70:	00 00                	add    %al,(%eax)
c0108c72:	00 3c 42             	add    %bh,(%edx,%eax,2)
c0108c75:	b9 a5 a5 b9 a9       	mov    $0xa9b9a5a5,%ecx
c0108c7a:	a5                   	movsl  %ds:(%esi),%es:(%edi)
c0108c7b:	42                   	inc    %edx
c0108c7c:	3c 00                	cmp    $0x0,%al
c0108c7e:	00 00                	add    %al,(%eax)
c0108c80:	00 3c 00             	add    %bh,(%eax,%eax,1)
	...
c0108c8f:	00 00                	add    %al,(%eax)
c0108c91:	00 18                	add    %bl,(%eax)
c0108c93:	24 24                	and    $0x24,%al
c0108c95:	18 00                	sbb    %al,(%eax)
	...
c0108ca3:	08 08                	or     %cl,(%eax)
c0108ca5:	08 7f 08             	or     %bh,0x8(%edi)
c0108ca8:	08 08                	or     %cl,(%eax)
c0108caa:	00 7f 00             	add    %bh,0x0(%edi)
c0108cad:	00 00                	add    %al,(%eax)
c0108caf:	00 00                	add    %al,(%eax)
c0108cb1:	00 38                	add    %bh,(%eax)
c0108cb3:	44                   	inc    %esp
c0108cb4:	04 18                	add    $0x18,%al
c0108cb6:	20 40 7c             	and    %al,0x7c(%eax)
	...
c0108cc1:	00 38                	add    %bh,(%eax)
c0108cc3:	44                   	inc    %esp
c0108cc4:	04 38                	add    $0x38,%al
c0108cc6:	04 44                	add    $0x44,%al
c0108cc8:	38 00                	cmp    %al,(%eax)
c0108cca:	00 00                	add    %al,(%eax)
c0108ccc:	00 00                	add    %al,(%eax)
c0108cce:	00 00                	add    %al,(%eax)
c0108cd0:	24 18                	and    $0x18,%al
c0108cd2:	00 7e 02             	add    %bh,0x2(%esi)
c0108cd5:	02 04 08             	add    (%eax,%ecx,1),%al
c0108cd8:	10 20                	adc    %ah,(%eax)
c0108cda:	40                   	inc    %eax
c0108cdb:	40                   	inc    %eax
c0108cdc:	7e 00                	jle    c0108cde <_binary_font_psf_start+0xb52>
c0108cde:	00 00                	add    %al,(%eax)
c0108ce0:	00 00                	add    %al,(%eax)
c0108ce2:	00 00                	add    %al,(%eax)
c0108ce4:	00 42 42             	add    %al,0x42(%edx)
c0108ce7:	42                   	inc    %edx
c0108ce8:	42                   	inc    %edx
c0108ce9:	42                   	inc    %edx
c0108cea:	42                   	inc    %edx
c0108ceb:	66 5a                	pop    %dx
c0108ced:	40                   	inc    %eax
c0108cee:	40                   	inc    %eax
c0108cef:	40                   	inc    %eax
c0108cf0:	00 00                	add    %al,(%eax)
c0108cf2:	00 3e                	add    %bh,(%esi)
c0108cf4:	7a 7a                	jp     c0108d70 <_binary_font_psf_start+0xbe4>
c0108cf6:	7a 7a                	jp     c0108d72 <_binary_font_psf_start+0xbe6>
c0108cf8:	3a 0a                	cmp    (%edx),%cl
c0108cfa:	0a 0a                	or     (%edx),%cl
c0108cfc:	0a 00                	or     (%eax),%al
	...
c0108d06:	00 08                	add    %cl,(%eax)
c0108d08:	08 00                	or     %al,(%eax)
c0108d0a:	00 00                	add    %al,(%eax)
c0108d0c:	00 00                	add    %al,(%eax)
c0108d0e:	00 00                	add    %al,(%eax)
c0108d10:	00 24 18             	add    %ah,(%eax,%ebx,1)
c0108d13:	00 00                	add    %al,(%eax)
c0108d15:	7e 02                	jle    c0108d19 <_binary_font_psf_start+0xb8d>
c0108d17:	04 08                	add    $0x8,%al
c0108d19:	10 20                	adc    %ah,(%eax)
c0108d1b:	40                   	inc    %eax
c0108d1c:	7e 00                	jle    c0108d1e <_binary_font_psf_start+0xb92>
c0108d1e:	00 00                	add    %al,(%eax)
c0108d20:	00 00                	add    %al,(%eax)
c0108d22:	10 30                	adc    %dh,(%eax)
c0108d24:	50                   	push   %eax
c0108d25:	10 10                	adc    %dl,(%eax)
c0108d27:	10 7c 00 00          	adc    %bh,0x0(%eax,%eax,1)
c0108d2b:	00 00                	add    %al,(%eax)
c0108d2d:	00 00                	add    %al,(%eax)
c0108d2f:	00 00                	add    %al,(%eax)
c0108d31:	00 38                	add    %bh,(%eax)
c0108d33:	44                   	inc    %esp
c0108d34:	44                   	inc    %esp
c0108d35:	44                   	inc    %esp
c0108d36:	38 00                	cmp    %al,(%eax)
c0108d38:	7c 00                	jl     c0108d3a <_binary_font_psf_start+0xbae>
	...
c0108d46:	48                   	dec    %eax
c0108d47:	24 12                	and    $0x12,%al
c0108d49:	24 48                	and    $0x48,%al
	...
c0108d53:	37                   	aaa
c0108d54:	48                   	dec    %eax
c0108d55:	48                   	dec    %eax
c0108d56:	48                   	dec    %eax
c0108d57:	4e                   	dec    %esi
c0108d58:	48                   	dec    %eax
c0108d59:	48                   	dec    %eax
c0108d5a:	48                   	dec    %eax
c0108d5b:	48                   	dec    %eax
c0108d5c:	37                   	aaa
	...
c0108d65:	36 49                	ss dec %ecx
c0108d67:	49                   	dec    %ecx
c0108d68:	4f                   	dec    %edi
c0108d69:	48                   	dec    %eax
c0108d6a:	48                   	dec    %eax
c0108d6b:	49                   	dec    %ecx
c0108d6c:	36 00 00             	add    %al,%ss:(%eax)
c0108d6f:	00 22                	add    %ah,(%edx)
c0108d71:	22 00                	and    (%eax),%al
c0108d73:	41                   	inc    %ecx
c0108d74:	41                   	inc    %ecx
c0108d75:	22 22                	and    (%edx),%ah
c0108d77:	14 08                	adc    $0x8,%al
c0108d79:	08 08                	or     %cl,(%eax)
c0108d7b:	08 08                	or     %cl,(%eax)
c0108d7d:	00 00                	add    %al,(%eax)
c0108d7f:	00 00                	add    %al,(%eax)
c0108d81:	00 00                	add    %al,(%eax)
c0108d83:	10 10                	adc    %dl,(%eax)
c0108d85:	00 10                	add    %dl,(%eax)
c0108d87:	10 20                	adc    %ah,(%eax)
c0108d89:	40                   	inc    %eax
c0108d8a:	42                   	inc    %edx
c0108d8b:	42                   	inc    %edx
c0108d8c:	3c 00                	cmp    $0x0,%al
	...
c0108d96:	00 00                	add    %al,(%eax)
c0108d98:	ff 00                	incl   (%eax)
c0108d9a:	00 00                	add    %al,(%eax)
c0108d9c:	00 00                	add    %al,(%eax)
c0108d9e:	00 00                	add    %al,(%eax)
c0108da0:	08 08                	or     %cl,(%eax)
c0108da2:	08 08                	or     %cl,(%eax)
c0108da4:	08 08                	or     %cl,(%eax)
c0108da6:	08 08                	or     %cl,(%eax)
c0108da8:	08 08                	or     %cl,(%eax)
c0108daa:	08 08                	or     %cl,(%eax)
c0108dac:	08 08                	or     %cl,(%eax)
c0108dae:	08 08                	or     %cl,(%eax)
	...
c0108db8:	0f 08                	invd
c0108dba:	08 08                	or     %cl,(%eax)
c0108dbc:	08 08                	or     %cl,(%eax)
c0108dbe:	08 08                	or     %cl,(%eax)
	...
c0108dc8:	f8                   	clc
c0108dc9:	08 08                	or     %cl,(%eax)
c0108dcb:	08 08                	or     %cl,(%eax)
c0108dcd:	08 08                	or     %cl,(%eax)
c0108dcf:	08 08                	or     %cl,(%eax)
c0108dd1:	08 08                	or     %cl,(%eax)
c0108dd3:	08 08                	or     %cl,(%eax)
c0108dd5:	08 08                	or     %cl,(%eax)
c0108dd7:	08 0f                	or     %cl,(%edi)
c0108dd9:	00 00                	add    %al,(%eax)
c0108ddb:	00 00                	add    %al,(%eax)
c0108ddd:	00 00                	add    %al,(%eax)
c0108ddf:	00 08                	add    %cl,(%eax)
c0108de1:	08 08                	or     %cl,(%eax)
c0108de3:	08 08                	or     %cl,(%eax)
c0108de5:	08 08                	or     %cl,(%eax)
c0108de7:	08 f8                	or     %bh,%al
c0108de9:	00 00                	add    %al,(%eax)
c0108deb:	00 00                	add    %al,(%eax)
c0108ded:	00 00                	add    %al,(%eax)
c0108def:	00 08                	add    %cl,(%eax)
c0108df1:	08 08                	or     %cl,(%eax)
c0108df3:	08 08                	or     %cl,(%eax)
c0108df5:	08 08                	or     %cl,(%eax)
c0108df7:	08 0f                	or     %cl,(%edi)
c0108df9:	08 08                	or     %cl,(%eax)
c0108dfb:	08 08                	or     %cl,(%eax)
c0108dfd:	08 08                	or     %cl,(%eax)
c0108dff:	08 08                	or     %cl,(%eax)
c0108e01:	08 08                	or     %cl,(%eax)
c0108e03:	08 08                	or     %cl,(%eax)
c0108e05:	08 08                	or     %cl,(%eax)
c0108e07:	08 f8                	or     %bh,%al
c0108e09:	08 08                	or     %cl,(%eax)
c0108e0b:	08 08                	or     %cl,(%eax)
c0108e0d:	08 08                	or     %cl,(%eax)
c0108e0f:	08 00                	or     %al,(%eax)
c0108e11:	00 00                	add    %al,(%eax)
c0108e13:	00 00                	add    %al,(%eax)
c0108e15:	00 00                	add    %al,(%eax)
c0108e17:	00 ff                	add    %bh,%bh
c0108e19:	08 08                	or     %cl,(%eax)
c0108e1b:	08 08                	or     %cl,(%eax)
c0108e1d:	08 08                	or     %cl,(%eax)
c0108e1f:	08 08                	or     %cl,(%eax)
c0108e21:	08 08                	or     %cl,(%eax)
c0108e23:	08 08                	or     %cl,(%eax)
c0108e25:	08 08                	or     %cl,(%eax)
c0108e27:	08 ff                	or     %bh,%bh
c0108e29:	00 00                	add    %al,(%eax)
c0108e2b:	00 00                	add    %al,(%eax)
c0108e2d:	00 00                	add    %al,(%eax)
c0108e2f:	00 08                	add    %cl,(%eax)
c0108e31:	08 08                	or     %cl,(%eax)
c0108e33:	08 08                	or     %cl,(%eax)
c0108e35:	08 08                	or     %cl,(%eax)
c0108e37:	08 ff                	or     %bh,%bh
c0108e39:	08 08                	or     %cl,(%eax)
c0108e3b:	08 08                	or     %cl,(%eax)
c0108e3d:	08 08                	or     %cl,(%eax)
c0108e3f:	08 88 22 88 22 88    	or     %cl,-0x77dd77de(%eax)
c0108e45:	22 88 22 88 22 88    	and    -0x77dd77de(%eax),%cl
c0108e4b:	22 88 22 88 22 ff    	and    -0xdd77de(%eax),%cl
	...
c0108e61:	00 00                	add    %al,(%eax)
c0108e63:	ff 00                	incl   (%eax)
	...
c0108e79:	00 00                	add    %al,(%eax)
c0108e7b:	00 ff                	add    %bh,%bh
	...
c0108e8d:	00 00                	add    %al,(%eax)
c0108e8f:	ff 00                	incl   (%eax)
c0108e91:	00 00                	add    %al,(%eax)
c0108e93:	00 00                	add    %al,(%eax)
c0108e95:	00 00                	add    %al,(%eax)
c0108e97:	ff 00                	incl   (%eax)
c0108e99:	ff 00                	incl   (%eax)
c0108e9b:	00 00                	add    %al,(%eax)
c0108e9d:	00 00                	add    %al,(%eax)
c0108e9f:	00 14 14             	add    %dl,(%esp,%edx,1)
c0108ea2:	14 14                	adc    $0x14,%al
c0108ea4:	14 14                	adc    $0x14,%al
c0108ea6:	14 14                	adc    $0x14,%al
c0108ea8:	14 14                	adc    $0x14,%al
c0108eaa:	14 14                	adc    $0x14,%al
c0108eac:	14 14                	adc    $0x14,%al
c0108eae:	14 14                	adc    $0x14,%al
c0108eb0:	00 00                	add    %al,(%eax)
c0108eb2:	00 00                	add    %al,(%eax)
c0108eb4:	00 00                	add    %al,(%eax)
c0108eb6:	00 1f                	add    %bl,(%edi)
c0108eb8:	10 17                	adc    %dl,(%edi)
c0108eba:	14 14                	adc    $0x14,%al
c0108ebc:	14 14                	adc    $0x14,%al
c0108ebe:	14 14                	adc    $0x14,%al
c0108ec0:	00 00                	add    %al,(%eax)
c0108ec2:	00 00                	add    %al,(%eax)
c0108ec4:	00 00                	add    %al,(%eax)
c0108ec6:	00 fc                	add    %bh,%ah
c0108ec8:	04 f4                	add    $0xf4,%al
c0108eca:	14 14                	adc    $0x14,%al
c0108ecc:	14 14                	adc    $0x14,%al
c0108ece:	14 14                	adc    $0x14,%al
c0108ed0:	14 14                	adc    $0x14,%al
c0108ed2:	14 14                	adc    $0x14,%al
c0108ed4:	14 14                	adc    $0x14,%al
c0108ed6:	14 17                	adc    $0x17,%al
c0108ed8:	10 1f                	adc    %bl,(%edi)
c0108eda:	00 00                	add    %al,(%eax)
c0108edc:	00 00                	add    %al,(%eax)
c0108ede:	00 00                	add    %al,(%eax)
c0108ee0:	14 14                	adc    $0x14,%al
c0108ee2:	14 14                	adc    $0x14,%al
c0108ee4:	14 14                	adc    $0x14,%al
c0108ee6:	14 f4                	adc    $0xf4,%al
c0108ee8:	04 fc                	add    $0xfc,%al
c0108eea:	00 00                	add    %al,(%eax)
c0108eec:	00 00                	add    %al,(%eax)
c0108eee:	00 00                	add    %al,(%eax)
c0108ef0:	14 14                	adc    $0x14,%al
c0108ef2:	14 14                	adc    $0x14,%al
c0108ef4:	14 14                	adc    $0x14,%al
c0108ef6:	14 17                	adc    $0x17,%al
c0108ef8:	10 17                	adc    %dl,(%edi)
c0108efa:	14 14                	adc    $0x14,%al
c0108efc:	14 14                	adc    $0x14,%al
c0108efe:	14 14                	adc    $0x14,%al
c0108f00:	14 14                	adc    $0x14,%al
c0108f02:	14 14                	adc    $0x14,%al
c0108f04:	14 14                	adc    $0x14,%al
c0108f06:	14 f4                	adc    $0xf4,%al
c0108f08:	04 f4                	add    $0xf4,%al
c0108f0a:	14 14                	adc    $0x14,%al
c0108f0c:	14 14                	adc    $0x14,%al
c0108f0e:	14 14                	adc    $0x14,%al
c0108f10:	00 00                	add    %al,(%eax)
c0108f12:	00 00                	add    %al,(%eax)
c0108f14:	00 00                	add    %al,(%eax)
c0108f16:	00 ff                	add    %bh,%bh
c0108f18:	00 f7                	add    %dh,%bh
c0108f1a:	14 14                	adc    $0x14,%al
c0108f1c:	14 14                	adc    $0x14,%al
c0108f1e:	14 14                	adc    $0x14,%al
c0108f20:	14 14                	adc    $0x14,%al
c0108f22:	14 14                	adc    $0x14,%al
c0108f24:	14 14                	adc    $0x14,%al
c0108f26:	14 f7                	adc    $0xf7,%al
c0108f28:	00 ff                	add    %bh,%bh
c0108f2a:	00 00                	add    %al,(%eax)
c0108f2c:	00 00                	add    %al,(%eax)
c0108f2e:	00 00                	add    %al,(%eax)
c0108f30:	14 14                	adc    $0x14,%al
c0108f32:	14 14                	adc    $0x14,%al
c0108f34:	14 14                	adc    $0x14,%al
c0108f36:	14 f7                	adc    $0xf7,%al
c0108f38:	00 f7                	add    %dh,%bh
c0108f3a:	14 14                	adc    $0x14,%al
c0108f3c:	14 14                	adc    $0x14,%al
c0108f3e:	14 14                	adc    $0x14,%al
c0108f40:	ff                   	(bad)
c0108f41:	ff                   	(bad)
c0108f42:	ff                   	(bad)
c0108f43:	ff                   	(bad)
c0108f44:	ff                   	(bad)
c0108f45:	ff                   	(bad)
c0108f46:	ff                   	(bad)
c0108f47:	ff                   	(bad)
c0108f48:	ff                   	(bad)
c0108f49:	ff                   	(bad)
c0108f4a:	ff                   	(bad)
c0108f4b:	ff                   	(bad)
c0108f4c:	ff                   	(bad)
c0108f4d:	ff                   	(bad)
c0108f4e:	ff                   	(bad)
c0108f4f:	ff 00                	incl   (%eax)
c0108f51:	00 00                	add    %al,(%eax)
c0108f53:	00 00                	add    %al,(%eax)
c0108f55:	08 1c 2a             	or     %bl,(%edx,%ebp,1)
c0108f58:	08 08                	or     %cl,(%eax)
c0108f5a:	08 08                	or     %cl,(%eax)
	...
c0108f64:	00 08                	add    %cl,(%eax)
c0108f66:	08 08                	or     %cl,(%eax)
c0108f68:	08 2a                	or     %ch,(%edx)
c0108f6a:	1c 08                	sbb    $0x8,%al
	...
c0108f74:	00 00                	add    %al,(%eax)
c0108f76:	10 20                	adc    %ah,(%eax)
c0108f78:	7f 20                	jg     c0108f9a <_binary_font_psf_start+0xe0e>
c0108f7a:	10 00                	adc    %al,(%eax)
	...
c0108f84:	00 00                	add    %al,(%eax)
c0108f86:	08 04 fe             	or     %al,(%esi,%edi,8)
c0108f89:	04 08                	add    $0x8,%al
c0108f8b:	00 00                	add    %al,(%eax)
c0108f8d:	00 00                	add    %al,(%eax)
c0108f8f:	00 00                	add    %al,(%eax)
c0108f91:	30 0c 00             	xor    %cl,(%eax,%eax,1)
c0108f94:	00 3c 42             	add    %bh,(%edx,%eax,2)
c0108f97:	02 3e                	add    (%esi),%bh
c0108f99:	42                   	inc    %edx
c0108f9a:	42                   	inc    %edx
c0108f9b:	46                   	inc    %esi
c0108f9c:	3a 00                	cmp    (%eax),%al
c0108f9e:	00 00                	add    %al,(%eax)
c0108fa0:	00 0c 30             	add    %cl,(%eax,%esi,1)
c0108fa3:	00 00                	add    %al,(%eax)
c0108fa5:	3c 42                	cmp    $0x42,%al
c0108fa7:	02 3e                	add    (%esi),%bh
c0108fa9:	42                   	inc    %edx
c0108faa:	42                   	inc    %edx
c0108fab:	46                   	inc    %esi
c0108fac:	3a 00                	cmp    (%eax),%al
c0108fae:	00 00                	add    %al,(%eax)
c0108fb0:	00 18                	add    %bl,(%eax)
c0108fb2:	24 00                	and    $0x0,%al
c0108fb4:	00 3c 42             	add    %bh,(%edx,%eax,2)
c0108fb7:	02 3e                	add    (%esi),%bh
c0108fb9:	42                   	inc    %edx
c0108fba:	42                   	inc    %edx
c0108fbb:	46                   	inc    %esi
c0108fbc:	3a 00                	cmp    (%eax),%al
c0108fbe:	00 00                	add    %al,(%eax)
c0108fc0:	00 32                	add    %dh,(%edx)
c0108fc2:	4c                   	dec    %esp
c0108fc3:	00 00                	add    %al,(%eax)
c0108fc5:	3c 42                	cmp    $0x42,%al
c0108fc7:	02 3e                	add    (%esi),%bh
c0108fc9:	42                   	inc    %edx
c0108fca:	42                   	inc    %edx
c0108fcb:	46                   	inc    %esi
c0108fcc:	3a 00                	cmp    (%eax),%al
c0108fce:	00 00                	add    %al,(%eax)
c0108fd0:	00 24 24             	add    %ah,(%esp)
c0108fd3:	00 00                	add    %al,(%eax)
c0108fd5:	3c 42                	cmp    $0x42,%al
c0108fd7:	02 3e                	add    (%esi),%bh
c0108fd9:	42                   	inc    %edx
c0108fda:	42                   	inc    %edx
c0108fdb:	46                   	inc    %esi
c0108fdc:	3a 00                	cmp    (%eax),%al
c0108fde:	00 00                	add    %al,(%eax)
c0108fe0:	18 24 24             	sbb    %ah,(%esp)
c0108fe3:	18 00                	sbb    %al,(%eax)
c0108fe5:	3c 42                	cmp    $0x42,%al
c0108fe7:	02 3e                	add    (%esi),%bh
c0108fe9:	42                   	inc    %edx
c0108fea:	42                   	inc    %edx
c0108feb:	46                   	inc    %esi
c0108fec:	3a 00                	cmp    (%eax),%al
c0108fee:	00 00                	add    %al,(%eax)
c0108ff0:	00 00                	add    %al,(%eax)
c0108ff2:	00 00                	add    %al,(%eax)
c0108ff4:	00 36                	add    %dh,(%esi)
c0108ff6:	49                   	dec    %ecx
c0108ff7:	09 3f                	or     %edi,(%edi)
c0108ff9:	48                   	dec    %eax
c0108ffa:	48                   	dec    %eax
c0108ffb:	49                   	dec    %ecx
c0108ffc:	36 00 00             	add    %al,%ss:(%eax)
c0108fff:	00 00                	add    %al,(%eax)
c0109001:	00 00                	add    %al,(%eax)
c0109003:	00 00                	add    %al,(%eax)
c0109005:	3c 42                	cmp    $0x42,%al
c0109007:	40                   	inc    %eax
c0109008:	40                   	inc    %eax
c0109009:	40                   	inc    %eax
c010900a:	40                   	inc    %eax
c010900b:	42                   	inc    %edx
c010900c:	3c 08                	cmp    $0x8,%al
c010900e:	08 30                	or     %dh,(%eax)
c0109010:	00 30                	add    %dh,(%eax)
c0109012:	0c 00                	or     $0x0,%al
c0109014:	00 3c 42             	add    %bh,(%edx,%eax,2)
c0109017:	42                   	inc    %edx
c0109018:	7e 40                	jle    c010905a <_binary_font_psf_start+0xece>
c010901a:	40                   	inc    %eax
c010901b:	42                   	inc    %edx
c010901c:	3c 00                	cmp    $0x0,%al
c010901e:	00 00                	add    %al,(%eax)
c0109020:	00 0c 30             	add    %cl,(%eax,%esi,1)
c0109023:	00 00                	add    %al,(%eax)
c0109025:	3c 42                	cmp    $0x42,%al
c0109027:	42                   	inc    %edx
c0109028:	7e 40                	jle    c010906a <_binary_font_psf_start+0xede>
c010902a:	40                   	inc    %eax
c010902b:	42                   	inc    %edx
c010902c:	3c 00                	cmp    $0x0,%al
c010902e:	00 00                	add    %al,(%eax)
c0109030:	00 18                	add    %bl,(%eax)
c0109032:	24 00                	and    $0x0,%al
c0109034:	00 3c 42             	add    %bh,(%edx,%eax,2)
c0109037:	42                   	inc    %edx
c0109038:	7e 40                	jle    c010907a <_binary_font_psf_start+0xeee>
c010903a:	40                   	inc    %eax
c010903b:	42                   	inc    %edx
c010903c:	3c 00                	cmp    $0x0,%al
c010903e:	00 00                	add    %al,(%eax)
c0109040:	00 24 24             	add    %ah,(%esp)
c0109043:	00 00                	add    %al,(%eax)
c0109045:	3c 42                	cmp    $0x42,%al
c0109047:	42                   	inc    %edx
c0109048:	7e 40                	jle    c010908a <_binary_font_psf_start+0xefe>
c010904a:	40                   	inc    %eax
c010904b:	42                   	inc    %edx
c010904c:	3c 00                	cmp    $0x0,%al
c010904e:	00 00                	add    %al,(%eax)
c0109050:	00 30                	add    %dh,(%eax)
c0109052:	0c 00                	or     $0x0,%al
c0109054:	00 18                	add    %bl,(%eax)
c0109056:	08 08                	or     %cl,(%eax)
c0109058:	08 08                	or     %cl,(%eax)
c010905a:	08 08                	or     %cl,(%eax)
c010905c:	3e 00 00             	add    %al,%ds:(%eax)
c010905f:	00 00                	add    %al,(%eax)
c0109061:	0c 30                	or     $0x30,%al
c0109063:	00 00                	add    %al,(%eax)
c0109065:	18 08                	sbb    %cl,(%eax)
c0109067:	08 08                	or     %cl,(%eax)
c0109069:	08 08                	or     %cl,(%eax)
c010906b:	08 3e                	or     %bh,(%esi)
c010906d:	00 00                	add    %al,(%eax)
c010906f:	00 00                	add    %al,(%eax)
c0109071:	18 24 00             	sbb    %ah,(%eax,%eax,1)
c0109074:	00 18                	add    %bl,(%eax)
c0109076:	08 08                	or     %cl,(%eax)
c0109078:	08 08                	or     %cl,(%eax)
c010907a:	08 08                	or     %cl,(%eax)
c010907c:	3e 00 00             	add    %al,%ds:(%eax)
c010907f:	00 00                	add    %al,(%eax)
c0109081:	24 24                	and    $0x24,%al
c0109083:	00 00                	add    %al,(%eax)
c0109085:	18 08                	sbb    %cl,(%eax)
c0109087:	08 08                	or     %cl,(%eax)
c0109089:	08 08                	or     %cl,(%eax)
c010908b:	08 3e                	or     %bh,(%esi)
c010908d:	00 00                	add    %al,(%eax)
c010908f:	00 00                	add    %al,(%eax)
c0109091:	00 66 18             	add    %ah,0x18(%esi)
c0109094:	64 02 3a             	add    %fs:(%edx),%bh
c0109097:	46                   	inc    %esi
c0109098:	42                   	inc    %edx
c0109099:	42                   	inc    %edx
c010909a:	42                   	inc    %edx
c010909b:	42                   	inc    %edx
c010909c:	3c 00                	cmp    $0x0,%al
c010909e:	00 00                	add    %al,(%eax)
c01090a0:	00 32                	add    %dh,(%edx)
c01090a2:	4c                   	dec    %esp
c01090a3:	00 00                	add    %al,(%eax)
c01090a5:	5c                   	pop    %esp
c01090a6:	62 42 42             	bound  %eax,0x42(%edx)
c01090a9:	42                   	inc    %edx
c01090aa:	42                   	inc    %edx
c01090ab:	42                   	inc    %edx
c01090ac:	42                   	inc    %edx
c01090ad:	00 00                	add    %al,(%eax)
c01090af:	00 00                	add    %al,(%eax)
c01090b1:	30 0c 00             	xor    %cl,(%eax,%eax,1)
c01090b4:	00 3c 42             	add    %bh,(%edx,%eax,2)
c01090b7:	42                   	inc    %edx
c01090b8:	42                   	inc    %edx
c01090b9:	42                   	inc    %edx
c01090ba:	42                   	inc    %edx
c01090bb:	42                   	inc    %edx
c01090bc:	3c 00                	cmp    $0x0,%al
c01090be:	00 00                	add    %al,(%eax)
c01090c0:	00 0c 30             	add    %cl,(%eax,%esi,1)
c01090c3:	00 00                	add    %al,(%eax)
c01090c5:	3c 42                	cmp    $0x42,%al
c01090c7:	42                   	inc    %edx
c01090c8:	42                   	inc    %edx
c01090c9:	42                   	inc    %edx
c01090ca:	42                   	inc    %edx
c01090cb:	42                   	inc    %edx
c01090cc:	3c 00                	cmp    $0x0,%al
c01090ce:	00 00                	add    %al,(%eax)
c01090d0:	00 18                	add    %bl,(%eax)
c01090d2:	24 00                	and    $0x0,%al
c01090d4:	00 3c 42             	add    %bh,(%edx,%eax,2)
c01090d7:	42                   	inc    %edx
c01090d8:	42                   	inc    %edx
c01090d9:	42                   	inc    %edx
c01090da:	42                   	inc    %edx
c01090db:	42                   	inc    %edx
c01090dc:	3c 00                	cmp    $0x0,%al
c01090de:	00 00                	add    %al,(%eax)
c01090e0:	00 32                	add    %dh,(%edx)
c01090e2:	4c                   	dec    %esp
c01090e3:	00 00                	add    %al,(%eax)
c01090e5:	3c 42                	cmp    $0x42,%al
c01090e7:	42                   	inc    %edx
c01090e8:	42                   	inc    %edx
c01090e9:	42                   	inc    %edx
c01090ea:	42                   	inc    %edx
c01090eb:	42                   	inc    %edx
c01090ec:	3c 00                	cmp    $0x0,%al
c01090ee:	00 00                	add    %al,(%eax)
c01090f0:	00 24 24             	add    %ah,(%esp)
c01090f3:	00 00                	add    %al,(%eax)
c01090f5:	3c 42                	cmp    $0x42,%al
c01090f7:	42                   	inc    %edx
c01090f8:	42                   	inc    %edx
c01090f9:	42                   	inc    %edx
c01090fa:	42                   	inc    %edx
c01090fb:	42                   	inc    %edx
c01090fc:	3c 00                	cmp    $0x0,%al
c01090fe:	00 00                	add    %al,(%eax)
c0109100:	00 00                	add    %al,(%eax)
c0109102:	00 00                	add    %al,(%eax)
c0109104:	10 10                	adc    %dl,(%eax)
c0109106:	00 00                	add    %al,(%eax)
c0109108:	7c 00                	jl     c010910a <_binary_font_psf_start+0xf7e>
c010910a:	00 10                	add    %dl,(%eax)
c010910c:	10 00                	adc    %al,(%eax)
c010910e:	00 00                	add    %al,(%eax)
c0109110:	00 00                	add    %al,(%eax)
c0109112:	00 00                	add    %al,(%eax)
c0109114:	02 3c 46             	add    (%esi,%eax,2),%bh
c0109117:	4a                   	dec    %edx
c0109118:	4a                   	dec    %edx
c0109119:	52                   	push   %edx
c010911a:	52                   	push   %edx
c010911b:	62 3c 40             	bound  %edi,(%eax,%eax,2)
c010911e:	00 00                	add    %al,(%eax)
c0109120:	00 30                	add    %dh,(%eax)
c0109122:	0c 00                	or     $0x0,%al
c0109124:	00 42 42             	add    %al,0x42(%edx)
c0109127:	42                   	inc    %edx
c0109128:	42                   	inc    %edx
c0109129:	42                   	inc    %edx
c010912a:	42                   	inc    %edx
c010912b:	46                   	inc    %esi
c010912c:	3a 00                	cmp    (%eax),%al
c010912e:	00 00                	add    %al,(%eax)
c0109130:	00 0c 30             	add    %cl,(%eax,%esi,1)
c0109133:	00 00                	add    %al,(%eax)
c0109135:	42                   	inc    %edx
c0109136:	42                   	inc    %edx
c0109137:	42                   	inc    %edx
c0109138:	42                   	inc    %edx
c0109139:	42                   	inc    %edx
c010913a:	42                   	inc    %edx
c010913b:	46                   	inc    %esi
c010913c:	3a 00                	cmp    (%eax),%al
c010913e:	00 00                	add    %al,(%eax)
c0109140:	00 18                	add    %bl,(%eax)
c0109142:	24 00                	and    $0x0,%al
c0109144:	00 42 42             	add    %al,0x42(%edx)
c0109147:	42                   	inc    %edx
c0109148:	42                   	inc    %edx
c0109149:	42                   	inc    %edx
c010914a:	42                   	inc    %edx
c010914b:	46                   	inc    %esi
c010914c:	3a 00                	cmp    (%eax),%al
c010914e:	00 00                	add    %al,(%eax)
c0109150:	00 24 24             	add    %ah,(%esp)
c0109153:	00 00                	add    %al,(%eax)
c0109155:	42                   	inc    %edx
c0109156:	42                   	inc    %edx
c0109157:	42                   	inc    %edx
c0109158:	42                   	inc    %edx
c0109159:	42                   	inc    %edx
c010915a:	42                   	inc    %edx
c010915b:	46                   	inc    %esi
c010915c:	3a 00                	cmp    (%eax),%al
c010915e:	00 00                	add    %al,(%eax)
c0109160:	00 0c 30             	add    %cl,(%eax,%esi,1)
c0109163:	00 00                	add    %al,(%eax)
c0109165:	42                   	inc    %edx
c0109166:	42                   	inc    %edx
c0109167:	42                   	inc    %edx
c0109168:	42                   	inc    %edx
c0109169:	42                   	inc    %edx
c010916a:	46                   	inc    %esi
c010916b:	3a 02                	cmp    (%edx),%al
c010916d:	02 42 3c             	add    0x3c(%edx),%al
c0109170:	00 00                	add    %al,(%eax)
c0109172:	40                   	inc    %eax
c0109173:	40                   	inc    %eax
c0109174:	40                   	inc    %eax
c0109175:	5c                   	pop    %esp
c0109176:	62 42 42             	bound  %eax,0x42(%edx)
c0109179:	42                   	inc    %edx
c010917a:	42                   	inc    %edx
c010917b:	62 5c 40 40          	bound  %ebx,0x40(%eax,%eax,2)
c010917f:	40                   	inc    %eax
c0109180:	00 24 24             	add    %ah,(%esp)
c0109183:	00 00                	add    %al,(%eax)
c0109185:	42                   	inc    %edx
c0109186:	42                   	inc    %edx
c0109187:	42                   	inc    %edx
c0109188:	42                   	inc    %edx
c0109189:	42                   	inc    %edx
c010918a:	46                   	inc    %esi
c010918b:	3a 02                	cmp    (%edx),%al
c010918d:	02 42 3c             	add    0x3c(%edx),%al
c0109190:	fd                   	std
c0109191:	ff                   	(bad)
c0109192:	ff                   	(bad)
c0109193:	ff c0                	inc    %eax
c0109195:	03 ff                	add    %edi,%edi
c0109197:	ff 60 22             	jmp    *0x22(%eax)
c010919a:	ff                   	(bad)
c010919b:	ff 64 22 ff          	jmp    *-0x1(%edx,%eiz,1)
c010919f:	ff 65 22             	jmp    *0x22(%ebp)
c01091a2:	ff                   	(bad)
c01091a3:	ff a0 25 ac 25 ae    	jmp    *-0x51da53db(%eax)
c01091a9:	25 fc 25 fe 25       	and    $0x25fe25fc,%eax
c01091ae:	1b 2b                	sbb    (%ebx),%ebp
c01091b0:	0e                   	push   %cs
c01091b1:	22 ff                	and    %bh,%bh
c01091b3:	ff c6                	inc    %esi
c01091b5:	25 66 26 25 2b       	and    $0x2b252666,%eax
c01091ba:	27                   	daa
c01091bb:	2b ff                	sub    %edi,%edi
c01091bd:	ff                   	(bad)
c01091be:	bc 00 ff ff bd       	mov    $0xbdffff00,%esp
c01091c3:	00 ff                	add    %bh,%bh
c01091c5:	ff                   	(bad)
c01091c6:	be 00 ff ff a6       	mov    $0xa6ffff00,%esi
c01091cb:	00 ff                	add    %bh,%bh
c01091cd:	ff a8 00 ff ff b8    	ljmp   *-0x47000100(%eax)
c01091d3:	00 ff                	add    %bh,%bh
c01091d5:	ff 92 01 ff ff 20    	call   *0x20ffff01(%edx)
c01091db:	20 ff                	and    %bh,%bh
c01091dd:	ff 21                	jmp    *(%ecx)
c01091df:	20 ff                	and    %bh,%bh
c01091e1:	ff 30                	push   (%eax)
c01091e3:	20 ff                	and    %bh,%bh
c01091e5:	ff 22                	jmp    *(%edx)
c01091e7:	21 ff                	and    %edi,%edi
c01091e9:	ff 26                	jmp    *(%esi)
c01091eb:	20 ff                	and    %bh,%bh
c01091ed:	ff                   	(bad)
c01091ee:	39 20                	cmp    %esp,(%eax)
c01091f0:	ff                   	(bad)
c01091f1:	ff                   	(bad)
c01091f2:	3a 20                	cmp    (%eax),%ah
c01091f4:	ff                   	(bad)
c01091f5:	ff 1c 20             	lcall  *(%eax,%eiz,1)
c01091f8:	1f                   	pop    %ds
c01091f9:	20 36                	and    %dh,(%esi)
c01091fb:	20 ff                	and    %bh,%bh
c01091fd:	ff 1d 20 ba 02 dd    	lcall  *0xdd02ba20
c0109203:	02 ee                	add    %dh,%ch
c0109205:	02 33                	add    (%ebx),%dh
c0109207:	20 ff                	and    %bh,%bh
c0109209:	ff 1e                	lcall  *(%esi)
c010920b:	20 ff                	and    %bh,%bh
c010920d:	ff 42 2e             	incl   0x2e(%edx)
c0109210:	ff                   	(bad)
c0109211:	ff 41 2e             	incl   0x2e(%ecx)
c0109214:	ce                   	into
c0109215:	02 ff                	add    %bh,%bh
c0109217:	ff 1e                	lcall  *(%esi)
c0109219:	01 ff                	add    %edi,%edi
c010921b:	ff 1f                	lcall  *(%edi)
c010921d:	01 ff                	add    %edi,%edi
c010921f:	ff 30                	push   (%eax)
c0109221:	01 ff                	add    %edi,%edi
c0109223:	ff 31                	push   (%ecx)
c0109225:	01 ff                	add    %edi,%edi
c0109227:	ff 5e 01             	lcall  *0x1(%esi)
c010922a:	ff                   	(bad)
c010922b:	ff 5f 01             	lcall  *0x1(%edi)
c010922e:	ff                   	(bad)
c010922f:	ff 20                	jmp    *(%eax)
c0109231:	00 a0 00 00 20 01    	add    %ah,0x1200000(%eax)
c0109237:	20 02                	and    %al,(%edx)
c0109239:	20 03                	and    %al,(%ebx)
c010923b:	20 04 20             	and    %al,(%eax,%eiz,1)
c010923e:	05 20 06 20 07       	add    $0x7200620,%eax
c0109243:	20 08                	and    %cl,(%eax)
c0109245:	20 09                	and    %cl,(%ecx)
c0109247:	20 0a                	and    %cl,(%edx)
c0109249:	20 2f                	and    %ch,(%edi)
c010924b:	20 5f 20             	and    %bl,0x20(%edi)
c010924e:	ff                   	(bad)
c010924f:	ff 21                	jmp    *(%ecx)
c0109251:	00 ff                	add    %bh,%bh
c0109253:	ff 22                	jmp    *(%edx)
c0109255:	00 ff                	add    %bh,%bh
c0109257:	ff 23                	jmp    *(%ebx)
c0109259:	00 ff                	add    %bh,%bh
c010925b:	ff 24 00             	jmp    *(%eax,%eax,1)
c010925e:	ff                   	(bad)
c010925f:	ff 25 00 ff ff 26    	jmp    *0x26ffff00
c0109265:	00 ff                	add    %bh,%bh
c0109267:	ff 27                	jmp    *(%edi)
c0109269:	00 b4 00 b9 02 bc 02 	add    %dh,0x2bc02b9(%eax,%eax,1)
c0109270:	ca 02 19             	lret   $0x1902
c0109273:	20 32                	and    %dh,(%edx)
c0109275:	20 ff                	and    %bh,%bh
c0109277:	ff 28                	ljmp   *(%eax)
c0109279:	00 ff                	add    %bh,%bh
c010927b:	ff 29                	ljmp   *(%ecx)
c010927d:	00 ff                	add    %bh,%bh
c010927f:	ff 2a                	ljmp   *(%edx)
c0109281:	00 4e 20             	add    %cl,0x20(%esi)
c0109284:	17                   	pop    %ss
c0109285:	22 ff                	and    %bh,%bh
c0109287:	ff 2b                	ljmp   *(%ebx)
c0109289:	00 ff                	add    %bh,%bh
c010928b:	ff 2c 00             	ljmp   *(%eax,%eax,1)
c010928e:	cf                   	iret
c010928f:	02 1a                	add    (%edx),%bl
c0109291:	20 ff                	and    %bh,%bh
c0109293:	ff 2d 00 ad 00 10    	ljmp   *0x1000ad00
c0109299:	20 11                	and    %dl,(%ecx)
c010929b:	20 12                	and    %dl,(%edx)
c010929d:	20 13                	and    %dl,(%ebx)
c010929f:	20 43 20             	and    %al,0x20(%ebx)
c01092a2:	12 22                	adc    (%edx),%ah
c01092a4:	ff                   	(bad)
c01092a5:	ff 2e                	ljmp   *(%esi)
c01092a7:	00 24 20             	add    %ah,(%eax,%eiz,1)
c01092aa:	ff                   	(bad)
c01092ab:	ff 2f                	ljmp   *(%edi)
c01092ad:	00 44 20 15          	add    %al,0x15(%eax,%eiz,1)
c01092b1:	22 ff                	and    %bh,%bh
c01092b3:	ff 30                	push   (%eax)
c01092b5:	00 ff                	add    %bh,%bh
c01092b7:	ff 31                	push   (%ecx)
c01092b9:	00 ff                	add    %bh,%bh
c01092bb:	ff 32                	push   (%edx)
c01092bd:	00 ff                	add    %bh,%bh
c01092bf:	ff 33                	push   (%ebx)
c01092c1:	00 ff                	add    %bh,%bh
c01092c3:	ff 34 00             	push   (%eax,%eax,1)
c01092c6:	ff                   	(bad)
c01092c7:	ff 35 00 ff ff 36    	push   0x36ffff00
c01092cd:	00 ff                	add    %bh,%bh
c01092cf:	ff 37                	push   (%edi)
c01092d1:	00 ff                	add    %bh,%bh
c01092d3:	ff                   	(bad)
c01092d4:	38 00                	cmp    %al,(%eax)
c01092d6:	ff                   	(bad)
c01092d7:	ff                   	(bad)
c01092d8:	39 00                	cmp    %eax,(%eax)
c01092da:	ff                   	(bad)
c01092db:	ff                   	(bad)
c01092dc:	3a 00                	cmp    (%eax),%al
c01092de:	36 22 ff             	ss and %bh,%bh
c01092e1:	ff                   	(bad)
c01092e2:	3b 00                	cmp    (%eax),%eax
c01092e4:	ff                   	(bad)
c01092e5:	ff                   	(bad)
c01092e6:	3c 00                	cmp    $0x0,%al
c01092e8:	ff                   	(bad)
c01092e9:	ff                   	(bad)
c01092ea:	3d 00 40 2e ff       	cmp    $0xff2e4000,%eax
c01092ef:	ff                   	(bad)
c01092f0:	3e 00 ff             	ds add %bh,%bh
c01092f3:	ff                   	(bad)
c01092f4:	3f                   	aas
c01092f5:	00 ff                	add    %bh,%bh
c01092f7:	ff 40 00             	incl   0x0(%eax)
c01092fa:	ff                   	(bad)
c01092fb:	ff 41 00             	incl   0x0(%ecx)
c01092fe:	ff                   	(bad)
c01092ff:	ff 42 00             	incl   0x0(%edx)
c0109302:	ff                   	(bad)
c0109303:	ff 43 00             	incl   0x0(%ebx)
c0109306:	ff                   	(bad)
c0109307:	ff 44 00 ff          	incl   -0x1(%eax,%eax,1)
c010930b:	ff 45 00             	incl   0x0(%ebp)
c010930e:	ff                   	(bad)
c010930f:	ff 46 00             	incl   0x0(%esi)
c0109312:	ff                   	(bad)
c0109313:	ff 47 00             	incl   0x0(%edi)
c0109316:	ff                   	(bad)
c0109317:	ff 48 00             	decl   0x0(%eax)
c010931a:	ff                   	(bad)
c010931b:	ff 49 00             	decl   0x0(%ecx)
c010931e:	ff                   	(bad)
c010931f:	ff 4a 00             	decl   0x0(%edx)
c0109322:	ff                   	(bad)
c0109323:	ff 4b 00             	decl   0x0(%ebx)
c0109326:	2a 21                	sub    (%ecx),%ah
c0109328:	ff                   	(bad)
c0109329:	ff 4c 00 ff          	decl   -0x1(%eax,%eax,1)
c010932d:	ff 4d 00             	decl   0x0(%ebp)
c0109330:	ff                   	(bad)
c0109331:	ff 4e 00             	decl   0x0(%esi)
c0109334:	ff                   	(bad)
c0109335:	ff 4f 00             	decl   0x0(%edi)
c0109338:	ff                   	(bad)
c0109339:	ff 50 00             	call   *0x0(%eax)
c010933c:	ff                   	(bad)
c010933d:	ff 51 00             	call   *0x0(%ecx)
c0109340:	ff                   	(bad)
c0109341:	ff 52 00             	call   *0x0(%edx)
c0109344:	ff                   	(bad)
c0109345:	ff 53 00             	call   *0x0(%ebx)
c0109348:	ff                   	(bad)
c0109349:	ff 54 00 ff          	call   *-0x1(%eax,%eax,1)
c010934d:	ff 55 00             	call   *0x0(%ebp)
c0109350:	ff                   	(bad)
c0109351:	ff 56 00             	call   *0x0(%esi)
c0109354:	ff                   	(bad)
c0109355:	ff 57 00             	call   *0x0(%edi)
c0109358:	ff                   	(bad)
c0109359:	ff 58 00             	lcall  *0x0(%eax)
c010935c:	ff                   	(bad)
c010935d:	ff 59 00             	lcall  *0x0(%ecx)
c0109360:	ff                   	(bad)
c0109361:	ff 5a 00             	lcall  *0x0(%edx)
c0109364:	ff                   	(bad)
c0109365:	ff 5b 00             	lcall  *0x0(%ebx)
c0109368:	ff                   	(bad)
c0109369:	ff 5c 00 f5          	lcall  *-0xb(%eax,%eax,1)
c010936d:	29 ff                	sub    %edi,%edi
c010936f:	ff 5d 00             	lcall  *0x0(%ebp)
c0109372:	ff                   	(bad)
c0109373:	ff 5e 00             	lcall  *0x0(%esi)
c0109376:	c4 02                	les    (%edx),%eax
c0109378:	c6 02 03             	movb   $0x3,(%edx)
c010937b:	23 ff                	and    %edi,%edi
c010937d:	ff 5f 00             	lcall  *0x0(%edi)
c0109380:	ff                   	(bad)
c0109381:	ff 60 00             	jmp    *0x0(%eax)
c0109384:	bb 02 bd 02 cb       	mov    $0xcb02bd02,%ebx
c0109389:	02 18                	add    (%eax),%bl
c010938b:	20 1b                	and    %bl,(%ebx)
c010938d:	20 35 20 ff ff 61    	and    %dh,0x61ffff20
c0109393:	00 ff                	add    %bh,%bh
c0109395:	ff 62 00             	jmp    *0x0(%edx)
c0109398:	ff                   	(bad)
c0109399:	ff 63 00             	jmp    *0x0(%ebx)
c010939c:	ff                   	(bad)
c010939d:	ff 64 00 ff          	jmp    *-0x1(%eax,%eax,1)
c01093a1:	ff 65 00             	jmp    *0x0(%ebp)
c01093a4:	ff                   	(bad)
c01093a5:	ff 66 00             	jmp    *0x0(%esi)
c01093a8:	ff                   	(bad)
c01093a9:	ff 67 00             	jmp    *0x0(%edi)
c01093ac:	ff                   	(bad)
c01093ad:	ff 68 00             	ljmp   *0x0(%eax)
c01093b0:	ff                   	(bad)
c01093b1:	ff 69 00             	ljmp   *0x0(%ecx)
c01093b4:	ff                   	(bad)
c01093b5:	ff 6a 00             	ljmp   *0x0(%edx)
c01093b8:	ff                   	(bad)
c01093b9:	ff 6b 00             	ljmp   *0x0(%ebx)
c01093bc:	ff                   	(bad)
c01093bd:	ff 6c 00 ff          	ljmp   *-0x1(%eax,%eax,1)
c01093c1:	ff 6d 00             	ljmp   *0x0(%ebp)
c01093c4:	ff                   	(bad)
c01093c5:	ff 6e 00             	ljmp   *0x0(%esi)
c01093c8:	ff                   	(bad)
c01093c9:	ff 6f 00             	ljmp   *0x0(%edi)
c01093cc:	ff                   	(bad)
c01093cd:	ff 70 00             	push   0x0(%eax)
c01093d0:	ff                   	(bad)
c01093d1:	ff 71 00             	push   0x0(%ecx)
c01093d4:	ff                   	(bad)
c01093d5:	ff 72 00             	push   0x0(%edx)
c01093d8:	ff                   	(bad)
c01093d9:	ff 73 00             	push   0x0(%ebx)
c01093dc:	ff                   	(bad)
c01093dd:	ff 74 00 ff          	push   -0x1(%eax,%eax,1)
c01093e1:	ff 75 00             	push   0x0(%ebp)
c01093e4:	ff                   	(bad)
c01093e5:	ff 76 00             	push   0x0(%esi)
c01093e8:	ff                   	(bad)
c01093e9:	ff 77 00             	push   0x0(%edi)
c01093ec:	ff                   	(bad)
c01093ed:	ff                   	(bad)
c01093ee:	78 00                	js     c01093f0 <_binary_font_psf_start+0x1264>
c01093f0:	ff                   	(bad)
c01093f1:	ff                   	(bad)
c01093f2:	79 00                	jns    c01093f4 <_binary_font_psf_start+0x1268>
c01093f4:	ff                   	(bad)
c01093f5:	ff                   	(bad)
c01093f6:	7a 00                	jp     c01093f8 <_binary_font_psf_start+0x126c>
c01093f8:	ff                   	(bad)
c01093f9:	ff                   	(bad)
c01093fa:	7b 00                	jnp    c01093fc <_binary_font_psf_start+0x1270>
c01093fc:	ff                   	(bad)
c01093fd:	ff                   	(bad)
c01093fe:	7c 00                	jl     c0109400 <_binary_font_psf_start+0x1274>
c0109400:	23 22                	and    (%edx),%esp
c0109402:	ff                   	(bad)
c0109403:	ff                   	(bad)
c0109404:	7d 00                	jge    c0109406 <_binary_font_psf_start+0x127a>
c0109406:	ff                   	(bad)
c0109407:	ff                   	(bad)
c0109408:	7e 00                	jle    c010940a <_binary_font_psf_start+0x127e>
c010940a:	dc 02                	faddl  (%edx)
c010940c:	ff                   	(bad)
c010940d:	ff 22                	jmp    *(%edx)
c010940f:	20 19                	and    %bl,(%ecx)
c0109411:	22 cf                	and    %bh,%cl
c0109413:	25 ff ff c0 00       	and    $0xc0ffff,%eax
c0109418:	ff                   	(bad)
c0109419:	ff c1                	inc    %ecx
c010941b:	00 ff                	add    %bh,%bh
c010941d:	ff c2                	inc    %edx
c010941f:	00 ff                	add    %bh,%bh
c0109421:	ff c3                	inc    %ebx
c0109423:	00 ff                	add    %bh,%bh
c0109425:	ff c4                	inc    %esp
c0109427:	00 ff                	add    %bh,%bh
c0109429:	ff c5                	inc    %ebp
c010942b:	00 2b                	add    %ch,(%ebx)
c010942d:	21 ff                	and    %edi,%edi
c010942f:	ff c6                	inc    %esi
c0109431:	00 ff                	add    %bh,%bh
c0109433:	ff c7                	inc    %edi
c0109435:	00 ff                	add    %bh,%bh
c0109437:	ff c8                	dec    %eax
c0109439:	00 ff                	add    %bh,%bh
c010943b:	ff c9                	dec    %ecx
c010943d:	00 ff                	add    %bh,%bh
c010943f:	ff ca                	dec    %edx
c0109441:	00 ff                	add    %bh,%bh
c0109443:	ff cb                	dec    %ebx
c0109445:	00 ff                	add    %bh,%bh
c0109447:	ff cc                	dec    %esp
c0109449:	00 ff                	add    %bh,%bh
c010944b:	ff cd                	dec    %ebp
c010944d:	00 ff                	add    %bh,%bh
c010944f:	ff ce                	dec    %esi
c0109451:	00 ff                	add    %bh,%bh
c0109453:	ff cf                	dec    %edi
c0109455:	00 ff                	add    %bh,%bh
c0109457:	ff d0                	call   *%eax
c0109459:	00 10                	add    %dl,(%eax)
c010945b:	01 ff                	add    %edi,%edi
c010945d:	ff d1                	call   *%ecx
c010945f:	00 ff                	add    %bh,%bh
c0109461:	ff d2                	call   *%edx
c0109463:	00 ff                	add    %bh,%bh
c0109465:	ff d3                	call   *%ebx
c0109467:	00 ff                	add    %bh,%bh
c0109469:	ff d4                	call   *%esp
c010946b:	00 ff                	add    %bh,%bh
c010946d:	ff d5                	call   *%ebp
c010946f:	00 ff                	add    %bh,%bh
c0109471:	ff d6                	call   *%esi
c0109473:	00 ff                	add    %bh,%bh
c0109475:	ff d7                	call   *%edi
c0109477:	00 ff                	add    %bh,%bh
c0109479:	ff                   	lcall  (bad)
c010947a:	d8 00                	fadds  (%eax)
c010947c:	ff                   	(bad)
c010947d:	ff                   	lcall  (bad)
c010947e:	d9 00                	flds   (%eax)
c0109480:	ff                   	(bad)
c0109481:	ff                   	lcall  (bad)
c0109482:	da 00                	fiaddl (%eax)
c0109484:	ff                   	(bad)
c0109485:	ff                   	lcall  (bad)
c0109486:	db 00                	fildl  (%eax)
c0109488:	ff                   	(bad)
c0109489:	ff                   	lcall  (bad)
c010948a:	dc 00                	faddl  (%eax)
c010948c:	ff                   	(bad)
c010948d:	ff                   	lcall  (bad)
c010948e:	dd 00                	fldl   (%eax)
c0109490:	ff                   	(bad)
c0109491:	ff                   	lcall  (bad)
c0109492:	de 00                	fiadds (%eax)
c0109494:	ff                   	(bad)
c0109495:	ff                   	lcall  (bad)
c0109496:	df 00                	filds  (%eax)
c0109498:	ff                   	(bad)
c0109499:	ff 92 25 ff ff a1    	call   *-0x5e0000db(%edx)
c010949f:	00 ff                	add    %bh,%bh
c01094a1:	ff a2 00 ff ff a3    	jmp    *-0x5c000100(%edx)
c01094a7:	00 ff                	add    %bh,%bh
c01094a9:	ff ac 20 ff ff a5 00 	ljmp   *0xa5ffff(%eax,%eiz,1)
c01094b0:	ff                   	(bad)
c01094b1:	ff 60 01             	jmp    *0x1(%eax)
c01094b4:	ff                   	(bad)
c01094b5:	ff a7 00 ff ff 61    	jmp    *0x61ffff00(%edi)
c01094bb:	01 ff                	add    %edi,%edi
c01094bd:	ff a9 00 ff ff aa    	ljmp   *-0x55000100(%ecx)
c01094c3:	00 ff                	add    %bh,%bh
c01094c5:	ff ab 00 ff ff ac    	ljmp   *-0x53000100(%ebx)
c01094cb:	00 ff                	add    %bh,%bh
c01094cd:	ff a4 00 ff ff ae 00 	jmp    *0xaeffff(%eax,%eax,1)
c01094d4:	ff                   	(bad)
c01094d5:	ff af 00 c9 02 ff    	ljmp   *-0xfd3700(%edi)
c01094db:	ff b0 00 da 02 ff    	push   -0xfd2600(%eax)
c01094e1:	ff b1 00 ff ff b2    	push   -0x4d000100(%ecx)
c01094e7:	00 ff                	add    %bh,%bh
c01094e9:	ff b3 00 ff ff 7d    	push   0x7dffff00(%ebx)
c01094ef:	01 ff                	add    %edi,%edi
c01094f1:	ff b5 00 bc 03 ff    	push   -0xfc4400(%ebp)
c01094f7:	ff b6 00 ff ff b7    	push   -0x48000100(%esi)
c01094fd:	00 27                	add    %ah,(%edi)
c01094ff:	20 c5                	and    %al,%ch
c0109501:	22 31                	and    (%ecx),%dh
c0109503:	2e ff                	cs (bad)
c0109505:	ff                   	(bad)
c0109506:	7e 01                	jle    c0109509 <_binary_font_psf_start+0x137d>
c0109508:	ff                   	(bad)
c0109509:	ff                   	(bad)
c010950a:	b9 00 ff ff ba       	mov    $0xbaffff00,%ecx
c010950f:	00 ff                	add    %bh,%bh
c0109511:	ff                   	(bad)
c0109512:	bb 00 ff ff 52       	mov    $0x52ffff00,%ebx
c0109517:	01 ff                	add    %edi,%edi
c0109519:	ff 53 01             	call   *0x1(%ebx)
c010951c:	ff                   	(bad)
c010951d:	ff                   	(bad)
c010951e:	78 01                	js     c0109521 <_binary_font_psf_start+0x1395>
c0109520:	ff                   	(bad)
c0109521:	ff                   	(bad)
c0109522:	bf 00 ff ff 00       	mov    $0xffff00,%edi
c0109527:	25 14 20 15 20       	and    $0x20152014,%eax
c010952c:	af                   	scas   %es:(%edi),%eax
c010952d:	23 ff                	and    %edi,%edi
c010952f:	ff 02                	incl   (%edx)
c0109531:	25 ff ff 0c 25       	and    $0x250cffff,%eax
c0109536:	6d                   	insl   (%dx),%es:(%edi)
c0109537:	25 ff ff 10 25       	and    $0x2510ffff,%eax
c010953c:	6e                   	outsb  %ds:(%esi),(%dx)
c010953d:	25 ff ff 14 25       	and    $0x2514ffff,%eax
c0109542:	70 25                	jo     c0109569 <_binary_font_psf_start+0x13dd>
c0109544:	ff                   	(bad)
c0109545:	ff 18                	lcall  *(%eax)
c0109547:	25 6f 25 ff ff       	and    $0xffff256f,%eax
c010954c:	1c 25                	sbb    $0x25,%al
c010954e:	ff                   	(bad)
c010954f:	ff 24 25 ff ff 2c 25 	jmp    *0x252cffff(,%eiz,1)
c0109556:	ff                   	(bad)
c0109557:	ff 34 25 ff ff 3c 25 	push   0x253cffff(,%eiz,1)
c010955e:	ff                   	(bad)
c010955f:	ff 91 25 ff ff ba    	call   *-0x450000db(%ecx)
c0109565:	23 3e                	and    (%esi),%edi
c0109567:	20 ff                	and    %bh,%bh
c0109569:	ff                   	(bad)
c010956a:	bb 23 ff ff bc       	mov    $0xbcffff23,%ebx
c010956f:	23 ff                	and    %edi,%edi
c0109571:	ff                   	(bad)
c0109572:	bd 23 ff ff 50       	mov    $0x50ffff23,%ebp
c0109577:	25 01 25 ff ff       	and    $0xffff2501,%eax
c010957c:	51                   	push   %ecx
c010957d:	25 03 25 ff ff       	and    $0xffff2503,%eax
c0109582:	54                   	push   %esp
c0109583:	25 0f 25 ff ff       	and    $0xffff250f,%eax
c0109588:	57                   	push   %edi
c0109589:	25 13 25 ff ff       	and    $0xffff2513,%eax
c010958e:	5a                   	pop    %edx
c010958f:	25 17 25 ff ff       	and    $0xffff2517,%eax
c0109594:	5d                   	pop    %ebp
c0109595:	25 1b 25 ff ff       	and    $0xffff251b,%eax
c010959a:	60                   	pusha
c010959b:	25 23 25 ff ff       	and    $0xffff2523,%eax
c01095a0:	63 25 2b 25 ff ff    	arpl   %esp,0xffff252b
c01095a6:	66 25 33 25          	and    $0x2533,%ax
c01095aa:	ff                   	(bad)
c01095ab:	ff 69 25             	ljmp   *0x25(%ecx)
c01095ae:	3b 25 ff ff 6c 25    	cmp    0x256cffff,%esp
c01095b4:	4b                   	dec    %ebx
c01095b5:	25 ff ff 88 25       	and    $0x2588ffff,%eax
c01095ba:	ff                   	(bad)
c01095bb:	ff 91 21 ff ff 93    	call   *-0x6c0000df(%ecx)
c01095c1:	21 ff                	and    %edi,%edi
c01095c3:	ff 90 21 ff ff 92    	call   *-0x6d0000df(%eax)
c01095c9:	21 ff                	and    %edi,%edi
c01095cb:	ff e0                	jmp    *%eax
c01095cd:	00 ff                	add    %bh,%bh
c01095cf:	ff e1                	jmp    *%ecx
c01095d1:	00 ff                	add    %bh,%bh
c01095d3:	ff e2                	jmp    *%edx
c01095d5:	00 ff                	add    %bh,%bh
c01095d7:	ff e3                	jmp    *%ebx
c01095d9:	00 ff                	add    %bh,%bh
c01095db:	ff e4                	jmp    *%esp
c01095dd:	00 ff                	add    %bh,%bh
c01095df:	ff e5                	jmp    *%ebp
c01095e1:	00 ff                	add    %bh,%bh
c01095e3:	ff e6                	jmp    *%esi
c01095e5:	00 ff                	add    %bh,%bh
c01095e7:	ff e7                	jmp    *%edi
c01095e9:	00 ff                	add    %bh,%bh
c01095eb:	ff                   	ljmp   (bad)
c01095ec:	e8 00 ff ff e9       	call   aa1094f1 <end_if+0xaa00948e>
c01095f1:	00 ff                	add    %bh,%bh
c01095f3:	ff                   	ljmp   (bad)
c01095f4:	ea 00 ff ff eb 00 ff 	ljmp   $0xff00,$0xebffff00
c01095fb:	ff                   	ljmp   (bad)
c01095fc:	ec                   	in     (%dx),%al
c01095fd:	00 ff                	add    %bh,%bh
c01095ff:	ff                   	ljmp   (bad)
c0109600:	ed                   	in     (%dx),%eax
c0109601:	00 ff                	add    %bh,%bh
c0109603:	ff                   	ljmp   (bad)
c0109604:	ee                   	out    %al,(%dx)
c0109605:	00 ff                	add    %bh,%bh
c0109607:	ff                   	ljmp   (bad)
c0109608:	ef                   	out    %eax,(%dx)
c0109609:	00 ff                	add    %bh,%bh
c010960b:	ff f0                	push   %eax
c010960d:	00 ff                	add    %bh,%bh
c010960f:	ff f1                	push   %ecx
c0109611:	00 ff                	add    %bh,%bh
c0109613:	ff f2                	push   %edx
c0109615:	00 ff                	add    %bh,%bh
c0109617:	ff f3                	push   %ebx
c0109619:	00 ff                	add    %bh,%bh
c010961b:	ff f4                	push   %esp
c010961d:	00 ff                	add    %bh,%bh
c010961f:	ff f5                	push   %ebp
c0109621:	00 ff                	add    %bh,%bh
c0109623:	ff f6                	push   %esi
c0109625:	00 ff                	add    %bh,%bh
c0109627:	ff f7                	push   %edi
c0109629:	00 ff                	add    %bh,%bh
c010962b:	ff                   	(bad)
c010962c:	f8                   	clc
c010962d:	00 ff                	add    %bh,%bh
c010962f:	ff                   	(bad)
c0109630:	f9                   	stc
c0109631:	00 ff                	add    %bh,%bh
c0109633:	ff                   	(bad)
c0109634:	fa                   	cli
c0109635:	00 ff                	add    %bh,%bh
c0109637:	ff                   	(bad)
c0109638:	fb                   	sti
c0109639:	00 ff                	add    %bh,%bh
c010963b:	ff                   	(bad)
c010963c:	fc                   	cld
c010963d:	00 ff                	add    %bh,%bh
c010963f:	ff                   	(bad)
c0109640:	fd                   	std
c0109641:	00 ff                	add    %bh,%bh
c0109643:	ff                   	(bad)
c0109644:	fe 00                	incb   (%eax)
c0109646:	ff                   	(bad)
c0109647:	ff                   	(bad)
c0109648:	ff 00                	incl   (%eax)
c010964a:	ff                   	(bad)
c010964b:	ff                   	.byte 0xff

Disassembly of section .comment:

00000000 <.comment>:
   0:	47                   	inc    %edi
   1:	43                   	inc    %ebx
   2:	43                   	inc    %ebx
   3:	3a 20                	cmp    (%eax),%ah
   5:	28 47 4e             	sub    %al,0x4e(%edi)
   8:	55                   	push   %ebp
   9:	29 20                	sub    %esp,(%eax)
   b:	31 34 2e             	xor    %esi,(%esi,%ebp,1)
   e:	32 2e                	xor    (%esi),%ch
  10:	30 00                	xor    %al,(%eax)
