
isodir/boot/word.bin:     file format elf32-i386
isodir/boot/word.bin
architecture: i386, flags 0x00000112:
EXEC_P, HAS_SYMS, D_PAGED
start address 0x00100000

Program Header:
    LOAD off    0x00001000 vaddr 0x00100000 paddr 0x00100000 align 2**12
         filesz 0x000000d8 memsz 0x000000d8 flags rw-
    LOAD off    0x00002000 vaddr 0xc0101000 paddr 0x00101000 align 2**12
         filesz 0x0000a4bc memsz 0x0000a4bc flags r-x
    LOAD off    0x0000d000 vaddr 0xc010c000 paddr 0x0010c000 align 2**12
         filesz 0x00001650 memsz 0x00008104 flags rw-

Sections:
Idx Name          Size      VMA       LMA       File off  Algn
  0 .multiboot.text 000000a6  00100000  00100000  00001000  2**0
                  CONTENTS, ALLOC, LOAD, READONLY, DATA
  1 .mb2_hdr      00000030  001000a8  001000a8  000010a8  2**3
                  CONTENTS, ALLOC, LOAD, DATA
  2 .text         000085ab  c0101000  00101000  00002000  2**6
                  CONTENTS, ALLOC, LOAD, READONLY, CODE
  3 .rodata       000014bc  c010a000  0010a000  0000b000  2**2
                  CONTENTS, ALLOC, LOAD, READONLY, DATA
  4 .data         00001650  c010c000  0010c000  0000d000  2**5
                  CONTENTS, ALLOC, LOAD, DATA
  5 .bss          00006104  c010e000  0010e000  0000e650  2**12
                  ALLOC
  6 .comment      00000012  00000000  00000000  0000e650  2**0
                  CONTENTS, READONLY
SYMBOL TABLE:
00000000 l    df *ABS*	00000000 bootNP.o
e85250d6 l       *ABS*	00000000 MAGIC_NUMBER
00000000 l       *ABS*	00000000 ARCH
00001000 l       *ABS*	00000000 PAGESIZE
c0000000 l       *ABS*	00000000 BOOTLOC
001000a8 l       .mb2_hdr	00000000 mb2_hdr_begin
001000d8 l       .mb2_hdr	00000000 mb2_hdr_end
001000b8 l       .mb2_hdr	00000000 mb2_frame_buffer_req
001000cc l       .mb2_hdr	00000000 mb2_framebuffer_end
c0113104 l       .bss	00000000 boot_stack_base
c010e000 l       .bss	00000000 boot_page_directory
c010f000 l       .bss	00000000 boot_page_table1
0010000a l       .multiboot.text	00000000 fill_garbage
00100028 l       .multiboot.text	00000000 end_garbage
c0101060 l       .text	00000000 flush
00000000 l    df *ABS*	00000000 ahci.c
c0110000 l     O .bss	00000004 mem_top
c0110004 l     O .bss	00000004 mem_bottom
c0110008 l     O .bss	00000004 sata_ports
c0101061 l     F .text	00000019 ata_disk_size
00000000 l    df *ABS*	00000000 pmm.c
c010c000 l     O .data	00000004 mem_top
c010c004 l     O .data	00000004 mem_bottom
00000000 l    df *ABS*	00000000 vmm.c
c0110020 l     O .bss	00000004 mem_top
c0110024 l     O .bss	00000004 mem_bottom
00000000 l    df *ABS*	00000000 mb_parse.c
c0110034 l     O .bss	00000004 mem_top
c0110038 l     O .bss	00000004 mem_bottom
c011003c l     O .bss	00000004 bypp
00000000 l    df *ABS*	00000000 gdt.c
00000000 l    df *ABS*	00000000 idt.c
c0110080 l     O .bss	00000800 idt
c0110880 l     O .bss	00000006 idtr
00000000 l    df *ABS*	00000000 paging.c
c0113000 l     O .bss	00000004 mem_top
c0113004 l     O .bss	00000004 mem_bottom
c0113008 l     O .bss	00000004 max_bit_extension
c0104569 l       .text	00000000 eip_get2
c0104567 l       .text	00000000 eip_get1
c010456e l       .text	00000000 eip_get_fin
c01046ad l       .text	00000000 disable_paging
c01046d4 l       .text	00000000 reset_eip
00000000 l    df *ABS*	00000000 kernel.c
c0113010 l     O .bss	00000004 mem_top
c0113014 l     O .bss	00000004 mem_bottom
c0104839 l     F .text	000000c1 init_serial
00000000 l    df *ABS*	00000000 string.c
00000000 l    df *ABS*	00000000 heap.c
00000000 l    df *ABS*	00000000 idtStub.o
c0105644 l       .text	00000000 isr_frame_as
c0105676 l       .text	00000000 irq_frame
c01056cc l       .text	00000000 process_switch_frame
00000000 l    df *ABS*	00000000 apic.c
c01058ae l     F .text	0000001b io_wait
00000000 l    df *ABS*	00000000 timer.c
00000000 l    df *ABS*	00000000 keyboard.c
c0105dd4 l     F .text	0000001b io_wait
c0113089 l     O .bss	00000001 current_masks
00000000 l    df *ABS*	00000000 framebuffer.c
00000000 l    df *ABS*	00000000 ps2.c
00000000 l    df *ABS*	00000000 pci.c
c01130a0 l     O .bss	00000004 mem_top
c01130a4 l     O .bss	00000004 mem_bottom
c01130a8 l     O .bss	00000004 AHCIAddr
c010c184 l     O .data	00000004 base_virt.0
00000000 l    df *ABS*	00000000 scheduler.c
c01130c0 l     O .bss	00000004 mem_top
c01130c4 l     O .bss	00000004 mem_bottom
00000000 l    df *ABS*	00000000 terminal.c
c01130e4 l     O .bss	00000004 term_bg
c010c18c l     O .data	00000004 term_fg
00000000 l    df *ABS*	00000000 rbtree.c
00000000 l    df *ABS*	00000000 asm_tools.c
00000000 l    df *ABS*	00000000 arraylist.c
00000000 l    df *ABS*	00000000 acpi.c
c0113100 l     O .bss	00000004 rsdt_store
c0103714 g     F .text	00000059 kernel_stack_fn
c01025de g     F .text	00000033 pae_kalloc
c0111000 g     O .bss	00001000 kernel_pd
c0106eae g     F .text	0000000a get_process_head
c0109185 g     F .text	00000041 al_get
c0109492 g     F .text	00000080 get_mcfg_entry
c0102268 g     F .text	00000010 physical_to_frame
c01057fe g     F .text	00000000 isr_stub_17
c01069fd g     F .text	00000175 ahci_action
c0105b41 g     F .text	000000c0 calibrate_timer
c01057da g     F .text	00000000 isr_stub_13
c0107f6c g     F .text	00000102 printf
c01058c9 g     F .text	00000022 read_ioapic_register
c0113088 g     O .bss	00000001 key_buffer_pos
c010243d g     F .text	00000109 create_vmm
c01130d9 g     O .bss	00000001 term_flushed
c01057e2 g     F .text	00000000 isr_stub_14
c0113094 g     O .bss	00000002 cursor_xpaws
c0102a3d g     F .text	00000088 vmm_page_free
c0113044 g     O .bss	00000004 key_codes
c010415b g     F .text	0000000c load_page_directory
c010514f g     F .text	00000016 memmove
c01036cc g     F .text	00000048 stack_trace
c0113020 g     O .bss	00000004 glob_lapic_addr
c0102578 g     F .text	0000001d page_kfree
c010683d g     F .text	0000006f ps2_send_byte_port2
c01057b0 g     F .text	00000000 isr_stub_8
c010c008 g     O .data	00000004 pre_mem
c0106ce6 g     F .text	00000006 run_idle
c0105d8c g     F .text	0000000d poll_timer
c010470a g     F .text	000000ff pg_init
c0106974 g     F .text	00000031 ps2_send_command
c0110068 g     O .bss	00000006 gp
c0104b34 g     F .text	000002a3 logf
c0113060 g     O .bss	00000028 key_buffer
c01070e3 g     F .text	00000037 kill_current_process
c0104937 g     F .text	00000106 log_integer_to_serial
c010811e g     F .text	00000013 tflush
c0108cc1 g     F .text	0000020a delete_node
c0102595 g     F .text	0000002c page_alloc
c01020e3 g     F .text	0000004c pre_malloc
c011301c g     O .bss	00000004 cur_heap_pos
c010c18a g     O .data	00000002 user_char_index
c01085e3 g     F .text	0000008e rb_left_rotation
c0106ca3 g     F .text	00000043 test_pci
c01058eb g     F .text	00000026 write_ioapic_register
c01093ff g     F .text	00000093 get_madt_entry
c01021ba g     F .text	0000004f clear_frame
c0104809 g     F .text	00000019 inportb
c0103df3 g     F .text	000000a6 pae_unmap
c0112000 g     O .bss	00001000 kernel_pt
c0109031 g     F .text	00000041 read_msr
c01031ea g     F .text	0000009f gdt_install
c0113024 g     O .bss	00000004 glob_ioapic_addr
c0105112 g     F .text	0000003d memcpy
c01027e1 g     F .text	0000025c vmm_page_alloc
c0101197 g     F .text	0000004c stop_commands
c010540e g     F .text	000000fb kfree
c0103b61 g     F .text	000000af memory_unmap
c0113040 g     O .bss	00000000 extended_key_lookup
c01014e3 g     F .text	0000018d init_ahci_cmd_port
c0104e07 g     F .text	0000003c test_func
c010576a g       .text	00000000 isr_stub_1
c01130e8 g     O .bss	00000004 madt_header
c0105290 g     F .text	00000006 malloc
c010240f g     F .text	0000002e convert_x86_32_vm_flags
c0108313 g     F .text	00000088 next_keycode
c0105874 g       .text	00000000 isr_stub_29
c0108fc3 g     F .text	0000006e get_cpuid
c0109292 g     F .text	0000000e load_rsdt_store
c0106629 g     F .text	00000026 get_glyph
c0110030 g     O .bss	00000004 old_acpi
c010572c g     F .text	00000000 irq_stub_128
c0106b72 g     F .text	00000026 read_ahci_status
c01067c4 g     F .text	0000001c check_status
c0103cbe g     F .text	00000135 pae_mmap
c0107b1c g     F .text	000000a3 parse_color
c0108989 g     F .text	00000338 delete_violations
c0101a7c g     F .text	00000176 identify
c01011e3 g     F .text	00000300 post_ata_command
c0107a69 g     F .text	00000076 write_char_text_buffer
c0105792 g       .text	00000000 isr_stub_5
c01073e7 g     F .text	000004f4 keycode_to_keysym
c0105824 g       .text	00000000 isr_stub_21
c01057ea g       .text	00000000 isr_stub_15
c0105810 g       .text	00000000 isr_stub_19
c01058a4 g     F .text	00000000 irq_stub_51
c0108131 g     F .text	00000034 bark_process
c0107bbf g     F .text	0000021c draw_text_buffer
c0103c10 g     F .text	000000ae get_phys_from_virt
c0102ac5 g     F .text	000000b1 pae_page_free
c0106b98 g     F .text	000000fe brute_force
c010101f g     F .text	00000000 irq_asm_1
c01130cc g     O .bss	00000004 text_buffer
c01072d0 g     F .text	000000dd schedule
c0105890 g     F .text	00000000 irq_stub_49
c011002c g     O .bss	00000004 fb
c0108f50 g     F .text	00000073 find_node
c0113018 g     O .bss	00000004 heap_start
c0102ddf g     F .text	000000df get_sdt_by_signature
c010314c g     F .text	0000009e gdt_set_gate
c0102ebe g     F .text	00000143 init_rsdt_v1
c01059fa g     F .text	00000020 lapic_write_reg
c010664f g     F .text	000000c1 fill_square
c0110074 g     O .bss	00000004 pesp
c0114104 g       .bss	00000000 _kernel_end
c010523c g     F .text	00000054 init_heap
c0101031 g     F .text	00000000 enable_paging
c0102bd7 g     F .text	0000006e get_pixel_addr
c011001c g     O .bss	00000004 kernel_vmm
c0107e83 g     F .text	000000e9 term_render_hex
c0105760 g       .text	00000000 isr_stub_0
c01057ca g     F .text	00000000 isr_stub_11
c0110014 g     O .bss	00000004 last_frame
c010c188 g     O .data	00000001 font_size
c011308c g     O .bss	00000004 fb_virt_addr
c0104e43 g     F .text	00000266 kernel_main
c0108165 g     F .text	000001ae parse_user_chars
c0113090 g     O .bss	00000004 font_head
c0104167 g     F .text	0000001c enable_paging_c
c01022d6 g     F .text	00000070 transfer_dynamic
c01079e2 g     F .text	00000087 write_text_buffer
c0103e99 g     F .text	00000071 create_new_pt
c0105c11 g     F .text	0000004d set_pit_one_shot
c010577e g       .text	00000000 isr_stub_3
c0104071 g     F .text	00000044 newinit_pd
c0110018 g     O .bss	00000004 current_vmm
c010586a g       .text	00000000 isr_stub_28
c0101024 g     F .text	00000000 load_directory
c0102278 g     F .text	0000005e alloc_phys_page
c01048fa g     F .text	0000003d log_to_serial
c0101828 g     F .text	00000254 read_identify
c010392d g     F .text	00000093 print_status_term
c010589a g     F .text	00000000 irq_stub_50
c010587e g     F .text	00000000 isr_stub_30
c0103001 g     F .text	0000014b init_multiboot
c0102546 g     F .text	00000032 page_kalloc
c0104445 g     F .text	000002c5 init_pae
c01092a0 g     F .text	000000f4 cache_sdt_by_signature
c0103ffe g     F .text	00000021 copy_kernel_map
c0104822 g     F .text	00000017 outportb
c0107adf g     F .text	0000003d single_shtoi
c01130ec g     O .bss	00000010 madt_counts
c0102258 g     F .text	00000010 frame_to_physical
c0103289 g     F .text	00000061 idt_set_gate
c0105838 g       .text	00000000 isr_stub_23
c011302c g     O .bss	00000004 calibrating
c01073ad g     F .text	0000003a handle_schedule
c010d650 g       .data	00000000 _binary_font_psf_end
c0105d3f g     F .text	0000004d polled_sleep
c0105a55 g     F .text	0000001e set_initial_lapic_timer_count
00100000 g     F .multiboot.text	00000000 _start
c01067e0 g     F .text	0000005d ps2_send_byte_port1
c0102022 g     F .text	000000c1 set_memory_map
c01079d6 g     F .text	0000000c is_term_ready
c010376d g     F .text	000001c0 exc_print
c0103ac1 g     F .text	000000a0 memory_map
c0105973 g     F .text	00000087 init_ioapic
c0102b76 g     F .text	00000020 init_user_memory
c0108671 g     F .text	0000008e rb_right_rotation
c0106cec g     F .text	00000013 set_current_process_idle
c01088cc g     F .text	000000bd insert_node
c01051f7 g     F .text	00000045 strncpy
c0106768 g     F .text	0000005c put_pixel
c01130b8 g     O .bss	00000004 initialized
c0105886 g       .text	00000000 isr_stub_31
c01042a8 g     F .text	0000019d transfer_pages_to_pae
c01068d1 g     F .text	00000040 ps2_get_responce_to
c0106d23 g     F .text	0000002c init_scheduler
c01010cc g     F .text	00000093 check_device
c01130b4 g     O .bss	00000004 idle_process
c01032ea g     F .text	000003e2 init_idt
c0104dd7 g     F .text	00000018 panic
c0105774 g       .text	00000000 isr_stub_2
c01130d4 g     O .bss	00000002 textbuf_loc
c0102346 g     F .text	000000c9 kinit
c011309c g     O .bss	00000001 bpp
c01050a9 g     F .text	00000069 memcmp
c0113098 g     O .bss	00000002 screen_width
c0114104 g       .bss	00000000 stack_top
c0108598 g     F .text	0000004b free_node_obj
c01057f4 g       .text	00000000 isr_stub_16
c0105ea1 g     F .text	0000018e handle_keychange
c01078db g     F .text	000000fb scroll_text_buffer_down
c0106d4f g     F .text	00000093 add_process
c0105a85 g     F .text	0000001d send_EOI
c0109394 g     F .text	0000006b count_madt_entries
c0103f0a g     F .text	000000f4 create_new_pae_pt
c010107a g     F .text	00000052 find_cmd_slot
c0105c5e g     F .text	000000e1 disable_pic
c0104e00 g     F .text	00000007 test_test
c011309a g     O .bss	00000002 screen_height
c0105165  w    F .text	0000002b memset
c0105842 g       .text	00000000 isr_stub_24
c010115f g     F .text	00000038 start_commands
c0101670 g     F .text	00000055 handle_ahci_interrupt
c01130d8 g     O .bss	00000001 term_ready
c01064d0 g     F .text	00000159 fb_put_glyph
c0106eb8 g     F .text	0000022b create_new_pdptes
c010581a g       .text	00000000 isr_stub_20
c01040b5 g     F .text	000000a6 init_kpt
c010584c g       .text	00000000 isr_stub_25
c0110040 g     O .bss	00000028 desc
c0106cff g     F .text	00000024 init_idle_process
c01130bc g     O .bss	00000004 next_free_pid
c0101ecf g     F .text	00000153 init_ahci_controller
c0105a1a g     F .text	0000001c lapic_read_reg
c011300c g     O .bss	00000001 task_state
c0105a73 g     F .text	00000012 get_lapic_timer_count
c01025c1 g     F .text	0000001d page_free
c0103a79 g     F .text	00000048 isr_handler
c010924c g     F .text	00000046 validate_table
c0113028 g     O .bss	00000004 ticks_per_ms
c01069ab g     F .text	00000052 handle_device
c0105509 g     F .text	0000013b rekalloc
c0104a3d g     F .text	000000f7 print_hex
c0105752 g     F .text	00000000 irq_stub_48
c010273b g     F .text	0000000e set_kernel_vmm
c01051b4 g     F .text	00000043 strcmp
c0102611 g     F .text	0000001d pae_kfree
c0105856 g       .text	00000000 isr_stub_26
c010711a g     F .text	000001b6 create_process
c0106911 g     F .text	00000063 ps2_send_dbyte
c0106c96 g     F .text	0000000d get_ahci_BAR5
c010401f g     F .text	00000028 copy_higher_half_kernel_pd
c01090c4 g     F .text	000000c1 al_add_item
c0106710 g     F .text	00000058 init_font
c010839b g     F .text	00000083 terminal_loop
c0105aa2 g     F .text	0000009f init_apic
c01130dc g     O .bss	00000004 max_char_x
c0110070 g     O .bss	00000004 kesp
c0110010 g     O .bss	00000004 num_frames
c01130d6 g     O .bss	00000002 cur_lines
c01068ac g     F .text	00000025 ps2_get_responce
c01057a6 g       .text	00000000 isr_stub_7
c010c190 g       .data	00000000 _binary_font_psf_start
c010267e g     F .text	000000bd vmm_transfer_dynamic
c01039c0 g     F .text	000000b9 irq_handler
c0105788 g       .text	00000000 isr_stub_4
c010841e g     F .text	00000037 start_terminal
c010602f g     F .text	000002c8 init_ps2_controller
c0109512 g     F .text	00000099 cache_tables
c0104183 g     F .text	00000125 handle_exception
c0106484 g     F .text	0000001a fb_set_width
c01091c6 g     F .text	00000086 al_delete_item
c0108ecb g     F .text	00000085 make_node
c0104047 g     F .text	0000002a copy_kernel_pd_index
c01130b0 g     O .bss	00000004 current_process
c0110028 g     O .bss	00000004 rsdt_addr
c0102c45 g     F .text	0000015a init_framebuffer
c0101043 g     F .text	00000000 flush_gdt
c0107ddb g     F .text	000000a8 draw_user_chars
c0113096 g     O .bss	00000002 cursor_ypaws
c010649e g     F .text	00000018 fb_set_bpp
c0101bf2 g     F .text	000002dd ata_read
c0104def g     F .text	00000011 triple_fault
c0105806 g       .text	00000000 isr_stub_18
c01086ff g     F .text	000001cd insert_violations
c01130ac g     O .bss	00000004 process_list_head
c0105911 g     F .text	00000062 ioapic_pit_irq
c01064b6 g     F .text	0000001a fb_set_height
c0105d99 g     F .text	0000003b arm_interrupt_timer
c010806e g     F .text	000000b0 write_user_char
c0106de2 g     F .text	000000cc delete_process
c0108564 g     F .text	00000034 alloc_node_obj
c0105a36 g     F .text	0000001f lapic_timer_init
c0108455 g     F .text	0000010f init_terminal
c01057c2 g     F .text	00000000 isr_stub_10
c01057d2 g     F .text	00000000 isr_stub_12
c01130d0 g     O .bss	00000004 user_chars
c010579c g       .text	00000000 isr_stub_6
000014c0 g       *ABS*	00000000 _binary_font_psf_size
c010212f g     F .text	0000008b get_first_frame
c0102d9f g     F .text	00000040 validate_RSDP
c01016c5 g     F .text	000000e7 probe_ports
c01017ac g     F .text	0000007c reset_port
c0105190 g     F .text	00000024 strlen
c0102749 g     F .text	00000098 set_current_vmm
00100000 g       .multiboot.text	00000000 _kernel_start
c011000c g     O .bss	00000004 frames
c010c020 g     O .data	00000164 key_lookup
c0102b96 g     F .text	00000041 alloc_stack
c0105c01 g     F .text	00000010 end_calibration
c0109072 g     F .text	00000052 create_array_list
c01057b8 g       .text	00000000 isr_stub_9
c010529c g     F .text	00000172 kalloc
c01062f7 g     F .text	0000018d init_keyboard
c01069a5 g     F .text	00000006 handle_bus_header
c010582e g       .text	00000000 isr_stub_22
c0105def g     F .text	000000b2 handle_masks
c01130fc g     O .bss	00000004 mcfg_header
c01130c8 g     O .bss	00000001 key_buffer_tail
c0102209 g     F .text	0000004f set_frame
c01130e0 g     O .bss	00000004 max_char_y
c0105296 g     F .text	00000006 free
c0102661 g     F .text	0000001d pae_free
c0105860 g       .text	00000000 isr_stub_27
c010262e g     F .text	00000033 pae_alloc



Disassembly of section .multiboot.text:

00100000 <_start>:
  100000:	b9 00 00 00 00       	mov    $0x0,%ecx
  100005:	b8 00 e0 10 00       	mov    $0x10e000,%eax

0010000a <fill_garbage>:
  10000a:	c7 00 00 00 00 00    	movl   $0x0,(%eax)
  100010:	c7 80 00 10 00 00 00 	movl   $0x0,0x1000(%eax)
  100017:	00 00 00 
  10001a:	83 c0 04             	add    $0x4,%eax
  10001d:	83 c1 01             	add    $0x1,%ecx
  100020:	81 f9 00 04 00 00    	cmp    $0x400,%ecx
  100026:	7c e2                	jl     10000a <fill_garbage>

00100028 <end_garbage>:
  100028:	bc 04 41 11 c0       	mov    $0xc0114104,%esp
  10002d:	bf 00 f0 10 00       	mov    $0x10f000,%edi
  100032:	be 00 00 00 00       	mov    $0x0,%esi
  100037:	b9 00 04 00 00       	mov    $0x400,%ecx
  10003c:	81 fe 00 00 10 00    	cmp    $0x100000,%esi
  100042:	7c 0f                	jl     100053 <end_garbage+0x2b>
  100044:	81 fe 04 41 11 00    	cmp    $0x114104,%esi
  10004a:	7d 12                	jge    10005e <end_garbage+0x36>
  10004c:	89 f2                	mov    %esi,%edx
  10004e:	83 ca 03             	or     $0x3,%edx
  100051:	89 17                	mov    %edx,(%edi)
  100053:	81 c6 00 10 00 00    	add    $0x1000,%esi
  100059:	83 c7 04             	add    $0x4,%edi
  10005c:	e2 de                	loop   10003c <end_garbage+0x14>
  10005e:	c7 05 00 e0 10 00 03 	movl   $0x10f003,0x10e000
  100065:	f0 10 00 
  100068:	c7 05 00 ec 10 00 03 	movl   $0x10f003,0x10ec00
  10006f:	f0 10 00 
  100072:	c7 05 fc ef 10 00 03 	movl   $0x10e003,0x10effc
  100079:	e0 10 00 
  10007c:	b9 00 e0 10 00       	mov    $0x10e000,%ecx
  100081:	0f 22 d9             	mov    %ecx,%cr3
  100084:	0f 20 d8             	mov    %cr3,%eax
  100087:	a1 00 b4 10 00       	mov    0x10b400,%eax
  10008c:	3d 03 00 10 00       	cmp    $0x100003,%eax
  100091:	fa                   	cli
  100092:	0f 20 c1             	mov    %cr0,%ecx
  100095:	81 c9 01 00 00 80    	or     $0x80000001,%ecx
  10009b:	0f 22 c1             	mov    %ecx,%cr0
  10009e:	8d 0d 00 10 10 c0    	lea    0xc0101000,%ecx
  1000a4:	ff e1                	jmp    *%ecx

Disassembly of section .mb2_hdr:

001000a8 <mb2_hdr_begin>:
  1000a8:	d6                   	(bad)
  1000a9:	50                   	push   %eax
  1000aa:	52                   	push   %edx
  1000ab:	e8 00 00 00 00       	call   1000b0 <mb2_hdr_begin+0x8>
  1000b0:	30 00                	xor    %al,(%eax)
  1000b2:	00 00                	add    %al,(%eax)
  1000b4:	fa                   	cli
  1000b5:	ae                   	scas   %es:(%edi),%al
  1000b6:	ad                   	lods   %ds:(%esi),%eax
  1000b7:	17                   	pop    %ss

001000b8 <mb2_frame_buffer_req>:
  1000b8:	05 00 01 00 14       	add    $0x14000100,%eax
  1000bd:	00 00                	add    %al,(%eax)
  1000bf:	00 20                	add    %ah,(%eax)
  1000c1:	03 00                	add    (%eax),%eax
  1000c3:	00 58 02             	add    %bl,0x2(%eax)
  1000c6:	00 00                	add    %al,(%eax)
  1000c8:	00 00                	add    %al,(%eax)
	...

001000cc <mb2_framebuffer_end>:
	...
  1000d4:	08 00                	or     %al,(%eax)
	...

Disassembly of section .text:

c0101000 <irq_asm_1-0x1f>:
c0101000:	c7 05 00 e0 10 c0 00 	movl   $0x0,0xc010e000
c0101007:	00 00 00 
c010100a:	0f 20 d9             	mov    %cr3,%ecx
c010100d:	0f 22 d9             	mov    %ecx,%cr3
c0101010:	53                   	push   %ebx
c0101011:	68 00 e0 10 c0       	push   $0xc010e000
c0101016:	e8 28 3e 00 00       	call   c0104e43 <kernel_main>
c010101b:	fa                   	cli
c010101c:	f4                   	hlt
c010101d:	eb fd                	jmp    c010101c <BOOTLOC+0x10101c>

c010101f <irq_asm_1>:
c010101f:	bb ef be e0 ce       	mov    $0xcee0beef,%ebx

c0101024 <load_directory>:
c0101024:	55                   	push   %ebp
c0101025:	89 e5                	mov    %esp,%ebp
c0101027:	8b 45 08             	mov    0x8(%ebp),%eax
c010102a:	0f 22 d8             	mov    %eax,%cr3
c010102d:	89 ec                	mov    %ebp,%esp
c010102f:	5d                   	pop    %ebp
c0101030:	c3                   	ret

c0101031 <enable_paging>:
c0101031:	55                   	push   %ebp
c0101032:	89 e5                	mov    %esp,%ebp
c0101034:	0f 20 c0             	mov    %cr0,%eax
c0101037:	0d 00 00 00 80       	or     $0x80000000,%eax
c010103c:	0f 22 c0             	mov    %eax,%cr0
c010103f:	89 ec                	mov    %ebp,%esp
c0101041:	5d                   	pop    %ebp
c0101042:	c3                   	ret

c0101043 <flush_gdt>:
c0101043:	8b 44 24 04          	mov    0x4(%esp),%eax
c0101047:	fa                   	cli
c0101048:	0f 01 10             	lgdtl  (%eax)
c010104b:	66 b8 10 00          	mov    $0x10,%ax
c010104f:	8e d8                	mov    %eax,%ds
c0101051:	8e c0                	mov    %eax,%es
c0101053:	8e e0                	mov    %eax,%fs
c0101055:	8e e8                	mov    %eax,%gs
c0101057:	8e d0                	mov    %eax,%ss
c0101059:	ea 60 10 10 c0 08 00 	ljmp   $0x8,$0xc0101060

c0101060 <flush>:
c0101060:	c3                   	ret

c0101061 <ata_disk_size>:
c0101061:	55                   	push   %ebp
c0101062:	89 e5                	mov    %esp,%ebp
c0101064:	8b 45 08             	mov    0x8(%ebp),%eax
c0101067:	8b 48 18             	mov    0x18(%eax),%ecx
c010106a:	8b 45 08             	mov    0x8(%ebp),%eax
c010106d:	8b 50 20             	mov    0x20(%eax),%edx
c0101070:	8b 40 1c             	mov    0x1c(%eax),%eax
c0101073:	0f af c1             	imul   %ecx,%eax
c0101076:	01 c0                	add    %eax,%eax
c0101078:	5d                   	pop    %ebp
c0101079:	c3                   	ret

c010107a <find_cmd_slot>:
c010107a:	55                   	push   %ebp
c010107b:	89 e5                	mov    %esp,%ebp
c010107d:	83 ec 18             	sub    $0x18,%esp
c0101080:	8b 45 08             	mov    0x8(%ebp),%eax
c0101083:	8b 00                	mov    (%eax),%eax
c0101085:	8b 50 34             	mov    0x34(%eax),%edx
c0101088:	8b 45 08             	mov    0x8(%ebp),%eax
c010108b:	8b 00                	mov    (%eax),%eax
c010108d:	8b 40 38             	mov    0x38(%eax),%eax
c0101090:	09 d0                	or     %edx,%eax
c0101092:	89 45 f4             	mov    %eax,-0xc(%ebp)
c0101095:	c7 45 f0 00 00 00 00 	movl   $0x0,-0x10(%ebp)
c010109c:	eb 16                	jmp    c01010b4 <find_cmd_slot+0x3a>
c010109e:	8b 45 f4             	mov    -0xc(%ebp),%eax
c01010a1:	83 e0 01             	and    $0x1,%eax
c01010a4:	85 c0                	test   %eax,%eax
c01010a6:	75 05                	jne    c01010ad <find_cmd_slot+0x33>
c01010a8:	8b 45 f0             	mov    -0x10(%ebp),%eax
c01010ab:	eb 1d                	jmp    c01010ca <find_cmd_slot+0x50>
c01010ad:	d1 6d f4             	shrl   $1,-0xc(%ebp)
c01010b0:	83 45 f0 01          	addl   $0x1,-0x10(%ebp)
c01010b4:	83 7d f0 1f          	cmpl   $0x1f,-0x10(%ebp)
c01010b8:	7e e4                	jle    c010109e <find_cmd_slot+0x24>
c01010ba:	83 ec 0c             	sub    $0xc,%esp
c01010bd:	68 00 a0 10 c0       	push   $0xc010a000
c01010c2:	e8 10 3d 00 00       	call   c0104dd7 <panic>
c01010c7:	83 c4 10             	add    $0x10,%esp
c01010ca:	c9                   	leave
c01010cb:	c3                   	ret

c01010cc <check_device>:
c01010cc:	55                   	push   %ebp
c01010cd:	89 e5                	mov    %esp,%ebp
c01010cf:	83 ec 10             	sub    $0x10,%esp
c01010d2:	8b 45 08             	mov    0x8(%ebp),%eax
c01010d5:	8b 40 28             	mov    0x28(%eax),%eax
c01010d8:	89 45 fc             	mov    %eax,-0x4(%ebp)
c01010db:	8b 45 fc             	mov    -0x4(%ebp),%eax
c01010de:	c1 e8 08             	shr    $0x8,%eax
c01010e1:	83 e0 0f             	and    $0xf,%eax
c01010e4:	88 45 fb             	mov    %al,-0x5(%ebp)
c01010e7:	8b 45 fc             	mov    -0x4(%ebp),%eax
c01010ea:	83 e0 0f             	and    $0xf,%eax
c01010ed:	88 45 fa             	mov    %al,-0x6(%ebp)
c01010f0:	80 7d fb 01          	cmpb   $0x1,-0x5(%ebp)
c01010f4:	74 07                	je     c01010fd <check_device+0x31>
c01010f6:	b8 00 00 00 00       	mov    $0x0,%eax
c01010fb:	eb 60                	jmp    c010115d <check_device+0x91>
c01010fd:	80 7d fa 03          	cmpb   $0x3,-0x6(%ebp)
c0101101:	74 07                	je     c010110a <check_device+0x3e>
c0101103:	b8 00 00 00 00       	mov    $0x0,%eax
c0101108:	eb 53                	jmp    c010115d <check_device+0x91>
c010110a:	8b 45 08             	mov    0x8(%ebp),%eax
c010110d:	8b 40 24             	mov    0x24(%eax),%eax
c0101110:	3d 01 01 14 eb       	cmp    $0xeb140101,%eax
c0101115:	74 2c                	je     c0101143 <check_device+0x77>
c0101117:	3d 01 01 14 eb       	cmp    $0xeb140101,%eax
c010111c:	77 3a                	ja     c0101158 <check_device+0x8c>
c010111e:	3d 01 01 3c c3       	cmp    $0xc33c0101,%eax
c0101123:	74 25                	je     c010114a <check_device+0x7e>
c0101125:	3d 01 01 3c c3       	cmp    $0xc33c0101,%eax
c010112a:	77 2c                	ja     c0101158 <check_device+0x8c>
c010112c:	3d 01 01 00 00       	cmp    $0x101,%eax
c0101131:	74 09                	je     c010113c <check_device+0x70>
c0101133:	3d 01 01 69 96       	cmp    $0x96690101,%eax
c0101138:	74 17                	je     c0101151 <check_device+0x85>
c010113a:	eb 1c                	jmp    c0101158 <check_device+0x8c>
c010113c:	b8 01 00 00 00       	mov    $0x1,%eax
c0101141:	eb 1a                	jmp    c010115d <check_device+0x91>
c0101143:	b8 02 00 00 00       	mov    $0x2,%eax
c0101148:	eb 13                	jmp    c010115d <check_device+0x91>
c010114a:	b8 03 00 00 00       	mov    $0x3,%eax
c010114f:	eb 0c                	jmp    c010115d <check_device+0x91>
c0101151:	b8 04 00 00 00       	mov    $0x4,%eax
c0101156:	eb 05                	jmp    c010115d <check_device+0x91>
c0101158:	b8 00 00 00 00       	mov    $0x0,%eax
c010115d:	c9                   	leave
c010115e:	c3                   	ret

c010115f <start_commands>:
c010115f:	55                   	push   %ebp
c0101160:	89 e5                	mov    %esp,%ebp
c0101162:	90                   	nop
c0101163:	8b 45 08             	mov    0x8(%ebp),%eax
c0101166:	8b 40 18             	mov    0x18(%eax),%eax
c0101169:	25 00 80 00 00       	and    $0x8000,%eax
c010116e:	85 c0                	test   %eax,%eax
c0101170:	75 f1                	jne    c0101163 <start_commands+0x4>
c0101172:	8b 45 08             	mov    0x8(%ebp),%eax
c0101175:	8b 40 18             	mov    0x18(%eax),%eax
c0101178:	83 c8 10             	or     $0x10,%eax
c010117b:	89 c2                	mov    %eax,%edx
c010117d:	8b 45 08             	mov    0x8(%ebp),%eax
c0101180:	89 50 18             	mov    %edx,0x18(%eax)
c0101183:	8b 45 08             	mov    0x8(%ebp),%eax
c0101186:	8b 40 18             	mov    0x18(%eax),%eax
c0101189:	83 c8 01             	or     $0x1,%eax
c010118c:	89 c2                	mov    %eax,%edx
c010118e:	8b 45 08             	mov    0x8(%ebp),%eax
c0101191:	89 50 18             	mov    %edx,0x18(%eax)
c0101194:	90                   	nop
c0101195:	5d                   	pop    %ebp
c0101196:	c3                   	ret

c0101197 <stop_commands>:
c0101197:	55                   	push   %ebp
c0101198:	89 e5                	mov    %esp,%ebp
c010119a:	8b 45 08             	mov    0x8(%ebp),%eax
c010119d:	8b 40 18             	mov    0x18(%eax),%eax
c01011a0:	83 e0 fe             	and    $0xfffffffe,%eax
c01011a3:	89 c2                	mov    %eax,%edx
c01011a5:	8b 45 08             	mov    0x8(%ebp),%eax
c01011a8:	89 50 18             	mov    %edx,0x18(%eax)
c01011ab:	8b 45 08             	mov    0x8(%ebp),%eax
c01011ae:	8b 40 18             	mov    0x18(%eax),%eax
c01011b1:	83 e0 ef             	and    $0xffffffef,%eax
c01011b4:	89 c2                	mov    %eax,%edx
c01011b6:	8b 45 08             	mov    0x8(%ebp),%eax
c01011b9:	89 50 18             	mov    %edx,0x18(%eax)
c01011bc:	8b 45 08             	mov    0x8(%ebp),%eax
c01011bf:	8b 40 18             	mov    0x18(%eax),%eax
c01011c2:	25 00 40 00 00       	and    $0x4000,%eax
c01011c7:	85 c0                	test   %eax,%eax
c01011c9:	75 11                	jne    c01011dc <stop_commands+0x45>
c01011cb:	8b 45 08             	mov    0x8(%ebp),%eax
c01011ce:	8b 40 18             	mov    0x18(%eax),%eax
c01011d1:	25 00 80 00 00       	and    $0x8000,%eax
c01011d6:	85 c0                	test   %eax,%eax
c01011d8:	74 05                	je     c01011df <stop_commands+0x48>
c01011da:	eb 01                	jmp    c01011dd <stop_commands+0x46>
c01011dc:	90                   	nop
c01011dd:	eb dd                	jmp    c01011bc <stop_commands+0x25>
c01011df:	90                   	nop
c01011e0:	90                   	nop
c01011e1:	5d                   	pop    %ebp
c01011e2:	c3                   	ret

c01011e3 <post_ata_command>:
c01011e3:	55                   	push   %ebp
c01011e4:	89 e5                	mov    %esp,%ebp
c01011e6:	53                   	push   %ebx
c01011e7:	83 ec 44             	sub    $0x44,%esp
c01011ea:	8b 55 1c             	mov    0x1c(%ebp),%edx
c01011ed:	8b 45 0c             	mov    0xc(%ebp),%eax
c01011f0:	89 45 c0             	mov    %eax,-0x40(%ebp)
c01011f3:	8b 45 10             	mov    0x10(%ebp),%eax
c01011f6:	89 45 c4             	mov    %eax,-0x3c(%ebp)
c01011f9:	89 d0                	mov    %edx,%eax
c01011fb:	88 45 bc             	mov    %al,-0x44(%ebp)
c01011fe:	83 ec 0c             	sub    $0xc,%esp
c0101201:	ff 75 08             	push   0x8(%ebp)
c0101204:	e8 71 fe ff ff       	call   c010107a <find_cmd_slot>
c0101209:	83 c4 10             	add    $0x10,%esp
c010120c:	89 45 e4             	mov    %eax,-0x1c(%ebp)
c010120f:	8b 45 18             	mov    0x18(%ebp),%eax
c0101212:	25 ff 0f 00 00       	and    $0xfff,%eax
c0101217:	89 45 e0             	mov    %eax,-0x20(%ebp)
c010121a:	83 ec 0c             	sub    $0xc,%esp
c010121d:	ff 75 18             	push   0x18(%ebp)
c0101220:	e8 eb 29 00 00       	call   c0103c10 <get_phys_from_virt>
c0101225:	83 c4 10             	add    $0x10,%esp
c0101228:	8b 4d e0             	mov    -0x20(%ebp),%ecx
c010122b:	bb 00 00 00 00       	mov    $0x0,%ebx
c0101230:	01 c8                	add    %ecx,%eax
c0101232:	11 da                	adc    %ebx,%edx
c0101234:	89 45 f0             	mov    %eax,-0x10(%ebp)
c0101237:	89 55 f4             	mov    %edx,-0xc(%ebp)
c010123a:	8b 45 08             	mov    0x8(%ebp),%eax
c010123d:	8b 40 08             	mov    0x8(%eax),%eax
c0101240:	89 45 dc             	mov    %eax,-0x24(%ebp)
c0101243:	8b 45 e4             	mov    -0x1c(%ebp),%eax
c0101246:	c1 e0 08             	shl    $0x8,%eax
c0101249:	01 45 dc             	add    %eax,-0x24(%ebp)
c010124c:	83 ec 04             	sub    $0x4,%esp
c010124f:	68 20 01 00 00       	push   $0x120
c0101254:	6a 00                	push   $0x0
c0101256:	ff 75 dc             	push   -0x24(%ebp)
c0101259:	e8 07 3f 00 00       	call   c0105165 <memset>
c010125e:	83 c4 10             	add    $0x10,%esp
c0101261:	8b 45 dc             	mov    -0x24(%ebp),%eax
c0101264:	89 45 d8             	mov    %eax,-0x28(%ebp)
c0101267:	83 ec 04             	sub    $0x4,%esp
c010126a:	6a 14                	push   $0x14
c010126c:	6a 00                	push   $0x0
c010126e:	ff 75 d8             	push   -0x28(%ebp)
c0101271:	e8 ef 3e 00 00       	call   c0105165 <memset>
c0101276:	83 c4 10             	add    $0x10,%esp
c0101279:	8b 45 08             	mov    0x8(%ebp),%eax
c010127c:	8b 40 0c             	mov    0xc(%eax),%eax
c010127f:	83 ec 04             	sub    $0x4,%esp
c0101282:	68 00 02 00 00       	push   $0x200
c0101287:	6a 00                	push   $0x0
c0101289:	50                   	push   %eax
c010128a:	e8 d6 3e 00 00       	call   c0105165 <memset>
c010128f:	83 c4 10             	add    $0x10,%esp
c0101292:	c7 45 d4 00 00 00 00 	movl   $0x0,-0x2c(%ebp)
c0101299:	8b 45 08             	mov    0x8(%ebp),%eax
c010129c:	8b 00                	mov    (%eax),%eax
c010129e:	c7 40 10 ff ff ff ff 	movl   $0xffffffff,0x10(%eax)
c01012a5:	8b 45 08             	mov    0x8(%ebp),%eax
c01012a8:	8b 00                	mov    (%eax),%eax
c01012aa:	c7 40 14 ff ff ff ff 	movl   $0xffffffff,0x14(%eax)
c01012b1:	8b 45 08             	mov    0x8(%ebp),%eax
c01012b4:	8b 40 04             	mov    0x4(%eax),%eax
c01012b7:	89 45 d0             	mov    %eax,-0x30(%ebp)
c01012ba:	8b 45 e4             	mov    -0x1c(%ebp),%eax
c01012bd:	c1 e0 05             	shl    $0x5,%eax
c01012c0:	01 45 d0             	add    %eax,-0x30(%ebp)
c01012c3:	8b 45 d0             	mov    -0x30(%ebp),%eax
c01012c6:	66 c7 00 05 00       	movw   $0x5,(%eax)
c01012cb:	80 7d bc 25          	cmpb   $0x25,-0x44(%ebp)
c01012cf:	75 13                	jne    c01012e4 <post_ata_command+0x101>
c01012d1:	8b 45 d0             	mov    -0x30(%ebp),%eax
c01012d4:	0f b7 00             	movzwl (%eax),%eax
c01012d7:	83 e0 bf             	and    $0xffffffbf,%eax
c01012da:	89 c2                	mov    %eax,%edx
c01012dc:	8b 45 d0             	mov    -0x30(%ebp),%eax
c01012df:	66 89 10             	mov    %dx,(%eax)
c01012e2:	eb 39                	jmp    c010131d <post_ata_command+0x13a>
c01012e4:	80 7d bc 35          	cmpb   $0x35,-0x44(%ebp)
c01012e8:	75 23                	jne    c010130d <post_ata_command+0x12a>
c01012ea:	83 ec 0c             	sub    $0xc,%esp
c01012ed:	68 1a a0 10 c0       	push   $0xc010a01a
c01012f2:	e8 3d 38 00 00       	call   c0104b34 <logf>
c01012f7:	83 c4 10             	add    $0x10,%esp
c01012fa:	8b 45 d0             	mov    -0x30(%ebp),%eax
c01012fd:	0f b7 00             	movzwl (%eax),%eax
c0101300:	83 c8 40             	or     $0x40,%eax
c0101303:	89 c2                	mov    %eax,%edx
c0101305:	8b 45 d0             	mov    -0x30(%ebp),%eax
c0101308:	66 89 10             	mov    %dx,(%eax)
c010130b:	eb 10                	jmp    c010131d <post_ata_command+0x13a>
c010130d:	83 ec 0c             	sub    $0xc,%esp
c0101310:	68 29 a0 10 c0       	push   $0xc010a029
c0101315:	e8 bd 3a 00 00       	call   c0104dd7 <panic>
c010131a:	83 c4 10             	add    $0x10,%esp
c010131d:	8b 45 14             	mov    0x14(%ebp),%eax
c0101320:	83 e8 01             	sub    $0x1,%eax
c0101323:	c1 e8 04             	shr    $0x4,%eax
c0101326:	8d 50 01             	lea    0x1(%eax),%edx
c0101329:	8b 45 d0             	mov    -0x30(%ebp),%eax
c010132c:	66 89 50 02          	mov    %dx,0x2(%eax)
c0101330:	8b 45 d0             	mov    -0x30(%ebp),%eax
c0101333:	c7 40 04 00 00 00 00 	movl   $0x0,0x4(%eax)
c010133a:	8b 45 d8             	mov    -0x28(%ebp),%eax
c010133d:	c6 00 27             	movb   $0x27,(%eax)
c0101340:	8b 45 d8             	mov    -0x28(%ebp),%eax
c0101343:	0f b6 55 bc          	movzbl -0x44(%ebp),%edx
c0101347:	88 50 02             	mov    %dl,0x2(%eax)
c010134a:	8b 45 d8             	mov    -0x28(%ebp),%eax
c010134d:	c6 40 07 40          	movb   $0x40,0x7(%eax)
c0101351:	8b 45 d8             	mov    -0x28(%ebp),%eax
c0101354:	c6 40 01 00          	movb   $0x0,0x1(%eax)
c0101358:	8b 45 d8             	mov    -0x28(%ebp),%eax
c010135b:	0f b6 40 01          	movzbl 0x1(%eax),%eax
c010135f:	83 c8 80             	or     $0xffffff80,%eax
c0101362:	89 c2                	mov    %eax,%edx
c0101364:	8b 45 d8             	mov    -0x28(%ebp),%eax
c0101367:	88 50 01             	mov    %dl,0x1(%eax)
c010136a:	8b 45 c0             	mov    -0x40(%ebp),%eax
c010136d:	89 c2                	mov    %eax,%edx
c010136f:	8b 45 d8             	mov    -0x28(%ebp),%eax
c0101372:	88 50 04             	mov    %dl,0x4(%eax)
c0101375:	8b 45 c0             	mov    -0x40(%ebp),%eax
c0101378:	8b 55 c4             	mov    -0x3c(%ebp),%edx
c010137b:	0f ac d0 08          	shrd   $0x8,%edx,%eax
c010137f:	c1 ea 08             	shr    $0x8,%edx
c0101382:	89 c2                	mov    %eax,%edx
c0101384:	8b 45 d8             	mov    -0x28(%ebp),%eax
c0101387:	88 50 05             	mov    %dl,0x5(%eax)
c010138a:	8b 45 c0             	mov    -0x40(%ebp),%eax
c010138d:	8b 55 c4             	mov    -0x3c(%ebp),%edx
c0101390:	0f ac d0 10          	shrd   $0x10,%edx,%eax
c0101394:	c1 ea 10             	shr    $0x10,%edx
c0101397:	89 c2                	mov    %eax,%edx
c0101399:	8b 45 d8             	mov    -0x28(%ebp),%eax
c010139c:	88 50 06             	mov    %dl,0x6(%eax)
c010139f:	8b 45 c0             	mov    -0x40(%ebp),%eax
c01013a2:	8b 55 c4             	mov    -0x3c(%ebp),%edx
c01013a5:	0f ac d0 18          	shrd   $0x18,%edx,%eax
c01013a9:	c1 ea 18             	shr    $0x18,%edx
c01013ac:	89 c2                	mov    %eax,%edx
c01013ae:	8b 45 d8             	mov    -0x28(%ebp),%eax
c01013b1:	88 50 08             	mov    %dl,0x8(%eax)
c01013b4:	8b 45 d8             	mov    -0x28(%ebp),%eax
c01013b7:	c6 40 09 00          	movb   $0x0,0x9(%eax)
c01013bb:	8b 45 d8             	mov    -0x28(%ebp),%eax
c01013be:	c6 40 0a 00          	movb   $0x0,0xa(%eax)
c01013c2:	8b 45 14             	mov    0x14(%ebp),%eax
c01013c5:	89 c2                	mov    %eax,%edx
c01013c7:	8b 45 d8             	mov    -0x28(%ebp),%eax
c01013ca:	88 50 0c             	mov    %dl,0xc(%eax)
c01013cd:	8b 45 d8             	mov    -0x28(%ebp),%eax
c01013d0:	c6 40 0d 00          	movb   $0x0,0xd(%eax)
c01013d4:	c7 45 ec 00 00 00 00 	movl   $0x0,-0x14(%ebp)
c01013db:	eb 5f                	jmp    c010143c <post_ata_command+0x259>
c01013dd:	8b 45 f0             	mov    -0x10(%ebp),%eax
c01013e0:	8b 55 dc             	mov    -0x24(%ebp),%edx
c01013e3:	8b 4d ec             	mov    -0x14(%ebp),%ecx
c01013e6:	83 c1 08             	add    $0x8,%ecx
c01013e9:	c1 e1 04             	shl    $0x4,%ecx
c01013ec:	01 ca                	add    %ecx,%edx
c01013ee:	89 02                	mov    %eax,(%edx)
c01013f0:	8b 45 f0             	mov    -0x10(%ebp),%eax
c01013f3:	8b 55 f4             	mov    -0xc(%ebp),%edx
c01013f6:	0f ac d0 1f          	shrd   $0x1f,%edx,%eax
c01013fa:	c1 ea 1f             	shr    $0x1f,%edx
c01013fd:	89 c1                	mov    %eax,%ecx
c01013ff:	8b 45 dc             	mov    -0x24(%ebp),%eax
c0101402:	8b 55 ec             	mov    -0x14(%ebp),%edx
c0101405:	83 c2 08             	add    $0x8,%edx
c0101408:	c1 e2 04             	shl    $0x4,%edx
c010140b:	01 d0                	add    %edx,%eax
c010140d:	83 c0 04             	add    $0x4,%eax
c0101410:	89 08                	mov    %ecx,(%eax)
c0101412:	8b 45 dc             	mov    -0x24(%ebp),%eax
c0101415:	8b 55 ec             	mov    -0x14(%ebp),%edx
c0101418:	83 c2 08             	add    $0x8,%edx
c010141b:	c1 e2 04             	shl    $0x4,%edx
c010141e:	01 d0                	add    %edx,%eax
c0101420:	83 c0 0c             	add    $0xc,%eax
c0101423:	c7 00 ff 1f 00 00    	movl   $0x1fff,(%eax)
c0101429:	81 45 f0 00 10 00 00 	addl   $0x1000,-0x10(%ebp)
c0101430:	83 55 f4 00          	adcl   $0x0,-0xc(%ebp)
c0101434:	83 6d 14 10          	subl   $0x10,0x14(%ebp)
c0101438:	83 45 ec 01          	addl   $0x1,-0x14(%ebp)
c010143c:	8b 45 d0             	mov    -0x30(%ebp),%eax
c010143f:	0f b7 40 02          	movzwl 0x2(%eax),%eax
c0101443:	0f b7 c0             	movzwl %ax,%eax
c0101446:	39 45 ec             	cmp    %eax,-0x14(%ebp)
c0101449:	7c 92                	jl     c01013dd <post_ata_command+0x1fa>
c010144b:	8b 45 ec             	mov    -0x14(%ebp),%eax
c010144e:	8d 50 ff             	lea    -0x1(%eax),%edx
c0101451:	8b 45 dc             	mov    -0x24(%ebp),%eax
c0101454:	83 c2 08             	add    $0x8,%edx
c0101457:	c1 e2 04             	shl    $0x4,%edx
c010145a:	01 d0                	add    %edx,%eax
c010145c:	83 c0 0c             	add    $0xc,%eax
c010145f:	c7 00 00 08 00 80    	movl   $0x80000800,(%eax)
c0101465:	8b 45 dc             	mov    -0x24(%ebp),%eax
c0101468:	8b 80 80 00 00 00    	mov    0x80(%eax),%eax
c010146e:	83 ec 08             	sub    $0x8,%esp
c0101471:	50                   	push   %eax
c0101472:	68 40 a0 10 c0       	push   $0xc010a040
c0101477:	e8 b8 36 00 00       	call   c0104b34 <logf>
c010147c:	83 c4 10             	add    $0x10,%esp
c010147f:	8b 45 08             	mov    0x8(%ebp),%eax
c0101482:	8b 00                	mov    (%eax),%eax
c0101484:	8b 50 38             	mov    0x38(%eax),%edx
c0101487:	8b 45 08             	mov    0x8(%ebp),%eax
c010148a:	8b 00                	mov    (%eax),%eax
c010148c:	83 ca 01             	or     $0x1,%edx
c010148f:	89 50 38             	mov    %edx,0x38(%eax)
c0101492:	c7 45 e8 00 00 00 00 	movl   $0x0,-0x18(%ebp)
c0101499:	eb 04                	jmp    c010149f <post_ata_command+0x2bc>
c010149b:	83 45 e8 01          	addl   $0x1,-0x18(%ebp)
c010149f:	81 7d e8 7f 96 98 00 	cmpl   $0x98967f,-0x18(%ebp)
c01014a6:	7f 1c                	jg     c01014c4 <post_ata_command+0x2e1>
c01014a8:	8b 45 08             	mov    0x8(%ebp),%eax
c01014ab:	8b 00                	mov    (%eax),%eax
c01014ad:	8b 50 38             	mov    0x38(%eax),%edx
c01014b0:	8b 45 e4             	mov    -0x1c(%ebp),%eax
c01014b3:	bb 01 00 00 00       	mov    $0x1,%ebx
c01014b8:	89 c1                	mov    %eax,%ecx
c01014ba:	d3 e3                	shl    %cl,%ebx
c01014bc:	89 d8                	mov    %ebx,%eax
c01014be:	21 d0                	and    %edx,%eax
c01014c0:	85 c0                	test   %eax,%eax
c01014c2:	75 d7                	jne    c010149b <post_ata_command+0x2b8>
c01014c4:	81 7d e8 80 96 98 00 	cmpl   $0x989680,-0x18(%ebp)
c01014cb:	75 11                	jne    c01014de <post_ata_command+0x2fb>
c01014cd:	83 ec 0c             	sub    $0xc,%esp
c01014d0:	68 56 a0 10 c0       	push   $0xc010a056
c01014d5:	e8 fd 38 00 00       	call   c0104dd7 <panic>
c01014da:	83 c4 10             	add    $0x10,%esp
c01014dd:	90                   	nop
c01014de:	8b 5d fc             	mov    -0x4(%ebp),%ebx
c01014e1:	c9                   	leave
c01014e2:	c3                   	ret

c01014e3 <init_ahci_cmd_port>:
c01014e3:	55                   	push   %ebp
c01014e4:	89 e5                	mov    %esp,%ebp
c01014e6:	83 ec 38             	sub    $0x38,%esp
c01014e9:	c7 45 ec 00 00 00 00 	movl   $0x0,-0x14(%ebp)
c01014f0:	c7 45 f4 00 00 00 00 	movl   $0x0,-0xc(%ebp)
c01014f7:	e9 5b 01 00 00       	jmp    c0101657 <init_ahci_cmd_port+0x174>
c01014fc:	8b 55 f4             	mov    -0xc(%ebp),%edx
c01014ff:	a1 08 00 11 c0       	mov    0xc0110008,%eax
c0101504:	83 ec 08             	sub    $0x8,%esp
c0101507:	52                   	push   %edx
c0101508:	50                   	push   %eax
c0101509:	e8 77 7c 00 00       	call   c0109185 <al_get>
c010150e:	83 c4 10             	add    $0x10,%esp
c0101511:	89 45 ec             	mov    %eax,-0x14(%ebp)
c0101514:	8b 45 ec             	mov    -0x14(%ebp),%eax
c0101517:	8b 00                	mov    (%eax),%eax
c0101519:	83 ec 0c             	sub    $0xc,%esp
c010151c:	50                   	push   %eax
c010151d:	e8 75 fc ff ff       	call   c0101197 <stop_commands>
c0101522:	83 c4 10             	add    $0x10,%esp
c0101525:	6a 00                	push   $0x0
c0101527:	6a 00                	push   $0x0
c0101529:	6a 03                	push   $0x3
c010152b:	68 00 30 00 00       	push   $0x3000
c0101530:	e8 a9 10 00 00       	call   c01025de <pae_kalloc>
c0101535:	83 c4 10             	add    $0x10,%esp
c0101538:	89 45 e8             	mov    %eax,-0x18(%ebp)
c010153b:	8b 45 e8             	mov    -0x18(%ebp),%eax
c010153e:	05 00 10 00 00       	add    $0x1000,%eax
c0101543:	89 45 e4             	mov    %eax,-0x1c(%ebp)
c0101546:	83 ec 0c             	sub    $0xc,%esp
c0101549:	ff 75 e4             	push   -0x1c(%ebp)
c010154c:	e8 bf 26 00 00       	call   c0103c10 <get_phys_from_virt>
c0101551:	83 c4 10             	add    $0x10,%esp
c0101554:	89 45 d8             	mov    %eax,-0x28(%ebp)
c0101557:	89 55 dc             	mov    %edx,-0x24(%ebp)
c010155a:	83 ec 0c             	sub    $0xc,%esp
c010155d:	ff 75 e8             	push   -0x18(%ebp)
c0101560:	e8 ab 26 00 00       	call   c0103c10 <get_phys_from_virt>
c0101565:	83 c4 10             	add    $0x10,%esp
c0101568:	89 45 d0             	mov    %eax,-0x30(%ebp)
c010156b:	89 55 d4             	mov    %edx,-0x2c(%ebp)
c010156e:	8b 45 ec             	mov    -0x14(%ebp),%eax
c0101571:	8b 00                	mov    (%eax),%eax
c0101573:	8b 55 d0             	mov    -0x30(%ebp),%edx
c0101576:	89 10                	mov    %edx,(%eax)
c0101578:	8b 55 e8             	mov    -0x18(%ebp),%edx
c010157b:	8b 45 ec             	mov    -0x14(%ebp),%eax
c010157e:	89 50 04             	mov    %edx,0x4(%eax)
c0101581:	8b 55 e4             	mov    -0x1c(%ebp),%edx
c0101584:	8b 45 ec             	mov    -0x14(%ebp),%eax
c0101587:	89 50 08             	mov    %edx,0x8(%eax)
c010158a:	83 ec 04             	sub    $0x4,%esp
c010158d:	68 00 04 00 00       	push   $0x400
c0101592:	6a 00                	push   $0x0
c0101594:	ff 75 e8             	push   -0x18(%ebp)
c0101597:	e8 c9 3b 00 00       	call   c0105165 <memset>
c010159c:	83 c4 10             	add    $0x10,%esp
c010159f:	8b 55 d0             	mov    -0x30(%ebp),%edx
c01015a2:	8b 45 ec             	mov    -0x14(%ebp),%eax
c01015a5:	8b 00                	mov    (%eax),%eax
c01015a7:	81 c2 00 04 00 00    	add    $0x400,%edx
c01015ad:	89 50 08             	mov    %edx,0x8(%eax)
c01015b0:	8b 45 e8             	mov    -0x18(%ebp),%eax
c01015b3:	05 00 04 00 00       	add    $0x400,%eax
c01015b8:	89 c2                	mov    %eax,%edx
c01015ba:	8b 45 ec             	mov    -0x14(%ebp),%eax
c01015bd:	89 50 0c             	mov    %edx,0xc(%eax)
c01015c0:	8b 45 e8             	mov    -0x18(%ebp),%eax
c01015c3:	05 00 04 00 00       	add    $0x400,%eax
c01015c8:	83 ec 04             	sub    $0x4,%esp
c01015cb:	68 00 01 00 00       	push   $0x100
c01015d0:	6a 00                	push   $0x0
c01015d2:	50                   	push   %eax
c01015d3:	e8 8d 3b 00 00       	call   c0105165 <memset>
c01015d8:	83 c4 10             	add    $0x10,%esp
c01015db:	c7 45 f0 00 00 00 00 	movl   $0x0,-0x10(%ebp)
c01015e2:	eb 58                	jmp    c010163c <init_ahci_cmd_port+0x159>
c01015e4:	8b 45 f0             	mov    -0x10(%ebp),%eax
c01015e7:	c1 e0 05             	shl    $0x5,%eax
c01015ea:	89 c2                	mov    %eax,%edx
c01015ec:	8b 45 e8             	mov    -0x18(%ebp),%eax
c01015ef:	01 d0                	add    %edx,%eax
c01015f1:	89 45 cc             	mov    %eax,-0x34(%ebp)
c01015f4:	8b 45 cc             	mov    -0x34(%ebp),%eax
c01015f7:	66 c7 40 02 08 00    	movw   $0x8,0x2(%eax)
c01015fd:	8b 45 d8             	mov    -0x28(%ebp),%eax
c0101600:	8b 55 f0             	mov    -0x10(%ebp),%edx
c0101603:	c1 e2 08             	shl    $0x8,%edx
c0101606:	01 c2                	add    %eax,%edx
c0101608:	8b 45 cc             	mov    -0x34(%ebp),%eax
c010160b:	89 50 08             	mov    %edx,0x8(%eax)
c010160e:	8b 45 cc             	mov    -0x34(%ebp),%eax
c0101611:	c7 40 0c 00 00 00 00 	movl   $0x0,0xc(%eax)
c0101618:	8b 45 f0             	mov    -0x10(%ebp),%eax
c010161b:	c1 e0 08             	shl    $0x8,%eax
c010161e:	89 c2                	mov    %eax,%edx
c0101620:	8b 45 e4             	mov    -0x1c(%ebp),%eax
c0101623:	01 d0                	add    %edx,%eax
c0101625:	83 ec 04             	sub    $0x4,%esp
c0101628:	68 00 01 00 00       	push   $0x100
c010162d:	6a 00                	push   $0x0
c010162f:	50                   	push   %eax
c0101630:	e8 30 3b 00 00       	call   c0105165 <memset>
c0101635:	83 c4 10             	add    $0x10,%esp
c0101638:	83 45 f0 01          	addl   $0x1,-0x10(%ebp)
c010163c:	83 7d f0 1f          	cmpl   $0x1f,-0x10(%ebp)
c0101640:	7e a2                	jle    c01015e4 <init_ahci_cmd_port+0x101>
c0101642:	8b 45 ec             	mov    -0x14(%ebp),%eax
c0101645:	8b 00                	mov    (%eax),%eax
c0101647:	83 ec 0c             	sub    $0xc,%esp
c010164a:	50                   	push   %eax
c010164b:	e8 0f fb ff ff       	call   c010115f <start_commands>
c0101650:	83 c4 10             	add    $0x10,%esp
c0101653:	83 45 f4 01          	addl   $0x1,-0xc(%ebp)
c0101657:	a1 08 00 11 c0       	mov    0xc0110008,%eax
c010165c:	0f b7 40 04          	movzwl 0x4(%eax),%eax
c0101660:	0f b7 c0             	movzwl %ax,%eax
c0101663:	39 45 f4             	cmp    %eax,-0xc(%ebp)
c0101666:	0f 8c 90 fe ff ff    	jl     c01014fc <init_ahci_cmd_port+0x19>
c010166c:	90                   	nop
c010166d:	90                   	nop
c010166e:	c9                   	leave
c010166f:	c3                   	ret

c0101670 <handle_ahci_interrupt>:
c0101670:	55                   	push   %ebp
c0101671:	89 e5                	mov    %esp,%ebp
c0101673:	83 ec 18             	sub    $0x18,%esp
c0101676:	a1 08 00 11 c0       	mov    0xc0110008,%eax
c010167b:	83 ec 08             	sub    $0x8,%esp
c010167e:	6a 00                	push   $0x0
c0101680:	50                   	push   %eax
c0101681:	e8 ff 7a 00 00       	call   c0109185 <al_get>
c0101686:	83 c4 10             	add    $0x10,%esp
c0101689:	89 45 f4             	mov    %eax,-0xc(%ebp)
c010168c:	8b 45 f4             	mov    -0xc(%ebp),%eax
c010168f:	8b 00                	mov    (%eax),%eax
c0101691:	89 45 f0             	mov    %eax,-0x10(%ebp)
c0101694:	8b 45 f0             	mov    -0x10(%ebp),%eax
c0101697:	8b 40 10             	mov    0x10(%eax),%eax
c010169a:	83 ec 08             	sub    $0x8,%esp
c010169d:	50                   	push   %eax
c010169e:	68 6a a0 10 c0       	push   $0xc010a06a
c01016a3:	e8 8c 34 00 00       	call   c0104b34 <logf>
c01016a8:	83 c4 10             	add    $0x10,%esp
c01016ab:	8b 45 f0             	mov    -0x10(%ebp),%eax
c01016ae:	8b 40 30             	mov    0x30(%eax),%eax
c01016b1:	83 ec 08             	sub    $0x8,%esp
c01016b4:	50                   	push   %eax
c01016b5:	68 79 a0 10 c0       	push   $0xc010a079
c01016ba:	e8 75 34 00 00       	call   c0104b34 <logf>
c01016bf:	83 c4 10             	add    $0x10,%esp
c01016c2:	90                   	nop
c01016c3:	c9                   	leave
c01016c4:	c3                   	ret

c01016c5 <probe_ports>:
c01016c5:	55                   	push   %ebp
c01016c6:	89 e5                	mov    %esp,%ebp
c01016c8:	57                   	push   %edi
c01016c9:	56                   	push   %esi
c01016ca:	53                   	push   %ebx
c01016cb:	83 ec 6c             	sub    $0x6c,%esp
c01016ce:	8b 45 08             	mov    0x8(%ebp),%eax
c01016d1:	8b 40 0c             	mov    0xc(%eax),%eax
c01016d4:	89 45 e4             	mov    %eax,-0x1c(%ebp)
c01016d7:	c7 45 dc 00 00 00 00 	movl   $0x0,-0x24(%ebp)
c01016de:	c6 45 e3 00          	movb   $0x0,-0x1d(%ebp)
c01016e2:	e9 b1 00 00 00       	jmp    c0101798 <probe_ports+0xd3>
c01016e7:	8b 45 e4             	mov    -0x1c(%ebp),%eax
c01016ea:	83 e0 01             	and    $0x1,%eax
c01016ed:	85 c0                	test   %eax,%eax
c01016ef:	0f 84 96 00 00 00    	je     c010178b <probe_ports+0xc6>
c01016f5:	0f b6 45 e3          	movzbl -0x1d(%ebp),%eax
c01016f9:	6b c0 64             	imul   $0x64,%eax,%eax
c01016fc:	8d 90 00 01 00 00    	lea    0x100(%eax),%edx
c0101702:	8b 45 08             	mov    0x8(%ebp),%eax
c0101705:	01 d0                	add    %edx,%eax
c0101707:	89 45 dc             	mov    %eax,-0x24(%ebp)
c010170a:	ff 75 dc             	push   -0x24(%ebp)
c010170d:	e8 ba f9 ff ff       	call   c01010cc <check_device>
c0101712:	83 c4 04             	add    $0x4,%esp
c0101715:	83 f8 01             	cmp    $0x1,%eax
c0101718:	75 52                	jne    c010176c <probe_ports+0xa7>
c010171a:	8d 55 8c             	lea    -0x74(%ebp),%edx
c010171d:	b8 00 00 00 00       	mov    $0x0,%eax
c0101722:	b9 14 00 00 00       	mov    $0x14,%ecx
c0101727:	89 d7                	mov    %edx,%edi
c0101729:	f3 ab                	rep stos %eax,%es:(%edi)
c010172b:	8b 45 dc             	mov    -0x24(%ebp),%eax
c010172e:	89 45 8c             	mov    %eax,-0x74(%ebp)
c0101731:	83 ec 08             	sub    $0x8,%esp
c0101734:	8d 45 8c             	lea    -0x74(%ebp),%eax
c0101737:	50                   	push   %eax
c0101738:	68 08 00 11 c0       	push   $0xc0110008
c010173d:	e8 82 79 00 00       	call   c01090c4 <al_add_item>
c0101742:	83 c4 10             	add    $0x10,%esp
c0101745:	83 ec 0c             	sub    $0xc,%esp
c0101748:	83 ec 50             	sub    $0x50,%esp
c010174b:	89 e0                	mov    %esp,%eax
c010174d:	89 c3                	mov    %eax,%ebx
c010174f:	8d 45 8c             	lea    -0x74(%ebp),%eax
c0101752:	ba 14 00 00 00       	mov    $0x14,%edx
c0101757:	89 df                	mov    %ebx,%edi
c0101759:	89 c6                	mov    %eax,%esi
c010175b:	89 d1                	mov    %edx,%ecx
c010175d:	f3 a5                	rep movsl %ds:(%esi),%es:(%edi)
c010175f:	68 89 a0 10 c0       	push   $0xc010a089
c0101764:	e8 cb 33 00 00       	call   c0104b34 <logf>
c0101769:	83 c4 60             	add    $0x60,%esp
c010176c:	83 ec 0c             	sub    $0xc,%esp
c010176f:	ff 75 dc             	push   -0x24(%ebp)
c0101772:	e8 55 f9 ff ff       	call   c01010cc <check_device>
c0101777:	83 c4 10             	add    $0x10,%esp
c010177a:	83 ec 08             	sub    $0x8,%esp
c010177d:	50                   	push   %eax
c010177e:	68 92 a0 10 c0       	push   $0xc010a092
c0101783:	e8 ac 33 00 00       	call   c0104b34 <logf>
c0101788:	83 c4 10             	add    $0x10,%esp
c010178b:	d1 6d e4             	shrl   $1,-0x1c(%ebp)
c010178e:	0f b6 45 e3          	movzbl -0x1d(%ebp),%eax
c0101792:	83 c0 01             	add    $0x1,%eax
c0101795:	88 45 e3             	mov    %al,-0x1d(%ebp)
c0101798:	83 7d e4 00          	cmpl   $0x0,-0x1c(%ebp)
c010179c:	0f 85 45 ff ff ff    	jne    c01016e7 <probe_ports+0x22>
c01017a2:	90                   	nop
c01017a3:	90                   	nop
c01017a4:	8d 65 f4             	lea    -0xc(%ebp),%esp
c01017a7:	5b                   	pop    %ebx
c01017a8:	5e                   	pop    %esi
c01017a9:	5f                   	pop    %edi
c01017aa:	5d                   	pop    %ebp
c01017ab:	c3                   	ret

c01017ac <reset_port>:
c01017ac:	55                   	push   %ebp
c01017ad:	89 e5                	mov    %esp,%ebp
c01017af:	83 ec 20             	sub    $0x20,%esp
c01017b2:	8b 45 08             	mov    0x8(%ebp),%eax
c01017b5:	8b 00                	mov    (%eax),%eax
c01017b7:	89 45 fc             	mov    %eax,-0x4(%ebp)
c01017ba:	8b 45 08             	mov    0x8(%ebp),%eax
c01017bd:	8b 40 04             	mov    0x4(%eax),%eax
c01017c0:	89 45 f8             	mov    %eax,-0x8(%ebp)
c01017c3:	8b 45 08             	mov    0x8(%ebp),%eax
c01017c6:	8b 40 08             	mov    0x8(%eax),%eax
c01017c9:	89 45 f4             	mov    %eax,-0xc(%ebp)
c01017cc:	8b 45 f4             	mov    -0xc(%ebp),%eax
c01017cf:	89 45 f0             	mov    %eax,-0x10(%ebp)
c01017d2:	8b 45 f8             	mov    -0x8(%ebp),%eax
c01017d5:	66 c7 00 05 00       	movw   $0x5,(%eax)
c01017da:	8b 45 f8             	mov    -0x8(%ebp),%eax
c01017dd:	0f b7 00             	movzwl (%eax),%eax
c01017e0:	80 cc 04             	or     $0x4,%ah
c01017e3:	89 c2                	mov    %eax,%edx
c01017e5:	8b 45 f8             	mov    -0x8(%ebp),%eax
c01017e8:	66 89 10             	mov    %dx,(%eax)
c01017eb:	8b 45 f8             	mov    -0x8(%ebp),%eax
c01017ee:	0f b7 00             	movzwl (%eax),%eax
c01017f1:	80 cc 01             	or     $0x1,%ah
c01017f4:	89 c2                	mov    %eax,%edx
c01017f6:	8b 45 f8             	mov    -0x8(%ebp),%eax
c01017f9:	66 89 10             	mov    %dx,(%eax)
c01017fc:	8b 45 f8             	mov    -0x8(%ebp),%eax
c01017ff:	66 c7 40 02 00 00    	movw   $0x0,0x2(%eax)
c0101805:	8b 45 08             	mov    0x8(%ebp),%eax
c0101808:	8b 40 04             	mov    0x4(%eax),%eax
c010180b:	83 c0 20             	add    $0x20,%eax
c010180e:	89 45 ec             	mov    %eax,-0x14(%ebp)
c0101811:	8b 45 08             	mov    0x8(%ebp),%eax
c0101814:	8b 40 08             	mov    0x8(%eax),%eax
c0101817:	05 00 01 00 00       	add    $0x100,%eax
c010181c:	89 45 e8             	mov    %eax,-0x18(%ebp)
c010181f:	8b 45 e8             	mov    -0x18(%ebp),%eax
c0101822:	89 45 e4             	mov    %eax,-0x1c(%ebp)
c0101825:	90                   	nop
c0101826:	c9                   	leave
c0101827:	c3                   	ret

c0101828 <read_identify>:
c0101828:	55                   	push   %ebp
c0101829:	89 e5                	mov    %esp,%ebp
c010182b:	53                   	push   %ebx
c010182c:	83 ec 24             	sub    $0x24,%esp
c010182f:	8b 45 08             	mov    0x8(%ebp),%eax
c0101832:	0f b7 10             	movzwl (%eax),%edx
c0101835:	8b 45 0c             	mov    0xc(%ebp),%eax
c0101838:	66 89 50 10          	mov    %dx,0x10(%eax)
c010183c:	8b 45 08             	mov    0x8(%ebp),%eax
c010183f:	0f b7 50 62          	movzwl 0x62(%eax),%edx
c0101843:	8b 45 0c             	mov    0xc(%ebp),%eax
c0101846:	66 89 50 12          	mov    %dx,0x12(%eax)
c010184a:	8b 45 08             	mov    0x8(%ebp),%eax
c010184d:	05 a4 00 00 00       	add    $0xa4,%eax
c0101852:	0f b7 00             	movzwl (%eax),%eax
c0101855:	0f b7 d0             	movzwl %ax,%edx
c0101858:	8b 45 0c             	mov    0xc(%ebp),%eax
c010185b:	89 50 14             	mov    %edx,0x14(%eax)
c010185e:	8b 45 0c             	mov    0xc(%ebp),%eax
c0101861:	8b 40 14             	mov    0x14(%eax),%eax
c0101864:	8b 55 08             	mov    0x8(%ebp),%edx
c0101867:	81 c2 a6 00 00 00    	add    $0xa6,%edx
c010186d:	0f b7 12             	movzwl (%edx),%edx
c0101870:	0f b7 d2             	movzwl %dx,%edx
c0101873:	c1 e2 10             	shl    $0x10,%edx
c0101876:	09 c2                	or     %eax,%edx
c0101878:	8b 45 0c             	mov    0xc(%ebp),%eax
c010187b:	89 50 14             	mov    %edx,0x14(%eax)
c010187e:	8b 45 0c             	mov    0xc(%ebp),%eax
c0101881:	8b 40 14             	mov    0x14(%eax),%eax
c0101884:	25 00 00 00 04       	and    $0x4000000,%eax
c0101889:	85 c0                	test   %eax,%eax
c010188b:	74 7a                	je     c0101907 <read_identify+0xdf>
c010188d:	83 ec 0c             	sub    $0xc,%esp
c0101890:	68 a6 a0 10 c0       	push   $0xc010a0a6
c0101895:	e8 9a 32 00 00       	call   c0104b34 <logf>
c010189a:	83 c4 10             	add    $0x10,%esp
c010189d:	8b 45 08             	mov    0x8(%ebp),%eax
c01018a0:	05 c8 00 00 00       	add    $0xc8,%eax
c01018a5:	0f b7 08             	movzwl (%eax),%ecx
c01018a8:	0f b7 c1             	movzwl %cx,%eax
c01018ab:	ba 00 00 00 00       	mov    $0x0,%edx
c01018b0:	8b 4d 0c             	mov    0xc(%ebp),%ecx
c01018b3:	89 41 1c             	mov    %eax,0x1c(%ecx)
c01018b6:	89 51 20             	mov    %edx,0x20(%ecx)
c01018b9:	8b 45 0c             	mov    0xc(%ebp),%eax
c01018bc:	8b 48 1c             	mov    0x1c(%eax),%ecx
c01018bf:	8b 58 20             	mov    0x20(%eax),%ebx
c01018c2:	8b 45 08             	mov    0x8(%ebp),%eax
c01018c5:	05 ca 00 00 00       	add    $0xca,%eax
c01018ca:	0f b7 00             	movzwl (%eax),%eax
c01018cd:	0f b7 c0             	movzwl %ax,%eax
c01018d0:	c1 e0 10             	shl    $0x10,%eax
c01018d3:	99                   	cltd
c01018d4:	09 c8                	or     %ecx,%eax
c01018d6:	09 da                	or     %ebx,%edx
c01018d8:	8b 4d 0c             	mov    0xc(%ebp),%ecx
c01018db:	89 41 1c             	mov    %eax,0x1c(%ecx)
c01018de:	89 51 20             	mov    %edx,0x20(%ecx)
c01018e1:	8b 45 0c             	mov    0xc(%ebp),%eax
c01018e4:	8b 50 20             	mov    0x20(%eax),%edx
c01018e7:	8b 40 1c             	mov    0x1c(%eax),%eax
c01018ea:	8b 4d 0c             	mov    0xc(%ebp),%ecx
c01018ed:	89 41 1c             	mov    %eax,0x1c(%ecx)
c01018f0:	89 51 20             	mov    %edx,0x20(%ecx)
c01018f3:	8b 45 0c             	mov    0xc(%ebp),%eax
c01018f6:	8b 50 20             	mov    0x20(%eax),%edx
c01018f9:	8b 40 1c             	mov    0x1c(%eax),%eax
c01018fc:	8b 4d 0c             	mov    0xc(%ebp),%ecx
c01018ff:	89 41 1c             	mov    %eax,0x1c(%ecx)
c0101902:	89 51 20             	mov    %edx,0x20(%ecx)
c0101905:	eb 40                	jmp    c0101947 <read_identify+0x11f>
c0101907:	8b 45 08             	mov    0x8(%ebp),%eax
c010190a:	83 c0 78             	add    $0x78,%eax
c010190d:	0f b7 08             	movzwl (%eax),%ecx
c0101910:	0f b7 c1             	movzwl %cx,%eax
c0101913:	ba 00 00 00 00       	mov    $0x0,%edx
c0101918:	8b 4d 0c             	mov    0xc(%ebp),%ecx
c010191b:	89 41 1c             	mov    %eax,0x1c(%ecx)
c010191e:	89 51 20             	mov    %edx,0x20(%ecx)
c0101921:	8b 45 0c             	mov    0xc(%ebp),%eax
c0101924:	8b 48 1c             	mov    0x1c(%eax),%ecx
c0101927:	8b 58 20             	mov    0x20(%eax),%ebx
c010192a:	8b 45 08             	mov    0x8(%ebp),%eax
c010192d:	83 c0 7a             	add    $0x7a,%eax
c0101930:	0f b7 00             	movzwl (%eax),%eax
c0101933:	0f b7 c0             	movzwl %ax,%eax
c0101936:	c1 e0 10             	shl    $0x10,%eax
c0101939:	99                   	cltd
c010193a:	09 c8                	or     %ecx,%eax
c010193c:	09 da                	or     %ebx,%edx
c010193e:	8b 4d 0c             	mov    0xc(%ebp),%ecx
c0101941:	89 41 1c             	mov    %eax,0x1c(%ecx)
c0101944:	89 51 20             	mov    %edx,0x20(%ecx)
c0101947:	8b 45 08             	mov    0x8(%ebp),%eax
c010194a:	05 d4 00 00 00       	add    $0xd4,%eax
c010194f:	0f b7 00             	movzwl (%eax),%eax
c0101952:	0f b7 c0             	movzwl %ax,%eax
c0101955:	25 00 10 00 00       	and    $0x1000,%eax
c010195a:	85 c0                	test   %eax,%eax
c010195c:	74 36                	je     c0101994 <read_identify+0x16c>
c010195e:	8b 45 08             	mov    0x8(%ebp),%eax
c0101961:	05 ea 00 00 00       	add    $0xea,%eax
c0101966:	0f b7 00             	movzwl (%eax),%eax
c0101969:	0f b7 d0             	movzwl %ax,%edx
c010196c:	8b 45 0c             	mov    0xc(%ebp),%eax
c010196f:	89 50 18             	mov    %edx,0x18(%eax)
c0101972:	8b 45 0c             	mov    0xc(%ebp),%eax
c0101975:	8b 40 18             	mov    0x18(%eax),%eax
c0101978:	8b 55 08             	mov    0x8(%ebp),%edx
c010197b:	81 c2 ec 00 00 00    	add    $0xec,%edx
c0101981:	0f b7 12             	movzwl (%edx),%edx
c0101984:	0f b7 d2             	movzwl %dx,%edx
c0101987:	c1 e2 10             	shl    $0x10,%edx
c010198a:	09 c2                	or     %eax,%edx
c010198c:	8b 45 0c             	mov    0xc(%ebp),%eax
c010198f:	89 50 18             	mov    %edx,0x18(%eax)
c0101992:	eb 0a                	jmp    c010199e <read_identify+0x176>
c0101994:	8b 45 0c             	mov    0xc(%ebp),%eax
c0101997:	c7 40 18 00 01 00 00 	movl   $0x100,0x18(%eax)
c010199e:	83 ec 0c             	sub    $0xc,%esp
c01019a1:	ff 75 0c             	push   0xc(%ebp)
c01019a4:	e8 b8 f6 ff ff       	call   c0101061 <ata_disk_size>
c01019a9:	83 c4 10             	add    $0x10,%esp
c01019ac:	89 45 e8             	mov    %eax,-0x18(%ebp)
c01019af:	c7 45 ec 00 00 00 00 	movl   $0x0,-0x14(%ebp)
c01019b6:	c7 45 f4 00 00 00 00 	movl   $0x0,-0xc(%ebp)
c01019bd:	eb 45                	jmp    c0101a04 <read_identify+0x1dc>
c01019bf:	8b 45 f4             	mov    -0xc(%ebp),%eax
c01019c2:	83 c0 1b             	add    $0x1b,%eax
c01019c5:	8d 14 00             	lea    (%eax,%eax,1),%edx
c01019c8:	8b 45 08             	mov    0x8(%ebp),%eax
c01019cb:	01 d0                	add    %edx,%eax
c01019cd:	0f b7 00             	movzwl (%eax),%eax
c01019d0:	66 89 45 e6          	mov    %ax,-0x1a(%ebp)
c01019d4:	0f b7 45 e6          	movzwl -0x1a(%ebp),%eax
c01019d8:	66 c1 e8 08          	shr    $0x8,%ax
c01019dc:	89 c1                	mov    %eax,%ecx
c01019de:	8b 45 f4             	mov    -0xc(%ebp),%eax
c01019e1:	8d 14 00             	lea    (%eax,%eax,1),%edx
c01019e4:	8b 45 0c             	mov    0xc(%ebp),%eax
c01019e7:	88 4c 10 24          	mov    %cl,0x24(%eax,%edx,1)
c01019eb:	8b 45 f4             	mov    -0xc(%ebp),%eax
c01019ee:	01 c0                	add    %eax,%eax
c01019f0:	8d 50 01             	lea    0x1(%eax),%edx
c01019f3:	0f b7 45 e6          	movzwl -0x1a(%ebp),%eax
c01019f7:	89 c1                	mov    %eax,%ecx
c01019f9:	8b 45 0c             	mov    0xc(%ebp),%eax
c01019fc:	88 4c 10 24          	mov    %cl,0x24(%eax,%edx,1)
c0101a00:	83 45 f4 01          	addl   $0x1,-0xc(%ebp)
c0101a04:	83 7d f4 13          	cmpl   $0x13,-0xc(%ebp)
c0101a08:	7e b5                	jle    c01019bf <read_identify+0x197>
c0101a0a:	8b 45 0c             	mov    0xc(%ebp),%eax
c0101a0d:	c6 40 4c 00          	movb   $0x0,0x4c(%eax)
c0101a11:	66 c7 45 f2 28 00    	movw   $0x28,-0xe(%ebp)
c0101a17:	eb 0b                	jmp    c0101a24 <read_identify+0x1fc>
c0101a19:	0f b7 45 f2          	movzwl -0xe(%ebp),%eax
c0101a1d:	83 e8 01             	sub    $0x1,%eax
c0101a20:	66 89 45 f2          	mov    %ax,-0xe(%ebp)
c0101a24:	66 83 7d f2 00       	cmpw   $0x0,-0xe(%ebp)
c0101a29:	74 13                	je     c0101a3e <read_identify+0x216>
c0101a2b:	0f b7 45 f2          	movzwl -0xe(%ebp),%eax
c0101a2f:	8d 50 ff             	lea    -0x1(%eax),%edx
c0101a32:	8b 45 0c             	mov    0xc(%ebp),%eax
c0101a35:	0f b6 44 10 24       	movzbl 0x24(%eax,%edx,1),%eax
c0101a3a:	3c 20                	cmp    $0x20,%al
c0101a3c:	74 db                	je     c0101a19 <read_identify+0x1f1>
c0101a3e:	0f b7 45 f2          	movzwl -0xe(%ebp),%eax
c0101a42:	8b 55 0c             	mov    0xc(%ebp),%edx
c0101a45:	c6 44 02 24 00       	movb   $0x0,0x24(%edx,%eax,1)
c0101a4a:	8b 45 e8             	mov    -0x18(%ebp),%eax
c0101a4d:	8b 55 ec             	mov    -0x14(%ebp),%edx
c0101a50:	0f ac d0 14          	shrd   $0x14,%edx,%eax
c0101a54:	c1 ea 14             	shr    $0x14,%edx
c0101a57:	8b 4d 0c             	mov    0xc(%ebp),%ecx
c0101a5a:	83 c1 24             	add    $0x24,%ecx
c0101a5d:	83 ec 08             	sub    $0x8,%esp
c0101a60:	52                   	push   %edx
c0101a61:	50                   	push   %eax
c0101a62:	ff 75 ec             	push   -0x14(%ebp)
c0101a65:	ff 75 e8             	push   -0x18(%ebp)
c0101a68:	51                   	push   %ecx
c0101a69:	68 c4 a0 10 c0       	push   $0xc010a0c4
c0101a6e:	e8 c1 30 00 00       	call   c0104b34 <logf>
c0101a73:	83 c4 20             	add    $0x20,%esp
c0101a76:	90                   	nop
c0101a77:	8b 5d fc             	mov    -0x4(%ebp),%ebx
c0101a7a:	c9                   	leave
c0101a7b:	c3                   	ret

c0101a7c <identify>:
c0101a7c:	55                   	push   %ebp
c0101a7d:	89 e5                	mov    %esp,%ebp
c0101a7f:	83 ec 38             	sub    $0x38,%esp
c0101a82:	e8 f1 07 00 00       	call   c0102278 <alloc_phys_page>
c0101a87:	89 45 e8             	mov    %eax,-0x18(%ebp)
c0101a8a:	89 55 ec             	mov    %edx,-0x14(%ebp)
c0101a8d:	ff 75 ec             	push   -0x14(%ebp)
c0101a90:	ff 75 e8             	push   -0x18(%ebp)
c0101a93:	6a 13                	push   $0x13
c0101a95:	68 00 10 00 00       	push   $0x1000
c0101a9a:	e8 3f 0b 00 00       	call   c01025de <pae_kalloc>
c0101a9f:	83 c4 10             	add    $0x10,%esp
c0101aa2:	89 45 e4             	mov    %eax,-0x1c(%ebp)
c0101aa5:	a1 08 00 11 c0       	mov    0xc0110008,%eax
c0101aaa:	83 ec 08             	sub    $0x8,%esp
c0101aad:	6a 00                	push   $0x0
c0101aaf:	50                   	push   %eax
c0101ab0:	e8 d0 76 00 00       	call   c0109185 <al_get>
c0101ab5:	83 c4 10             	add    $0x10,%esp
c0101ab8:	89 45 e0             	mov    %eax,-0x20(%ebp)
c0101abb:	8b 45 e0             	mov    -0x20(%ebp),%eax
c0101abe:	8b 00                	mov    (%eax),%eax
c0101ac0:	89 45 dc             	mov    %eax,-0x24(%ebp)
c0101ac3:	8b 45 dc             	mov    -0x24(%ebp),%eax
c0101ac6:	c7 40 14 ff ff ff ff 	movl   $0xffffffff,0x14(%eax)
c0101acd:	8b 45 e0             	mov    -0x20(%ebp),%eax
c0101ad0:	8b 40 08             	mov    0x8(%eax),%eax
c0101ad3:	89 45 d8             	mov    %eax,-0x28(%ebp)
c0101ad6:	8b 55 e8             	mov    -0x18(%ebp),%edx
c0101ad9:	8b 45 d8             	mov    -0x28(%ebp),%eax
c0101adc:	89 90 80 00 00 00    	mov    %edx,0x80(%eax)
c0101ae2:	8b 45 d8             	mov    -0x28(%ebp),%eax
c0101ae5:	c7 80 84 00 00 00 00 	movl   $0x0,0x84(%eax)
c0101aec:	00 00 00 
c0101aef:	8b 45 d8             	mov    -0x28(%ebp),%eax
c0101af2:	c7 80 8c 00 00 00 ff 	movl   $0x800001ff,0x8c(%eax)
c0101af9:	01 00 80 
c0101afc:	8b 45 e0             	mov    -0x20(%ebp),%eax
c0101aff:	8b 40 04             	mov    0x4(%eax),%eax
c0101b02:	89 45 d4             	mov    %eax,-0x2c(%ebp)
c0101b05:	83 ec 0c             	sub    $0xc,%esp
c0101b08:	ff 75 d4             	push   -0x2c(%ebp)
c0101b0b:	e8 00 21 00 00       	call   c0103c10 <get_phys_from_virt>
c0101b10:	83 c4 10             	add    $0x10,%esp
c0101b13:	83 ec 04             	sub    $0x4,%esp
c0101b16:	52                   	push   %edx
c0101b17:	50                   	push   %eax
c0101b18:	68 f2 a0 10 c0       	push   $0xc010a0f2
c0101b1d:	e8 12 30 00 00       	call   c0104b34 <logf>
c0101b22:	83 c4 10             	add    $0x10,%esp
c0101b25:	8b 45 d4             	mov    -0x2c(%ebp),%eax
c0101b28:	66 c7 00 05 00       	movw   $0x5,(%eax)
c0101b2d:	8b 45 d4             	mov    -0x2c(%ebp),%eax
c0101b30:	0f b7 00             	movzwl (%eax),%eax
c0101b33:	83 e0 bf             	and    $0xffffffbf,%eax
c0101b36:	89 c2                	mov    %eax,%edx
c0101b38:	8b 45 d4             	mov    -0x2c(%ebp),%eax
c0101b3b:	66 89 10             	mov    %dx,(%eax)
c0101b3e:	8b 45 d4             	mov    -0x2c(%ebp),%eax
c0101b41:	0f b7 00             	movzwl (%eax),%eax
c0101b44:	80 cc 04             	or     $0x4,%ah
c0101b47:	89 c2                	mov    %eax,%edx
c0101b49:	8b 45 d4             	mov    -0x2c(%ebp),%eax
c0101b4c:	66 89 10             	mov    %dx,(%eax)
c0101b4f:	8b 45 d4             	mov    -0x2c(%ebp),%eax
c0101b52:	66 c7 40 02 01 00    	movw   $0x1,0x2(%eax)
c0101b58:	8b 45 d8             	mov    -0x28(%ebp),%eax
c0101b5b:	89 45 d0             	mov    %eax,-0x30(%ebp)
c0101b5e:	8b 45 d0             	mov    -0x30(%ebp),%eax
c0101b61:	c6 00 27             	movb   $0x27,(%eax)
c0101b64:	8b 45 d0             	mov    -0x30(%ebp),%eax
c0101b67:	c6 40 02 ec          	movb   $0xec,0x2(%eax)
c0101b6b:	8b 45 d0             	mov    -0x30(%ebp),%eax
c0101b6e:	c6 40 07 00          	movb   $0x0,0x7(%eax)
c0101b72:	8b 45 d0             	mov    -0x30(%ebp),%eax
c0101b75:	0f b6 40 01          	movzbl 0x1(%eax),%eax
c0101b79:	83 c8 80             	or     $0xffffff80,%eax
c0101b7c:	89 c2                	mov    %eax,%edx
c0101b7e:	8b 45 d0             	mov    -0x30(%ebp),%eax
c0101b81:	88 50 01             	mov    %dl,0x1(%eax)
c0101b84:	8b 45 dc             	mov    -0x24(%ebp),%eax
c0101b87:	8b 40 38             	mov    0x38(%eax),%eax
c0101b8a:	83 c8 01             	or     $0x1,%eax
c0101b8d:	89 c2                	mov    %eax,%edx
c0101b8f:	8b 45 dc             	mov    -0x24(%ebp),%eax
c0101b92:	89 50 38             	mov    %edx,0x38(%eax)
c0101b95:	c7 45 f4 00 00 00 00 	movl   $0x0,-0xc(%ebp)
c0101b9c:	eb 04                	jmp    c0101ba2 <identify+0x126>
c0101b9e:	83 45 f4 01          	addl   $0x1,-0xc(%ebp)
c0101ba2:	81 7d f4 7f 96 98 00 	cmpl   $0x98967f,-0xc(%ebp)
c0101ba9:	7f 0d                	jg     c0101bb8 <identify+0x13c>
c0101bab:	8b 45 dc             	mov    -0x24(%ebp),%eax
c0101bae:	8b 40 38             	mov    0x38(%eax),%eax
c0101bb1:	83 e0 01             	and    $0x1,%eax
c0101bb4:	85 c0                	test   %eax,%eax
c0101bb6:	75 e6                	jne    c0101b9e <identify+0x122>
c0101bb8:	81 7d f4 80 96 98 00 	cmpl   $0x989680,-0xc(%ebp)
c0101bbf:	75 12                	jne    c0101bd3 <identify+0x157>
c0101bc1:	83 ec 0c             	sub    $0xc,%esp
c0101bc4:	68 56 a0 10 c0       	push   $0xc010a056
c0101bc9:	e8 09 32 00 00       	call   c0104dd7 <panic>
c0101bce:	83 c4 10             	add    $0x10,%esp
c0101bd1:	eb 1d                	jmp    c0101bf0 <identify+0x174>
c0101bd3:	8b 45 e0             	mov    -0x20(%ebp),%eax
c0101bd6:	8b 40 0c             	mov    0xc(%eax),%eax
c0101bd9:	83 c0 20             	add    $0x20,%eax
c0101bdc:	89 45 cc             	mov    %eax,-0x34(%ebp)
c0101bdf:	83 ec 08             	sub    $0x8,%esp
c0101be2:	ff 75 e0             	push   -0x20(%ebp)
c0101be5:	ff 75 e4             	push   -0x1c(%ebp)
c0101be8:	e8 3b fc ff ff       	call   c0101828 <read_identify>
c0101bed:	83 c4 10             	add    $0x10,%esp
c0101bf0:	c9                   	leave
c0101bf1:	c3                   	ret

c0101bf2 <ata_read>:
c0101bf2:	55                   	push   %ebp
c0101bf3:	89 e5                	mov    %esp,%ebp
c0101bf5:	53                   	push   %ebx
c0101bf6:	83 ec 34             	sub    $0x34,%esp
c0101bf9:	8b 45 18             	mov    0x18(%ebp),%eax
c0101bfc:	25 ff 0f 00 00       	and    $0xfff,%eax
c0101c01:	89 45 e4             	mov    %eax,-0x1c(%ebp)
c0101c04:	83 ec 0c             	sub    $0xc,%esp
c0101c07:	ff 75 18             	push   0x18(%ebp)
c0101c0a:	e8 01 20 00 00       	call   c0103c10 <get_phys_from_virt>
c0101c0f:	83 c4 10             	add    $0x10,%esp
c0101c12:	8b 4d e4             	mov    -0x1c(%ebp),%ecx
c0101c15:	bb 00 00 00 00       	mov    $0x0,%ebx
c0101c1a:	01 c8                	add    %ecx,%eax
c0101c1c:	11 da                	adc    %ebx,%edx
c0101c1e:	89 45 f0             	mov    %eax,-0x10(%ebp)
c0101c21:	89 55 f4             	mov    %edx,-0xc(%ebp)
c0101c24:	8b 45 08             	mov    0x8(%ebp),%eax
c0101c27:	8b 40 0c             	mov    0xc(%eax),%eax
c0101c2a:	83 ec 04             	sub    $0x4,%esp
c0101c2d:	68 00 02 00 00       	push   $0x200
c0101c32:	6a 00                	push   $0x0
c0101c34:	50                   	push   %eax
c0101c35:	e8 2b 35 00 00       	call   c0105165 <memset>
c0101c3a:	83 c4 10             	add    $0x10,%esp
c0101c3d:	8b 45 08             	mov    0x8(%ebp),%eax
c0101c40:	8b 40 0c             	mov    0xc(%eax),%eax
c0101c43:	83 ec 08             	sub    $0x8,%esp
c0101c46:	50                   	push   %eax
c0101c47:	68 02 a1 10 c0       	push   $0xc010a102
c0101c4c:	e8 e3 2e 00 00       	call   c0104b34 <logf>
c0101c51:	83 c4 10             	add    $0x10,%esp
c0101c54:	8b 45 08             	mov    0x8(%ebp),%eax
c0101c57:	8b 00                	mov    (%eax),%eax
c0101c59:	8b 48 18             	mov    0x18(%eax),%ecx
c0101c5c:	8b 45 08             	mov    0x8(%ebp),%eax
c0101c5f:	8b 00                	mov    (%eax),%eax
c0101c61:	8b 50 20             	mov    0x20(%eax),%edx
c0101c64:	8b 45 08             	mov    0x8(%ebp),%eax
c0101c67:	8b 00                	mov    (%eax),%eax
c0101c69:	8b 40 28             	mov    0x28(%eax),%eax
c0101c6c:	51                   	push   %ecx
c0101c6d:	52                   	push   %edx
c0101c6e:	50                   	push   %eax
c0101c6f:	68 0c a1 10 c0       	push   $0xc010a10c
c0101c74:	e8 bb 2e 00 00       	call   c0104b34 <logf>
c0101c79:	83 c4 10             	add    $0x10,%esp
c0101c7c:	c7 45 e0 00 00 00 00 	movl   $0x0,-0x20(%ebp)
c0101c83:	8b 45 08             	mov    0x8(%ebp),%eax
c0101c86:	8b 00                	mov    (%eax),%eax
c0101c88:	c7 40 10 ff ff ff ff 	movl   $0xffffffff,0x10(%eax)
c0101c8f:	8b 45 08             	mov    0x8(%ebp),%eax
c0101c92:	8b 00                	mov    (%eax),%eax
c0101c94:	c7 40 14 ff ff ff ff 	movl   $0xffffffff,0x14(%eax)
c0101c9b:	8b 45 08             	mov    0x8(%ebp),%eax
c0101c9e:	8b 40 04             	mov    0x4(%eax),%eax
c0101ca1:	89 45 dc             	mov    %eax,-0x24(%ebp)
c0101ca4:	8b 45 dc             	mov    -0x24(%ebp),%eax
c0101ca7:	66 c7 00 05 00       	movw   $0x5,(%eax)
c0101cac:	8b 45 dc             	mov    -0x24(%ebp),%eax
c0101caf:	0f b7 00             	movzwl (%eax),%eax
c0101cb2:	83 c8 40             	or     $0x40,%eax
c0101cb5:	89 c2                	mov    %eax,%edx
c0101cb7:	8b 45 dc             	mov    -0x24(%ebp),%eax
c0101cba:	66 89 10             	mov    %dx,(%eax)
c0101cbd:	8b 45 dc             	mov    -0x24(%ebp),%eax
c0101cc0:	66 c7 40 02 02 00    	movw   $0x2,0x2(%eax)
c0101cc6:	8b 45 dc             	mov    -0x24(%ebp),%eax
c0101cc9:	c7 40 04 00 00 00 00 	movl   $0x0,0x4(%eax)
c0101cd0:	8b 45 08             	mov    0x8(%ebp),%eax
c0101cd3:	8b 40 08             	mov    0x8(%eax),%eax
c0101cd6:	89 45 d8             	mov    %eax,-0x28(%ebp)
c0101cd9:	83 ec 04             	sub    $0x4,%esp
c0101cdc:	68 20 01 00 00       	push   $0x120
c0101ce1:	6a 00                	push   $0x0
c0101ce3:	ff 75 d8             	push   -0x28(%ebp)
c0101ce6:	e8 7a 34 00 00       	call   c0105165 <memset>
c0101ceb:	83 c4 10             	add    $0x10,%esp
c0101cee:	c7 45 ec 00 00 00 00 	movl   $0x0,-0x14(%ebp)
c0101cf5:	eb 5f                	jmp    c0101d56 <ata_read+0x164>
c0101cf7:	8b 45 f0             	mov    -0x10(%ebp),%eax
c0101cfa:	8b 55 d8             	mov    -0x28(%ebp),%edx
c0101cfd:	8b 4d ec             	mov    -0x14(%ebp),%ecx
c0101d00:	83 c1 08             	add    $0x8,%ecx
c0101d03:	c1 e1 04             	shl    $0x4,%ecx
c0101d06:	01 ca                	add    %ecx,%edx
c0101d08:	89 02                	mov    %eax,(%edx)
c0101d0a:	8b 45 f0             	mov    -0x10(%ebp),%eax
c0101d0d:	8b 55 f4             	mov    -0xc(%ebp),%edx
c0101d10:	0f ac d0 1f          	shrd   $0x1f,%edx,%eax
c0101d14:	c1 ea 1f             	shr    $0x1f,%edx
c0101d17:	89 c1                	mov    %eax,%ecx
c0101d19:	8b 45 d8             	mov    -0x28(%ebp),%eax
c0101d1c:	8b 55 ec             	mov    -0x14(%ebp),%edx
c0101d1f:	83 c2 08             	add    $0x8,%edx
c0101d22:	c1 e2 04             	shl    $0x4,%edx
c0101d25:	01 d0                	add    %edx,%eax
c0101d27:	83 c0 04             	add    $0x4,%eax
c0101d2a:	89 08                	mov    %ecx,(%eax)
c0101d2c:	8b 45 d8             	mov    -0x28(%ebp),%eax
c0101d2f:	8b 55 ec             	mov    -0x14(%ebp),%edx
c0101d32:	83 c2 08             	add    $0x8,%edx
c0101d35:	c1 e2 04             	shl    $0x4,%edx
c0101d38:	01 d0                	add    %edx,%eax
c0101d3a:	83 c0 0c             	add    $0xc,%eax
c0101d3d:	c7 00 ff 1f 00 00    	movl   $0x1fff,(%eax)
c0101d43:	81 45 f0 00 10 00 00 	addl   $0x1000,-0x10(%ebp)
c0101d4a:	83 55 f4 00          	adcl   $0x0,-0xc(%ebp)
c0101d4e:	83 6d 14 10          	subl   $0x10,0x14(%ebp)
c0101d52:	83 45 ec 01          	addl   $0x1,-0x14(%ebp)
c0101d56:	8b 45 dc             	mov    -0x24(%ebp),%eax
c0101d59:	0f b7 40 02          	movzwl 0x2(%eax),%eax
c0101d5d:	0f b7 c0             	movzwl %ax,%eax
c0101d60:	39 45 ec             	cmp    %eax,-0x14(%ebp)
c0101d63:	7c 92                	jl     c0101cf7 <ata_read+0x105>
c0101d65:	8b 45 d8             	mov    -0x28(%ebp),%eax
c0101d68:	c7 80 8c 00 00 00 00 	movl   $0x800,0x8c(%eax)
c0101d6f:	08 00 00 
c0101d72:	8b 45 d8             	mov    -0x28(%ebp),%eax
c0101d75:	05 9c 00 00 00       	add    $0x9c,%eax
c0101d7a:	83 ec 08             	sub    $0x8,%esp
c0101d7d:	50                   	push   %eax
c0101d7e:	68 40 a0 10 c0       	push   $0xc010a040
c0101d83:	e8 ac 2d 00 00       	call   c0104b34 <logf>
c0101d88:	83 c4 10             	add    $0x10,%esp
c0101d8b:	8b 45 d8             	mov    -0x28(%ebp),%eax
c0101d8e:	89 45 d4             	mov    %eax,-0x2c(%ebp)
c0101d91:	83 ec 04             	sub    $0x4,%esp
c0101d94:	6a 14                	push   $0x14
c0101d96:	6a 00                	push   $0x0
c0101d98:	ff 75 d4             	push   -0x2c(%ebp)
c0101d9b:	e8 c5 33 00 00       	call   c0105165 <memset>
c0101da0:	83 c4 10             	add    $0x10,%esp
c0101da3:	8b 45 d4             	mov    -0x2c(%ebp),%eax
c0101da6:	c6 00 27             	movb   $0x27,(%eax)
c0101da9:	8b 45 d4             	mov    -0x2c(%ebp),%eax
c0101dac:	c6 40 02 35          	movb   $0x35,0x2(%eax)
c0101db0:	8b 45 d4             	mov    -0x2c(%ebp),%eax
c0101db3:	c6 40 07 40          	movb   $0x40,0x7(%eax)
c0101db7:	8b 45 d4             	mov    -0x2c(%ebp),%eax
c0101dba:	c6 40 01 00          	movb   $0x0,0x1(%eax)
c0101dbe:	8b 45 d4             	mov    -0x2c(%ebp),%eax
c0101dc1:	0f b6 40 01          	movzbl 0x1(%eax),%eax
c0101dc5:	83 c8 80             	or     $0xffffff80,%eax
c0101dc8:	89 c2                	mov    %eax,%edx
c0101dca:	8b 45 d4             	mov    -0x2c(%ebp),%eax
c0101dcd:	88 50 01             	mov    %dl,0x1(%eax)
c0101dd0:	8b 45 0c             	mov    0xc(%ebp),%eax
c0101dd3:	89 c2                	mov    %eax,%edx
c0101dd5:	8b 45 d4             	mov    -0x2c(%ebp),%eax
c0101dd8:	88 50 04             	mov    %dl,0x4(%eax)
c0101ddb:	8b 45 0c             	mov    0xc(%ebp),%eax
c0101dde:	c1 e8 08             	shr    $0x8,%eax
c0101de1:	89 c2                	mov    %eax,%edx
c0101de3:	8b 45 d4             	mov    -0x2c(%ebp),%eax
c0101de6:	88 50 05             	mov    %dl,0x5(%eax)
c0101de9:	8b 45 0c             	mov    0xc(%ebp),%eax
c0101dec:	c1 e8 10             	shr    $0x10,%eax
c0101def:	89 c2                	mov    %eax,%edx
c0101df1:	8b 45 d4             	mov    -0x2c(%ebp),%eax
c0101df4:	88 50 06             	mov    %dl,0x6(%eax)
c0101df7:	8b 45 0c             	mov    0xc(%ebp),%eax
c0101dfa:	c1 e8 18             	shr    $0x18,%eax
c0101dfd:	89 c2                	mov    %eax,%edx
c0101dff:	8b 45 d4             	mov    -0x2c(%ebp),%eax
c0101e02:	88 50 08             	mov    %dl,0x8(%eax)
c0101e05:	8b 45 d4             	mov    -0x2c(%ebp),%eax
c0101e08:	c6 40 09 00          	movb   $0x0,0x9(%eax)
c0101e0c:	8b 45 d4             	mov    -0x2c(%ebp),%eax
c0101e0f:	c6 40 0a 00          	movb   $0x0,0xa(%eax)
c0101e13:	8b 45 d4             	mov    -0x2c(%ebp),%eax
c0101e16:	c6 40 0c 02          	movb   $0x2,0xc(%eax)
c0101e1a:	8b 45 d4             	mov    -0x2c(%ebp),%eax
c0101e1d:	c6 40 0d 00          	movb   $0x0,0xd(%eax)
c0101e21:	8b 45 08             	mov    0x8(%ebp),%eax
c0101e24:	8b 00                	mov    (%eax),%eax
c0101e26:	8b 50 38             	mov    0x38(%eax),%edx
c0101e29:	8b 45 08             	mov    0x8(%ebp),%eax
c0101e2c:	8b 00                	mov    (%eax),%eax
c0101e2e:	83 ca 01             	or     $0x1,%edx
c0101e31:	89 50 38             	mov    %edx,0x38(%eax)
c0101e34:	c7 45 e8 00 00 00 00 	movl   $0x0,-0x18(%ebp)
c0101e3b:	eb 04                	jmp    c0101e41 <ata_read+0x24f>
c0101e3d:	83 45 e8 01          	addl   $0x1,-0x18(%ebp)
c0101e41:	81 7d e8 7f 96 98 00 	cmpl   $0x98967f,-0x18(%ebp)
c0101e48:	7f 0f                	jg     c0101e59 <ata_read+0x267>
c0101e4a:	8b 45 08             	mov    0x8(%ebp),%eax
c0101e4d:	8b 00                	mov    (%eax),%eax
c0101e4f:	8b 40 38             	mov    0x38(%eax),%eax
c0101e52:	83 e0 01             	and    $0x1,%eax
c0101e55:	85 c0                	test   %eax,%eax
c0101e57:	75 e4                	jne    c0101e3d <ata_read+0x24b>
c0101e59:	81 7d e8 80 96 98 00 	cmpl   $0x989680,-0x18(%ebp)
c0101e60:	75 10                	jne    c0101e72 <ata_read+0x280>
c0101e62:	83 ec 0c             	sub    $0xc,%esp
c0101e65:	68 35 a1 10 c0       	push   $0xc010a135
c0101e6a:	e8 68 2f 00 00       	call   c0104dd7 <panic>
c0101e6f:	83 c4 10             	add    $0x10,%esp
c0101e72:	8b 45 08             	mov    0x8(%ebp),%eax
c0101e75:	8b 40 0c             	mov    0xc(%eax),%eax
c0101e78:	89 45 d0             	mov    %eax,-0x30(%ebp)
c0101e7b:	8b 45 08             	mov    0x8(%ebp),%eax
c0101e7e:	8b 00                	mov    (%eax),%eax
c0101e80:	8b 48 18             	mov    0x18(%eax),%ecx
c0101e83:	8b 45 08             	mov    0x8(%ebp),%eax
c0101e86:	8b 00                	mov    (%eax),%eax
c0101e88:	8b 50 20             	mov    0x20(%eax),%edx
c0101e8b:	8b 45 08             	mov    0x8(%ebp),%eax
c0101e8e:	8b 00                	mov    (%eax),%eax
c0101e90:	8b 40 28             	mov    0x28(%eax),%eax
c0101e93:	51                   	push   %ecx
c0101e94:	52                   	push   %edx
c0101e95:	50                   	push   %eax
c0101e96:	68 0c a1 10 c0       	push   $0xc010a10c
c0101e9b:	e8 94 2c 00 00       	call   c0104b34 <logf>
c0101ea0:	83 c4 10             	add    $0x10,%esp
c0101ea3:	83 ec 08             	sub    $0x8,%esp
c0101ea6:	ff 75 d0             	push   -0x30(%ebp)
c0101ea9:	68 02 a1 10 c0       	push   $0xc010a102
c0101eae:	e8 81 2c 00 00       	call   c0104b34 <logf>
c0101eb3:	83 c4 10             	add    $0x10,%esp
c0101eb6:	83 ec 08             	sub    $0x8,%esp
c0101eb9:	ff 75 d4             	push   -0x2c(%ebp)
c0101ebc:	68 40 a1 10 c0       	push   $0xc010a140
c0101ec1:	e8 6e 2c 00 00       	call   c0104b34 <logf>
c0101ec6:	83 c4 10             	add    $0x10,%esp
c0101ec9:	90                   	nop
c0101eca:	8b 5d fc             	mov    -0x4(%ebp),%ebx
c0101ecd:	c9                   	leave
c0101ece:	c3                   	ret

c0101ecf <init_ahci_controller>:
c0101ecf:	55                   	push   %ebp
c0101ed0:	89 e5                	mov    %esp,%ebp
c0101ed2:	83 ec 28             	sub    $0x28,%esp
c0101ed5:	83 ec 0c             	sub    $0xc,%esp
c0101ed8:	6a 50                	push   $0x50
c0101eda:	e8 93 71 00 00       	call   c0109072 <create_array_list>
c0101edf:	83 c4 10             	add    $0x10,%esp
c0101ee2:	a3 08 00 11 c0       	mov    %eax,0xc0110008
c0101ee7:	e8 aa 4d 00 00       	call   c0106c96 <get_ahci_BAR5>
c0101eec:	89 45 f0             	mov    %eax,-0x10(%ebp)
c0101eef:	8b 45 f0             	mov    -0x10(%ebp),%eax
c0101ef2:	ba 00 00 00 00       	mov    $0x0,%edx
c0101ef7:	52                   	push   %edx
c0101ef8:	50                   	push   %eax
c0101ef9:	6a 13                	push   $0x13
c0101efb:	68 00 10 00 00       	push   $0x1000
c0101f00:	e8 d9 06 00 00       	call   c01025de <pae_kalloc>
c0101f05:	83 c4 10             	add    $0x10,%esp
c0101f08:	89 45 ec             	mov    %eax,-0x14(%ebp)
c0101f0b:	8b 45 ec             	mov    -0x14(%ebp),%eax
c0101f0e:	89 45 e8             	mov    %eax,-0x18(%ebp)
c0101f11:	8b 45 e8             	mov    -0x18(%ebp),%eax
c0101f14:	8b 40 04             	mov    0x4(%eax),%eax
c0101f17:	0d 02 00 00 80       	or     $0x80000002,%eax
c0101f1c:	89 c2                	mov    %eax,%edx
c0101f1e:	8b 45 e8             	mov    -0x18(%ebp),%eax
c0101f21:	89 50 04             	mov    %edx,0x4(%eax)
c0101f24:	83 ec 0c             	sub    $0xc,%esp
c0101f27:	ff 75 e8             	push   -0x18(%ebp)
c0101f2a:	e8 96 f7 ff ff       	call   c01016c5 <probe_ports>
c0101f2f:	83 c4 10             	add    $0x10,%esp
c0101f32:	e8 ac f5 ff ff       	call   c01014e3 <init_ahci_cmd_port>
c0101f37:	e8 40 fb ff ff       	call   c0101a7c <identify>
c0101f3c:	83 ec 0c             	sub    $0xc,%esp
c0101f3f:	68 4b a1 10 c0       	push   $0xc010a14b
c0101f44:	e8 23 60 00 00       	call   c0107f6c <printf>
c0101f49:	83 c4 10             	add    $0x10,%esp
c0101f4c:	8b 45 e8             	mov    -0x18(%ebp),%eax
c0101f4f:	8b 00                	mov    (%eax),%eax
c0101f51:	83 ec 08             	sub    $0x8,%esp
c0101f54:	50                   	push   %eax
c0101f55:	68 60 a1 10 c0       	push   $0xc010a160
c0101f5a:	e8 d5 2b 00 00       	call   c0104b34 <logf>
c0101f5f:	83 c4 10             	add    $0x10,%esp
c0101f62:	83 ec 0c             	sub    $0xc,%esp
c0101f65:	68 71 a1 10 c0       	push   $0xc010a171
c0101f6a:	e8 fd 5f 00 00       	call   c0107f6c <printf>
c0101f6f:	83 c4 10             	add    $0x10,%esp
c0101f72:	8b 45 e8             	mov    -0x18(%ebp),%eax
c0101f75:	8b 40 04             	mov    0x4(%eax),%eax
c0101f78:	0d 02 00 00 80       	or     $0x80000002,%eax
c0101f7d:	89 c2                	mov    %eax,%edx
c0101f7f:	8b 45 e8             	mov    -0x18(%ebp),%eax
c0101f82:	89 50 04             	mov    %edx,0x4(%eax)
c0101f85:	a1 08 00 11 c0       	mov    0xc0110008,%eax
c0101f8a:	83 ec 08             	sub    $0x8,%esp
c0101f8d:	6a 00                	push   $0x0
c0101f8f:	50                   	push   %eax
c0101f90:	e8 f0 71 00 00       	call   c0109185 <al_get>
c0101f95:	83 c4 10             	add    $0x10,%esp
c0101f98:	89 45 e4             	mov    %eax,-0x1c(%ebp)
c0101f9b:	83 ec 0c             	sub    $0xc,%esp
c0101f9e:	ff 75 e4             	push   -0x1c(%ebp)
c0101fa1:	e8 06 f8 ff ff       	call   c01017ac <reset_port>
c0101fa6:	83 c4 10             	add    $0x10,%esp
c0101fa9:	83 ec 0c             	sub    $0xc,%esp
c0101fac:	68 00 05 00 00       	push   $0x500
c0101fb1:	e8 e6 32 00 00       	call   c010529c <kalloc>
c0101fb6:	83 c4 10             	add    $0x10,%esp
c0101fb9:	89 45 e0             	mov    %eax,-0x20(%ebp)
c0101fbc:	83 ec 08             	sub    $0x8,%esp
c0101fbf:	6a 25                	push   $0x25
c0101fc1:	ff 75 e0             	push   -0x20(%ebp)
c0101fc4:	6a 01                	push   $0x1
c0101fc6:	6a 00                	push   $0x0
c0101fc8:	6a 00                	push   $0x0
c0101fca:	ff 75 e4             	push   -0x1c(%ebp)
c0101fcd:	e8 11 f2 ff ff       	call   c01011e3 <post_ata_command>
c0101fd2:	83 c4 20             	add    $0x20,%esp
c0101fd5:	e8 98 4b 00 00       	call   c0106b72 <read_ahci_status>
c0101fda:	c7 45 f4 00 00 00 00 	movl   $0x0,-0xc(%ebp)
c0101fe1:	eb 32                	jmp    c0102015 <init_ahci_controller+0x146>
c0101fe3:	8b 55 f4             	mov    -0xc(%ebp),%edx
c0101fe6:	8b 45 e0             	mov    -0x20(%ebp),%eax
c0101fe9:	01 d0                	add    %edx,%eax
c0101feb:	0f b6 00             	movzbl (%eax),%eax
c0101fee:	84 c0                	test   %al,%al
c0101ff0:	74 1f                	je     c0102011 <init_ahci_controller+0x142>
c0101ff2:	8b 55 f4             	mov    -0xc(%ebp),%edx
c0101ff5:	8b 45 e0             	mov    -0x20(%ebp),%eax
c0101ff8:	01 d0                	add    %edx,%eax
c0101ffa:	0f b6 00             	movzbl (%eax),%eax
c0101ffd:	0f b6 c0             	movzbl %al,%eax
c0102000:	83 ec 08             	sub    $0x8,%esp
c0102003:	50                   	push   %eax
c0102004:	68 84 a1 10 c0       	push   $0xc010a184
c0102009:	e8 26 2b 00 00       	call   c0104b34 <logf>
c010200e:	83 c4 10             	add    $0x10,%esp
c0102011:	83 45 f4 01          	addl   $0x1,-0xc(%ebp)
c0102015:	81 7d f4 ff 04 00 00 	cmpl   $0x4ff,-0xc(%ebp)
c010201c:	7e c5                	jle    c0101fe3 <init_ahci_controller+0x114>
c010201e:	90                   	nop
c010201f:	90                   	nop
c0102020:	c9                   	leave
c0102021:	c3                   	ret

c0102022 <set_memory_map>:
c0102022:	55                   	push   %ebp
c0102023:	89 e5                	mov    %esp,%ebp
c0102025:	53                   	push   %ebx
c0102026:	83 ec 24             	sub    $0x24,%esp
c0102029:	8b 45 08             	mov    0x8(%ebp),%eax
c010202c:	8b 40 04             	mov    0x4(%eax),%eax
c010202f:	8d 48 f0             	lea    -0x10(%eax),%ecx
c0102032:	8b 45 08             	mov    0x8(%ebp),%eax
c0102035:	8b 58 08             	mov    0x8(%eax),%ebx
c0102038:	89 c8                	mov    %ecx,%eax
c010203a:	ba 00 00 00 00       	mov    $0x0,%edx
c010203f:	f7 f3                	div    %ebx
c0102041:	89 45 f0             	mov    %eax,-0x10(%ebp)
c0102044:	c7 45 f4 00 00 00 00 	movl   $0x0,-0xc(%ebp)
c010204b:	e9 80 00 00 00       	jmp    c01020d0 <set_memory_map+0xae>
c0102050:	8b 4d 08             	mov    0x8(%ebp),%ecx
c0102053:	8b 55 f4             	mov    -0xc(%ebp),%edx
c0102056:	89 d0                	mov    %edx,%eax
c0102058:	01 c0                	add    %eax,%eax
c010205a:	01 d0                	add    %edx,%eax
c010205c:	c1 e0 03             	shl    $0x3,%eax
c010205f:	01 c8                	add    %ecx,%eax
c0102061:	83 c0 10             	add    $0x10,%eax
c0102064:	8b 10                	mov    (%eax),%edx
c0102066:	89 55 d8             	mov    %edx,-0x28(%ebp)
c0102069:	8b 50 04             	mov    0x4(%eax),%edx
c010206c:	89 55 dc             	mov    %edx,-0x24(%ebp)
c010206f:	8b 50 08             	mov    0x8(%eax),%edx
c0102072:	89 55 e0             	mov    %edx,-0x20(%ebp)
c0102075:	8b 50 0c             	mov    0xc(%eax),%edx
c0102078:	89 55 e4             	mov    %edx,-0x1c(%ebp)
c010207b:	8b 50 10             	mov    0x10(%eax),%edx
c010207e:	89 55 e8             	mov    %edx,-0x18(%ebp)
c0102081:	8b 40 14             	mov    0x14(%eax),%eax
c0102084:	89 45 ec             	mov    %eax,-0x14(%ebp)
c0102087:	8b 45 e8             	mov    -0x18(%ebp),%eax
c010208a:	83 f8 01             	cmp    $0x1,%eax
c010208d:	75 3d                	jne    c01020cc <set_memory_map+0xaa>
c010208f:	8b 45 d8             	mov    -0x28(%ebp),%eax
c0102092:	8b 55 dc             	mov    -0x24(%ebp),%edx
c0102095:	a3 04 c0 10 c0       	mov    %eax,0xc010c004
c010209a:	8b 45 d8             	mov    -0x28(%ebp),%eax
c010209d:	8b 55 dc             	mov    -0x24(%ebp),%edx
c01020a0:	89 c1                	mov    %eax,%ecx
c01020a2:	8b 45 e0             	mov    -0x20(%ebp),%eax
c01020a5:	8b 55 e4             	mov    -0x1c(%ebp),%edx
c01020a8:	01 c8                	add    %ecx,%eax
c01020aa:	a3 00 c0 10 c0       	mov    %eax,0xc010c000
c01020af:	8b 15 00 c0 10 c0    	mov    0xc010c000,%edx
c01020b5:	a1 04 c0 10 c0       	mov    0xc010c004,%eax
c01020ba:	83 ec 04             	sub    $0x4,%esp
c01020bd:	52                   	push   %edx
c01020be:	50                   	push   %eax
c01020bf:	68 88 a1 10 c0       	push   $0xc010a188
c01020c4:	e8 6b 2a 00 00       	call   c0104b34 <logf>
c01020c9:	83 c4 10             	add    $0x10,%esp
c01020cc:	83 45 f4 01          	addl   $0x1,-0xc(%ebp)
c01020d0:	8b 45 f4             	mov    -0xc(%ebp),%eax
c01020d3:	3b 45 f0             	cmp    -0x10(%ebp),%eax
c01020d6:	0f 8c 74 ff ff ff    	jl     c0102050 <set_memory_map+0x2e>
c01020dc:	90                   	nop
c01020dd:	90                   	nop
c01020de:	8b 5d fc             	mov    -0x4(%ebp),%ebx
c01020e1:	c9                   	leave
c01020e2:	c3                   	ret

c01020e3 <pre_malloc>:
c01020e3:	55                   	push   %ebp
c01020e4:	89 e5                	mov    %esp,%ebp
c01020e6:	83 ec 10             	sub    $0x10,%esp
c01020e9:	a1 08 c0 10 c0       	mov    0xc010c008,%eax
c01020ee:	05 ff 03 00 00       	add    $0x3ff,%eax
c01020f3:	25 00 fc ff ff       	and    $0xfffffc00,%eax
c01020f8:	89 45 fc             	mov    %eax,-0x4(%ebp)
c01020fb:	8b 45 08             	mov    0x8(%ebp),%eax
c01020fe:	05 ff 03 00 00       	add    $0x3ff,%eax
c0102103:	25 00 fc ff ff       	and    $0xfffffc00,%eax
c0102108:	89 c2                	mov    %eax,%edx
c010210a:	a1 08 c0 10 c0       	mov    0xc010c008,%eax
c010210f:	01 d0                	add    %edx,%eax
c0102111:	a3 08 c0 10 c0       	mov    %eax,0xc010c008
c0102116:	83 7d 0c 00          	cmpl   $0x0,0xc(%ebp)
c010211a:	74 0e                	je     c010212a <pre_malloc+0x47>
c010211c:	8b 45 fc             	mov    -0x4(%ebp),%eax
c010211f:	8d 90 00 00 00 40    	lea    0x40000000(%eax),%edx
c0102125:	8b 45 0c             	mov    0xc(%ebp),%eax
c0102128:	89 10                	mov    %edx,(%eax)
c010212a:	8b 45 fc             	mov    -0x4(%ebp),%eax
c010212d:	c9                   	leave
c010212e:	c3                   	ret

c010212f <get_first_frame>:
c010212f:	55                   	push   %ebp
c0102130:	89 e5                	mov    %esp,%ebp
c0102132:	83 ec 10             	sub    $0x10,%esp
c0102135:	c7 45 fc 00 00 00 00 	movl   $0x0,-0x4(%ebp)
c010213c:	eb 6b                	jmp    c01021a9 <get_first_frame+0x7a>
c010213e:	a1 0c 00 11 c0       	mov    0xc011000c,%eax
c0102143:	8b 55 fc             	mov    -0x4(%ebp),%edx
c0102146:	c1 e2 02             	shl    $0x2,%edx
c0102149:	01 d0                	add    %edx,%eax
c010214b:	8b 00                	mov    (%eax),%eax
c010214d:	83 f8 ff             	cmp    $0xffffffff,%eax
c0102150:	74 53                	je     c01021a5 <get_first_frame+0x76>
c0102152:	c7 45 f8 00 00 00 00 	movl   $0x0,-0x8(%ebp)
c0102159:	eb 44                	jmp    c010219f <get_first_frame+0x70>
c010215b:	8b 45 f8             	mov    -0x8(%ebp),%eax
c010215e:	ba 01 00 00 00       	mov    $0x1,%edx
c0102163:	89 c1                	mov    %eax,%ecx
c0102165:	d3 e2                	shl    %cl,%edx
c0102167:	89 d0                	mov    %edx,%eax
c0102169:	89 45 f4             	mov    %eax,-0xc(%ebp)
c010216c:	a1 0c 00 11 c0       	mov    0xc011000c,%eax
c0102171:	8b 55 fc             	mov    -0x4(%ebp),%edx
c0102174:	c1 e2 02             	shl    $0x2,%edx
c0102177:	01 d0                	add    %edx,%eax
c0102179:	8b 00                	mov    (%eax),%eax
c010217b:	23 45 f4             	and    -0xc(%ebp),%eax
c010217e:	85 c0                	test   %eax,%eax
c0102180:	75 19                	jne    c010219b <get_first_frame+0x6c>
c0102182:	8b 45 fc             	mov    -0x4(%ebp),%eax
c0102185:	c1 e0 05             	shl    $0x5,%eax
c0102188:	89 c2                	mov    %eax,%edx
c010218a:	8b 45 f8             	mov    -0x8(%ebp),%eax
c010218d:	01 d0                	add    %edx,%eax
c010218f:	a3 14 00 11 c0       	mov    %eax,0xc0110014
c0102194:	a1 14 00 11 c0       	mov    0xc0110014,%eax
c0102199:	eb 1d                	jmp    c01021b8 <get_first_frame+0x89>
c010219b:	83 45 f8 01          	addl   $0x1,-0x8(%ebp)
c010219f:	83 7d f8 1f          	cmpl   $0x1f,-0x8(%ebp)
c01021a3:	7e b6                	jle    c010215b <get_first_frame+0x2c>
c01021a5:	83 45 fc 01          	addl   $0x1,-0x4(%ebp)
c01021a9:	a1 10 00 11 c0       	mov    0xc0110010,%eax
c01021ae:	39 45 fc             	cmp    %eax,-0x4(%ebp)
c01021b1:	72 8b                	jb     c010213e <get_first_frame+0xf>
c01021b3:	b8 ff ff ff ff       	mov    $0xffffffff,%eax
c01021b8:	c9                   	leave
c01021b9:	c3                   	ret

c01021ba <clear_frame>:
c01021ba:	55                   	push   %ebp
c01021bb:	89 e5                	mov    %esp,%ebp
c01021bd:	53                   	push   %ebx
c01021be:	a1 10 00 11 c0       	mov    0xc0110010,%eax
c01021c3:	3b 45 08             	cmp    0x8(%ebp),%eax
c01021c6:	72 3b                	jb     c0102203 <clear_frame+0x49>
c01021c8:	8b 0d 0c 00 11 c0    	mov    0xc011000c,%ecx
c01021ce:	8b 45 08             	mov    0x8(%ebp),%eax
c01021d1:	c1 e8 05             	shr    $0x5,%eax
c01021d4:	8d 14 85 00 00 00 00 	lea    0x0(,%eax,4),%edx
c01021db:	01 ca                	add    %ecx,%edx
c01021dd:	8b 12                	mov    (%edx),%edx
c01021df:	8b 4d 08             	mov    0x8(%ebp),%ecx
c01021e2:	83 e1 1f             	and    $0x1f,%ecx
c01021e5:	bb 01 00 00 00       	mov    $0x1,%ebx
c01021ea:	d3 e3                	shl    %cl,%ebx
c01021ec:	89 d9                	mov    %ebx,%ecx
c01021ee:	f7 d1                	not    %ecx
c01021f0:	89 cb                	mov    %ecx,%ebx
c01021f2:	8b 0d 0c 00 11 c0    	mov    0xc011000c,%ecx
c01021f8:	c1 e0 02             	shl    $0x2,%eax
c01021fb:	01 c8                	add    %ecx,%eax
c01021fd:	21 da                	and    %ebx,%edx
c01021ff:	89 10                	mov    %edx,(%eax)
c0102201:	eb 01                	jmp    c0102204 <clear_frame+0x4a>
c0102203:	90                   	nop
c0102204:	8b 5d fc             	mov    -0x4(%ebp),%ebx
c0102207:	c9                   	leave
c0102208:	c3                   	ret

c0102209 <set_frame>:
c0102209:	55                   	push   %ebp
c010220a:	89 e5                	mov    %esp,%ebp
c010220c:	53                   	push   %ebx
c010220d:	83 ec 10             	sub    $0x10,%esp
c0102210:	8b 45 08             	mov    0x8(%ebp),%eax
c0102213:	c1 e8 05             	shr    $0x5,%eax
c0102216:	89 45 f8             	mov    %eax,-0x8(%ebp)
c0102219:	8b 45 08             	mov    0x8(%ebp),%eax
c010221c:	83 e0 1f             	and    $0x1f,%eax
c010221f:	89 45 f4             	mov    %eax,-0xc(%ebp)
c0102222:	a1 0c 00 11 c0       	mov    0xc011000c,%eax
c0102227:	8b 55 f8             	mov    -0x8(%ebp),%edx
c010222a:	c1 e2 02             	shl    $0x2,%edx
c010222d:	01 d0                	add    %edx,%eax
c010222f:	8b 10                	mov    (%eax),%edx
c0102231:	8b 45 f4             	mov    -0xc(%ebp),%eax
c0102234:	bb 01 00 00 00       	mov    $0x1,%ebx
c0102239:	89 c1                	mov    %eax,%ecx
c010223b:	d3 e3                	shl    %cl,%ebx
c010223d:	89 d8                	mov    %ebx,%eax
c010223f:	89 c3                	mov    %eax,%ebx
c0102241:	a1 0c 00 11 c0       	mov    0xc011000c,%eax
c0102246:	8b 4d f8             	mov    -0x8(%ebp),%ecx
c0102249:	c1 e1 02             	shl    $0x2,%ecx
c010224c:	01 c8                	add    %ecx,%eax
c010224e:	09 da                	or     %ebx,%edx
c0102250:	89 10                	mov    %edx,(%eax)
c0102252:	90                   	nop
c0102253:	8b 5d fc             	mov    -0x4(%ebp),%ebx
c0102256:	c9                   	leave
c0102257:	c3                   	ret

c0102258 <frame_to_physical>:
c0102258:	55                   	push   %ebp
c0102259:	89 e5                	mov    %esp,%ebp
c010225b:	8b 45 08             	mov    0x8(%ebp),%eax
c010225e:	05 00 01 00 00       	add    $0x100,%eax
c0102263:	c1 e0 0c             	shl    $0xc,%eax
c0102266:	5d                   	pop    %ebp
c0102267:	c3                   	ret

c0102268 <physical_to_frame>:
c0102268:	55                   	push   %ebp
c0102269:	89 e5                	mov    %esp,%ebp
c010226b:	8b 45 08             	mov    0x8(%ebp),%eax
c010226e:	2d 00 00 10 00       	sub    $0x100000,%eax
c0102273:	c1 e8 0c             	shr    $0xc,%eax
c0102276:	5d                   	pop    %ebp
c0102277:	c3                   	ret

c0102278 <alloc_phys_page>:
c0102278:	55                   	push   %ebp
c0102279:	89 e5                	mov    %esp,%ebp
c010227b:	83 ec 18             	sub    $0x18,%esp
c010227e:	e8 ac fe ff ff       	call   c010212f <get_first_frame>
c0102283:	89 45 f4             	mov    %eax,-0xc(%ebp)
c0102286:	83 7d f4 ff          	cmpl   $0xffffffff,-0xc(%ebp)
c010228a:	75 0c                	jne    c0102298 <alloc_phys_page+0x20>
c010228c:	b8 00 00 00 00       	mov    $0x0,%eax
c0102291:	ba 00 00 00 00       	mov    $0x0,%edx
c0102296:	eb 3c                	jmp    c01022d4 <alloc_phys_page+0x5c>
c0102298:	ff 75 f4             	push   -0xc(%ebp)
c010229b:	e8 69 ff ff ff       	call   c0102209 <set_frame>
c01022a0:	83 c4 04             	add    $0x4,%esp
c01022a3:	ff 75 f4             	push   -0xc(%ebp)
c01022a6:	e8 ad ff ff ff       	call   c0102258 <frame_to_physical>
c01022ab:	83 c4 04             	add    $0x4,%esp
c01022ae:	3d 00 00 00 01       	cmp    $0x1000000,%eax
c01022b3:	76 10                	jbe    c01022c5 <alloc_phys_page+0x4d>
c01022b5:	83 ec 0c             	sub    $0xc,%esp
c01022b8:	68 a8 a1 10 c0       	push   $0xc010a1a8
c01022bd:	e8 15 2b 00 00       	call   c0104dd7 <panic>
c01022c2:	83 c4 10             	add    $0x10,%esp
c01022c5:	83 ec 0c             	sub    $0xc,%esp
c01022c8:	ff 75 f4             	push   -0xc(%ebp)
c01022cb:	e8 88 ff ff ff       	call   c0102258 <frame_to_physical>
c01022d0:	83 c4 10             	add    $0x10,%esp
c01022d3:	99                   	cltd
c01022d4:	c9                   	leave
c01022d5:	c3                   	ret

c01022d6 <transfer_dynamic>:
c01022d6:	55                   	push   %ebp
c01022d7:	89 e5                	mov    %esp,%ebp
c01022d9:	83 ec 18             	sub    $0x18,%esp
c01022dc:	a1 10 00 11 c0       	mov    0xc0110010,%eax
c01022e1:	83 ec 04             	sub    $0x4,%esp
c01022e4:	6a 00                	push   $0x0
c01022e6:	6a 03                	push   $0x3
c01022e8:	50                   	push   %eax
c01022e9:	e8 58 02 00 00       	call   c0102546 <page_kalloc>
c01022ee:	83 c4 10             	add    $0x10,%esp
c01022f1:	89 45 f4             	mov    %eax,-0xc(%ebp)
c01022f4:	a1 0c 00 11 c0       	mov    0xc011000c,%eax
c01022f9:	83 ec 08             	sub    $0x8,%esp
c01022fc:	50                   	push   %eax
c01022fd:	68 b7 a1 10 c0       	push   $0xc010a1b7
c0102302:	e8 2d 28 00 00       	call   c0104b34 <logf>
c0102307:	83 c4 10             	add    $0x10,%esp
c010230a:	8b 15 10 00 11 c0    	mov    0xc0110010,%edx
c0102310:	a1 0c 00 11 c0       	mov    0xc011000c,%eax
c0102315:	83 ec 04             	sub    $0x4,%esp
c0102318:	52                   	push   %edx
c0102319:	50                   	push   %eax
c010231a:	ff 75 f4             	push   -0xc(%ebp)
c010231d:	e8 f0 2d 00 00       	call   c0105112 <memcpy>
c0102322:	83 c4 10             	add    $0x10,%esp
c0102325:	8b 45 f4             	mov    -0xc(%ebp),%eax
c0102328:	a3 0c 00 11 c0       	mov    %eax,0xc011000c
c010232d:	a1 0c 00 11 c0       	mov    0xc011000c,%eax
c0102332:	83 ec 08             	sub    $0x8,%esp
c0102335:	50                   	push   %eax
c0102336:	68 d0 a1 10 c0       	push   $0xc010a1d0
c010233b:	e8 f4 27 00 00       	call   c0104b34 <logf>
c0102340:	83 c4 10             	add    $0x10,%esp
c0102343:	90                   	nop
c0102344:	c9                   	leave
c0102345:	c3                   	ret

c0102346 <kinit>:
c0102346:	55                   	push   %ebp
c0102347:	89 e5                	mov    %esp,%ebp
c0102349:	83 ec 18             	sub    $0x18,%esp
c010234c:	83 ec 08             	sub    $0x8,%esp
c010234f:	ff 75 08             	push   0x8(%ebp)
c0102352:	68 e9 a1 10 c0       	push   $0xc010a1e9
c0102357:	e8 d8 27 00 00       	call   c0104b34 <logf>
c010235c:	83 c4 10             	add    $0x10,%esp
c010235f:	81 7d 08 04 41 11 c0 	cmpl   $0xc0114104,0x8(%ebp)
c0102366:	72 10                	jb     c0102378 <kinit+0x32>
c0102368:	8b 15 08 c0 10 c0    	mov    0xc010c008,%edx
c010236e:	8b 45 08             	mov    0x8(%ebp),%eax
c0102371:	01 d0                	add    %edx,%eax
c0102373:	a3 08 c0 10 c0       	mov    %eax,0xc010c008
c0102378:	8b 15 08 c0 10 c0    	mov    0xc010c008,%edx
c010237e:	8b 45 08             	mov    0x8(%ebp),%eax
c0102381:	52                   	push   %edx
c0102382:	50                   	push   %eax
c0102383:	68 04 41 11 c0       	push   $0xc0114104
c0102388:	68 f8 a1 10 c0       	push   $0xc010a1f8
c010238d:	e8 a2 27 00 00       	call   c0104b34 <logf>
c0102392:	83 c4 10             	add    $0x10,%esp
c0102395:	83 ec 08             	sub    $0x8,%esp
c0102398:	68 00 0a 00 00       	push   $0xa00
c010239d:	68 1a a2 10 c0       	push   $0xc010a21a
c01023a2:	e8 8d 27 00 00       	call   c0104b34 <logf>
c01023a7:	83 c4 10             	add    $0x10,%esp
c01023aa:	c7 05 10 00 11 c0 00 	movl   $0xa00,0xc0110010
c01023b1:	0a 00 00 
c01023b4:	a1 10 00 11 c0       	mov    0xc0110010,%eax
c01023b9:	83 ec 08             	sub    $0x8,%esp
c01023bc:	6a 00                	push   $0x0
c01023be:	50                   	push   %eax
c01023bf:	e8 1f fd ff ff       	call   c01020e3 <pre_malloc>
c01023c4:	83 c4 10             	add    $0x10,%esp
c01023c7:	a3 0c 00 11 c0       	mov    %eax,0xc011000c
c01023cc:	8b 15 10 00 11 c0    	mov    0xc0110010,%edx
c01023d2:	a1 0c 00 11 c0       	mov    0xc011000c,%eax
c01023d7:	83 ec 04             	sub    $0x4,%esp
c01023da:	52                   	push   %edx
c01023db:	6a 00                	push   $0x0
c01023dd:	50                   	push   %eax
c01023de:	e8 82 2d 00 00       	call   c0105165 <memset>
c01023e3:	83 c4 10             	add    $0x10,%esp
c01023e6:	c7 45 f4 00 00 00 00 	movl   $0x0,-0xc(%ebp)
c01023ed:	eb 13                	jmp    c0102402 <kinit+0xbc>
c01023ef:	8b 45 f4             	mov    -0xc(%ebp),%eax
c01023f2:	83 ec 0c             	sub    $0xc,%esp
c01023f5:	50                   	push   %eax
c01023f6:	e8 0e fe ff ff       	call   c0102209 <set_frame>
c01023fb:	83 c4 10             	add    $0x10,%esp
c01023fe:	83 45 f4 01          	addl   $0x1,-0xc(%ebp)
c0102402:	83 7d f4 2f          	cmpl   $0x2f,-0xc(%ebp)
c0102406:	7e e7                	jle    c01023ef <kinit+0xa9>
c0102408:	a1 08 c0 10 c0       	mov    0xc010c008,%eax
c010240d:	c9                   	leave
c010240e:	c3                   	ret

c010240f <convert_x86_32_vm_flags>:
c010240f:	55                   	push   %ebp
c0102410:	89 e5                	mov    %esp,%ebp
c0102412:	83 ec 10             	sub    $0x10,%esp
c0102415:	c7 45 fc 01 00 00 00 	movl   $0x1,-0x4(%ebp)
c010241c:	8b 45 08             	mov    0x8(%ebp),%eax
c010241f:	83 e0 02             	and    $0x2,%eax
c0102422:	85 c0                	test   %eax,%eax
c0102424:	74 04                	je     c010242a <convert_x86_32_vm_flags+0x1b>
c0102426:	83 4d fc 02          	orl    $0x2,-0x4(%ebp)
c010242a:	8b 45 08             	mov    0x8(%ebp),%eax
c010242d:	83 e0 04             	and    $0x4,%eax
c0102430:	85 c0                	test   %eax,%eax
c0102432:	74 04                	je     c0102438 <convert_x86_32_vm_flags+0x29>
c0102434:	83 4d fc 04          	orl    $0x4,-0x4(%ebp)
c0102438:	8b 45 fc             	mov    -0x4(%ebp),%eax
c010243b:	c9                   	leave
c010243c:	c3                   	ret

c010243d <create_vmm>:
c010243d:	55                   	push   %ebp
c010243e:	89 e5                	mov    %esp,%ebp
c0102440:	83 ec 18             	sub    $0x18,%esp
c0102443:	83 7d 14 00          	cmpl   $0x0,0x14(%ebp)
c0102447:	75 1f                	jne    c0102468 <create_vmm+0x2b>
c0102449:	e8 2a fe ff ff       	call   c0102278 <alloc_phys_page>
c010244e:	6a 03                	push   $0x3
c0102450:	68 00 00 00 ff       	push   $0xff000000
c0102455:	50                   	push   %eax
c0102456:	ff 75 08             	push   0x8(%ebp)
c0102459:	e8 63 16 00 00       	call   c0103ac1 <memory_map>
c010245e:	83 c4 10             	add    $0x10,%esp
c0102461:	c7 45 14 00 00 00 ff 	movl   $0xff000000,0x14(%ebp)
c0102468:	83 ec 08             	sub    $0x8,%esp
c010246b:	ff 75 14             	push   0x14(%ebp)
c010246e:	68 2c a2 10 c0       	push   $0xc010a22c
c0102473:	e8 bc 26 00 00       	call   c0104b34 <logf>
c0102478:	83 c4 10             	add    $0x10,%esp
c010247b:	83 ec 04             	sub    $0x4,%esp
c010247e:	68 00 10 00 00       	push   $0x1000
c0102483:	6a 00                	push   $0x0
c0102485:	ff 75 14             	push   0x14(%ebp)
c0102488:	e8 d8 2c 00 00       	call   c0105165 <memset>
c010248d:	83 c4 10             	add    $0x10,%esp
c0102490:	8b 45 14             	mov    0x14(%ebp),%eax
c0102493:	89 45 f4             	mov    %eax,-0xc(%ebp)
c0102496:	8b 45 f4             	mov    -0xc(%ebp),%eax
c0102499:	8b 55 08             	mov    0x8(%ebp),%edx
c010249c:	89 10                	mov    %edx,(%eax)
c010249e:	8b 45 f4             	mov    -0xc(%ebp),%eax
c01024a1:	c7 40 20 00 00 00 00 	movl   $0x0,0x20(%eax)
c01024a8:	8b 45 14             	mov    0x14(%ebp),%eax
c01024ab:	83 c0 30             	add    $0x30,%eax
c01024ae:	89 c2                	mov    %eax,%edx
c01024b0:	8b 45 f4             	mov    -0xc(%ebp),%eax
c01024b3:	89 50 24             	mov    %edx,0x24(%eax)
c01024b6:	8b 45 0c             	mov    0xc(%ebp),%eax
c01024b9:	05 ff 0f 00 00       	add    $0xfff,%eax
c01024be:	25 00 f0 ff ff       	and    $0xfffff000,%eax
c01024c3:	83 ec 04             	sub    $0x4,%esp
c01024c6:	ff 75 10             	push   0x10(%ebp)
c01024c9:	50                   	push   %eax
c01024ca:	68 48 a2 10 c0       	push   $0xc010a248
c01024cf:	e8 60 26 00 00       	call   c0104b34 <logf>
c01024d4:	83 c4 10             	add    $0x10,%esp
c01024d7:	8b 45 0c             	mov    0xc(%ebp),%eax
c01024da:	05 ff 0f 00 00       	add    $0xfff,%eax
c01024df:	25 00 f0 ff ff       	and    $0xfffff000,%eax
c01024e4:	89 c2                	mov    %eax,%edx
c01024e6:	8b 45 f4             	mov    -0xc(%ebp),%eax
c01024e9:	89 50 28             	mov    %edx,0x28(%eax)
c01024ec:	8b 45 f4             	mov    -0xc(%ebp),%eax
c01024ef:	8b 55 10             	mov    0x10(%ebp),%edx
c01024f2:	89 50 2c             	mov    %edx,0x2c(%eax)
c01024f5:	a1 1c 00 11 c0       	mov    0xc011001c,%eax
c01024fa:	85 c0                	test   %eax,%eax
c01024fc:	74 0e                	je     c010250c <create_vmm+0xcf>
c01024fe:	a1 1c 00 11 c0       	mov    0xc011001c,%eax
c0102503:	8b 50 04             	mov    0x4(%eax),%edx
c0102506:	8b 45 f4             	mov    -0xc(%ebp),%eax
c0102509:	89 50 04             	mov    %edx,0x4(%eax)
c010250c:	8b 45 f4             	mov    -0xc(%ebp),%eax
c010250f:	8b 50 2c             	mov    0x2c(%eax),%edx
c0102512:	8b 45 f4             	mov    -0xc(%ebp),%eax
c0102515:	8b 40 28             	mov    0x28(%eax),%eax
c0102518:	6a 00                	push   $0x0
c010251a:	52                   	push   %edx
c010251b:	50                   	push   %eax
c010251c:	ff 75 f4             	push   -0xc(%ebp)
c010251f:	e8 a7 69 00 00       	call   c0108ecb <make_node>
c0102524:	83 c4 10             	add    $0x10,%esp
c0102527:	8b 45 f4             	mov    -0xc(%ebp),%eax
c010252a:	8b 40 20             	mov    0x20(%eax),%eax
c010252d:	8b 40 08             	mov    0x8(%eax),%eax
c0102530:	83 ec 08             	sub    $0x8,%esp
c0102533:	50                   	push   %eax
c0102534:	68 74 a2 10 c0       	push   $0xc010a274
c0102539:	e8 f6 25 00 00       	call   c0104b34 <logf>
c010253e:	83 c4 10             	add    $0x10,%esp
c0102541:	8b 45 f4             	mov    -0xc(%ebp),%eax
c0102544:	c9                   	leave
c0102545:	c3                   	ret

c0102546 <page_kalloc>:
c0102546:	55                   	push   %ebp
c0102547:	89 e5                	mov    %esp,%ebp
c0102549:	83 ec 18             	sub    $0x18,%esp
c010254c:	8b 45 10             	mov    0x10(%ebp),%eax
c010254f:	ba 00 00 00 00       	mov    $0x0,%edx
c0102554:	8b 0d 1c 00 11 c0    	mov    0xc011001c,%ecx
c010255a:	83 ec 08             	sub    $0x8,%esp
c010255d:	6a 00                	push   $0x0
c010255f:	52                   	push   %edx
c0102560:	50                   	push   %eax
c0102561:	ff 75 0c             	push   0xc(%ebp)
c0102564:	ff 75 08             	push   0x8(%ebp)
c0102567:	51                   	push   %ecx
c0102568:	e8 74 02 00 00       	call   c01027e1 <vmm_page_alloc>
c010256d:	83 c4 20             	add    $0x20,%esp
c0102570:	89 45 f4             	mov    %eax,-0xc(%ebp)
c0102573:	8b 45 f4             	mov    -0xc(%ebp),%eax
c0102576:	c9                   	leave
c0102577:	c3                   	ret

c0102578 <page_kfree>:
c0102578:	55                   	push   %ebp
c0102579:	89 e5                	mov    %esp,%ebp
c010257b:	83 ec 08             	sub    $0x8,%esp
c010257e:	a1 1c 00 11 c0       	mov    0xc011001c,%eax
c0102583:	83 ec 08             	sub    $0x8,%esp
c0102586:	ff 75 08             	push   0x8(%ebp)
c0102589:	50                   	push   %eax
c010258a:	e8 ae 04 00 00       	call   c0102a3d <vmm_page_free>
c010258f:	83 c4 10             	add    $0x10,%esp
c0102592:	90                   	nop
c0102593:	c9                   	leave
c0102594:	c3                   	ret

c0102595 <page_alloc>:
c0102595:	55                   	push   %ebp
c0102596:	89 e5                	mov    %esp,%ebp
c0102598:	83 ec 08             	sub    $0x8,%esp
c010259b:	8b 45 10             	mov    0x10(%ebp),%eax
c010259e:	ba 00 00 00 00       	mov    $0x0,%edx
c01025a3:	8b 0d 18 00 11 c0    	mov    0xc0110018,%ecx
c01025a9:	83 ec 08             	sub    $0x8,%esp
c01025ac:	6a 00                	push   $0x0
c01025ae:	52                   	push   %edx
c01025af:	50                   	push   %eax
c01025b0:	ff 75 0c             	push   0xc(%ebp)
c01025b3:	ff 75 08             	push   0x8(%ebp)
c01025b6:	51                   	push   %ecx
c01025b7:	e8 25 02 00 00       	call   c01027e1 <vmm_page_alloc>
c01025bc:	83 c4 20             	add    $0x20,%esp
c01025bf:	c9                   	leave
c01025c0:	c3                   	ret

c01025c1 <page_free>:
c01025c1:	55                   	push   %ebp
c01025c2:	89 e5                	mov    %esp,%ebp
c01025c4:	83 ec 08             	sub    $0x8,%esp
c01025c7:	a1 18 00 11 c0       	mov    0xc0110018,%eax
c01025cc:	83 ec 08             	sub    $0x8,%esp
c01025cf:	ff 75 08             	push   0x8(%ebp)
c01025d2:	50                   	push   %eax
c01025d3:	e8 65 04 00 00       	call   c0102a3d <vmm_page_free>
c01025d8:	83 c4 10             	add    $0x10,%esp
c01025db:	90                   	nop
c01025dc:	c9                   	leave
c01025dd:	c3                   	ret

c01025de <pae_kalloc>:
c01025de:	55                   	push   %ebp
c01025df:	89 e5                	mov    %esp,%ebp
c01025e1:	83 ec 18             	sub    $0x18,%esp
c01025e4:	8b 45 10             	mov    0x10(%ebp),%eax
c01025e7:	89 45 f0             	mov    %eax,-0x10(%ebp)
c01025ea:	8b 45 14             	mov    0x14(%ebp),%eax
c01025ed:	89 45 f4             	mov    %eax,-0xc(%ebp)
c01025f0:	a1 1c 00 11 c0       	mov    0xc011001c,%eax
c01025f5:	83 ec 08             	sub    $0x8,%esp
c01025f8:	6a 01                	push   $0x1
c01025fa:	ff 75 f4             	push   -0xc(%ebp)
c01025fd:	ff 75 f0             	push   -0x10(%ebp)
c0102600:	ff 75 0c             	push   0xc(%ebp)
c0102603:	ff 75 08             	push   0x8(%ebp)
c0102606:	50                   	push   %eax
c0102607:	e8 d5 01 00 00       	call   c01027e1 <vmm_page_alloc>
c010260c:	83 c4 20             	add    $0x20,%esp
c010260f:	c9                   	leave
c0102610:	c3                   	ret

c0102611 <pae_kfree>:
c0102611:	55                   	push   %ebp
c0102612:	89 e5                	mov    %esp,%ebp
c0102614:	83 ec 08             	sub    $0x8,%esp
c0102617:	a1 1c 00 11 c0       	mov    0xc011001c,%eax
c010261c:	83 ec 08             	sub    $0x8,%esp
c010261f:	ff 75 08             	push   0x8(%ebp)
c0102622:	50                   	push   %eax
c0102623:	e8 9d 04 00 00       	call   c0102ac5 <pae_page_free>
c0102628:	83 c4 10             	add    $0x10,%esp
c010262b:	90                   	nop
c010262c:	c9                   	leave
c010262d:	c3                   	ret

c010262e <pae_alloc>:
c010262e:	55                   	push   %ebp
c010262f:	89 e5                	mov    %esp,%ebp
c0102631:	83 ec 18             	sub    $0x18,%esp
c0102634:	8b 45 10             	mov    0x10(%ebp),%eax
c0102637:	89 45 f0             	mov    %eax,-0x10(%ebp)
c010263a:	8b 45 14             	mov    0x14(%ebp),%eax
c010263d:	89 45 f4             	mov    %eax,-0xc(%ebp)
c0102640:	a1 18 00 11 c0       	mov    0xc0110018,%eax
c0102645:	83 ec 08             	sub    $0x8,%esp
c0102648:	6a 01                	push   $0x1
c010264a:	ff 75 f4             	push   -0xc(%ebp)
c010264d:	ff 75 f0             	push   -0x10(%ebp)
c0102650:	ff 75 0c             	push   0xc(%ebp)
c0102653:	ff 75 08             	push   0x8(%ebp)
c0102656:	50                   	push   %eax
c0102657:	e8 85 01 00 00       	call   c01027e1 <vmm_page_alloc>
c010265c:	83 c4 20             	add    $0x20,%esp
c010265f:	c9                   	leave
c0102660:	c3                   	ret

c0102661 <pae_free>:
c0102661:	55                   	push   %ebp
c0102662:	89 e5                	mov    %esp,%ebp
c0102664:	83 ec 08             	sub    $0x8,%esp
c0102667:	a1 18 00 11 c0       	mov    0xc0110018,%eax
c010266c:	83 ec 08             	sub    $0x8,%esp
c010266f:	ff 75 08             	push   0x8(%ebp)
c0102672:	50                   	push   %eax
c0102673:	e8 4d 04 00 00       	call   c0102ac5 <pae_page_free>
c0102678:	83 c4 10             	add    $0x10,%esp
c010267b:	90                   	nop
c010267c:	c9                   	leave
c010267d:	c3                   	ret

c010267e <vmm_transfer_dynamic>:
c010267e:	55                   	push   %ebp
c010267f:	89 e5                	mov    %esp,%ebp
c0102681:	83 ec 18             	sub    $0x18,%esp
c0102684:	83 ec 04             	sub    $0x4,%esp
c0102687:	6a 00                	push   $0x0
c0102689:	6a 03                	push   $0x3
c010268b:	68 00 10 00 00       	push   $0x1000
c0102690:	e8 b1 fe ff ff       	call   c0102546 <page_kalloc>
c0102695:	83 c4 10             	add    $0x10,%esp
c0102698:	89 45 f4             	mov    %eax,-0xc(%ebp)
c010269b:	8b 45 08             	mov    0x8(%ebp),%eax
c010269e:	8b 00                	mov    (%eax),%eax
c01026a0:	83 ec 04             	sub    $0x4,%esp
c01026a3:	68 00 10 00 00       	push   $0x1000
c01026a8:	50                   	push   %eax
c01026a9:	ff 75 f4             	push   -0xc(%ebp)
c01026ac:	e8 61 2a 00 00       	call   c0105112 <memcpy>
c01026b1:	83 c4 10             	add    $0x10,%esp
c01026b4:	8b 45 08             	mov    0x8(%ebp),%eax
c01026b7:	8b 00                	mov    (%eax),%eax
c01026b9:	83 ec 04             	sub    $0x4,%esp
c01026bc:	ff 75 f4             	push   -0xc(%ebp)
c01026bf:	50                   	push   %eax
c01026c0:	68 94 a2 10 c0       	push   $0xc010a294
c01026c5:	e8 6a 24 00 00       	call   c0104b34 <logf>
c01026ca:	83 c4 10             	add    $0x10,%esp
c01026cd:	8b 45 08             	mov    0x8(%ebp),%eax
c01026d0:	8b 00                	mov    (%eax),%eax
c01026d2:	8b 40 20             	mov    0x20(%eax),%eax
c01026d5:	89 c1                	mov    %eax,%ecx
c01026d7:	8b 45 08             	mov    0x8(%ebp),%eax
c01026da:	8b 00                	mov    (%eax),%eax
c01026dc:	89 c2                	mov    %eax,%edx
c01026de:	89 c8                	mov    %ecx,%eax
c01026e0:	29 d0                	sub    %edx,%eax
c01026e2:	89 45 f0             	mov    %eax,-0x10(%ebp)
c01026e5:	8b 45 08             	mov    0x8(%ebp),%eax
c01026e8:	89 45 ec             	mov    %eax,-0x14(%ebp)
c01026eb:	8b 45 08             	mov    0x8(%ebp),%eax
c01026ee:	8b 55 f4             	mov    -0xc(%ebp),%edx
c01026f1:	89 10                	mov    %edx,(%eax)
c01026f3:	8b 45 08             	mov    0x8(%ebp),%eax
c01026f6:	8b 00                	mov    (%eax),%eax
c01026f8:	89 c1                	mov    %eax,%ecx
c01026fa:	8b 45 08             	mov    0x8(%ebp),%eax
c01026fd:	8b 00                	mov    (%eax),%eax
c01026ff:	8b 40 24             	mov    0x24(%eax),%eax
c0102702:	25 ff 03 00 00       	and    $0x3ff,%eax
c0102707:	89 c2                	mov    %eax,%edx
c0102709:	8b 45 08             	mov    0x8(%ebp),%eax
c010270c:	8b 00                	mov    (%eax),%eax
c010270e:	01 ca                	add    %ecx,%edx
c0102710:	89 50 24             	mov    %edx,0x24(%eax)
c0102713:	8b 45 08             	mov    0x8(%ebp),%eax
c0102716:	8b 00                	mov    (%eax),%eax
c0102718:	89 c2                	mov    %eax,%edx
c010271a:	8b 45 f0             	mov    -0x10(%ebp),%eax
c010271d:	01 c2                	add    %eax,%edx
c010271f:	8b 45 08             	mov    0x8(%ebp),%eax
c0102722:	8b 00                	mov    (%eax),%eax
c0102724:	89 50 20             	mov    %edx,0x20(%eax)
c0102727:	83 ec 08             	sub    $0x8,%esp
c010272a:	ff 75 ec             	push   -0x14(%ebp)
c010272d:	ff 75 0c             	push   0xc(%ebp)
c0102730:	e8 2c 14 00 00       	call   c0103b61 <memory_unmap>
c0102735:	83 c4 10             	add    $0x10,%esp
c0102738:	90                   	nop
c0102739:	c9                   	leave
c010273a:	c3                   	ret

c010273b <set_kernel_vmm>:
c010273b:	55                   	push   %ebp
c010273c:	89 e5                	mov    %esp,%ebp
c010273e:	8b 45 08             	mov    0x8(%ebp),%eax
c0102741:	a3 1c 00 11 c0       	mov    %eax,0xc011001c
c0102746:	90                   	nop
c0102747:	5d                   	pop    %ebp
c0102748:	c3                   	ret

c0102749 <set_current_vmm>:
c0102749:	55                   	push   %ebp
c010274a:	89 e5                	mov    %esp,%ebp
c010274c:	83 ec 10             	sub    $0x10,%esp
c010274f:	8b 45 08             	mov    0x8(%ebp),%eax
c0102752:	a3 18 00 11 c0       	mov    %eax,0xc0110018
c0102757:	a1 18 00 11 c0       	mov    0xc0110018,%eax
c010275c:	8b 40 04             	mov    0x4(%eax),%eax
c010275f:	85 c0                	test   %eax,%eax
c0102761:	74 6b                	je     c01027ce <set_current_vmm+0x85>
c0102763:	a1 18 00 11 c0       	mov    0xc0110018,%eax
c0102768:	8b 50 0c             	mov    0xc(%eax),%edx
c010276b:	8b 40 08             	mov    0x8(%eax),%eax
c010276e:	89 c1                	mov    %eax,%ecx
c0102770:	09 d1                	or     %edx,%ecx
c0102772:	74 5a                	je     c01027ce <set_current_vmm+0x85>
c0102774:	a1 18 00 11 c0       	mov    0xc0110018,%eax
c0102779:	8b 50 0c             	mov    0xc(%eax),%edx
c010277c:	8b 40 08             	mov    0x8(%eax),%eax
c010277f:	8b 0d 18 00 11 c0    	mov    0xc0110018,%ecx
c0102785:	8b 49 04             	mov    0x4(%ecx),%ecx
c0102788:	83 c8 01             	or     $0x1,%eax
c010278b:	89 01                	mov    %eax,(%ecx)
c010278d:	89 51 04             	mov    %edx,0x4(%ecx)
c0102790:	a1 18 00 11 c0       	mov    0xc0110018,%eax
c0102795:	8b 50 14             	mov    0x14(%eax),%edx
c0102798:	8b 40 10             	mov    0x10(%eax),%eax
c010279b:	8b 0d 18 00 11 c0    	mov    0xc0110018,%ecx
c01027a1:	8b 49 04             	mov    0x4(%ecx),%ecx
c01027a4:	83 c1 08             	add    $0x8,%ecx
c01027a7:	83 c8 01             	or     $0x1,%eax
c01027aa:	89 01                	mov    %eax,(%ecx)
c01027ac:	89 51 04             	mov    %edx,0x4(%ecx)
c01027af:	a1 18 00 11 c0       	mov    0xc0110018,%eax
c01027b4:	8b 50 1c             	mov    0x1c(%eax),%edx
c01027b7:	8b 40 18             	mov    0x18(%eax),%eax
c01027ba:	8b 0d 18 00 11 c0    	mov    0xc0110018,%ecx
c01027c0:	8b 49 04             	mov    0x4(%ecx),%ecx
c01027c3:	83 c1 10             	add    $0x10,%ecx
c01027c6:	83 c8 01             	or     $0x1,%eax
c01027c9:	89 01                	mov    %eax,(%ecx)
c01027cb:	89 51 04             	mov    %edx,0x4(%ecx)
c01027ce:	0f 20 d8             	mov    %cr3,%eax
c01027d1:	0f 22 d8             	mov    %eax,%cr3
c01027d4:	c7 45 fc 00 00 00 00 	movl   $0x0,-0x4(%ebp)
c01027db:	89 65 fc             	mov    %esp,-0x4(%ebp)
c01027de:	90                   	nop
c01027df:	c9                   	leave
c01027e0:	c3                   	ret

c01027e1 <vmm_page_alloc>:
c01027e1:	55                   	push   %ebp
c01027e2:	89 e5                	mov    %esp,%ebp
c01027e4:	56                   	push   %esi
c01027e5:	53                   	push   %ebx
c01027e6:	83 ec 30             	sub    $0x30,%esp
c01027e9:	8b 45 14             	mov    0x14(%ebp),%eax
c01027ec:	89 45 d0             	mov    %eax,-0x30(%ebp)
c01027ef:	8b 45 18             	mov    0x18(%ebp),%eax
c01027f2:	89 45 d4             	mov    %eax,-0x2c(%ebp)
c01027f5:	8b 45 08             	mov    0x8(%ebp),%eax
c01027f8:	8b 40 20             	mov    0x20(%eax),%eax
c01027fb:	89 45 f4             	mov    %eax,-0xc(%ebp)
c01027fe:	8b 45 0c             	mov    0xc(%ebp),%eax
c0102801:	05 ff 0f 00 00       	add    $0xfff,%eax
c0102806:	25 00 f0 ff ff       	and    $0xfffff000,%eax
c010280b:	89 45 0c             	mov    %eax,0xc(%ebp)
c010280e:	83 ec 08             	sub    $0x8,%esp
c0102811:	ff 75 08             	push   0x8(%ebp)
c0102814:	68 c0 a2 10 c0       	push   $0xc010a2c0
c0102819:	e8 16 23 00 00       	call   c0104b34 <logf>
c010281e:	83 c4 10             	add    $0x10,%esp
c0102821:	83 7d f4 00          	cmpl   $0x0,-0xc(%ebp)
c0102825:	75 1a                	jne    c0102841 <vmm_page_alloc+0x60>
c0102827:	83 ec 0c             	sub    $0xc,%esp
c010282a:	68 f0 a2 10 c0       	push   $0xc010a2f0
c010282f:	e8 00 23 00 00       	call   c0104b34 <logf>
c0102834:	83 c4 10             	add    $0x10,%esp
c0102837:	b8 00 00 00 00       	mov    $0x0,%eax
c010283c:	e9 f5 01 00 00       	jmp    c0102a36 <vmm_page_alloc+0x255>
c0102841:	c7 45 f0 00 00 00 00 	movl   $0x0,-0x10(%ebp)
c0102848:	eb 38                	jmp    c0102882 <vmm_page_alloc+0xa1>
c010284a:	8b 45 f4             	mov    -0xc(%ebp),%eax
c010284d:	8b 40 08             	mov    0x8(%eax),%eax
c0102850:	39 45 0c             	cmp    %eax,0xc(%ebp)
c0102853:	75 08                	jne    c010285d <vmm_page_alloc+0x7c>
c0102855:	8b 45 f4             	mov    -0xc(%ebp),%eax
c0102858:	89 45 f0             	mov    %eax,-0x10(%ebp)
c010285b:	eb 2b                	jmp    c0102888 <vmm_page_alloc+0xa7>
c010285d:	8b 45 f4             	mov    -0xc(%ebp),%eax
c0102860:	8b 40 08             	mov    0x8(%eax),%eax
c0102863:	39 45 0c             	cmp    %eax,0xc(%ebp)
c0102866:	72 0b                	jb     c0102873 <vmm_page_alloc+0x92>
c0102868:	8b 45 f4             	mov    -0xc(%ebp),%eax
c010286b:	8b 40 18             	mov    0x18(%eax),%eax
c010286e:	89 45 f4             	mov    %eax,-0xc(%ebp)
c0102871:	eb 0f                	jmp    c0102882 <vmm_page_alloc+0xa1>
c0102873:	8b 45 f4             	mov    -0xc(%ebp),%eax
c0102876:	89 45 f0             	mov    %eax,-0x10(%ebp)
c0102879:	8b 45 f4             	mov    -0xc(%ebp),%eax
c010287c:	8b 40 14             	mov    0x14(%eax),%eax
c010287f:	89 45 f4             	mov    %eax,-0xc(%ebp)
c0102882:	83 7d f4 00          	cmpl   $0x0,-0xc(%ebp)
c0102886:	75 c2                	jne    c010284a <vmm_page_alloc+0x69>
c0102888:	83 7d f0 00          	cmpl   $0x0,-0x10(%ebp)
c010288c:	75 1a                	jne    c01028a8 <vmm_page_alloc+0xc7>
c010288e:	83 ec 0c             	sub    $0xc,%esp
c0102891:	68 12 a3 10 c0       	push   $0xc010a312
c0102896:	e8 99 22 00 00       	call   c0104b34 <logf>
c010289b:	83 c4 10             	add    $0x10,%esp
c010289e:	b8 00 00 00 00       	mov    $0x0,%eax
c01028a3:	e9 8e 01 00 00       	jmp    c0102a36 <vmm_page_alloc+0x255>
c01028a8:	8b 45 f0             	mov    -0x10(%ebp),%eax
c01028ab:	8b 40 08             	mov    0x8(%eax),%eax
c01028ae:	39 45 0c             	cmp    %eax,0xc(%ebp)
c01028b1:	73 23                	jae    c01028d6 <vmm_page_alloc+0xf5>
c01028b3:	8b 45 f0             	mov    -0x10(%ebp),%eax
c01028b6:	8b 40 08             	mov    0x8(%eax),%eax
c01028b9:	2b 45 0c             	sub    0xc(%ebp),%eax
c01028bc:	8b 55 f0             	mov    -0x10(%ebp),%edx
c01028bf:	8b 4a 04             	mov    0x4(%edx),%ecx
c01028c2:	8b 55 0c             	mov    0xc(%ebp),%edx
c01028c5:	01 ca                	add    %ecx,%edx
c01028c7:	6a 00                	push   $0x0
c01028c9:	50                   	push   %eax
c01028ca:	52                   	push   %edx
c01028cb:	ff 75 08             	push   0x8(%ebp)
c01028ce:	e8 f8 65 00 00       	call   c0108ecb <make_node>
c01028d3:	83 c4 10             	add    $0x10,%esp
c01028d6:	8b 45 f0             	mov    -0x10(%ebp),%eax
c01028d9:	8b 40 04             	mov    0x4(%eax),%eax
c01028dc:	89 45 e4             	mov    %eax,-0x1c(%ebp)
c01028df:	a1 1c 00 11 c0       	mov    0xc011001c,%eax
c01028e4:	83 c0 20             	add    $0x20,%eax
c01028e7:	83 ec 04             	sub    $0x4,%esp
c01028ea:	ff 75 f0             	push   -0x10(%ebp)
c01028ed:	50                   	push   %eax
c01028ee:	ff 75 08             	push   0x8(%ebp)
c01028f1:	e8 cb 63 00 00       	call   c0108cc1 <delete_node>
c01028f6:	83 c4 10             	add    $0x10,%esp
c01028f9:	8b 45 d0             	mov    -0x30(%ebp),%eax
c01028fc:	0b 45 d4             	or     -0x2c(%ebp),%eax
c01028ff:	75 70                	jne    c0102971 <vmm_page_alloc+0x190>
c0102901:	c7 45 ec 00 00 00 00 	movl   $0x0,-0x14(%ebp)
c0102908:	eb 5a                	jmp    c0102964 <vmm_page_alloc+0x183>
c010290a:	83 7d 1c 00          	cmpl   $0x0,0x1c(%ebp)
c010290e:	74 29                	je     c0102939 <vmm_page_alloc+0x158>
c0102910:	8b 55 ec             	mov    -0x14(%ebp),%edx
c0102913:	8b 45 e4             	mov    -0x1c(%ebp),%eax
c0102916:	01 d0                	add    %edx,%eax
c0102918:	89 c3                	mov    %eax,%ebx
c010291a:	e8 59 f9 ff ff       	call   c0102278 <alloc_phys_page>
c010291f:	8b 4d 08             	mov    0x8(%ebp),%ecx
c0102922:	8b 49 04             	mov    0x4(%ecx),%ecx
c0102925:	83 ec 0c             	sub    $0xc,%esp
c0102928:	ff 75 10             	push   0x10(%ebp)
c010292b:	53                   	push   %ebx
c010292c:	52                   	push   %edx
c010292d:	50                   	push   %eax
c010292e:	51                   	push   %ecx
c010292f:	e8 8a 13 00 00       	call   c0103cbe <pae_mmap>
c0102934:	83 c4 20             	add    $0x20,%esp
c0102937:	eb 24                	jmp    c010295d <vmm_page_alloc+0x17c>
c0102939:	8b 55 ec             	mov    -0x14(%ebp),%edx
c010293c:	8b 45 e4             	mov    -0x1c(%ebp),%eax
c010293f:	01 d0                	add    %edx,%eax
c0102941:	89 c3                	mov    %eax,%ebx
c0102943:	e8 30 f9 ff ff       	call   c0102278 <alloc_phys_page>
c0102948:	89 c2                	mov    %eax,%edx
c010294a:	8b 45 08             	mov    0x8(%ebp),%eax
c010294d:	8b 00                	mov    (%eax),%eax
c010294f:	ff 75 10             	push   0x10(%ebp)
c0102952:	53                   	push   %ebx
c0102953:	52                   	push   %edx
c0102954:	50                   	push   %eax
c0102955:	e8 67 11 00 00       	call   c0103ac1 <memory_map>
c010295a:	83 c4 10             	add    $0x10,%esp
c010295d:	81 45 ec 00 10 00 00 	addl   $0x1000,-0x14(%ebp)
c0102964:	8b 45 ec             	mov    -0x14(%ebp),%eax
c0102967:	3b 45 0c             	cmp    0xc(%ebp),%eax
c010296a:	72 9e                	jb     c010290a <vmm_page_alloc+0x129>
c010296c:	e9 93 00 00 00       	jmp    c0102a04 <vmm_page_alloc+0x223>
c0102971:	c7 45 e8 00 00 00 00 	movl   $0x0,-0x18(%ebp)
c0102978:	eb 7e                	jmp    c01029f8 <vmm_page_alloc+0x217>
c010297a:	83 7d 1c 00          	cmpl   $0x0,0x1c(%ebp)
c010297e:	74 3b                	je     c01029bb <vmm_page_alloc+0x1da>
c0102980:	8b 55 e8             	mov    -0x18(%ebp),%edx
c0102983:	8b 45 e4             	mov    -0x1c(%ebp),%eax
c0102986:	01 d0                	add    %edx,%eax
c0102988:	89 c6                	mov    %eax,%esi
c010298a:	8b 45 d0             	mov    -0x30(%ebp),%eax
c010298d:	8b 55 d4             	mov    -0x2c(%ebp),%edx
c0102990:	25 00 f0 ff ff       	and    $0xfffff000,%eax
c0102995:	89 c1                	mov    %eax,%ecx
c0102997:	89 d3                	mov    %edx,%ebx
c0102999:	8b 45 e8             	mov    -0x18(%ebp),%eax
c010299c:	99                   	cltd
c010299d:	01 c8                	add    %ecx,%eax
c010299f:	11 da                	adc    %ebx,%edx
c01029a1:	8b 4d 08             	mov    0x8(%ebp),%ecx
c01029a4:	8b 49 04             	mov    0x4(%ecx),%ecx
c01029a7:	83 ec 0c             	sub    $0xc,%esp
c01029aa:	ff 75 10             	push   0x10(%ebp)
c01029ad:	56                   	push   %esi
c01029ae:	52                   	push   %edx
c01029af:	50                   	push   %eax
c01029b0:	51                   	push   %ecx
c01029b1:	e8 08 13 00 00       	call   c0103cbe <pae_mmap>
c01029b6:	83 c4 20             	add    $0x20,%esp
c01029b9:	eb 36                	jmp    c01029f1 <vmm_page_alloc+0x210>
c01029bb:	8b 55 e8             	mov    -0x18(%ebp),%edx
c01029be:	8b 45 e4             	mov    -0x1c(%ebp),%eax
c01029c1:	01 d0                	add    %edx,%eax
c01029c3:	89 c6                	mov    %eax,%esi
c01029c5:	8b 45 d0             	mov    -0x30(%ebp),%eax
c01029c8:	8b 55 d4             	mov    -0x2c(%ebp),%edx
c01029cb:	25 00 f0 ff ff       	and    $0xfffff000,%eax
c01029d0:	89 c1                	mov    %eax,%ecx
c01029d2:	89 d3                	mov    %edx,%ebx
c01029d4:	8b 45 e8             	mov    -0x18(%ebp),%eax
c01029d7:	99                   	cltd
c01029d8:	01 c8                	add    %ecx,%eax
c01029da:	11 da                	adc    %ebx,%edx
c01029dc:	89 c2                	mov    %eax,%edx
c01029de:	8b 45 08             	mov    0x8(%ebp),%eax
c01029e1:	8b 00                	mov    (%eax),%eax
c01029e3:	ff 75 10             	push   0x10(%ebp)
c01029e6:	56                   	push   %esi
c01029e7:	52                   	push   %edx
c01029e8:	50                   	push   %eax
c01029e9:	e8 d3 10 00 00       	call   c0103ac1 <memory_map>
c01029ee:	83 c4 10             	add    $0x10,%esp
c01029f1:	81 45 e8 00 10 00 00 	addl   $0x1000,-0x18(%ebp)
c01029f8:	8b 45 e8             	mov    -0x18(%ebp),%eax
c01029fb:	3b 45 0c             	cmp    0xc(%ebp),%eax
c01029fe:	0f 82 76 ff ff ff    	jb     c010297a <vmm_page_alloc+0x199>
c0102a04:	83 ec 04             	sub    $0x4,%esp
c0102a07:	ff 75 d4             	push   -0x2c(%ebp)
c0102a0a:	ff 75 d0             	push   -0x30(%ebp)
c0102a0d:	68 29 a3 10 c0       	push   $0xc010a329
c0102a12:	e8 1d 21 00 00       	call   c0104b34 <logf>
c0102a17:	83 c4 10             	add    $0x10,%esp
c0102a1a:	8b 4d e4             	mov    -0x1c(%ebp),%ecx
c0102a1d:	bb 00 00 00 00       	mov    $0x0,%ebx
c0102a22:	8b 45 d0             	mov    -0x30(%ebp),%eax
c0102a25:	8b 55 d4             	mov    -0x2c(%ebp),%edx
c0102a28:	25 ff 0f 00 00       	and    $0xfff,%eax
c0102a2d:	ba 00 00 00 00       	mov    $0x0,%edx
c0102a32:	01 c8                	add    %ecx,%eax
c0102a34:	11 da                	adc    %ebx,%edx
c0102a36:	8d 65 f8             	lea    -0x8(%ebp),%esp
c0102a39:	5b                   	pop    %ebx
c0102a3a:	5e                   	pop    %esi
c0102a3b:	5d                   	pop    %ebp
c0102a3c:	c3                   	ret

c0102a3d <vmm_page_free>:
c0102a3d:	55                   	push   %ebp
c0102a3e:	89 e5                	mov    %esp,%ebp
c0102a40:	83 ec 18             	sub    $0x18,%esp
c0102a43:	8b 45 08             	mov    0x8(%ebp),%eax
c0102a46:	8b 00                	mov    (%eax),%eax
c0102a48:	89 45 f4             	mov    %eax,-0xc(%ebp)
c0102a4b:	8b 45 0c             	mov    0xc(%ebp),%eax
c0102a4e:	c1 e8 16             	shr    $0x16,%eax
c0102a51:	8d 14 85 00 00 00 00 	lea    0x0(,%eax,4),%edx
c0102a58:	8b 45 f4             	mov    -0xc(%ebp),%eax
c0102a5b:	01 d0                	add    %edx,%eax
c0102a5d:	8b 00                	mov    (%eax),%eax
c0102a5f:	25 00 fc ff ff       	and    $0xfffffc00,%eax
c0102a64:	89 45 f0             	mov    %eax,-0x10(%ebp)
c0102a67:	83 7d f0 00          	cmpl   $0x0,-0x10(%ebp)
c0102a6b:	74 52                	je     c0102abf <vmm_page_free+0x82>
c0102a6d:	8b 45 0c             	mov    0xc(%ebp),%eax
c0102a70:	c1 e8 0c             	shr    $0xc,%eax
c0102a73:	25 00 fc ff ff       	and    $0xfffffc00,%eax
c0102a78:	8d 14 85 00 00 00 00 	lea    0x0(,%eax,4),%edx
c0102a7f:	8b 45 f0             	mov    -0x10(%ebp),%eax
c0102a82:	01 d0                	add    %edx,%eax
c0102a84:	8b 00                	mov    (%eax),%eax
c0102a86:	89 45 ec             	mov    %eax,-0x14(%ebp)
c0102a89:	8b 45 ec             	mov    -0x14(%ebp),%eax
c0102a8c:	83 e0 01             	and    $0x1,%eax
c0102a8f:	85 c0                	test   %eax,%eax
c0102a91:	74 2f                	je     c0102ac2 <vmm_page_free+0x85>
c0102a93:	8b 45 0c             	mov    0xc(%ebp),%eax
c0102a96:	6a 00                	push   $0x0
c0102a98:	68 00 10 00 00       	push   $0x1000
c0102a9d:	50                   	push   %eax
c0102a9e:	ff 75 08             	push   0x8(%ebp)
c0102aa1:	e8 25 64 00 00       	call   c0108ecb <make_node>
c0102aa6:	83 c4 10             	add    $0x10,%esp
c0102aa9:	8b 45 08             	mov    0x8(%ebp),%eax
c0102aac:	8b 00                	mov    (%eax),%eax
c0102aae:	83 ec 08             	sub    $0x8,%esp
c0102ab1:	ff 75 0c             	push   0xc(%ebp)
c0102ab4:	50                   	push   %eax
c0102ab5:	e8 a7 10 00 00       	call   c0103b61 <memory_unmap>
c0102aba:	83 c4 10             	add    $0x10,%esp
c0102abd:	eb 04                	jmp    c0102ac3 <vmm_page_free+0x86>
c0102abf:	90                   	nop
c0102ac0:	eb 01                	jmp    c0102ac3 <vmm_page_free+0x86>
c0102ac2:	90                   	nop
c0102ac3:	c9                   	leave
c0102ac4:	c3                   	ret

c0102ac5 <pae_page_free>:
c0102ac5:	55                   	push   %ebp
c0102ac6:	89 e5                	mov    %esp,%ebp
c0102ac8:	83 ec 28             	sub    $0x28,%esp
c0102acb:	8b 45 0c             	mov    0xc(%ebp),%eax
c0102ace:	c1 e8 1d             	shr    $0x1d,%eax
c0102ad1:	89 45 f4             	mov    %eax,-0xc(%ebp)
c0102ad4:	8b 45 0c             	mov    0xc(%ebp),%eax
c0102ad7:	c1 e8 15             	shr    $0x15,%eax
c0102ada:	25 ff 01 00 00       	and    $0x1ff,%eax
c0102adf:	89 45 f0             	mov    %eax,-0x10(%ebp)
c0102ae2:	8b 45 0c             	mov    0xc(%ebp),%eax
c0102ae5:	c1 e8 0c             	shr    $0xc,%eax
c0102ae8:	25 ff 01 00 00       	and    $0x1ff,%eax
c0102aed:	89 45 ec             	mov    %eax,-0x14(%ebp)
c0102af0:	8b 45 f4             	mov    -0xc(%ebp),%eax
c0102af3:	c1 e0 1e             	shl    $0x1e,%eax
c0102af6:	05 00 00 e0 3f       	add    $0x3fe00000,%eax
c0102afb:	89 45 e8             	mov    %eax,-0x18(%ebp)
c0102afe:	8b 45 f0             	mov    -0x10(%ebp),%eax
c0102b01:	c1 e0 0c             	shl    $0xc,%eax
c0102b04:	89 c2                	mov    %eax,%edx
c0102b06:	8b 45 e8             	mov    -0x18(%ebp),%eax
c0102b09:	09 d0                	or     %edx,%eax
c0102b0b:	89 45 e4             	mov    %eax,-0x1c(%ebp)
c0102b0e:	8b 45 ec             	mov    -0x14(%ebp),%eax
c0102b11:	8d 14 c5 00 00 00 00 	lea    0x0(,%eax,8),%edx
c0102b18:	8b 45 e4             	mov    -0x1c(%ebp),%eax
c0102b1b:	01 d0                	add    %edx,%eax
c0102b1d:	8b 50 04             	mov    0x4(%eax),%edx
c0102b20:	8b 00                	mov    (%eax),%eax
c0102b22:	25 ff 03 00 00       	and    $0x3ff,%eax
c0102b27:	ba 00 00 00 00       	mov    $0x0,%edx
c0102b2c:	89 45 d8             	mov    %eax,-0x28(%ebp)
c0102b2f:	89 55 dc             	mov    %edx,-0x24(%ebp)
c0102b32:	8b 45 e4             	mov    -0x1c(%ebp),%eax
c0102b35:	ba 00 00 00 00       	mov    $0x0,%edx
c0102b3a:	83 e0 fe             	and    $0xfffffffe,%eax
c0102b3d:	ba 00 00 00 00       	mov    $0x0,%edx
c0102b42:	8b 4d e4             	mov    -0x1c(%ebp),%ecx
c0102b45:	89 01                	mov    %eax,(%ecx)
c0102b47:	89 51 04             	mov    %edx,0x4(%ecx)
c0102b4a:	8b 45 d8             	mov    -0x28(%ebp),%eax
c0102b4d:	83 ec 0c             	sub    $0xc,%esp
c0102b50:	50                   	push   %eax
c0102b51:	e8 12 f7 ff ff       	call   c0102268 <physical_to_frame>
c0102b56:	83 c4 10             	add    $0x10,%esp
c0102b59:	83 ec 0c             	sub    $0xc,%esp
c0102b5c:	50                   	push   %eax
c0102b5d:	e8 58 f6 ff ff       	call   c01021ba <clear_frame>
c0102b62:	83 c4 10             	add    $0x10,%esp
c0102b65:	83 ec 0c             	sub    $0xc,%esp
c0102b68:	ff 75 0c             	push   0xc(%ebp)
c0102b6b:	e8 83 12 00 00       	call   c0103df3 <pae_unmap>
c0102b70:	83 c4 10             	add    $0x10,%esp
c0102b73:	90                   	nop
c0102b74:	c9                   	leave
c0102b75:	c3                   	ret

c0102b76 <init_user_memory>:
c0102b76:	55                   	push   %ebp
c0102b77:	89 e5                	mov    %esp,%ebp
c0102b79:	83 ec 18             	sub    $0x18,%esp
c0102b7c:	83 ec 04             	sub    $0x4,%esp
c0102b7f:	6a 00                	push   $0x0
c0102b81:	6a 03                	push   $0x3
c0102b83:	68 00 10 00 00       	push   $0x1000
c0102b88:	e8 b9 f9 ff ff       	call   c0102546 <page_kalloc>
c0102b8d:	83 c4 10             	add    $0x10,%esp
c0102b90:	89 45 f4             	mov    %eax,-0xc(%ebp)
c0102b93:	90                   	nop
c0102b94:	c9                   	leave
c0102b95:	c3                   	ret

c0102b96 <alloc_stack>:
c0102b96:	55                   	push   %ebp
c0102b97:	89 e5                	mov    %esp,%ebp
c0102b99:	83 ec 18             	sub    $0x18,%esp
c0102b9c:	8b 45 08             	mov    0x8(%ebp),%eax
c0102b9f:	a3 18 00 11 c0       	mov    %eax,0xc0110018
c0102ba4:	6a 00                	push   $0x0
c0102ba6:	6a 00                	push   $0x0
c0102ba8:	6a 03                	push   $0x3
c0102baa:	68 00 10 00 00       	push   $0x1000
c0102baf:	e8 7a fa ff ff       	call   c010262e <pae_alloc>
c0102bb4:	83 c4 10             	add    $0x10,%esp
c0102bb7:	89 45 f4             	mov    %eax,-0xc(%ebp)
c0102bba:	83 ec 08             	sub    $0x8,%esp
c0102bbd:	ff 75 f4             	push   -0xc(%ebp)
c0102bc0:	68 3c a3 10 c0       	push   $0xc010a33c
c0102bc5:	e8 6a 1f 00 00       	call   c0104b34 <logf>
c0102bca:	83 c4 10             	add    $0x10,%esp
c0102bcd:	8b 45 f4             	mov    -0xc(%ebp),%eax
c0102bd0:	05 ff 0f 00 00       	add    $0xfff,%eax
c0102bd5:	c9                   	leave
c0102bd6:	c3                   	ret

c0102bd7 <get_pixel_addr>:
c0102bd7:	55                   	push   %ebp
c0102bd8:	89 e5                	mov    %esp,%ebp
c0102bda:	83 ec 10             	sub    $0x10,%esp
c0102bdd:	a1 2c 00 11 c0       	mov    0xc011002c,%eax
c0102be2:	8b 40 14             	mov    0x14(%eax),%eax
c0102be5:	3b 45 08             	cmp    0x8(%ebp),%eax
c0102be8:	73 0b                	jae    c0102bf5 <get_pixel_addr+0x1e>
c0102bea:	a1 2c 00 11 c0       	mov    0xc011002c,%eax
c0102bef:	8b 40 14             	mov    0x14(%eax),%eax
c0102bf2:	89 45 08             	mov    %eax,0x8(%ebp)
c0102bf5:	a1 2c 00 11 c0       	mov    0xc011002c,%eax
c0102bfa:	8b 40 18             	mov    0x18(%eax),%eax
c0102bfd:	3b 45 0c             	cmp    0xc(%ebp),%eax
c0102c00:	73 0b                	jae    c0102c0d <get_pixel_addr+0x36>
c0102c02:	a1 2c 00 11 c0       	mov    0xc011002c,%eax
c0102c07:	8b 40 18             	mov    0x18(%eax),%eax
c0102c0a:	89 45 0c             	mov    %eax,0xc(%ebp)
c0102c0d:	a1 2c 00 11 c0       	mov    0xc011002c,%eax
c0102c12:	8b 40 10             	mov    0x10(%eax),%eax
c0102c15:	8b 55 0c             	mov    0xc(%ebp),%edx
c0102c18:	0f af c2             	imul   %edx,%eax
c0102c1b:	89 45 fc             	mov    %eax,-0x4(%ebp)
c0102c1e:	a1 3c 00 11 c0       	mov    0xc011003c,%eax
c0102c23:	8b 55 08             	mov    0x8(%ebp),%edx
c0102c26:	0f af c2             	imul   %edx,%eax
c0102c29:	89 45 f8             	mov    %eax,-0x8(%ebp)
c0102c2c:	a1 8c 30 11 c0       	mov    0xc011308c,%eax
c0102c31:	89 c2                	mov    %eax,%edx
c0102c33:	8b 45 fc             	mov    -0x4(%ebp),%eax
c0102c36:	01 c2                	add    %eax,%edx
c0102c38:	8b 45 f8             	mov    -0x8(%ebp),%eax
c0102c3b:	01 d0                	add    %edx,%eax
c0102c3d:	89 45 f4             	mov    %eax,-0xc(%ebp)
c0102c40:	8b 45 f4             	mov    -0xc(%ebp),%eax
c0102c43:	c9                   	leave
c0102c44:	c3                   	ret

c0102c45 <init_framebuffer>:
c0102c45:	55                   	push   %ebp
c0102c46:	89 e5                	mov    %esp,%ebp
c0102c48:	83 ec 18             	sub    $0x18,%esp
c0102c4b:	a1 2c 00 11 c0       	mov    0xc011002c,%eax
c0102c50:	8b 50 0c             	mov    0xc(%eax),%edx
c0102c53:	8b 40 08             	mov    0x8(%eax),%eax
c0102c56:	89 45 f4             	mov    %eax,-0xc(%ebp)
c0102c59:	a1 2c 00 11 c0       	mov    0xc011002c,%eax
c0102c5e:	8b 50 10             	mov    0x10(%eax),%edx
c0102c61:	a1 2c 00 11 c0       	mov    0xc011002c,%eax
c0102c66:	8b 40 18             	mov    0x18(%eax),%eax
c0102c69:	0f af c2             	imul   %edx,%eax
c0102c6c:	89 45 f0             	mov    %eax,-0x10(%ebp)
c0102c6f:	a1 2c 00 11 c0       	mov    0xc011002c,%eax
c0102c74:	0f b6 40 1d          	movzbl 0x1d(%eax),%eax
c0102c78:	0f b6 c0             	movzbl %al,%eax
c0102c7b:	83 ec 08             	sub    $0x8,%esp
c0102c7e:	50                   	push   %eax
c0102c7f:	68 5c a3 10 c0       	push   $0xc010a35c
c0102c84:	e8 ab 1e 00 00       	call   c0104b34 <logf>
c0102c89:	83 c4 10             	add    $0x10,%esp
c0102c8c:	a1 2c 00 11 c0       	mov    0xc011002c,%eax
c0102c91:	8b 48 18             	mov    0x18(%eax),%ecx
c0102c94:	a1 2c 00 11 c0       	mov    0xc011002c,%eax
c0102c99:	8b 50 14             	mov    0x14(%eax),%edx
c0102c9c:	a1 2c 00 11 c0       	mov    0xc011002c,%eax
c0102ca1:	0f b6 40 1c          	movzbl 0x1c(%eax),%eax
c0102ca5:	0f b6 c0             	movzbl %al,%eax
c0102ca8:	51                   	push   %ecx
c0102ca9:	52                   	push   %edx
c0102caa:	50                   	push   %eax
c0102cab:	68 78 a3 10 c0       	push   $0xc010a378
c0102cb0:	e8 7f 1e 00 00       	call   c0104b34 <logf>
c0102cb5:	83 c4 10             	add    $0x10,%esp
c0102cb8:	83 ec 08             	sub    $0x8,%esp
c0102cbb:	ff 75 f4             	push   -0xc(%ebp)
c0102cbe:	68 bc a3 10 c0       	push   $0xc010a3bc
c0102cc3:	e8 6c 1e 00 00       	call   c0104b34 <logf>
c0102cc8:	83 c4 10             	add    $0x10,%esp
c0102ccb:	a1 2c 00 11 c0       	mov    0xc011002c,%eax
c0102cd0:	0f b6 40 1d          	movzbl 0x1d(%eax),%eax
c0102cd4:	0f b6 c0             	movzbl %al,%eax
c0102cd7:	83 f8 02             	cmp    $0x2,%eax
c0102cda:	74 34                	je     c0102d10 <init_framebuffer+0xcb>
c0102cdc:	83 f8 02             	cmp    $0x2,%eax
c0102cdf:	7f 41                	jg     c0102d22 <init_framebuffer+0xdd>
c0102ce1:	85 c0                	test   %eax,%eax
c0102ce3:	74 07                	je     c0102cec <init_framebuffer+0xa7>
c0102ce5:	83 f8 01             	cmp    $0x1,%eax
c0102ce8:	74 14                	je     c0102cfe <init_framebuffer+0xb9>
c0102cea:	eb 36                	jmp    c0102d22 <init_framebuffer+0xdd>
c0102cec:	83 ec 0c             	sub    $0xc,%esp
c0102cef:	68 cc a3 10 c0       	push   $0xc010a3cc
c0102cf4:	e8 de 20 00 00       	call   c0104dd7 <panic>
c0102cf9:	83 c4 10             	add    $0x10,%esp
c0102cfc:	eb 29                	jmp    c0102d27 <init_framebuffer+0xe2>
c0102cfe:	83 ec 0c             	sub    $0xc,%esp
c0102d01:	68 08 a4 10 c0       	push   $0xc010a408
c0102d06:	e8 29 1e 00 00       	call   c0104b34 <logf>
c0102d0b:	83 c4 10             	add    $0x10,%esp
c0102d0e:	eb 17                	jmp    c0102d27 <init_framebuffer+0xe2>
c0102d10:	83 ec 0c             	sub    $0xc,%esp
c0102d13:	68 30 a4 10 c0       	push   $0xc010a430
c0102d18:	e8 ba 20 00 00       	call   c0104dd7 <panic>
c0102d1d:	83 c4 10             	add    $0x10,%esp
c0102d20:	eb 05                	jmp    c0102d27 <init_framebuffer+0xe2>
c0102d22:	e8 c8 20 00 00       	call   c0104def <triple_fault>
c0102d27:	a1 2c 00 11 c0       	mov    0xc011002c,%eax
c0102d2c:	8b 50 0c             	mov    0xc(%eax),%edx
c0102d2f:	8b 40 08             	mov    0x8(%eax),%eax
c0102d32:	52                   	push   %edx
c0102d33:	50                   	push   %eax
c0102d34:	6a 03                	push   $0x3
c0102d36:	ff 75 f0             	push   -0x10(%ebp)
c0102d39:	e8 a0 f8 ff ff       	call   c01025de <pae_kalloc>
c0102d3e:	83 c4 10             	add    $0x10,%esp
c0102d41:	a3 8c 30 11 c0       	mov    %eax,0xc011308c
c0102d46:	a1 2c 00 11 c0       	mov    0xc011002c,%eax
c0102d4b:	0f b6 40 1c          	movzbl 0x1c(%eax),%eax
c0102d4f:	c0 e8 03             	shr    $0x3,%al
c0102d52:	0f b6 c0             	movzbl %al,%eax
c0102d55:	a3 3c 00 11 c0       	mov    %eax,0xc011003c
c0102d5a:	a1 3c 00 11 c0       	mov    0xc011003c,%eax
c0102d5f:	0f b6 c0             	movzbl %al,%eax
c0102d62:	83 ec 0c             	sub    $0xc,%esp
c0102d65:	50                   	push   %eax
c0102d66:	e8 33 37 00 00       	call   c010649e <fb_set_bpp>
c0102d6b:	83 c4 10             	add    $0x10,%esp
c0102d6e:	a1 2c 00 11 c0       	mov    0xc011002c,%eax
c0102d73:	8b 40 14             	mov    0x14(%eax),%eax
c0102d76:	0f b7 c0             	movzwl %ax,%eax
c0102d79:	83 ec 0c             	sub    $0xc,%esp
c0102d7c:	50                   	push   %eax
c0102d7d:	e8 02 37 00 00       	call   c0106484 <fb_set_width>
c0102d82:	83 c4 10             	add    $0x10,%esp
c0102d85:	a1 2c 00 11 c0       	mov    0xc011002c,%eax
c0102d8a:	8b 40 18             	mov    0x18(%eax),%eax
c0102d8d:	0f b7 c0             	movzwl %ax,%eax
c0102d90:	83 ec 0c             	sub    $0xc,%esp
c0102d93:	50                   	push   %eax
c0102d94:	e8 1d 37 00 00       	call   c01064b6 <fb_set_height>
c0102d99:	83 c4 10             	add    $0x10,%esp
c0102d9c:	90                   	nop
c0102d9d:	c9                   	leave
c0102d9e:	c3                   	ret

c0102d9f <validate_RSDP>:
c0102d9f:	55                   	push   %ebp
c0102da0:	89 e5                	mov    %esp,%ebp
c0102da2:	83 ec 10             	sub    $0x10,%esp
c0102da5:	c7 45 fc 00 00 00 00 	movl   $0x0,-0x4(%ebp)
c0102dac:	c7 45 f8 00 00 00 00 	movl   $0x0,-0x8(%ebp)
c0102db3:	eb 15                	jmp    c0102dca <validate_RSDP+0x2b>
c0102db5:	8b 55 f8             	mov    -0x8(%ebp),%edx
c0102db8:	8b 45 08             	mov    0x8(%ebp),%eax
c0102dbb:	01 d0                	add    %edx,%eax
c0102dbd:	0f b6 00             	movzbl (%eax),%eax
c0102dc0:	0f be c0             	movsbl %al,%eax
c0102dc3:	01 45 fc             	add    %eax,-0x4(%ebp)
c0102dc6:	83 45 f8 01          	addl   $0x1,-0x8(%ebp)
c0102dca:	8b 45 f8             	mov    -0x8(%ebp),%eax
c0102dcd:	3b 45 0c             	cmp    0xc(%ebp),%eax
c0102dd0:	72 e3                	jb     c0102db5 <validate_RSDP+0x16>
c0102dd2:	8b 45 fc             	mov    -0x4(%ebp),%eax
c0102dd5:	0f b6 c0             	movzbl %al,%eax
c0102dd8:	85 c0                	test   %eax,%eax
c0102dda:	0f 94 c0             	sete   %al
c0102ddd:	c9                   	leave
c0102dde:	c3                   	ret

c0102ddf <get_sdt_by_signature>:
c0102ddf:	55                   	push   %ebp
c0102de0:	89 e5                	mov    %esp,%ebp
c0102de2:	83 ec 28             	sub    $0x28,%esp
c0102de5:	a1 28 00 11 c0       	mov    0xc0110028,%eax
c0102dea:	8b 40 04             	mov    0x4(%eax),%eax
c0102ded:	83 e8 24             	sub    $0x24,%eax
c0102df0:	c1 e8 02             	shr    $0x2,%eax
c0102df3:	83 e8 01             	sub    $0x1,%eax
c0102df6:	89 45 f0             	mov    %eax,-0x10(%ebp)
c0102df9:	a1 28 00 11 c0       	mov    0xc0110028,%eax
c0102dfe:	89 45 ec             	mov    %eax,-0x14(%ebp)
c0102e01:	83 ec 08             	sub    $0x8,%esp
c0102e04:	ff 75 ec             	push   -0x14(%ebp)
c0102e07:	68 62 a4 10 c0       	push   $0xc010a462
c0102e0c:	e8 23 1d 00 00       	call   c0104b34 <logf>
c0102e11:	83 c4 10             	add    $0x10,%esp
c0102e14:	8b 45 ec             	mov    -0x14(%ebp),%eax
c0102e17:	8b 40 04             	mov    0x4(%eax),%eax
c0102e1a:	83 e8 24             	sub    $0x24,%eax
c0102e1d:	c1 e8 02             	shr    $0x2,%eax
c0102e20:	89 45 e8             	mov    %eax,-0x18(%ebp)
c0102e23:	c7 45 e4 00 00 00 00 	movl   $0x0,-0x1c(%ebp)
c0102e2a:	c7 45 f4 00 00 00 00 	movl   $0x0,-0xc(%ebp)
c0102e31:	eb 6c                	jmp    c0102e9f <get_sdt_by_signature+0xc0>
c0102e33:	8b 45 ec             	mov    -0x14(%ebp),%eax
c0102e36:	8b 55 f4             	mov    -0xc(%ebp),%edx
c0102e39:	83 c2 08             	add    $0x8,%edx
c0102e3c:	8b 44 90 04          	mov    0x4(%eax,%edx,4),%eax
c0102e40:	89 45 e0             	mov    %eax,-0x20(%ebp)
c0102e43:	8b 45 e0             	mov    -0x20(%ebp),%eax
c0102e46:	25 00 fc ff ff       	and    $0xfffffc00,%eax
c0102e4b:	89 c1                	mov    %eax,%ecx
c0102e4d:	8b 45 e0             	mov    -0x20(%ebp),%eax
c0102e50:	25 00 fc ff ff       	and    $0xfffffc00,%eax
c0102e55:	89 c2                	mov    %eax,%edx
c0102e57:	a1 18 00 11 c0       	mov    0xc0110018,%eax
c0102e5c:	8b 00                	mov    (%eax),%eax
c0102e5e:	6a 03                	push   $0x3
c0102e60:	51                   	push   %ecx
c0102e61:	52                   	push   %edx
c0102e62:	50                   	push   %eax
c0102e63:	e8 59 0c 00 00       	call   c0103ac1 <memory_map>
c0102e68:	83 c4 10             	add    $0x10,%esp
c0102e6b:	8b 45 e0             	mov    -0x20(%ebp),%eax
c0102e6e:	83 ec 04             	sub    $0x4,%esp
c0102e71:	6a 04                	push   $0x4
c0102e73:	50                   	push   %eax
c0102e74:	ff 75 08             	push   0x8(%ebp)
c0102e77:	e8 38 23 00 00       	call   c01051b4 <strcmp>
c0102e7c:	83 c4 10             	add    $0x10,%esp
c0102e7f:	84 c0                	test   %al,%al
c0102e81:	74 18                	je     c0102e9b <get_sdt_by_signature+0xbc>
c0102e83:	83 ec 08             	sub    $0x8,%esp
c0102e86:	ff 75 e0             	push   -0x20(%ebp)
c0102e89:	68 6c a4 10 c0       	push   $0xc010a46c
c0102e8e:	e8 a1 1c 00 00       	call   c0104b34 <logf>
c0102e93:	83 c4 10             	add    $0x10,%esp
c0102e96:	8b 45 e0             	mov    -0x20(%ebp),%eax
c0102e99:	eb 21                	jmp    c0102ebc <get_sdt_by_signature+0xdd>
c0102e9b:	83 45 f4 01          	addl   $0x1,-0xc(%ebp)
c0102e9f:	8b 45 f4             	mov    -0xc(%ebp),%eax
c0102ea2:	3b 45 e8             	cmp    -0x18(%ebp),%eax
c0102ea5:	7c 8c                	jl     c0102e33 <get_sdt_by_signature+0x54>
c0102ea7:	83 ec 0c             	sub    $0xc,%esp
c0102eaa:	68 7c a4 10 c0       	push   $0xc010a47c
c0102eaf:	e8 23 1f 00 00       	call   c0104dd7 <panic>
c0102eb4:	83 c4 10             	add    $0x10,%esp
c0102eb7:	b8 00 00 00 00       	mov    $0x0,%eax
c0102ebc:	c9                   	leave
c0102ebd:	c3                   	ret

c0102ebe <init_rsdt_v1>:
c0102ebe:	55                   	push   %ebp
c0102ebf:	89 e5                	mov    %esp,%ebp
c0102ec1:	83 ec 18             	sub    $0x18,%esp
c0102ec4:	a1 30 00 11 c0       	mov    0xc0110030,%eax
c0102ec9:	85 c0                	test   %eax,%eax
c0102ecb:	0f 84 2d 01 00 00    	je     c0102ffe <init_rsdt_v1+0x140>
c0102ed1:	a1 30 00 11 c0       	mov    0xc0110030,%eax
c0102ed6:	83 c0 08             	add    $0x8,%eax
c0102ed9:	89 45 f4             	mov    %eax,-0xc(%ebp)
c0102edc:	8b 45 f4             	mov    -0xc(%ebp),%eax
c0102edf:	8b 40 10             	mov    0x10(%eax),%eax
c0102ee2:	83 ec 08             	sub    $0x8,%esp
c0102ee5:	50                   	push   %eax
c0102ee6:	68 a0 a4 10 c0       	push   $0xc010a4a0
c0102eeb:	e8 44 1c 00 00       	call   c0104b34 <logf>
c0102ef0:	83 c4 10             	add    $0x10,%esp
c0102ef3:	8b 45 f4             	mov    -0xc(%ebp),%eax
c0102ef6:	0f b6 40 08          	movzbl 0x8(%eax),%eax
c0102efa:	0f b6 c0             	movzbl %al,%eax
c0102efd:	83 ec 08             	sub    $0x8,%esp
c0102f00:	50                   	push   %eax
c0102f01:	68 b2 a4 10 c0       	push   $0xc010a4b2
c0102f06:	e8 29 1c 00 00       	call   c0104b34 <logf>
c0102f0b:	83 c4 10             	add    $0x10,%esp
c0102f0e:	8b 45 f4             	mov    -0xc(%ebp),%eax
c0102f11:	0f b6 40 0f          	movzbl 0xf(%eax),%eax
c0102f15:	3c 01                	cmp    $0x1,%al
c0102f17:	76 34                	jbe    c0102f4d <init_rsdt_v1+0x8f>
c0102f19:	83 ec 0c             	sub    $0xc,%esp
c0102f1c:	ff 75 f4             	push   -0xc(%ebp)
c0102f1f:	e8 28 63 00 00       	call   c010924c <validate_table>
c0102f24:	83 c4 10             	add    $0x10,%esp
c0102f27:	84 c0                	test   %al,%al
c0102f29:	75 10                	jne    c0102f3b <init_rsdt_v1+0x7d>
c0102f2b:	83 ec 0c             	sub    $0xc,%esp
c0102f2e:	68 c4 a4 10 c0       	push   $0xc010a4c4
c0102f33:	e8 9f 1e 00 00       	call   c0104dd7 <panic>
c0102f38:	83 c4 10             	add    $0x10,%esp
c0102f3b:	83 ec 0c             	sub    $0xc,%esp
c0102f3e:	68 dc a4 10 c0       	push   $0xc010a4dc
c0102f43:	e8 8f 1e 00 00       	call   c0104dd7 <panic>
c0102f48:	83 c4 10             	add    $0x10,%esp
c0102f4b:	eb 29                	jmp    c0102f76 <init_rsdt_v1+0xb8>
c0102f4d:	83 ec 08             	sub    $0x8,%esp
c0102f50:	6a 13                	push   $0x13
c0102f52:	ff 75 f4             	push   -0xc(%ebp)
c0102f55:	e8 45 fe ff ff       	call   c0102d9f <validate_RSDP>
c0102f5a:	83 c4 10             	add    $0x10,%esp
c0102f5d:	84 c0                	test   %al,%al
c0102f5f:	74 15                	je     c0102f76 <init_rsdt_v1+0xb8>
c0102f61:	83 ec 0c             	sub    $0xc,%esp
c0102f64:	68 fd a4 10 c0       	push   $0xc010a4fd
c0102f69:	e8 69 1e 00 00       	call   c0104dd7 <panic>
c0102f6e:	83 c4 10             	add    $0x10,%esp
c0102f71:	e9 89 00 00 00       	jmp    c0102fff <init_rsdt_v1+0x141>
c0102f76:	8b 45 f4             	mov    -0xc(%ebp),%eax
c0102f79:	8b 40 10             	mov    0x10(%eax),%eax
c0102f7c:	25 00 f0 ff ff       	and    $0xfffff000,%eax
c0102f81:	89 c1                	mov    %eax,%ecx
c0102f83:	8b 45 f4             	mov    -0xc(%ebp),%eax
c0102f86:	8b 40 10             	mov    0x10(%eax),%eax
c0102f89:	25 00 f0 ff ff       	and    $0xfffff000,%eax
c0102f8e:	89 c2                	mov    %eax,%edx
c0102f90:	a1 18 00 11 c0       	mov    0xc0110018,%eax
c0102f95:	8b 00                	mov    (%eax),%eax
c0102f97:	6a 01                	push   $0x1
c0102f99:	51                   	push   %ecx
c0102f9a:	52                   	push   %edx
c0102f9b:	50                   	push   %eax
c0102f9c:	e8 20 0b 00 00       	call   c0103ac1 <memory_map>
c0102fa1:	83 c4 10             	add    $0x10,%esp
c0102fa4:	8b 45 f4             	mov    -0xc(%ebp),%eax
c0102fa7:	8b 40 10             	mov    0x10(%eax),%eax
c0102faa:	a3 28 00 11 c0       	mov    %eax,0xc0110028
c0102faf:	a1 28 00 11 c0       	mov    0xc0110028,%eax
c0102fb4:	8b 40 04             	mov    0x4(%eax),%eax
c0102fb7:	8b 15 28 00 11 c0    	mov    0xc0110028,%edx
c0102fbd:	01 d0                	add    %edx,%eax
c0102fbf:	8b 15 28 00 11 c0    	mov    0xc0110028,%edx
c0102fc5:	81 c2 ff 03 00 00    	add    $0x3ff,%edx
c0102fcb:	81 e2 00 fc ff ff    	and    $0xfffffc00,%edx
c0102fd1:	39 c2                	cmp    %eax,%edx
c0102fd3:	73 16                	jae    c0102feb <init_rsdt_v1+0x12d>
c0102fd5:	a1 18 00 11 c0       	mov    0xc0110018,%eax
c0102fda:	8b 00                	mov    (%eax),%eax
c0102fdc:	6a 01                	push   $0x1
c0102fde:	6a 00                	push   $0x0
c0102fe0:	6a 00                	push   $0x0
c0102fe2:	50                   	push   %eax
c0102fe3:	e8 d9 0a 00 00       	call   c0103ac1 <memory_map>
c0102fe8:	83 c4 10             	add    $0x10,%esp
c0102feb:	a1 28 00 11 c0       	mov    0xc0110028,%eax
c0102ff0:	83 ec 0c             	sub    $0xc,%esp
c0102ff3:	50                   	push   %eax
c0102ff4:	e8 99 62 00 00       	call   c0109292 <load_rsdt_store>
c0102ff9:	83 c4 10             	add    $0x10,%esp
c0102ffc:	eb 01                	jmp    c0102fff <init_rsdt_v1+0x141>
c0102ffe:	90                   	nop
c0102fff:	c9                   	leave
c0103000:	c3                   	ret

c0103001 <init_multiboot>:
c0103001:	55                   	push   %ebp
c0103002:	89 e5                	mov    %esp,%ebp
c0103004:	83 ec 28             	sub    $0x28,%esp
c0103007:	c7 45 e0 00 00 00 00 	movl   $0x0,-0x20(%ebp)
c010300e:	c7 45 e4 00 00 00 00 	movl   $0x0,-0x1c(%ebp)
c0103015:	c7 45 e8 00 00 00 00 	movl   $0x0,-0x18(%ebp)
c010301c:	8b 45 10             	mov    0x10(%ebp),%eax
c010301f:	8b 00                	mov    (%eax),%eax
c0103021:	89 45 f0             	mov    %eax,-0x10(%ebp)
c0103024:	8b 55 10             	mov    0x10(%ebp),%edx
c0103027:	8b 45 f0             	mov    -0x10(%ebp),%eax
c010302a:	01 d0                	add    %edx,%eax
c010302c:	8b 55 10             	mov    0x10(%ebp),%edx
c010302f:	81 c2 ff 03 00 00    	add    $0x3ff,%edx
c0103035:	81 e2 00 fc ff ff    	and    $0xfffffc00,%edx
c010303b:	39 c2                	cmp    %eax,%edx
c010303d:	73 56                	jae    c0103095 <init_multiboot+0x94>
c010303f:	8b 45 10             	mov    0x10(%ebp),%eax
c0103042:	25 00 fc ff ff       	and    $0xfffffc00,%eax
c0103047:	89 c2                	mov    %eax,%edx
c0103049:	8b 45 10             	mov    0x10(%ebp),%eax
c010304c:	05 00 00 00 40       	add    $0x40000000,%eax
c0103051:	25 00 fc ff ff       	and    $0xfffffc00,%eax
c0103056:	6a 03                	push   $0x3
c0103058:	52                   	push   %edx
c0103059:	50                   	push   %eax
c010305a:	ff 75 0c             	push   0xc(%ebp)
c010305d:	e8 5f 0a 00 00       	call   c0103ac1 <memory_map>
c0103062:	83 c4 10             	add    $0x10,%esp
c0103065:	8b 55 10             	mov    0x10(%ebp),%edx
c0103068:	8b 45 f0             	mov    -0x10(%ebp),%eax
c010306b:	01 d0                	add    %edx,%eax
c010306d:	25 00 fc ff ff       	and    $0xfffffc00,%eax
c0103072:	89 c1                	mov    %eax,%ecx
c0103074:	8b 55 10             	mov    0x10(%ebp),%edx
c0103077:	8b 45 f0             	mov    -0x10(%ebp),%eax
c010307a:	01 d0                	add    %edx,%eax
c010307c:	05 00 00 00 40       	add    $0x40000000,%eax
c0103081:	25 00 fc ff ff       	and    $0xfffffc00,%eax
c0103086:	6a 03                	push   $0x3
c0103088:	51                   	push   %ecx
c0103089:	50                   	push   %eax
c010308a:	ff 75 0c             	push   0xc(%ebp)
c010308d:	e8 2f 0a 00 00       	call   c0103ac1 <memory_map>
c0103092:	83 c4 10             	add    $0x10,%esp
c0103095:	8b 55 10             	mov    0x10(%ebp),%edx
c0103098:	8b 45 f0             	mov    -0x10(%ebp),%eax
c010309b:	01 d0                	add    %edx,%eax
c010309d:	8b 00                	mov    (%eax),%eax
c010309f:	89 45 ec             	mov    %eax,-0x14(%ebp)
c01030a2:	8b 45 10             	mov    0x10(%ebp),%eax
c01030a5:	83 c0 08             	add    $0x8,%eax
c01030a8:	89 45 f4             	mov    %eax,-0xc(%ebp)
c01030ab:	eb 5d                	jmp    c010310a <init_multiboot+0x109>
c01030ad:	8b 45 f4             	mov    -0xc(%ebp),%eax
c01030b0:	8b 00                	mov    (%eax),%eax
c01030b2:	83 f8 0f             	cmp    $0xf,%eax
c01030b5:	74 43                	je     c01030fa <init_multiboot+0xf9>
c01030b7:	83 f8 0f             	cmp    $0xf,%eax
c01030ba:	77 3f                	ja     c01030fb <init_multiboot+0xfa>
c01030bc:	83 f8 0e             	cmp    $0xe,%eax
c01030bf:	74 31                	je     c01030f2 <init_multiboot+0xf1>
c01030c1:	83 f8 0e             	cmp    $0xe,%eax
c01030c4:	77 35                	ja     c01030fb <init_multiboot+0xfa>
c01030c6:	83 f8 06             	cmp    $0x6,%eax
c01030c9:	74 07                	je     c01030d2 <init_multiboot+0xd1>
c01030cb:	83 f8 08             	cmp    $0x8,%eax
c01030ce:	74 1a                	je     c01030ea <init_multiboot+0xe9>
c01030d0:	eb 29                	jmp    c01030fb <init_multiboot+0xfa>
c01030d2:	83 ec 0c             	sub    $0xc,%esp
c01030d5:	68 17 a5 10 c0       	push   $0xc010a517
c01030da:	e8 55 1a 00 00       	call   c0104b34 <logf>
c01030df:	83 c4 10             	add    $0x10,%esp
c01030e2:	8b 45 f4             	mov    -0xc(%ebp),%eax
c01030e5:	89 45 e0             	mov    %eax,-0x20(%ebp)
c01030e8:	eb 11                	jmp    c01030fb <init_multiboot+0xfa>
c01030ea:	8b 45 f4             	mov    -0xc(%ebp),%eax
c01030ed:	89 45 e4             	mov    %eax,-0x1c(%ebp)
c01030f0:	eb 09                	jmp    c01030fb <init_multiboot+0xfa>
c01030f2:	8b 45 f4             	mov    -0xc(%ebp),%eax
c01030f5:	89 45 e8             	mov    %eax,-0x18(%ebp)
c01030f8:	eb 01                	jmp    c01030fb <init_multiboot+0xfa>
c01030fa:	90                   	nop
c01030fb:	8b 45 f4             	mov    -0xc(%ebp),%eax
c01030fe:	8b 40 04             	mov    0x4(%eax),%eax
c0103101:	83 c0 07             	add    $0x7,%eax
c0103104:	83 e0 f8             	and    $0xfffffff8,%eax
c0103107:	01 45 f4             	add    %eax,-0xc(%ebp)
c010310a:	8b 45 f4             	mov    -0xc(%ebp),%eax
c010310d:	8b 00                	mov    (%eax),%eax
c010310f:	85 c0                	test   %eax,%eax
c0103111:	75 9a                	jne    c01030ad <init_multiboot+0xac>
c0103113:	8b 45 e4             	mov    -0x1c(%ebp),%eax
c0103116:	a3 2c 00 11 c0       	mov    %eax,0xc011002c
c010311b:	8b 45 e8             	mov    -0x18(%ebp),%eax
c010311e:	a3 30 00 11 c0       	mov    %eax,0xc0110030
c0103123:	a1 30 00 11 c0       	mov    0xc0110030,%eax
c0103128:	85 c0                	test   %eax,%eax
c010312a:	74 05                	je     c0103131 <init_multiboot+0x130>
c010312c:	e8 8d fd ff ff       	call   c0102ebe <init_rsdt_v1>
c0103131:	8b 45 08             	mov    0x8(%ebp),%eax
c0103134:	8b 55 e0             	mov    -0x20(%ebp),%edx
c0103137:	89 10                	mov    %edx,(%eax)
c0103139:	8b 55 e4             	mov    -0x1c(%ebp),%edx
c010313c:	89 50 04             	mov    %edx,0x4(%eax)
c010313f:	8b 55 e8             	mov    -0x18(%ebp),%edx
c0103142:	89 50 08             	mov    %edx,0x8(%eax)
c0103145:	8b 45 08             	mov    0x8(%ebp),%eax
c0103148:	c9                   	leave
c0103149:	c2 04 00             	ret    $0x4

c010314c <gdt_set_gate>:
c010314c:	55                   	push   %ebp
c010314d:	89 e5                	mov    %esp,%ebp
c010314f:	83 ec 08             	sub    $0x8,%esp
c0103152:	8b 55 14             	mov    0x14(%ebp),%edx
c0103155:	8b 45 18             	mov    0x18(%ebp),%eax
c0103158:	88 55 fc             	mov    %dl,-0x4(%ebp)
c010315b:	88 45 f8             	mov    %al,-0x8(%ebp)
c010315e:	8b 45 0c             	mov    0xc(%ebp),%eax
c0103161:	89 c2                	mov    %eax,%edx
c0103163:	8b 45 08             	mov    0x8(%ebp),%eax
c0103166:	66 89 14 c5 42 00 11 	mov    %dx,-0x3feeffbe(,%eax,8)
c010316d:	c0 
c010316e:	8b 45 0c             	mov    0xc(%ebp),%eax
c0103171:	c1 e8 10             	shr    $0x10,%eax
c0103174:	89 c2                	mov    %eax,%edx
c0103176:	8b 45 08             	mov    0x8(%ebp),%eax
c0103179:	88 14 c5 44 00 11 c0 	mov    %dl,-0x3feeffbc(,%eax,8)
c0103180:	8b 45 0c             	mov    0xc(%ebp),%eax
c0103183:	c1 e8 18             	shr    $0x18,%eax
c0103186:	89 c2                	mov    %eax,%edx
c0103188:	8b 45 08             	mov    0x8(%ebp),%eax
c010318b:	88 14 c5 47 00 11 c0 	mov    %dl,-0x3feeffb9(,%eax,8)
c0103192:	8b 45 10             	mov    0x10(%ebp),%eax
c0103195:	89 c2                	mov    %eax,%edx
c0103197:	8b 45 08             	mov    0x8(%ebp),%eax
c010319a:	66 89 14 c5 40 00 11 	mov    %dx,-0x3feeffc0(,%eax,8)
c01031a1:	c0 
c01031a2:	8b 45 10             	mov    0x10(%ebp),%eax
c01031a5:	c1 e8 10             	shr    $0x10,%eax
c01031a8:	83 e0 0f             	and    $0xf,%eax
c01031ab:	89 c2                	mov    %eax,%edx
c01031ad:	8b 45 08             	mov    0x8(%ebp),%eax
c01031b0:	88 14 c5 46 00 11 c0 	mov    %dl,-0x3feeffba(,%eax,8)
c01031b7:	8b 45 08             	mov    0x8(%ebp),%eax
c01031ba:	0f b6 04 c5 46 00 11 	movzbl -0x3feeffba(,%eax,8),%eax
c01031c1:	c0 
c01031c2:	89 c2                	mov    %eax,%edx
c01031c4:	0f b6 45 f8          	movzbl -0x8(%ebp),%eax
c01031c8:	83 e0 f0             	and    $0xfffffff0,%eax
c01031cb:	09 d0                	or     %edx,%eax
c01031cd:	89 c2                	mov    %eax,%edx
c01031cf:	8b 45 08             	mov    0x8(%ebp),%eax
c01031d2:	88 14 c5 46 00 11 c0 	mov    %dl,-0x3feeffba(,%eax,8)
c01031d9:	8b 45 08             	mov    0x8(%ebp),%eax
c01031dc:	0f b6 55 fc          	movzbl -0x4(%ebp),%edx
c01031e0:	88 14 c5 45 00 11 c0 	mov    %dl,-0x3feeffbb(,%eax,8)
c01031e7:	90                   	nop
c01031e8:	c9                   	leave
c01031e9:	c3                   	ret

c01031ea <gdt_install>:
c01031ea:	55                   	push   %ebp
c01031eb:	89 e5                	mov    %esp,%ebp
c01031ed:	83 ec 08             	sub    $0x8,%esp
c01031f0:	66 c7 05 68 00 11 c0 	movw   $0x27,0xc0110068
c01031f7:	27 00 
c01031f9:	b8 40 00 11 c0       	mov    $0xc0110040,%eax
c01031fe:	a3 6a 00 11 c0       	mov    %eax,0xc011006a
c0103203:	6a 00                	push   $0x0
c0103205:	6a 00                	push   $0x0
c0103207:	6a 00                	push   $0x0
c0103209:	6a 00                	push   $0x0
c010320b:	6a 00                	push   $0x0
c010320d:	e8 3a ff ff ff       	call   c010314c <gdt_set_gate>
c0103212:	83 c4 14             	add    $0x14,%esp
c0103215:	68 cf 00 00 00       	push   $0xcf
c010321a:	68 9a 00 00 00       	push   $0x9a
c010321f:	6a ff                	push   $0xffffffff
c0103221:	6a 00                	push   $0x0
c0103223:	6a 01                	push   $0x1
c0103225:	e8 22 ff ff ff       	call   c010314c <gdt_set_gate>
c010322a:	83 c4 14             	add    $0x14,%esp
c010322d:	68 cf 00 00 00       	push   $0xcf
c0103232:	68 92 00 00 00       	push   $0x92
c0103237:	6a ff                	push   $0xffffffff
c0103239:	6a 00                	push   $0x0
c010323b:	6a 02                	push   $0x2
c010323d:	e8 0a ff ff ff       	call   c010314c <gdt_set_gate>
c0103242:	83 c4 14             	add    $0x14,%esp
c0103245:	68 cf 00 00 00       	push   $0xcf
c010324a:	68 fa 00 00 00       	push   $0xfa
c010324f:	6a ff                	push   $0xffffffff
c0103251:	6a 00                	push   $0x0
c0103253:	6a 03                	push   $0x3
c0103255:	e8 f2 fe ff ff       	call   c010314c <gdt_set_gate>
c010325a:	83 c4 14             	add    $0x14,%esp
c010325d:	68 cf 00 00 00       	push   $0xcf
c0103262:	68 f2 00 00 00       	push   $0xf2
c0103267:	6a ff                	push   $0xffffffff
c0103269:	6a 00                	push   $0x0
c010326b:	6a 04                	push   $0x4
c010326d:	e8 da fe ff ff       	call   c010314c <gdt_set_gate>
c0103272:	83 c4 14             	add    $0x14,%esp
c0103275:	b8 68 00 11 c0       	mov    $0xc0110068,%eax
c010327a:	83 ec 0c             	sub    $0xc,%esp
c010327d:	50                   	push   %eax
c010327e:	e8 c0 dd ff ff       	call   c0101043 <flush_gdt>
c0103283:	83 c4 10             	add    $0x10,%esp
c0103286:	90                   	nop
c0103287:	c9                   	leave
c0103288:	c3                   	ret

c0103289 <idt_set_gate>:
c0103289:	55                   	push   %ebp
c010328a:	89 e5                	mov    %esp,%ebp
c010328c:	83 ec 08             	sub    $0x8,%esp
c010328f:	8b 55 08             	mov    0x8(%ebp),%edx
c0103292:	8b 45 10             	mov    0x10(%ebp),%eax
c0103295:	88 55 fc             	mov    %dl,-0x4(%ebp)
c0103298:	88 45 f8             	mov    %al,-0x8(%ebp)
c010329b:	0f b6 45 fc          	movzbl -0x4(%ebp),%eax
c010329f:	8b 55 0c             	mov    0xc(%ebp),%edx
c01032a2:	66 89 14 c5 80 00 11 	mov    %dx,-0x3feeff80(,%eax,8)
c01032a9:	c0 
c01032aa:	0f b6 45 fc          	movzbl -0x4(%ebp),%eax
c01032ae:	66 c7 04 c5 82 00 11 	movw   $0x8,-0x3feeff7e(,%eax,8)
c01032b5:	c0 08 00 
c01032b8:	0f b6 45 fc          	movzbl -0x4(%ebp),%eax
c01032bc:	0f b6 55 f8          	movzbl -0x8(%ebp),%edx
c01032c0:	88 14 c5 85 00 11 c0 	mov    %dl,-0x3feeff7b(,%eax,8)
c01032c7:	8b 45 0c             	mov    0xc(%ebp),%eax
c01032ca:	c1 e8 10             	shr    $0x10,%eax
c01032cd:	89 c2                	mov    %eax,%edx
c01032cf:	0f b6 45 fc          	movzbl -0x4(%ebp),%eax
c01032d3:	66 89 14 c5 86 00 11 	mov    %dx,-0x3feeff7a(,%eax,8)
c01032da:	c0 
c01032db:	0f b6 45 fc          	movzbl -0x4(%ebp),%eax
c01032df:	c6 04 c5 84 00 11 c0 	movb   $0x0,-0x3feeff7c(,%eax,8)
c01032e6:	00 
c01032e7:	90                   	nop
c01032e8:	c9                   	leave
c01032e9:	c3                   	ret

c01032ea <init_idt>:
c01032ea:	55                   	push   %ebp
c01032eb:	89 e5                	mov    %esp,%ebp
c01032ed:	83 ec 08             	sub    $0x8,%esp
c01032f0:	b8 80 00 11 c0       	mov    $0xc0110080,%eax
c01032f5:	a3 82 08 11 c0       	mov    %eax,0xc0110882
c01032fa:	66 c7 05 80 08 11 c0 	movw   $0x7ff,0xc0110880
c0103301:	ff 07 
c0103303:	83 ec 04             	sub    $0x4,%esp
c0103306:	68 ff 07 00 00       	push   $0x7ff
c010330b:	6a 00                	push   $0x0
c010330d:	68 80 00 11 c0       	push   $0xc0110080
c0103312:	e8 4e 1e 00 00       	call   c0105165 <memset>
c0103317:	83 c4 10             	add    $0x10,%esp
c010331a:	b8 60 57 10 c0       	mov    $0xc0105760,%eax
c010331f:	83 ec 04             	sub    $0x4,%esp
c0103322:	68 8e 00 00 00       	push   $0x8e
c0103327:	50                   	push   %eax
c0103328:	6a 00                	push   $0x0
c010332a:	e8 5a ff ff ff       	call   c0103289 <idt_set_gate>
c010332f:	83 c4 10             	add    $0x10,%esp
c0103332:	b8 6a 57 10 c0       	mov    $0xc010576a,%eax
c0103337:	83 ec 04             	sub    $0x4,%esp
c010333a:	68 8e 00 00 00       	push   $0x8e
c010333f:	50                   	push   %eax
c0103340:	6a 01                	push   $0x1
c0103342:	e8 42 ff ff ff       	call   c0103289 <idt_set_gate>
c0103347:	83 c4 10             	add    $0x10,%esp
c010334a:	b8 74 57 10 c0       	mov    $0xc0105774,%eax
c010334f:	83 ec 04             	sub    $0x4,%esp
c0103352:	68 8e 00 00 00       	push   $0x8e
c0103357:	50                   	push   %eax
c0103358:	6a 02                	push   $0x2
c010335a:	e8 2a ff ff ff       	call   c0103289 <idt_set_gate>
c010335f:	83 c4 10             	add    $0x10,%esp
c0103362:	b8 7e 57 10 c0       	mov    $0xc010577e,%eax
c0103367:	83 ec 04             	sub    $0x4,%esp
c010336a:	68 8e 00 00 00       	push   $0x8e
c010336f:	50                   	push   %eax
c0103370:	6a 03                	push   $0x3
c0103372:	e8 12 ff ff ff       	call   c0103289 <idt_set_gate>
c0103377:	83 c4 10             	add    $0x10,%esp
c010337a:	b8 88 57 10 c0       	mov    $0xc0105788,%eax
c010337f:	83 ec 04             	sub    $0x4,%esp
c0103382:	68 8e 00 00 00       	push   $0x8e
c0103387:	50                   	push   %eax
c0103388:	6a 04                	push   $0x4
c010338a:	e8 fa fe ff ff       	call   c0103289 <idt_set_gate>
c010338f:	83 c4 10             	add    $0x10,%esp
c0103392:	b8 92 57 10 c0       	mov    $0xc0105792,%eax
c0103397:	83 ec 04             	sub    $0x4,%esp
c010339a:	68 8e 00 00 00       	push   $0x8e
c010339f:	50                   	push   %eax
c01033a0:	6a 05                	push   $0x5
c01033a2:	e8 e2 fe ff ff       	call   c0103289 <idt_set_gate>
c01033a7:	83 c4 10             	add    $0x10,%esp
c01033aa:	b8 9c 57 10 c0       	mov    $0xc010579c,%eax
c01033af:	83 ec 04             	sub    $0x4,%esp
c01033b2:	68 8e 00 00 00       	push   $0x8e
c01033b7:	50                   	push   %eax
c01033b8:	6a 06                	push   $0x6
c01033ba:	e8 ca fe ff ff       	call   c0103289 <idt_set_gate>
c01033bf:	83 c4 10             	add    $0x10,%esp
c01033c2:	b8 a6 57 10 c0       	mov    $0xc01057a6,%eax
c01033c7:	83 ec 04             	sub    $0x4,%esp
c01033ca:	68 8e 00 00 00       	push   $0x8e
c01033cf:	50                   	push   %eax
c01033d0:	6a 07                	push   $0x7
c01033d2:	e8 b2 fe ff ff       	call   c0103289 <idt_set_gate>
c01033d7:	83 c4 10             	add    $0x10,%esp
c01033da:	b8 b0 57 10 c0       	mov    $0xc01057b0,%eax
c01033df:	83 ec 04             	sub    $0x4,%esp
c01033e2:	68 8e 00 00 00       	push   $0x8e
c01033e7:	50                   	push   %eax
c01033e8:	6a 08                	push   $0x8
c01033ea:	e8 9a fe ff ff       	call   c0103289 <idt_set_gate>
c01033ef:	83 c4 10             	add    $0x10,%esp
c01033f2:	b8 b8 57 10 c0       	mov    $0xc01057b8,%eax
c01033f7:	83 ec 04             	sub    $0x4,%esp
c01033fa:	68 8e 00 00 00       	push   $0x8e
c01033ff:	50                   	push   %eax
c0103400:	6a 09                	push   $0x9
c0103402:	e8 82 fe ff ff       	call   c0103289 <idt_set_gate>
c0103407:	83 c4 10             	add    $0x10,%esp
c010340a:	b8 c2 57 10 c0       	mov    $0xc01057c2,%eax
c010340f:	83 ec 04             	sub    $0x4,%esp
c0103412:	68 8e 00 00 00       	push   $0x8e
c0103417:	50                   	push   %eax
c0103418:	6a 0a                	push   $0xa
c010341a:	e8 6a fe ff ff       	call   c0103289 <idt_set_gate>
c010341f:	83 c4 10             	add    $0x10,%esp
c0103422:	b8 ca 57 10 c0       	mov    $0xc01057ca,%eax
c0103427:	83 ec 04             	sub    $0x4,%esp
c010342a:	68 8e 00 00 00       	push   $0x8e
c010342f:	50                   	push   %eax
c0103430:	6a 0b                	push   $0xb
c0103432:	e8 52 fe ff ff       	call   c0103289 <idt_set_gate>
c0103437:	83 c4 10             	add    $0x10,%esp
c010343a:	b8 d2 57 10 c0       	mov    $0xc01057d2,%eax
c010343f:	83 ec 04             	sub    $0x4,%esp
c0103442:	68 8e 00 00 00       	push   $0x8e
c0103447:	50                   	push   %eax
c0103448:	6a 0c                	push   $0xc
c010344a:	e8 3a fe ff ff       	call   c0103289 <idt_set_gate>
c010344f:	83 c4 10             	add    $0x10,%esp
c0103452:	b8 da 57 10 c0       	mov    $0xc01057da,%eax
c0103457:	83 ec 04             	sub    $0x4,%esp
c010345a:	68 8e 00 00 00       	push   $0x8e
c010345f:	50                   	push   %eax
c0103460:	6a 0d                	push   $0xd
c0103462:	e8 22 fe ff ff       	call   c0103289 <idt_set_gate>
c0103467:	83 c4 10             	add    $0x10,%esp
c010346a:	b8 e2 57 10 c0       	mov    $0xc01057e2,%eax
c010346f:	83 ec 04             	sub    $0x4,%esp
c0103472:	68 8e 00 00 00       	push   $0x8e
c0103477:	50                   	push   %eax
c0103478:	6a 0e                	push   $0xe
c010347a:	e8 0a fe ff ff       	call   c0103289 <idt_set_gate>
c010347f:	83 c4 10             	add    $0x10,%esp
c0103482:	b8 ea 57 10 c0       	mov    $0xc01057ea,%eax
c0103487:	83 ec 04             	sub    $0x4,%esp
c010348a:	68 8e 00 00 00       	push   $0x8e
c010348f:	50                   	push   %eax
c0103490:	6a 0f                	push   $0xf
c0103492:	e8 f2 fd ff ff       	call   c0103289 <idt_set_gate>
c0103497:	83 c4 10             	add    $0x10,%esp
c010349a:	b8 f4 57 10 c0       	mov    $0xc01057f4,%eax
c010349f:	83 ec 04             	sub    $0x4,%esp
c01034a2:	68 8e 00 00 00       	push   $0x8e
c01034a7:	50                   	push   %eax
c01034a8:	6a 10                	push   $0x10
c01034aa:	e8 da fd ff ff       	call   c0103289 <idt_set_gate>
c01034af:	83 c4 10             	add    $0x10,%esp
c01034b2:	b8 fe 57 10 c0       	mov    $0xc01057fe,%eax
c01034b7:	83 ec 04             	sub    $0x4,%esp
c01034ba:	68 8e 00 00 00       	push   $0x8e
c01034bf:	50                   	push   %eax
c01034c0:	6a 11                	push   $0x11
c01034c2:	e8 c2 fd ff ff       	call   c0103289 <idt_set_gate>
c01034c7:	83 c4 10             	add    $0x10,%esp
c01034ca:	b8 06 58 10 c0       	mov    $0xc0105806,%eax
c01034cf:	83 ec 04             	sub    $0x4,%esp
c01034d2:	68 8e 00 00 00       	push   $0x8e
c01034d7:	50                   	push   %eax
c01034d8:	6a 12                	push   $0x12
c01034da:	e8 aa fd ff ff       	call   c0103289 <idt_set_gate>
c01034df:	83 c4 10             	add    $0x10,%esp
c01034e2:	b8 10 58 10 c0       	mov    $0xc0105810,%eax
c01034e7:	83 ec 04             	sub    $0x4,%esp
c01034ea:	68 8e 00 00 00       	push   $0x8e
c01034ef:	50                   	push   %eax
c01034f0:	6a 13                	push   $0x13
c01034f2:	e8 92 fd ff ff       	call   c0103289 <idt_set_gate>
c01034f7:	83 c4 10             	add    $0x10,%esp
c01034fa:	b8 1a 58 10 c0       	mov    $0xc010581a,%eax
c01034ff:	83 ec 04             	sub    $0x4,%esp
c0103502:	68 8e 00 00 00       	push   $0x8e
c0103507:	50                   	push   %eax
c0103508:	6a 14                	push   $0x14
c010350a:	e8 7a fd ff ff       	call   c0103289 <idt_set_gate>
c010350f:	83 c4 10             	add    $0x10,%esp
c0103512:	b8 24 58 10 c0       	mov    $0xc0105824,%eax
c0103517:	83 ec 04             	sub    $0x4,%esp
c010351a:	68 8e 00 00 00       	push   $0x8e
c010351f:	50                   	push   %eax
c0103520:	6a 15                	push   $0x15
c0103522:	e8 62 fd ff ff       	call   c0103289 <idt_set_gate>
c0103527:	83 c4 10             	add    $0x10,%esp
c010352a:	b8 2e 58 10 c0       	mov    $0xc010582e,%eax
c010352f:	83 ec 04             	sub    $0x4,%esp
c0103532:	68 8e 00 00 00       	push   $0x8e
c0103537:	50                   	push   %eax
c0103538:	6a 16                	push   $0x16
c010353a:	e8 4a fd ff ff       	call   c0103289 <idt_set_gate>
c010353f:	83 c4 10             	add    $0x10,%esp
c0103542:	b8 38 58 10 c0       	mov    $0xc0105838,%eax
c0103547:	83 ec 04             	sub    $0x4,%esp
c010354a:	68 8e 00 00 00       	push   $0x8e
c010354f:	50                   	push   %eax
c0103550:	6a 17                	push   $0x17
c0103552:	e8 32 fd ff ff       	call   c0103289 <idt_set_gate>
c0103557:	83 c4 10             	add    $0x10,%esp
c010355a:	b8 42 58 10 c0       	mov    $0xc0105842,%eax
c010355f:	83 ec 04             	sub    $0x4,%esp
c0103562:	68 8e 00 00 00       	push   $0x8e
c0103567:	50                   	push   %eax
c0103568:	6a 18                	push   $0x18
c010356a:	e8 1a fd ff ff       	call   c0103289 <idt_set_gate>
c010356f:	83 c4 10             	add    $0x10,%esp
c0103572:	b8 4c 58 10 c0       	mov    $0xc010584c,%eax
c0103577:	83 ec 04             	sub    $0x4,%esp
c010357a:	68 8e 00 00 00       	push   $0x8e
c010357f:	50                   	push   %eax
c0103580:	6a 19                	push   $0x19
c0103582:	e8 02 fd ff ff       	call   c0103289 <idt_set_gate>
c0103587:	83 c4 10             	add    $0x10,%esp
c010358a:	b8 56 58 10 c0       	mov    $0xc0105856,%eax
c010358f:	83 ec 04             	sub    $0x4,%esp
c0103592:	68 8e 00 00 00       	push   $0x8e
c0103597:	50                   	push   %eax
c0103598:	6a 1a                	push   $0x1a
c010359a:	e8 ea fc ff ff       	call   c0103289 <idt_set_gate>
c010359f:	83 c4 10             	add    $0x10,%esp
c01035a2:	b8 60 58 10 c0       	mov    $0xc0105860,%eax
c01035a7:	83 ec 04             	sub    $0x4,%esp
c01035aa:	68 8e 00 00 00       	push   $0x8e
c01035af:	50                   	push   %eax
c01035b0:	6a 1b                	push   $0x1b
c01035b2:	e8 d2 fc ff ff       	call   c0103289 <idt_set_gate>
c01035b7:	83 c4 10             	add    $0x10,%esp
c01035ba:	b8 6a 58 10 c0       	mov    $0xc010586a,%eax
c01035bf:	83 ec 04             	sub    $0x4,%esp
c01035c2:	68 8e 00 00 00       	push   $0x8e
c01035c7:	50                   	push   %eax
c01035c8:	6a 1c                	push   $0x1c
c01035ca:	e8 ba fc ff ff       	call   c0103289 <idt_set_gate>
c01035cf:	83 c4 10             	add    $0x10,%esp
c01035d2:	b8 74 58 10 c0       	mov    $0xc0105874,%eax
c01035d7:	83 ec 04             	sub    $0x4,%esp
c01035da:	68 8e 00 00 00       	push   $0x8e
c01035df:	50                   	push   %eax
c01035e0:	6a 1d                	push   $0x1d
c01035e2:	e8 a2 fc ff ff       	call   c0103289 <idt_set_gate>
c01035e7:	83 c4 10             	add    $0x10,%esp
c01035ea:	b8 7e 58 10 c0       	mov    $0xc010587e,%eax
c01035ef:	83 ec 04             	sub    $0x4,%esp
c01035f2:	68 8e 00 00 00       	push   $0x8e
c01035f7:	50                   	push   %eax
c01035f8:	6a 1e                	push   $0x1e
c01035fa:	e8 8a fc ff ff       	call   c0103289 <idt_set_gate>
c01035ff:	83 c4 10             	add    $0x10,%esp
c0103602:	b8 86 58 10 c0       	mov    $0xc0105886,%eax
c0103607:	83 ec 04             	sub    $0x4,%esp
c010360a:	68 8e 00 00 00       	push   $0x8e
c010360f:	50                   	push   %eax
c0103610:	6a 1f                	push   $0x1f
c0103612:	e8 72 fc ff ff       	call   c0103289 <idt_set_gate>
c0103617:	83 c4 10             	add    $0x10,%esp
c010361a:	b8 52 57 10 c0       	mov    $0xc0105752,%eax
c010361f:	83 ec 04             	sub    $0x4,%esp
c0103622:	68 8f 00 00 00       	push   $0x8f
c0103627:	50                   	push   %eax
c0103628:	6a 30                	push   $0x30
c010362a:	e8 5a fc ff ff       	call   c0103289 <idt_set_gate>
c010362f:	83 c4 10             	add    $0x10,%esp
c0103632:	b8 90 58 10 c0       	mov    $0xc0105890,%eax
c0103637:	83 ec 04             	sub    $0x4,%esp
c010363a:	68 8e 00 00 00       	push   $0x8e
c010363f:	50                   	push   %eax
c0103640:	6a 31                	push   $0x31
c0103642:	e8 42 fc ff ff       	call   c0103289 <idt_set_gate>
c0103647:	83 c4 10             	add    $0x10,%esp
c010364a:	b8 9a 58 10 c0       	mov    $0xc010589a,%eax
c010364f:	83 ec 04             	sub    $0x4,%esp
c0103652:	68 8f 00 00 00       	push   $0x8f
c0103657:	50                   	push   %eax
c0103658:	6a 32                	push   $0x32
c010365a:	e8 2a fc ff ff       	call   c0103289 <idt_set_gate>
c010365f:	83 c4 10             	add    $0x10,%esp
c0103662:	b8 a4 58 10 c0       	mov    $0xc01058a4,%eax
c0103667:	83 ec 04             	sub    $0x4,%esp
c010366a:	68 8f 00 00 00       	push   $0x8f
c010366f:	50                   	push   %eax
c0103670:	6a 33                	push   $0x33
c0103672:	e8 12 fc ff ff       	call   c0103289 <idt_set_gate>
c0103677:	83 c4 10             	add    $0x10,%esp
c010367a:	b8 2c 57 10 c0       	mov    $0xc010572c,%eax
c010367f:	83 ec 04             	sub    $0x4,%esp
c0103682:	68 8f 00 00 00       	push   $0x8f
c0103687:	50                   	push   %eax
c0103688:	68 80 00 00 00       	push   $0x80
c010368d:	e8 f7 fb ff ff       	call   c0103289 <idt_set_gate>
c0103692:	83 c4 10             	add    $0x10,%esp
c0103695:	83 ec 0c             	sub    $0xc,%esp
c0103698:	68 34 a5 10 c0       	push   $0xc010a534
c010369d:	e8 58 12 00 00       	call   c01048fa <log_to_serial>
c01036a2:	83 c4 10             	add    $0x10,%esp
c01036a5:	0f 01 1d 80 08 11 c0 	lidtl  0xc0110880
c01036ac:	89 25 70 00 11 c0    	mov    %esp,0xc0110070
c01036b2:	a1 70 00 11 c0       	mov    0xc0110070,%eax
c01036b7:	83 ec 08             	sub    $0x8,%esp
c01036ba:	50                   	push   %eax
c01036bb:	68 40 a5 10 c0       	push   $0xc010a540
c01036c0:	e8 6f 14 00 00       	call   c0104b34 <logf>
c01036c5:	83 c4 10             	add    $0x10,%esp
c01036c8:	fb                   	sti
c01036c9:	90                   	nop
c01036ca:	c9                   	leave
c01036cb:	c3                   	ret

c01036cc <stack_trace>:
c01036cc:	55                   	push   %ebp
c01036cd:	89 e5                	mov    %esp,%ebp
c01036cf:	83 ec 18             	sub    $0x18,%esp
c01036d2:	c7 45 f4 00 00 00 00 	movl   $0x0,-0xc(%ebp)
c01036d9:	89 e8                	mov    %ebp,%eax
c01036db:	89 45 f4             	mov    %eax,-0xc(%ebp)
c01036de:	c7 45 f0 00 00 00 00 	movl   $0x0,-0x10(%ebp)
c01036e5:	eb 23                	jmp    c010370a <stack_trace+0x3e>
c01036e7:	8b 45 f4             	mov    -0xc(%ebp),%eax
c01036ea:	83 c0 04             	add    $0x4,%eax
c01036ed:	8b 00                	mov    (%eax),%eax
c01036ef:	83 ec 04             	sub    $0x4,%esp
c01036f2:	6a 01                	push   $0x1
c01036f4:	50                   	push   %eax
c01036f5:	68 50 a5 10 c0       	push   $0xc010a550
c01036fa:	e8 6d 48 00 00       	call   c0107f6c <printf>
c01036ff:	83 c4 10             	add    $0x10,%esp
c0103702:	8b 45 f4             	mov    -0xc(%ebp),%eax
c0103705:	8b 00                	mov    (%eax),%eax
c0103707:	89 45 f4             	mov    %eax,-0xc(%ebp)
c010370a:	83 7d f4 00          	cmpl   $0x0,-0xc(%ebp)
c010370e:	75 d7                	jne    c01036e7 <stack_trace+0x1b>
c0103710:	90                   	nop
c0103711:	90                   	nop
c0103712:	c9                   	leave
c0103713:	c3                   	ret

c0103714 <kernel_stack_fn>:
c0103714:	55                   	push   %ebp
c0103715:	89 e5                	mov    %esp,%ebp
c0103717:	53                   	push   %ebx
c0103718:	83 ec 14             	sub    $0x14,%esp
c010371b:	83 7d 08 04          	cmpl   $0x4,0x8(%ebp)
c010371f:	75 35                	jne    c0103756 <kernel_stack_fn+0x42>
c0103721:	89 45 f4             	mov    %eax,-0xc(%ebp)
c0103724:	89 5d f0             	mov    %ebx,-0x10(%ebp)
c0103727:	89 4d ec             	mov    %ecx,-0x14(%ebp)
c010372a:	89 55 e8             	mov    %edx,-0x18(%ebp)
c010372d:	8b 5d e8             	mov    -0x18(%ebp),%ebx
c0103730:	8b 4d ec             	mov    -0x14(%ebp),%ecx
c0103733:	8b 55 f0             	mov    -0x10(%ebp),%edx
c0103736:	8b 45 f4             	mov    -0xc(%ebp),%eax
c0103739:	53                   	push   %ebx
c010373a:	51                   	push   %ecx
c010373b:	52                   	push   %edx
c010373c:	50                   	push   %eax
c010373d:	e8 d8 39 00 00       	call   c010711a <create_process>
c0103742:	83 c4 10             	add    $0x10,%esp
c0103745:	83 ec 0c             	sub    $0xc,%esp
c0103748:	68 66 a5 10 c0       	push   $0xc010a566
c010374d:	e8 e2 13 00 00       	call   c0104b34 <logf>
c0103752:	83 c4 10             	add    $0x10,%esp
c0103755:	90                   	nop
c0103756:	a1 20 30 11 c0       	mov    0xc0113020,%eax
c010375b:	83 ec 0c             	sub    $0xc,%esp
c010375e:	50                   	push   %eax
c010375f:	e8 21 23 00 00       	call   c0105a85 <send_EOI>
c0103764:	83 c4 10             	add    $0x10,%esp
c0103767:	90                   	nop
c0103768:	8b 5d fc             	mov    -0x4(%ebp),%ebx
c010376b:	c9                   	leave
c010376c:	c3                   	ret

c010376d <exc_print>:
c010376d:	55                   	push   %ebp
c010376e:	89 e5                	mov    %esp,%ebp
c0103770:	57                   	push   %edi
c0103771:	56                   	push   %esi
c0103772:	53                   	push   %ebx
c0103773:	83 ec 3c             	sub    $0x3c,%esp
c0103776:	c7 45 e4 01 00 00 00 	movl   $0x1,-0x1c(%ebp)
c010377d:	8b 45 08             	mov    0x8(%ebp),%eax
c0103780:	8b 40 2c             	mov    0x2c(%eax),%eax
c0103783:	83 f8 1b             	cmp    $0x1b,%eax
c0103786:	0f 87 50 01 00 00    	ja     c01038dc <exc_print+0x16f>
c010378c:	8b 04 85 00 a7 10 c0 	mov    -0x3fef5900(,%eax,4),%eax
c0103793:	ff e0                	jmp    *%eax
c0103795:	83 ec 0c             	sub    $0xc,%esp
c0103798:	68 78 a5 10 c0       	push   $0xc010a578
c010379d:	e8 92 13 00 00       	call   c0104b34 <logf>
c01037a2:	83 c4 10             	add    $0x10,%esp
c01037a5:	e9 68 01 00 00       	jmp    c0103912 <exc_print+0x1a5>
c01037aa:	83 ec 0c             	sub    $0xc,%esp
c01037ad:	68 9c a5 10 c0       	push   $0xc010a59c
c01037b2:	e8 7d 13 00 00       	call   c0104b34 <logf>
c01037b7:	83 c4 10             	add    $0x10,%esp
c01037ba:	e9 53 01 00 00       	jmp    c0103912 <exc_print+0x1a5>
c01037bf:	8b 45 08             	mov    0x8(%ebp),%eax
c01037c2:	8b 40 30             	mov    0x30(%eax),%eax
c01037c5:	83 ec 08             	sub    $0x8,%esp
c01037c8:	50                   	push   %eax
c01037c9:	68 bd a5 10 c0       	push   $0xc010a5bd
c01037ce:	e8 61 13 00 00       	call   c0104b34 <logf>
c01037d3:	83 c4 10             	add    $0x10,%esp
c01037d6:	83 ec 0c             	sub    $0xc,%esp
c01037d9:	68 cc a5 10 c0       	push   $0xc010a5cc
c01037de:	e8 17 11 00 00       	call   c01048fa <log_to_serial>
c01037e3:	83 c4 10             	add    $0x10,%esp
c01037e6:	e9 27 01 00 00       	jmp    c0103912 <exc_print+0x1a5>
c01037eb:	83 ec 0c             	sub    $0xc,%esp
c01037ee:	68 f4 a5 10 c0       	push   $0xc010a5f4
c01037f3:	e8 3c 13 00 00       	call   c0104b34 <logf>
c01037f8:	83 c4 10             	add    $0x10,%esp
c01037fb:	c7 45 e4 01 00 00 00 	movl   $0x1,-0x1c(%ebp)
c0103802:	e9 0b 01 00 00       	jmp    c0103912 <exc_print+0x1a5>
c0103807:	83 ec 0c             	sub    $0xc,%esp
c010380a:	6a 00                	push   $0x0
c010380c:	e8 44 22 00 00       	call   c0105a55 <set_initial_lapic_timer_count>
c0103811:	83 c4 10             	add    $0x10,%esp
c0103814:	e8 b3 fe ff ff       	call   c01036cc <stack_trace>
c0103819:	8b 45 08             	mov    0x8(%ebp),%eax
c010381c:	8b 40 04             	mov    0x4(%eax),%eax
c010381f:	83 ec 08             	sub    $0x8,%esp
c0103822:	50                   	push   %eax
c0103823:	68 2d a6 10 c0       	push   $0xc010a62d
c0103828:	e8 3f 47 00 00       	call   c0107f6c <printf>
c010382d:	83 c4 10             	add    $0x10,%esp
c0103830:	8b 45 08             	mov    0x8(%ebp),%eax
c0103833:	8b 70 3c             	mov    0x3c(%eax),%esi
c0103836:	8b 45 08             	mov    0x8(%ebp),%eax
c0103839:	8b 78 38             	mov    0x38(%eax),%edi
c010383c:	8b 45 08             	mov    0x8(%ebp),%eax
c010383f:	8b 40 34             	mov    0x34(%eax),%eax
c0103842:	89 45 d4             	mov    %eax,-0x2c(%ebp)
c0103845:	8b 45 08             	mov    0x8(%ebp),%eax
c0103848:	8b 48 08             	mov    0x8(%eax),%ecx
c010384b:	89 4d d0             	mov    %ecx,-0x30(%ebp)
c010384e:	8b 45 08             	mov    0x8(%ebp),%eax
c0103851:	8b 58 04             	mov    0x4(%eax),%ebx
c0103854:	89 5d cc             	mov    %ebx,-0x34(%ebp)
c0103857:	8b 45 08             	mov    0x8(%ebp),%eax
c010385a:	8b 10                	mov    (%eax),%edx
c010385c:	89 55 c8             	mov    %edx,-0x38(%ebp)
c010385f:	8b 45 08             	mov    0x8(%ebp),%eax
c0103862:	8b 40 0c             	mov    0xc(%eax),%eax
c0103865:	89 45 c4             	mov    %eax,-0x3c(%ebp)
c0103868:	8b 45 08             	mov    0x8(%ebp),%eax
c010386b:	8b 48 10             	mov    0x10(%eax),%ecx
c010386e:	89 4d c0             	mov    %ecx,-0x40(%ebp)
c0103871:	8b 45 08             	mov    0x8(%ebp),%eax
c0103874:	8b 58 18             	mov    0x18(%eax),%ebx
c0103877:	8b 45 08             	mov    0x8(%ebp),%eax
c010387a:	8b 48 1c             	mov    0x1c(%eax),%ecx
c010387d:	8b 45 08             	mov    0x8(%ebp),%eax
c0103880:	8b 50 20             	mov    0x20(%eax),%edx
c0103883:	8b 45 08             	mov    0x8(%ebp),%eax
c0103886:	8b 40 24             	mov    0x24(%eax),%eax
c0103889:	83 ec 0c             	sub    $0xc,%esp
c010388c:	56                   	push   %esi
c010388d:	57                   	push   %edi
c010388e:	ff 75 d4             	push   -0x2c(%ebp)
c0103891:	ff 75 d0             	push   -0x30(%ebp)
c0103894:	ff 75 cc             	push   -0x34(%ebp)
c0103897:	ff 75 c8             	push   -0x38(%ebp)
c010389a:	ff 75 c4             	push   -0x3c(%ebp)
c010389d:	ff 75 c0             	push   -0x40(%ebp)
c01038a0:	53                   	push   %ebx
c01038a1:	51                   	push   %ecx
c01038a2:	52                   	push   %edx
c01038a3:	50                   	push   %eax
c01038a4:	68 4c a6 10 c0       	push   $0xc010a64c
c01038a9:	e8 86 12 00 00       	call   c0104b34 <logf>
c01038ae:	83 c4 40             	add    $0x40,%esp
c01038b1:	83 ec 0c             	sub    $0xc,%esp
c01038b4:	ff 75 08             	push   0x8(%ebp)
c01038b7:	e8 c7 08 00 00       	call   c0104183 <handle_exception>
c01038bc:	83 c4 10             	add    $0x10,%esp
c01038bf:	0f b6 c0             	movzbl %al,%eax
c01038c2:	89 45 e4             	mov    %eax,-0x1c(%ebp)
c01038c5:	eb 4b                	jmp    c0103912 <exc_print+0x1a5>
c01038c7:	83 ec 0c             	sub    $0xc,%esp
c01038ca:	68 bd a6 10 c0       	push   $0xc010a6bd
c01038cf:	e8 60 12 00 00       	call   c0104b34 <logf>
c01038d4:	83 c4 10             	add    $0x10,%esp
c01038d7:	e8 f0 fd ff ff       	call   c01036cc <stack_trace>
c01038dc:	8b 45 08             	mov    0x8(%ebp),%eax
c01038df:	8b 50 2c             	mov    0x2c(%eax),%edx
c01038e2:	8b 45 08             	mov    0x8(%ebp),%eax
c01038e5:	8b 40 30             	mov    0x30(%eax),%eax
c01038e8:	83 ec 04             	sub    $0x4,%esp
c01038eb:	52                   	push   %edx
c01038ec:	50                   	push   %eax
c01038ed:	68 d8 a6 10 c0       	push   $0xc010a6d8
c01038f2:	e8 3d 12 00 00       	call   c0104b34 <logf>
c01038f7:	83 c4 10             	add    $0x10,%esp
c01038fa:	c7 45 e4 01 00 00 00 	movl   $0x1,-0x1c(%ebp)
c0103901:	83 ec 0c             	sub    $0xc,%esp
c0103904:	68 fb a6 10 c0       	push   $0xc010a6fb
c0103909:	e8 ec 0f 00 00       	call   c01048fa <log_to_serial>
c010390e:	83 c4 10             	add    $0x10,%esp
c0103911:	90                   	nop
c0103912:	83 ec 0c             	sub    $0xc,%esp
c0103915:	68 fb a6 10 c0       	push   $0xc010a6fb
c010391a:	e8 15 12 00 00       	call   c0104b34 <logf>
c010391f:	83 c4 10             	add    $0x10,%esp
c0103922:	8b 45 e4             	mov    -0x1c(%ebp),%eax
c0103925:	8d 65 f4             	lea    -0xc(%ebp),%esp
c0103928:	5b                   	pop    %ebx
c0103929:	5e                   	pop    %esi
c010392a:	5f                   	pop    %edi
c010392b:	5d                   	pop    %ebp
c010392c:	c3                   	ret

c010392d <print_status_term>:
c010392d:	55                   	push   %ebp
c010392e:	89 e5                	mov    %esp,%ebp
c0103930:	57                   	push   %edi
c0103931:	56                   	push   %esi
c0103932:	53                   	push   %ebx
c0103933:	83 ec 2c             	sub    $0x2c,%esp
c0103936:	8b 45 08             	mov    0x8(%ebp),%eax
c0103939:	8b 70 3c             	mov    0x3c(%eax),%esi
c010393c:	8b 45 08             	mov    0x8(%ebp),%eax
c010393f:	8b 78 38             	mov    0x38(%eax),%edi
c0103942:	8b 45 08             	mov    0x8(%ebp),%eax
c0103945:	8b 40 34             	mov    0x34(%eax),%eax
c0103948:	89 45 e4             	mov    %eax,-0x1c(%ebp)
c010394b:	8b 45 08             	mov    0x8(%ebp),%eax
c010394e:	8b 50 08             	mov    0x8(%eax),%edx
c0103951:	89 55 e0             	mov    %edx,-0x20(%ebp)
c0103954:	8b 45 08             	mov    0x8(%ebp),%eax
c0103957:	8b 48 04             	mov    0x4(%eax),%ecx
c010395a:	89 4d dc             	mov    %ecx,-0x24(%ebp)
c010395d:	8b 45 08             	mov    0x8(%ebp),%eax
c0103960:	8b 18                	mov    (%eax),%ebx
c0103962:	89 5d d8             	mov    %ebx,-0x28(%ebp)
c0103965:	8b 45 08             	mov    0x8(%ebp),%eax
c0103968:	8b 40 0c             	mov    0xc(%eax),%eax
c010396b:	89 45 d4             	mov    %eax,-0x2c(%ebp)
c010396e:	8b 45 08             	mov    0x8(%ebp),%eax
c0103971:	8b 50 10             	mov    0x10(%eax),%edx
c0103974:	89 55 d0             	mov    %edx,-0x30(%ebp)
c0103977:	8b 45 08             	mov    0x8(%ebp),%eax
c010397a:	8b 58 18             	mov    0x18(%eax),%ebx
c010397d:	8b 45 08             	mov    0x8(%ebp),%eax
c0103980:	8b 48 1c             	mov    0x1c(%eax),%ecx
c0103983:	8b 45 08             	mov    0x8(%ebp),%eax
c0103986:	8b 50 20             	mov    0x20(%eax),%edx
c0103989:	8b 45 08             	mov    0x8(%ebp),%eax
c010398c:	8b 40 24             	mov    0x24(%eax),%eax
c010398f:	83 ec 0c             	sub    $0xc,%esp
c0103992:	56                   	push   %esi
c0103993:	57                   	push   %edi
c0103994:	ff 75 e4             	push   -0x1c(%ebp)
c0103997:	ff 75 e0             	push   -0x20(%ebp)
c010399a:	ff 75 dc             	push   -0x24(%ebp)
c010399d:	ff 75 d8             	push   -0x28(%ebp)
c01039a0:	ff 75 d4             	push   -0x2c(%ebp)
c01039a3:	ff 75 d0             	push   -0x30(%ebp)
c01039a6:	53                   	push   %ebx
c01039a7:	51                   	push   %ecx
c01039a8:	52                   	push   %edx
c01039a9:	50                   	push   %eax
c01039aa:	68 4c a6 10 c0       	push   $0xc010a64c
c01039af:	e8 80 11 00 00       	call   c0104b34 <logf>
c01039b4:	83 c4 40             	add    $0x40,%esp
c01039b7:	90                   	nop
c01039b8:	8d 65 f4             	lea    -0xc(%ebp),%esp
c01039bb:	5b                   	pop    %ebx
c01039bc:	5e                   	pop    %esi
c01039bd:	5f                   	pop    %edi
c01039be:	5d                   	pop    %ebp
c01039bf:	c3                   	ret

c01039c0 <irq_handler>:
c01039c0:	55                   	push   %ebp
c01039c1:	89 e5                	mov    %esp,%ebp
c01039c3:	83 ec 18             	sub    $0x18,%esp
c01039c6:	8b 45 08             	mov    0x8(%ebp),%eax
c01039c9:	89 45 f4             	mov    %eax,-0xc(%ebp)
c01039cc:	8b 45 08             	mov    0x8(%ebp),%eax
c01039cf:	8b 40 2c             	mov    0x2c(%eax),%eax
c01039d2:	89 45 f0             	mov    %eax,-0x10(%ebp)
c01039d5:	8b 45 08             	mov    0x8(%ebp),%eax
c01039d8:	8b 40 0c             	mov    0xc(%eax),%eax
c01039db:	3d 00 00 00 c0       	cmp    $0xc0000000,%eax
c01039e0:	76 0b                	jbe    c01039ed <irq_handler+0x2d>
c01039e2:	8b 45 08             	mov    0x8(%ebp),%eax
c01039e5:	8b 40 0c             	mov    0xc(%eax),%eax
c01039e8:	a3 70 00 11 c0       	mov    %eax,0xc0110070
c01039ed:	81 7d f0 80 00 00 00 	cmpl   $0x80,-0x10(%ebp)
c01039f4:	74 6c                	je     c0103a62 <irq_handler+0xa2>
c01039f6:	81 7d f0 80 00 00 00 	cmpl   $0x80,-0x10(%ebp)
c01039fd:	7f 4e                	jg     c0103a4d <irq_handler+0x8d>
c01039ff:	83 7d f0 33          	cmpl   $0x33,-0x10(%ebp)
c0103a03:	74 41                	je     c0103a46 <irq_handler+0x86>
c0103a05:	83 7d f0 33          	cmpl   $0x33,-0x10(%ebp)
c0103a09:	7f 42                	jg     c0103a4d <irq_handler+0x8d>
c0103a0b:	83 7d f0 32          	cmpl   $0x32,-0x10(%ebp)
c0103a0f:	74 2e                	je     c0103a3f <irq_handler+0x7f>
c0103a11:	83 7d f0 32          	cmpl   $0x32,-0x10(%ebp)
c0103a15:	7f 36                	jg     c0103a4d <irq_handler+0x8d>
c0103a17:	83 7d f0 30          	cmpl   $0x30,-0x10(%ebp)
c0103a1b:	74 08                	je     c0103a25 <irq_handler+0x65>
c0103a1d:	83 7d f0 31          	cmpl   $0x31,-0x10(%ebp)
c0103a21:	74 15                	je     c0103a38 <irq_handler+0x78>
c0103a23:	eb 28                	jmp    c0103a4d <irq_handler+0x8d>
c0103a25:	83 ec 0c             	sub    $0xc,%esp
c0103a28:	ff 75 08             	push   0x8(%ebp)
c0103a2b:	e8 7d 39 00 00       	call   c01073ad <handle_schedule>
c0103a30:	83 c4 10             	add    $0x10,%esp
c0103a33:	89 45 08             	mov    %eax,0x8(%ebp)
c0103a36:	eb 2b                	jmp    c0103a63 <irq_handler+0xa3>
c0103a38:	e8 c4 21 00 00       	call   c0105c01 <end_calibration>
c0103a3d:	eb 24                	jmp    c0103a63 <irq_handler+0xa3>
c0103a3f:	e8 5d 24 00 00       	call   c0105ea1 <handle_keychange>
c0103a44:	eb 1d                	jmp    c0103a63 <irq_handler+0xa3>
c0103a46:	e8 25 dc ff ff       	call   c0101670 <handle_ahci_interrupt>
c0103a4b:	eb 16                	jmp    c0103a63 <irq_handler+0xa3>
c0103a4d:	83 ec 08             	sub    $0x8,%esp
c0103a50:	ff 75 f0             	push   -0x10(%ebp)
c0103a53:	68 70 a7 10 c0       	push   $0xc010a770
c0103a58:	e8 d7 10 00 00       	call   c0104b34 <logf>
c0103a5d:	83 c4 10             	add    $0x10,%esp
c0103a60:	eb 01                	jmp    c0103a63 <irq_handler+0xa3>
c0103a62:	90                   	nop
c0103a63:	a1 20 30 11 c0       	mov    0xc0113020,%eax
c0103a68:	83 ec 0c             	sub    $0xc,%esp
c0103a6b:	50                   	push   %eax
c0103a6c:	e8 14 20 00 00       	call   c0105a85 <send_EOI>
c0103a71:	83 c4 10             	add    $0x10,%esp
c0103a74:	8b 45 08             	mov    0x8(%ebp),%eax
c0103a77:	c9                   	leave
c0103a78:	c3                   	ret

c0103a79 <isr_handler>:
c0103a79:	55                   	push   %ebp
c0103a7a:	89 e5                	mov    %esp,%ebp
c0103a7c:	83 ec 08             	sub    $0x8,%esp
c0103a7f:	83 ec 0c             	sub    $0xc,%esp
c0103a82:	68 79 a7 10 c0       	push   $0xc010a779
c0103a87:	e8 a8 10 00 00       	call   c0104b34 <logf>
c0103a8c:	83 c4 10             	add    $0x10,%esp
c0103a8f:	8b 45 34             	mov    0x34(%ebp),%eax
c0103a92:	83 f8 1f             	cmp    $0x1f,%eax
c0103a95:	77 13                	ja     c0103aaa <isr_handler+0x31>
c0103a97:	83 ec 0c             	sub    $0xc,%esp
c0103a9a:	8d 45 08             	lea    0x8(%ebp),%eax
c0103a9d:	50                   	push   %eax
c0103a9e:	e8 ca fc ff ff       	call   c010376d <exc_print>
c0103aa3:	83 c4 10             	add    $0x10,%esp
c0103aa6:	84 c0                	test   %al,%al
c0103aa8:	74 14                	je     c0103abe <isr_handler+0x45>
c0103aaa:	83 ec 0c             	sub    $0xc,%esp
c0103aad:	68 84 a7 10 c0       	push   $0xc010a784
c0103ab2:	e8 7d 10 00 00       	call   c0104b34 <logf>
c0103ab7:	83 c4 10             	add    $0x10,%esp
c0103aba:	fa                   	cli
c0103abb:	f4                   	hlt
c0103abc:	eb 01                	jmp    c0103abf <isr_handler+0x46>
c0103abe:	90                   	nop
c0103abf:	c9                   	leave
c0103ac0:	c3                   	ret

c0103ac1 <memory_map>:
c0103ac1:	55                   	push   %ebp
c0103ac2:	89 e5                	mov    %esp,%ebp
c0103ac4:	83 ec 18             	sub    $0x18,%esp
c0103ac7:	83 ec 0c             	sub    $0xc,%esp
c0103aca:	68 a8 a7 10 c0       	push   $0xc010a7a8
c0103acf:	e8 60 10 00 00       	call   c0104b34 <logf>
c0103ad4:	83 c4 10             	add    $0x10,%esp
c0103ad7:	8b 45 10             	mov    0x10(%ebp),%eax
c0103ada:	c1 e8 16             	shr    $0x16,%eax
c0103add:	89 45 f4             	mov    %eax,-0xc(%ebp)
c0103ae0:	8b 45 10             	mov    0x10(%ebp),%eax
c0103ae3:	c1 e8 0c             	shr    $0xc,%eax
c0103ae6:	25 ff 03 00 00       	and    $0x3ff,%eax
c0103aeb:	89 45 f0             	mov    %eax,-0x10(%ebp)
c0103aee:	8b 45 f4             	mov    -0xc(%ebp),%eax
c0103af1:	8d 14 85 00 00 00 00 	lea    0x0(,%eax,4),%edx
c0103af8:	8b 45 08             	mov    0x8(%ebp),%eax
c0103afb:	01 d0                	add    %edx,%eax
c0103afd:	8b 00                	mov    (%eax),%eax
c0103aff:	83 e0 01             	and    $0x1,%eax
c0103b02:	85 c0                	test   %eax,%eax
c0103b04:	75 16                	jne    c0103b1c <memory_map+0x5b>
c0103b06:	83 ec 04             	sub    $0x4,%esp
c0103b09:	68 00 00 c0 ff       	push   $0xffc00000
c0103b0e:	ff 75 f4             	push   -0xc(%ebp)
c0103b11:	ff 75 08             	push   0x8(%ebp)
c0103b14:	e8 80 03 00 00       	call   c0103e99 <create_new_pt>
c0103b19:	83 c4 10             	add    $0x10,%esp
c0103b1c:	8b 45 f4             	mov    -0xc(%ebp),%eax
c0103b1f:	05 00 fc 0f 00       	add    $0xffc00,%eax
c0103b24:	c1 e0 0c             	shl    $0xc,%eax
c0103b27:	89 45 ec             	mov    %eax,-0x14(%ebp)
c0103b2a:	8b 45 0c             	mov    0xc(%ebp),%eax
c0103b2d:	25 ff 03 00 00       	and    $0x3ff,%eax
c0103b32:	85 c0                	test   %eax,%eax
c0103b34:	74 12                	je     c0103b48 <memory_map+0x87>
c0103b36:	83 ec 0c             	sub    $0xc,%esp
c0103b39:	68 cc a7 10 c0       	push   $0xc010a7cc
c0103b3e:	e8 94 12 00 00       	call   c0104dd7 <panic>
c0103b43:	83 c4 10             	add    $0x10,%esp
c0103b46:	eb 17                	jmp    c0103b5f <memory_map+0x9e>
c0103b48:	8b 45 0c             	mov    0xc(%ebp),%eax
c0103b4b:	8b 55 f0             	mov    -0x10(%ebp),%edx
c0103b4e:	8d 0c 95 00 00 00 00 	lea    0x0(,%edx,4),%ecx
c0103b55:	8b 55 ec             	mov    -0x14(%ebp),%edx
c0103b58:	01 ca                	add    %ecx,%edx
c0103b5a:	0b 45 14             	or     0x14(%ebp),%eax
c0103b5d:	89 02                	mov    %eax,(%edx)
c0103b5f:	c9                   	leave
c0103b60:	c3                   	ret

c0103b61 <memory_unmap>:
c0103b61:	55                   	push   %ebp
c0103b62:	89 e5                	mov    %esp,%ebp
c0103b64:	83 ec 18             	sub    $0x18,%esp
c0103b67:	8b 45 0c             	mov    0xc(%ebp),%eax
c0103b6a:	c1 e8 16             	shr    $0x16,%eax
c0103b6d:	89 45 f4             	mov    %eax,-0xc(%ebp)
c0103b70:	8b 45 0c             	mov    0xc(%ebp),%eax
c0103b73:	c1 e8 0c             	shr    $0xc,%eax
c0103b76:	25 ff 03 00 00       	and    $0x3ff,%eax
c0103b7b:	89 45 f0             	mov    %eax,-0x10(%ebp)
c0103b7e:	8b 45 f4             	mov    -0xc(%ebp),%eax
c0103b81:	c1 e0 0c             	shl    $0xc,%eax
c0103b84:	0d 00 00 c0 ff       	or     $0xffc00000,%eax
c0103b89:	89 45 ec             	mov    %eax,-0x14(%ebp)
c0103b8c:	8b 45 f4             	mov    -0xc(%ebp),%eax
c0103b8f:	8d 14 85 00 00 00 00 	lea    0x0(,%eax,4),%edx
c0103b96:	8b 45 08             	mov    0x8(%ebp),%eax
c0103b99:	01 d0                	add    %edx,%eax
c0103b9b:	8b 00                	mov    (%eax),%eax
c0103b9d:	85 c0                	test   %eax,%eax
c0103b9f:	74 6c                	je     c0103c0d <memory_unmap+0xac>
c0103ba1:	8b 45 0c             	mov    0xc(%ebp),%eax
c0103ba4:	25 ff 03 00 00       	and    $0x3ff,%eax
c0103ba9:	85 c0                	test   %eax,%eax
c0103bab:	74 15                	je     c0103bc2 <memory_unmap+0x61>
c0103bad:	83 ec 08             	sub    $0x8,%esp
c0103bb0:	ff 75 0c             	push   0xc(%ebp)
c0103bb3:	68 f0 a7 10 c0       	push   $0xc010a7f0
c0103bb8:	e8 77 0f 00 00       	call   c0104b34 <logf>
c0103bbd:	83 c4 10             	add    $0x10,%esp
c0103bc0:	eb 4c                	jmp    c0103c0e <memory_unmap+0xad>
c0103bc2:	8b 45 f0             	mov    -0x10(%ebp),%eax
c0103bc5:	8d 14 85 00 00 00 00 	lea    0x0(,%eax,4),%edx
c0103bcc:	8b 45 ec             	mov    -0x14(%ebp),%eax
c0103bcf:	01 d0                	add    %edx,%eax
c0103bd1:	8b 00                	mov    (%eax),%eax
c0103bd3:	25 00 f0 ff ff       	and    $0xfffff000,%eax
c0103bd8:	89 45 e8             	mov    %eax,-0x18(%ebp)
c0103bdb:	8b 45 e8             	mov    -0x18(%ebp),%eax
c0103bde:	83 ec 0c             	sub    $0xc,%esp
c0103be1:	50                   	push   %eax
c0103be2:	e8 81 e6 ff ff       	call   c0102268 <physical_to_frame>
c0103be7:	83 c4 10             	add    $0x10,%esp
c0103bea:	83 ec 0c             	sub    $0xc,%esp
c0103bed:	50                   	push   %eax
c0103bee:	e8 c7 e5 ff ff       	call   c01021ba <clear_frame>
c0103bf3:	83 c4 10             	add    $0x10,%esp
c0103bf6:	8b 45 f0             	mov    -0x10(%ebp),%eax
c0103bf9:	8d 14 85 00 00 00 00 	lea    0x0(,%eax,4),%edx
c0103c00:	8b 45 ec             	mov    -0x14(%ebp),%eax
c0103c03:	01 d0                	add    %edx,%eax
c0103c05:	c7 00 00 00 00 00    	movl   $0x0,(%eax)
c0103c0b:	eb 01                	jmp    c0103c0e <memory_unmap+0xad>
c0103c0d:	90                   	nop
c0103c0e:	c9                   	leave
c0103c0f:	c3                   	ret

c0103c10 <get_phys_from_virt>:
c0103c10:	55                   	push   %ebp
c0103c11:	89 e5                	mov    %esp,%ebp
c0103c13:	83 ec 28             	sub    $0x28,%esp
c0103c16:	8b 45 08             	mov    0x8(%ebp),%eax
c0103c19:	c1 e8 1e             	shr    $0x1e,%eax
c0103c1c:	88 45 f7             	mov    %al,-0x9(%ebp)
c0103c1f:	8b 45 08             	mov    0x8(%ebp),%eax
c0103c22:	c1 e8 15             	shr    $0x15,%eax
c0103c25:	25 ff 01 00 00       	and    $0x1ff,%eax
c0103c2a:	89 45 f0             	mov    %eax,-0x10(%ebp)
c0103c2d:	8b 45 08             	mov    0x8(%ebp),%eax
c0103c30:	c1 e8 0c             	shr    $0xc,%eax
c0103c33:	25 ff 01 00 00       	and    $0x1ff,%eax
c0103c38:	89 45 ec             	mov    %eax,-0x14(%ebp)
c0103c3b:	0f b6 45 f7          	movzbl -0x9(%ebp),%eax
c0103c3f:	c1 e0 1e             	shl    $0x1e,%eax
c0103c42:	05 00 00 e0 3f       	add    $0x3fe00000,%eax
c0103c47:	89 45 e8             	mov    %eax,-0x18(%ebp)
c0103c4a:	8b 45 f0             	mov    -0x10(%ebp),%eax
c0103c4d:	c1 e0 0c             	shl    $0xc,%eax
c0103c50:	89 c2                	mov    %eax,%edx
c0103c52:	8b 45 e8             	mov    -0x18(%ebp),%eax
c0103c55:	09 d0                	or     %edx,%eax
c0103c57:	89 45 e4             	mov    %eax,-0x1c(%ebp)
c0103c5a:	8b 45 e8             	mov    -0x18(%ebp),%eax
c0103c5d:	0d 00 f0 3f 00       	or     $0x3ff000,%eax
c0103c62:	89 45 e0             	mov    %eax,-0x20(%ebp)
c0103c65:	8b 45 f0             	mov    -0x10(%ebp),%eax
c0103c68:	8d 14 c5 00 00 00 00 	lea    0x0(,%eax,8),%edx
c0103c6f:	8b 45 e0             	mov    -0x20(%ebp),%eax
c0103c72:	01 d0                	add    %edx,%eax
c0103c74:	8b 50 04             	mov    0x4(%eax),%edx
c0103c77:	8b 00                	mov    (%eax),%eax
c0103c79:	83 e0 01             	and    $0x1,%eax
c0103c7c:	ba 00 00 00 00       	mov    $0x0,%edx
c0103c81:	89 c1                	mov    %eax,%ecx
c0103c83:	09 d1                	or     %edx,%ecx
c0103c85:	75 1c                	jne    c0103ca3 <get_phys_from_virt+0x93>
c0103c87:	83 ec 0c             	sub    $0xc,%esp
c0103c8a:	68 18 a8 10 c0       	push   $0xc010a818
c0103c8f:	e8 a0 0e 00 00       	call   c0104b34 <logf>
c0103c94:	83 c4 10             	add    $0x10,%esp
c0103c97:	b8 00 00 00 00       	mov    $0x0,%eax
c0103c9c:	ba 00 00 00 00       	mov    $0x0,%edx
c0103ca1:	eb 19                	jmp    c0103cbc <get_phys_from_virt+0xac>
c0103ca3:	8b 45 ec             	mov    -0x14(%ebp),%eax
c0103ca6:	8d 14 c5 00 00 00 00 	lea    0x0(,%eax,8),%edx
c0103cad:	8b 45 e4             	mov    -0x1c(%ebp),%eax
c0103cb0:	01 d0                	add    %edx,%eax
c0103cb2:	8b 50 04             	mov    0x4(%eax),%edx
c0103cb5:	8b 00                	mov    (%eax),%eax
c0103cb7:	25 00 f0 ff ff       	and    $0xfffff000,%eax
c0103cbc:	c9                   	leave
c0103cbd:	c3                   	ret

c0103cbe <pae_mmap>:
c0103cbe:	55                   	push   %ebp
c0103cbf:	89 e5                	mov    %esp,%ebp
c0103cc1:	53                   	push   %ebx
c0103cc2:	83 ec 34             	sub    $0x34,%esp
c0103cc5:	8b 45 0c             	mov    0xc(%ebp),%eax
c0103cc8:	89 45 d0             	mov    %eax,-0x30(%ebp)
c0103ccb:	8b 45 10             	mov    0x10(%ebp),%eax
c0103cce:	89 45 d4             	mov    %eax,-0x2c(%ebp)
c0103cd1:	8b 45 14             	mov    0x14(%ebp),%eax
c0103cd4:	c1 e8 1e             	shr    $0x1e,%eax
c0103cd7:	88 45 f7             	mov    %al,-0x9(%ebp)
c0103cda:	8b 45 14             	mov    0x14(%ebp),%eax
c0103cdd:	c1 e8 15             	shr    $0x15,%eax
c0103ce0:	25 ff 01 00 00       	and    $0x1ff,%eax
c0103ce5:	89 45 f0             	mov    %eax,-0x10(%ebp)
c0103ce8:	8b 45 14             	mov    0x14(%ebp),%eax
c0103ceb:	c1 e8 0c             	shr    $0xc,%eax
c0103cee:	25 ff 01 00 00       	and    $0x1ff,%eax
c0103cf3:	89 45 ec             	mov    %eax,-0x14(%ebp)
c0103cf6:	0f b6 45 f7          	movzbl -0x9(%ebp),%eax
c0103cfa:	c1 e0 1e             	shl    $0x1e,%eax
c0103cfd:	05 00 00 e0 3f       	add    $0x3fe00000,%eax
c0103d02:	89 45 e8             	mov    %eax,-0x18(%ebp)
c0103d05:	8b 45 f0             	mov    -0x10(%ebp),%eax
c0103d08:	c1 e0 0c             	shl    $0xc,%eax
c0103d0b:	89 c2                	mov    %eax,%edx
c0103d0d:	8b 45 e8             	mov    -0x18(%ebp),%eax
c0103d10:	09 d0                	or     %edx,%eax
c0103d12:	89 45 e4             	mov    %eax,-0x1c(%ebp)
c0103d15:	8b 45 e8             	mov    -0x18(%ebp),%eax
c0103d18:	0d 00 f0 3f 00       	or     $0x3ff000,%eax
c0103d1d:	89 45 e0             	mov    %eax,-0x20(%ebp)
c0103d20:	8b 0d 08 30 11 c0    	mov    0xc0113008,%ecx
c0103d26:	8b 45 d0             	mov    -0x30(%ebp),%eax
c0103d29:	8b 55 d4             	mov    -0x2c(%ebp),%edx
c0103d2c:	0f ad d0             	shrd   %cl,%edx,%eax
c0103d2f:	d3 ea                	shr    %cl,%edx
c0103d31:	f6 c1 20             	test   $0x20,%cl
c0103d34:	74 04                	je     c0103d3a <pae_mmap+0x7c>
c0103d36:	89 d0                	mov    %edx,%eax
c0103d38:	31 d2                	xor    %edx,%edx
c0103d3a:	89 c1                	mov    %eax,%ecx
c0103d3c:	09 d1                	or     %edx,%ecx
c0103d3e:	74 10                	je     c0103d50 <pae_mmap+0x92>
c0103d40:	83 ec 0c             	sub    $0xc,%esp
c0103d43:	68 38 a8 10 c0       	push   $0xc010a838
c0103d48:	e8 8a 10 00 00       	call   c0104dd7 <panic>
c0103d4d:	83 c4 10             	add    $0x10,%esp
c0103d50:	8b 45 d0             	mov    -0x30(%ebp),%eax
c0103d53:	8b 55 d4             	mov    -0x2c(%ebp),%edx
c0103d56:	25 ff 03 00 00       	and    $0x3ff,%eax
c0103d5b:	ba 00 00 00 00       	mov    $0x0,%edx
c0103d60:	89 c1                	mov    %eax,%ecx
c0103d62:	09 d1                	or     %edx,%ecx
c0103d64:	74 10                	je     c0103d76 <pae_mmap+0xb8>
c0103d66:	83 ec 0c             	sub    $0xc,%esp
c0103d69:	68 60 a8 10 c0       	push   $0xc010a860
c0103d6e:	e8 64 10 00 00       	call   c0104dd7 <panic>
c0103d73:	83 c4 10             	add    $0x10,%esp
c0103d76:	8b 45 f0             	mov    -0x10(%ebp),%eax
c0103d79:	8d 14 c5 00 00 00 00 	lea    0x0(,%eax,8),%edx
c0103d80:	8b 45 e0             	mov    -0x20(%ebp),%eax
c0103d83:	01 d0                	add    %edx,%eax
c0103d85:	8b 50 04             	mov    0x4(%eax),%edx
c0103d88:	8b 00                	mov    (%eax),%eax
c0103d8a:	83 e0 01             	and    $0x1,%eax
c0103d8d:	ba 00 00 00 00       	mov    $0x0,%edx
c0103d92:	89 c1                	mov    %eax,%ecx
c0103d94:	09 d1                	or     %edx,%ecx
c0103d96:	75 17                	jne    c0103daf <pae_mmap+0xf1>
c0103d98:	8b 55 e8             	mov    -0x18(%ebp),%edx
c0103d9b:	0f b6 45 f7          	movzbl -0x9(%ebp),%eax
c0103d9f:	52                   	push   %edx
c0103da0:	ff 75 f0             	push   -0x10(%ebp)
c0103da3:	50                   	push   %eax
c0103da4:	ff 75 08             	push   0x8(%ebp)
c0103da7:	e8 5e 01 00 00       	call   c0103f0a <create_new_pae_pt>
c0103dac:	83 c4 10             	add    $0x10,%esp
c0103daf:	8b 45 ec             	mov    -0x14(%ebp),%eax
c0103db2:	8d 14 c5 00 00 00 00 	lea    0x0(,%eax,8),%edx
c0103db9:	8b 45 e4             	mov    -0x1c(%ebp),%eax
c0103dbc:	01 d0                	add    %edx,%eax
c0103dbe:	c7 00 00 00 00 00    	movl   $0x0,(%eax)
c0103dc4:	c7 40 04 00 00 00 00 	movl   $0x0,0x4(%eax)
c0103dcb:	8b 45 18             	mov    0x18(%ebp),%eax
c0103dce:	ba 00 00 00 00       	mov    $0x0,%edx
c0103dd3:	8b 4d ec             	mov    -0x14(%ebp),%ecx
c0103dd6:	8d 1c cd 00 00 00 00 	lea    0x0(,%ecx,8),%ebx
c0103ddd:	8b 4d e4             	mov    -0x1c(%ebp),%ecx
c0103de0:	01 d9                	add    %ebx,%ecx
c0103de2:	0b 45 d0             	or     -0x30(%ebp),%eax
c0103de5:	0b 55 d4             	or     -0x2c(%ebp),%edx
c0103de8:	89 01                	mov    %eax,(%ecx)
c0103dea:	89 51 04             	mov    %edx,0x4(%ecx)
c0103ded:	90                   	nop
c0103dee:	8b 5d fc             	mov    -0x4(%ebp),%ebx
c0103df1:	c9                   	leave
c0103df2:	c3                   	ret

c0103df3 <pae_unmap>:
c0103df3:	55                   	push   %ebp
c0103df4:	89 e5                	mov    %esp,%ebp
c0103df6:	83 ec 28             	sub    $0x28,%esp
c0103df9:	8b 45 08             	mov    0x8(%ebp),%eax
c0103dfc:	c1 e8 1e             	shr    $0x1e,%eax
c0103dff:	88 45 f7             	mov    %al,-0x9(%ebp)
c0103e02:	8b 45 08             	mov    0x8(%ebp),%eax
c0103e05:	c1 e8 15             	shr    $0x15,%eax
c0103e08:	25 ff 01 00 00       	and    $0x1ff,%eax
c0103e0d:	89 45 f0             	mov    %eax,-0x10(%ebp)
c0103e10:	8b 45 08             	mov    0x8(%ebp),%eax
c0103e13:	c1 e8 0c             	shr    $0xc,%eax
c0103e16:	25 ff 01 00 00       	and    $0x1ff,%eax
c0103e1b:	89 45 ec             	mov    %eax,-0x14(%ebp)
c0103e1e:	0f b6 45 f7          	movzbl -0x9(%ebp),%eax
c0103e22:	c1 e0 1e             	shl    $0x1e,%eax
c0103e25:	05 00 00 e0 3f       	add    $0x3fe00000,%eax
c0103e2a:	89 45 e8             	mov    %eax,-0x18(%ebp)
c0103e2d:	8b 45 f0             	mov    -0x10(%ebp),%eax
c0103e30:	c1 e0 0c             	shl    $0xc,%eax
c0103e33:	89 c2                	mov    %eax,%edx
c0103e35:	8b 45 e8             	mov    -0x18(%ebp),%eax
c0103e38:	09 d0                	or     %edx,%eax
c0103e3a:	89 45 e4             	mov    %eax,-0x1c(%ebp)
c0103e3d:	8b 45 ec             	mov    -0x14(%ebp),%eax
c0103e40:	8d 14 c5 00 00 00 00 	lea    0x0(,%eax,8),%edx
c0103e47:	8b 45 e4             	mov    -0x1c(%ebp),%eax
c0103e4a:	01 d0                	add    %edx,%eax
c0103e4c:	8b 50 04             	mov    0x4(%eax),%edx
c0103e4f:	8b 00                	mov    (%eax),%eax
c0103e51:	25 00 f0 ff ff       	and    $0xfffff000,%eax
c0103e56:	89 45 e0             	mov    %eax,-0x20(%ebp)
c0103e59:	8b 45 e0             	mov    -0x20(%ebp),%eax
c0103e5c:	83 ec 0c             	sub    $0xc,%esp
c0103e5f:	50                   	push   %eax
c0103e60:	e8 03 e4 ff ff       	call   c0102268 <physical_to_frame>
c0103e65:	83 c4 10             	add    $0x10,%esp
c0103e68:	83 ec 0c             	sub    $0xc,%esp
c0103e6b:	50                   	push   %eax
c0103e6c:	e8 49 e3 ff ff       	call   c01021ba <clear_frame>
c0103e71:	83 c4 10             	add    $0x10,%esp
c0103e74:	8b 45 ec             	mov    -0x14(%ebp),%eax
c0103e77:	8d 14 c5 00 00 00 00 	lea    0x0(,%eax,8),%edx
c0103e7e:	8b 45 e4             	mov    -0x1c(%ebp),%eax
c0103e81:	01 d0                	add    %edx,%eax
c0103e83:	89 45 dc             	mov    %eax,-0x24(%ebp)
c0103e86:	8b 45 dc             	mov    -0x24(%ebp),%eax
c0103e89:	c7 00 00 00 00 00    	movl   $0x0,(%eax)
c0103e8f:	c7 40 04 00 00 00 00 	movl   $0x0,0x4(%eax)
c0103e96:	90                   	nop
c0103e97:	c9                   	leave
c0103e98:	c3                   	ret

c0103e99 <create_new_pt>:
c0103e99:	55                   	push   %ebp
c0103e9a:	89 e5                	mov    %esp,%ebp
c0103e9c:	83 ec 18             	sub    $0x18,%esp
c0103e9f:	83 ec 0c             	sub    $0xc,%esp
c0103ea2:	68 87 a8 10 c0       	push   $0xc010a887
c0103ea7:	e8 4e 0a 00 00       	call   c01048fa <log_to_serial>
c0103eac:	83 c4 10             	add    $0x10,%esp
c0103eaf:	e8 c4 e3 ff ff       	call   c0102278 <alloc_phys_page>
c0103eb4:	89 45 f0             	mov    %eax,-0x10(%ebp)
c0103eb7:	89 55 f4             	mov    %edx,-0xc(%ebp)
c0103eba:	8b 55 f0             	mov    -0x10(%ebp),%edx
c0103ebd:	8b 45 0c             	mov    0xc(%ebp),%eax
c0103ec0:	8d 0c 85 00 00 00 00 	lea    0x0(,%eax,4),%ecx
c0103ec7:	8b 45 08             	mov    0x8(%ebp),%eax
c0103eca:	01 c8                	add    %ecx,%eax
c0103ecc:	83 ca 03             	or     $0x3,%edx
c0103ecf:	89 10                	mov    %edx,(%eax)
c0103ed1:	8b 45 0c             	mov    0xc(%ebp),%eax
c0103ed4:	c1 e0 0c             	shl    $0xc,%eax
c0103ed7:	0b 45 10             	or     0x10(%ebp),%eax
c0103eda:	89 45 ec             	mov    %eax,-0x14(%ebp)
c0103edd:	83 ec 04             	sub    $0x4,%esp
c0103ee0:	68 00 04 00 00       	push   $0x400
c0103ee5:	6a 00                	push   $0x0
c0103ee7:	ff 75 ec             	push   -0x14(%ebp)
c0103eea:	e8 76 12 00 00       	call   c0105165 <memset>
c0103eef:	83 c4 10             	add    $0x10,%esp
c0103ef2:	83 ec 08             	sub    $0x8,%esp
c0103ef5:	ff 75 0c             	push   0xc(%ebp)
c0103ef8:	68 98 a8 10 c0       	push   $0xc010a898
c0103efd:	e8 32 0c 00 00       	call   c0104b34 <logf>
c0103f02:	83 c4 10             	add    $0x10,%esp
c0103f05:	8b 45 ec             	mov    -0x14(%ebp),%eax
c0103f08:	c9                   	leave
c0103f09:	c3                   	ret

c0103f0a <create_new_pae_pt>:
c0103f0a:	55                   	push   %ebp
c0103f0b:	89 e5                	mov    %esp,%ebp
c0103f0d:	83 ec 28             	sub    $0x28,%esp
c0103f10:	83 ec 0c             	sub    $0xc,%esp
c0103f13:	68 b4 a8 10 c0       	push   $0xc010a8b4
c0103f18:	e8 17 0c 00 00       	call   c0104b34 <logf>
c0103f1d:	83 c4 10             	add    $0x10,%esp
c0103f20:	8b 45 0c             	mov    0xc(%ebp),%eax
c0103f23:	8d 14 c5 00 00 00 00 	lea    0x0(,%eax,8),%edx
c0103f2a:	8b 45 08             	mov    0x8(%ebp),%eax
c0103f2d:	01 d0                	add    %edx,%eax
c0103f2f:	8b 50 04             	mov    0x4(%eax),%edx
c0103f32:	8b 00                	mov    (%eax),%eax
c0103f34:	83 e0 01             	and    $0x1,%eax
c0103f37:	ba 00 00 00 00       	mov    $0x0,%edx
c0103f3c:	89 c1                	mov    %eax,%ecx
c0103f3e:	09 d1                	or     %edx,%ecx
c0103f40:	75 52                	jne    c0103f94 <create_new_pae_pt+0x8a>
c0103f42:	e8 31 e3 ff ff       	call   c0102278 <alloc_phys_page>
c0103f47:	89 45 f0             	mov    %eax,-0x10(%ebp)
c0103f4a:	89 55 f4             	mov    %edx,-0xc(%ebp)
c0103f4d:	8b 45 0c             	mov    0xc(%ebp),%eax
c0103f50:	8d 14 c5 00 00 00 00 	lea    0x0(,%eax,8),%edx
c0103f57:	8b 45 08             	mov    0x8(%ebp),%eax
c0103f5a:	8d 0c 02             	lea    (%edx,%eax,1),%ecx
c0103f5d:	8b 45 f0             	mov    -0x10(%ebp),%eax
c0103f60:	8b 55 f4             	mov    -0xc(%ebp),%edx
c0103f63:	83 c8 01             	or     $0x1,%eax
c0103f66:	89 01                	mov    %eax,(%ecx)
c0103f68:	89 51 04             	mov    %edx,0x4(%ecx)
c0103f6b:	6a 00                	push   $0x0
c0103f6d:	6a 00                	push   $0x0
c0103f6f:	6a 03                	push   $0x3
c0103f71:	68 00 04 00 00       	push   $0x400
c0103f76:	e8 63 e6 ff ff       	call   c01025de <pae_kalloc>
c0103f7b:	83 c4 10             	add    $0x10,%esp
c0103f7e:	89 45 ec             	mov    %eax,-0x14(%ebp)
c0103f81:	83 ec 08             	sub    $0x8,%esp
c0103f84:	ff 75 ec             	push   -0x14(%ebp)
c0103f87:	68 d1 a8 10 c0       	push   $0xc010a8d1
c0103f8c:	e8 a3 0b 00 00       	call   c0104b34 <logf>
c0103f91:	83 c4 10             	add    $0x10,%esp
c0103f94:	8b 45 14             	mov    0x14(%ebp),%eax
c0103f97:	0d 00 f0 1f 00       	or     $0x1ff000,%eax
c0103f9c:	89 45 e8             	mov    %eax,-0x18(%ebp)
c0103f9f:	e8 d4 e2 ff ff       	call   c0102278 <alloc_phys_page>
c0103fa4:	89 45 e0             	mov    %eax,-0x20(%ebp)
c0103fa7:	89 55 e4             	mov    %edx,-0x1c(%ebp)
c0103faa:	8b 45 10             	mov    0x10(%ebp),%eax
c0103fad:	8d 14 c5 00 00 00 00 	lea    0x0(,%eax,8),%edx
c0103fb4:	8b 45 e8             	mov    -0x18(%ebp),%eax
c0103fb7:	8d 0c 02             	lea    (%edx,%eax,1),%ecx
c0103fba:	8b 45 e0             	mov    -0x20(%ebp),%eax
c0103fbd:	8b 55 e4             	mov    -0x1c(%ebp),%edx
c0103fc0:	83 c8 03             	or     $0x3,%eax
c0103fc3:	89 01                	mov    %eax,(%ecx)
c0103fc5:	89 51 04             	mov    %edx,0x4(%ecx)
c0103fc8:	8b 45 10             	mov    0x10(%ebp),%eax
c0103fcb:	c1 e0 0c             	shl    $0xc,%eax
c0103fce:	0b 45 14             	or     0x14(%ebp),%eax
c0103fd1:	89 45 dc             	mov    %eax,-0x24(%ebp)
c0103fd4:	83 ec 04             	sub    $0x4,%esp
c0103fd7:	68 00 10 00 00       	push   $0x1000
c0103fdc:	6a 00                	push   $0x0
c0103fde:	ff 75 dc             	push   -0x24(%ebp)
c0103fe1:	e8 7f 11 00 00       	call   c0105165 <memset>
c0103fe6:	83 c4 10             	add    $0x10,%esp
c0103fe9:	83 ec 0c             	sub    $0xc,%esp
c0103fec:	68 e2 a8 10 c0       	push   $0xc010a8e2
c0103ff1:	e8 3e 0b 00 00       	call   c0104b34 <logf>
c0103ff6:	83 c4 10             	add    $0x10,%esp
c0103ff9:	8b 45 dc             	mov    -0x24(%ebp),%eax
c0103ffc:	c9                   	leave
c0103ffd:	c3                   	ret

c0103ffe <copy_kernel_map>:
c0103ffe:	55                   	push   %ebp
c0103fff:	89 e5                	mov    %esp,%ebp
c0104001:	83 ec 08             	sub    $0x8,%esp
c0104004:	83 ec 04             	sub    $0x4,%esp
c0104007:	68 00 10 00 00       	push   $0x1000
c010400c:	68 00 10 11 c0       	push   $0xc0111000
c0104011:	ff 75 08             	push   0x8(%ebp)
c0104014:	e8 f9 10 00 00       	call   c0105112 <memcpy>
c0104019:	83 c4 10             	add    $0x10,%esp
c010401c:	90                   	nop
c010401d:	c9                   	leave
c010401e:	c3                   	ret

c010401f <copy_higher_half_kernel_pd>:
c010401f:	55                   	push   %ebp
c0104020:	89 e5                	mov    %esp,%ebp
c0104022:	83 ec 08             	sub    $0x8,%esp
c0104025:	ba 00 1c 11 c0       	mov    $0xc0111c00,%edx
c010402a:	8b 45 08             	mov    0x8(%ebp),%eax
c010402d:	05 00 0c 00 00       	add    $0xc00,%eax
c0104032:	83 ec 04             	sub    $0x4,%esp
c0104035:	68 00 04 00 00       	push   $0x400
c010403a:	52                   	push   %edx
c010403b:	50                   	push   %eax
c010403c:	e8 d1 10 00 00       	call   c0105112 <memcpy>
c0104041:	83 c4 10             	add    $0x10,%esp
c0104044:	90                   	nop
c0104045:	c9                   	leave
c0104046:	c3                   	ret

c0104047 <copy_kernel_pd_index>:
c0104047:	55                   	push   %ebp
c0104048:	89 e5                	mov    %esp,%ebp
c010404a:	83 ec 10             	sub    $0x10,%esp
c010404d:	8b 45 08             	mov    0x8(%ebp),%eax
c0104050:	89 45 fc             	mov    %eax,-0x4(%ebp)
c0104053:	8b 45 0c             	mov    0xc(%ebp),%eax
c0104056:	8d 14 85 00 00 00 00 	lea    0x0(,%eax,4),%edx
c010405d:	8b 45 fc             	mov    -0x4(%ebp),%eax
c0104060:	01 c2                	add    %eax,%edx
c0104062:	8b 45 0c             	mov    0xc(%ebp),%eax
c0104065:	8b 04 85 00 10 11 c0 	mov    -0x3feef000(,%eax,4),%eax
c010406c:	89 02                	mov    %eax,(%edx)
c010406e:	90                   	nop
c010406f:	c9                   	leave
c0104070:	c3                   	ret

c0104071 <newinit_pd>:
c0104071:	55                   	push   %ebp
c0104072:	89 e5                	mov    %esp,%ebp
c0104074:	83 ec 10             	sub    $0x10,%esp
c0104077:	c7 45 fc 00 00 00 00 	movl   $0x0,-0x4(%ebp)
c010407e:	eb 19                	jmp    c0104099 <newinit_pd+0x28>
c0104080:	8b 45 fc             	mov    -0x4(%ebp),%eax
c0104083:	8d 14 85 00 00 00 00 	lea    0x0(,%eax,4),%edx
c010408a:	8b 45 08             	mov    0x8(%ebp),%eax
c010408d:	01 d0                	add    %edx,%eax
c010408f:	c7 00 02 00 00 00    	movl   $0x2,(%eax)
c0104095:	83 45 fc 01          	addl   $0x1,-0x4(%ebp)
c0104099:	81 7d fc ff 03 00 00 	cmpl   $0x3ff,-0x4(%ebp)
c01040a0:	7e de                	jle    c0104080 <newinit_pd+0xf>
c01040a2:	8b 55 08             	mov    0x8(%ebp),%edx
c01040a5:	8b 45 08             	mov    0x8(%ebp),%eax
c01040a8:	05 fc 0f 00 00       	add    $0xffc,%eax
c01040ad:	83 ca 03             	or     $0x3,%edx
c01040b0:	89 10                	mov    %edx,(%eax)
c01040b2:	90                   	nop
c01040b3:	c9                   	leave
c01040b4:	c3                   	ret

c01040b5 <init_kpt>:
c01040b5:	55                   	push   %ebp
c01040b6:	89 e5                	mov    %esp,%ebp
c01040b8:	83 ec 18             	sub    $0x18,%esp
c01040bb:	c7 45 f4 00 00 00 00 	movl   $0x0,-0xc(%ebp)
c01040c2:	c7 45 f0 03 00 00 00 	movl   $0x3,-0x10(%ebp)
c01040c9:	b8 04 41 11 c0       	mov    $0xc0114104,%eax
c01040ce:	8d 90 00 0c f0 3f    	lea    0x3ff00c00(%eax),%edx
c01040d4:	8b 45 0c             	mov    0xc(%ebp),%eax
c01040d7:	01 d0                	add    %edx,%eax
c01040d9:	c1 e8 0c             	shr    $0xc,%eax
c01040dc:	89 45 e8             	mov    %eax,-0x18(%ebp)
c01040df:	83 ec 08             	sub    $0x8,%esp
c01040e2:	ff 75 e8             	push   -0x18(%ebp)
c01040e5:	68 ee a8 10 c0       	push   $0xc010a8ee
c01040ea:	e8 45 0a 00 00       	call   c0104b34 <logf>
c01040ef:	83 c4 10             	add    $0x10,%esp
c01040f2:	c7 45 ec 00 01 00 00 	movl   $0x100,-0x14(%ebp)
c01040f9:	eb 53                	jmp    c010414e <init_kpt+0x99>
c01040fb:	8b 45 e8             	mov    -0x18(%ebp),%eax
c01040fe:	05 04 01 00 00       	add    $0x104,%eax
c0104103:	3b 45 ec             	cmp    -0x14(%ebp),%eax
c0104106:	73 07                	jae    c010410f <init_kpt+0x5a>
c0104108:	c7 45 f0 02 00 00 00 	movl   $0x2,-0x10(%ebp)
c010410f:	8b 45 ec             	mov    -0x14(%ebp),%eax
c0104112:	8d 14 85 00 00 00 00 	lea    0x0(,%eax,4),%edx
c0104119:	8b 45 08             	mov    0x8(%ebp),%eax
c010411c:	01 d0                	add    %edx,%eax
c010411e:	8b 00                	mov    (%eax),%eax
c0104120:	83 e0 03             	and    $0x3,%eax
c0104123:	85 c0                	test   %eax,%eax
c0104125:	75 1f                	jne    c0104146 <init_kpt+0x91>
c0104127:	8b 45 f4             	mov    -0xc(%ebp),%eax
c010412a:	05 00 01 00 00       	add    $0x100,%eax
c010412f:	c1 e0 0c             	shl    $0xc,%eax
c0104132:	8b 55 ec             	mov    -0x14(%ebp),%edx
c0104135:	8d 0c 95 00 00 00 00 	lea    0x0(,%edx,4),%ecx
c010413c:	8b 55 08             	mov    0x8(%ebp),%edx
c010413f:	01 ca                	add    %ecx,%edx
c0104141:	0b 45 f0             	or     -0x10(%ebp),%eax
c0104144:	89 02                	mov    %eax,(%edx)
c0104146:	83 45 f4 01          	addl   $0x1,-0xc(%ebp)
c010414a:	83 45 ec 01          	addl   $0x1,-0x14(%ebp)
c010414e:	81 7d ec ff 03 00 00 	cmpl   $0x3ff,-0x14(%ebp)
c0104155:	76 a4                	jbe    c01040fb <init_kpt+0x46>
c0104157:	90                   	nop
c0104158:	90                   	nop
c0104159:	c9                   	leave
c010415a:	c3                   	ret

c010415b <load_page_directory>:
c010415b:	55                   	push   %ebp
c010415c:	89 e5                	mov    %esp,%ebp
c010415e:	8b 45 08             	mov    0x8(%ebp),%eax
c0104161:	0f 22 d8             	mov    %eax,%cr3
c0104164:	90                   	nop
c0104165:	5d                   	pop    %ebp
c0104166:	c3                   	ret

c0104167 <enable_paging_c>:
c0104167:	55                   	push   %ebp
c0104168:	89 e5                	mov    %esp,%ebp
c010416a:	83 ec 10             	sub    $0x10,%esp
c010416d:	0f 20 c0             	mov    %cr0,%eax
c0104170:	89 45 fc             	mov    %eax,-0x4(%ebp)
c0104173:	81 4d fc 00 00 00 80 	orl    $0x80000000,-0x4(%ebp)
c010417a:	8b 45 fc             	mov    -0x4(%ebp),%eax
c010417d:	0f 22 c0             	mov    %eax,%cr0
c0104180:	90                   	nop
c0104181:	c9                   	leave
c0104182:	c3                   	ret

c0104183 <handle_exception>:
c0104183:	55                   	push   %ebp
c0104184:	89 e5                	mov    %esp,%ebp
c0104186:	83 ec 18             	sub    $0x18,%esp
c0104189:	8b 45 08             	mov    0x8(%ebp),%eax
c010418c:	8b 40 30             	mov    0x30(%eax),%eax
c010418f:	89 45 f4             	mov    %eax,-0xc(%ebp)
c0104192:	8b 45 f4             	mov    -0xc(%ebp),%eax
c0104195:	83 e0 01             	and    $0x1,%eax
c0104198:	85 c0                	test   %eax,%eax
c010419a:	74 10                	je     c01041ac <handle_exception+0x29>
c010419c:	83 ec 0c             	sub    $0xc,%esp
c010419f:	68 f9 a8 10 c0       	push   $0xc010a8f9
c01041a4:	e8 51 07 00 00       	call   c01048fa <log_to_serial>
c01041a9:	83 c4 10             	add    $0x10,%esp
c01041ac:	8b 45 f4             	mov    -0xc(%ebp),%eax
c01041af:	83 e0 02             	and    $0x2,%eax
c01041b2:	85 c0                	test   %eax,%eax
c01041b4:	74 17                	je     c01041cd <handle_exception+0x4a>
c01041b6:	8b 45 08             	mov    0x8(%ebp),%eax
c01041b9:	8b 40 04             	mov    0x4(%eax),%eax
c01041bc:	83 ec 08             	sub    $0x8,%esp
c01041bf:	50                   	push   %eax
c01041c0:	68 0e a9 10 c0       	push   $0xc010a90e
c01041c5:	e8 6a 09 00 00       	call   c0104b34 <logf>
c01041ca:	83 c4 10             	add    $0x10,%esp
c01041cd:	8b 45 f4             	mov    -0xc(%ebp),%eax
c01041d0:	83 e0 04             	and    $0x4,%eax
c01041d3:	85 c0                	test   %eax,%eax
c01041d5:	74 10                	je     c01041e7 <handle_exception+0x64>
c01041d7:	83 ec 0c             	sub    $0xc,%esp
c01041da:	68 24 a9 10 c0       	push   $0xc010a924
c01041df:	e8 16 07 00 00       	call   c01048fa <log_to_serial>
c01041e4:	83 c4 10             	add    $0x10,%esp
c01041e7:	8b 45 f4             	mov    -0xc(%ebp),%eax
c01041ea:	83 e0 08             	and    $0x8,%eax
c01041ed:	85 c0                	test   %eax,%eax
c01041ef:	74 10                	je     c0104201 <handle_exception+0x7e>
c01041f1:	83 ec 0c             	sub    $0xc,%esp
c01041f4:	68 47 a9 10 c0       	push   $0xc010a947
c01041f9:	e8 fc 06 00 00       	call   c01048fa <log_to_serial>
c01041fe:	83 c4 10             	add    $0x10,%esp
c0104201:	8b 45 f4             	mov    -0xc(%ebp),%eax
c0104204:	83 e0 10             	and    $0x10,%eax
c0104207:	85 c0                	test   %eax,%eax
c0104209:	74 10                	je     c010421b <handle_exception+0x98>
c010420b:	83 ec 0c             	sub    $0xc,%esp
c010420e:	68 57 a9 10 c0       	push   $0xc010a957
c0104213:	e8 e2 06 00 00       	call   c01048fa <log_to_serial>
c0104218:	83 c4 10             	add    $0x10,%esp
c010421b:	8b 45 f4             	mov    -0xc(%ebp),%eax
c010421e:	83 e0 20             	and    $0x20,%eax
c0104221:	85 c0                	test   %eax,%eax
c0104223:	74 10                	je     c0104235 <handle_exception+0xb2>
c0104225:	83 ec 0c             	sub    $0xc,%esp
c0104228:	68 6a a9 10 c0       	push   $0xc010a96a
c010422d:	e8 c8 06 00 00       	call   c01048fa <log_to_serial>
c0104232:	83 c4 10             	add    $0x10,%esp
c0104235:	8b 45 f4             	mov    -0xc(%ebp),%eax
c0104238:	83 e0 40             	and    $0x40,%eax
c010423b:	85 c0                	test   %eax,%eax
c010423d:	74 10                	je     c010424f <handle_exception+0xcc>
c010423f:	83 ec 0c             	sub    $0xc,%esp
c0104242:	68 7c a9 10 c0       	push   $0xc010a97c
c0104247:	e8 ae 06 00 00       	call   c01048fa <log_to_serial>
c010424c:	83 c4 10             	add    $0x10,%esp
c010424f:	8b 45 f4             	mov    -0xc(%ebp),%eax
c0104252:	83 e0 fd             	and    $0xfffffffd,%eax
c0104255:	85 c0                	test   %eax,%eax
c0104257:	75 48                	jne    c01042a1 <handle_exception+0x11e>
c0104259:	8b 45 08             	mov    0x8(%ebp),%eax
c010425c:	8b 40 04             	mov    0x4(%eax),%eax
c010425f:	85 c0                	test   %eax,%eax
c0104261:	75 10                	jne    c0104273 <handle_exception+0xf0>
c0104263:	83 ec 0c             	sub    $0xc,%esp
c0104266:	68 8a a9 10 c0       	push   $0xc010a98a
c010426b:	e8 c4 08 00 00       	call   c0104b34 <logf>
c0104270:	83 c4 10             	add    $0x10,%esp
c0104273:	8b 45 08             	mov    0x8(%ebp),%eax
c0104276:	8b 40 04             	mov    0x4(%eax),%eax
c0104279:	83 ec 08             	sub    $0x8,%esp
c010427c:	50                   	push   %eax
c010427d:	68 a0 a9 10 c0       	push   $0xc010a9a0
c0104282:	e8 ad 08 00 00       	call   c0104b34 <logf>
c0104287:	83 c4 10             	add    $0x10,%esp
c010428a:	83 ec 0c             	sub    $0xc,%esp
c010428d:	68 b2 a9 10 c0       	push   $0xc010a9b2
c0104292:	e8 40 0b 00 00       	call   c0104dd7 <panic>
c0104297:	83 c4 10             	add    $0x10,%esp
c010429a:	b8 00 00 00 00       	mov    $0x0,%eax
c010429f:	eb 05                	jmp    c01042a6 <handle_exception+0x123>
c01042a1:	b8 01 00 00 00       	mov    $0x1,%eax
c01042a6:	c9                   	leave
c01042a7:	c3                   	ret

c01042a8 <transfer_pages_to_pae>:
c01042a8:	55                   	push   %ebp
c01042a9:	89 e5                	mov    %esp,%ebp
c01042ab:	53                   	push   %ebx
c01042ac:	83 ec 34             	sub    $0x34,%esp
c01042af:	e8 c4 df ff ff       	call   c0102278 <alloc_phys_page>
c01042b4:	89 45 e8             	mov    %eax,-0x18(%ebp)
c01042b7:	8b 45 e8             	mov    -0x18(%ebp),%eax
c01042ba:	83 ec 04             	sub    $0x4,%esp
c01042bd:	50                   	push   %eax
c01042be:	6a 03                	push   $0x3
c01042c0:	68 00 04 00 00       	push   $0x400
c01042c5:	e8 7c e2 ff ff       	call   c0102546 <page_kalloc>
c01042ca:	83 c4 10             	add    $0x10,%esp
c01042cd:	89 45 e4             	mov    %eax,-0x1c(%ebp)
c01042d0:	8b 45 08             	mov    0x8(%ebp),%eax
c01042d3:	8b 00                	mov    (%eax),%eax
c01042d5:	89 45 e0             	mov    %eax,-0x20(%ebp)
c01042d8:	c7 45 f4 00 03 00 00 	movl   $0x300,-0xc(%ebp)
c01042df:	e9 37 01 00 00       	jmp    c010441b <transfer_pages_to_pae+0x173>
c01042e4:	8b 45 f4             	mov    -0xc(%ebp),%eax
c01042e7:	8d 14 85 00 00 00 00 	lea    0x0(,%eax,4),%edx
c01042ee:	8b 45 e0             	mov    -0x20(%ebp),%eax
c01042f1:	01 d0                	add    %edx,%eax
c01042f3:	8b 00                	mov    (%eax),%eax
c01042f5:	83 e0 01             	and    $0x1,%eax
c01042f8:	85 c0                	test   %eax,%eax
c01042fa:	0f 84 17 01 00 00    	je     c0104417 <transfer_pages_to_pae+0x16f>
c0104300:	8b 45 f4             	mov    -0xc(%ebp),%eax
c0104303:	05 00 fc 0f 00       	add    $0xffc00,%eax
c0104308:	c1 e0 0c             	shl    $0xc,%eax
c010430b:	89 45 dc             	mov    %eax,-0x24(%ebp)
c010430e:	e8 65 df ff ff       	call   c0102278 <alloc_phys_page>
c0104313:	89 45 d8             	mov    %eax,-0x28(%ebp)
c0104316:	8b 45 d8             	mov    -0x28(%ebp),%eax
c0104319:	83 ec 04             	sub    $0x4,%esp
c010431c:	50                   	push   %eax
c010431d:	6a 03                	push   $0x3
c010431f:	68 00 04 00 00       	push   $0x400
c0104324:	e8 1d e2 ff ff       	call   c0102546 <page_kalloc>
c0104329:	83 c4 10             	add    $0x10,%esp
c010432c:	89 45 d4             	mov    %eax,-0x2c(%ebp)
c010432f:	c7 45 f0 00 00 00 00 	movl   $0x0,-0x10(%ebp)
c0104336:	eb 31                	jmp    c0104369 <transfer_pages_to_pae+0xc1>
c0104338:	8b 45 f0             	mov    -0x10(%ebp),%eax
c010433b:	8d 14 85 00 00 00 00 	lea    0x0(,%eax,4),%edx
c0104342:	8b 45 dc             	mov    -0x24(%ebp),%eax
c0104345:	01 d0                	add    %edx,%eax
c0104347:	8b 18                	mov    (%eax),%ebx
c0104349:	8b 45 f0             	mov    -0x10(%ebp),%eax
c010434c:	8d 14 c5 00 00 00 00 	lea    0x0(,%eax,8),%edx
c0104353:	8b 45 d4             	mov    -0x2c(%ebp),%eax
c0104356:	8d 0c 02             	lea    (%edx,%eax,1),%ecx
c0104359:	89 d8                	mov    %ebx,%eax
c010435b:	ba 00 00 00 00       	mov    $0x0,%edx
c0104360:	89 01                	mov    %eax,(%ecx)
c0104362:	89 51 04             	mov    %edx,0x4(%ecx)
c0104365:	83 45 f0 01          	addl   $0x1,-0x10(%ebp)
c0104369:	81 7d f0 ff 01 00 00 	cmpl   $0x1ff,-0x10(%ebp)
c0104370:	76 c6                	jbe    c0104338 <transfer_pages_to_pae+0x90>
c0104372:	8b 45 d8             	mov    -0x28(%ebp),%eax
c0104375:	83 c8 03             	or     $0x3,%eax
c0104378:	8b 55 f4             	mov    -0xc(%ebp),%edx
c010437b:	81 ea 00 03 00 00    	sub    $0x300,%edx
c0104381:	89 d1                	mov    %edx,%ecx
c0104383:	c1 e1 04             	shl    $0x4,%ecx
c0104386:	8b 55 e4             	mov    -0x1c(%ebp),%edx
c0104389:	01 d1                	add    %edx,%ecx
c010438b:	99                   	cltd
c010438c:	89 01                	mov    %eax,(%ecx)
c010438e:	89 51 04             	mov    %edx,0x4(%ecx)
c0104391:	e8 e2 de ff ff       	call   c0102278 <alloc_phys_page>
c0104396:	89 45 d8             	mov    %eax,-0x28(%ebp)
c0104399:	8b 45 d8             	mov    -0x28(%ebp),%eax
c010439c:	83 ec 04             	sub    $0x4,%esp
c010439f:	50                   	push   %eax
c01043a0:	6a 03                	push   $0x3
c01043a2:	68 00 04 00 00       	push   $0x400
c01043a7:	e8 9a e1 ff ff       	call   c0102546 <page_kalloc>
c01043ac:	83 c4 10             	add    $0x10,%esp
c01043af:	89 45 d4             	mov    %eax,-0x2c(%ebp)
c01043b2:	c7 45 ec 00 00 00 00 	movl   $0x0,-0x14(%ebp)
c01043b9:	eb 36                	jmp    c01043f1 <transfer_pages_to_pae+0x149>
c01043bb:	8b 45 ec             	mov    -0x14(%ebp),%eax
c01043be:	05 00 02 00 00       	add    $0x200,%eax
c01043c3:	8d 14 85 00 00 00 00 	lea    0x0(,%eax,4),%edx
c01043ca:	8b 45 dc             	mov    -0x24(%ebp),%eax
c01043cd:	01 d0                	add    %edx,%eax
c01043cf:	8b 18                	mov    (%eax),%ebx
c01043d1:	8b 45 ec             	mov    -0x14(%ebp),%eax
c01043d4:	8d 14 c5 00 00 00 00 	lea    0x0(,%eax,8),%edx
c01043db:	8b 45 d4             	mov    -0x2c(%ebp),%eax
c01043de:	8d 0c 02             	lea    (%edx,%eax,1),%ecx
c01043e1:	89 d8                	mov    %ebx,%eax
c01043e3:	ba 00 00 00 00       	mov    $0x0,%edx
c01043e8:	89 01                	mov    %eax,(%ecx)
c01043ea:	89 51 04             	mov    %edx,0x4(%ecx)
c01043ed:	83 45 ec 01          	addl   $0x1,-0x14(%ebp)
c01043f1:	81 7d ec ff 01 00 00 	cmpl   $0x1ff,-0x14(%ebp)
c01043f8:	76 c1                	jbe    c01043bb <transfer_pages_to_pae+0x113>
c01043fa:	8b 45 d8             	mov    -0x28(%ebp),%eax
c01043fd:	8b 55 f4             	mov    -0xc(%ebp),%edx
c0104400:	81 ea 00 03 00 00    	sub    $0x300,%edx
c0104406:	c1 e2 04             	shl    $0x4,%edx
c0104409:	8d 4a 08             	lea    0x8(%edx),%ecx
c010440c:	8b 55 e4             	mov    -0x1c(%ebp),%edx
c010440f:	01 d1                	add    %edx,%ecx
c0104411:	99                   	cltd
c0104412:	89 01                	mov    %eax,(%ecx)
c0104414:	89 51 04             	mov    %edx,0x4(%ecx)
c0104417:	83 45 f4 01          	addl   $0x1,-0xc(%ebp)
c010441b:	81 7d f4 ff 03 00 00 	cmpl   $0x3ff,-0xc(%ebp)
c0104422:	0f 86 bc fe ff ff    	jbe    c01042e4 <transfer_pages_to_pae+0x3c>
c0104428:	8b 45 e8             	mov    -0x18(%ebp),%eax
c010442b:	83 c8 01             	or     $0x1,%eax
c010442e:	8b 55 e4             	mov    -0x1c(%ebp),%edx
c0104431:	8d 8a f8 0f 00 00    	lea    0xff8(%edx),%ecx
c0104437:	99                   	cltd
c0104438:	89 01                	mov    %eax,(%ecx)
c010443a:	89 51 04             	mov    %edx,0x4(%ecx)
c010443d:	8b 45 e8             	mov    -0x18(%ebp),%eax
c0104440:	8b 5d fc             	mov    -0x4(%ebp),%ebx
c0104443:	c9                   	leave
c0104444:	c3                   	ret

c0104445 <init_pae>:
c0104445:	55                   	push   %ebp
c0104446:	89 e5                	mov    %esp,%ebp
c0104448:	53                   	push   %ebx
c0104449:	83 ec 44             	sub    $0x44,%esp
c010444c:	8d 45 cc             	lea    -0x34(%ebp),%eax
c010444f:	83 ec 08             	sub    $0x8,%esp
c0104452:	6a 01                	push   $0x1
c0104454:	50                   	push   %eax
c0104455:	e8 69 4b 00 00       	call   c0108fc3 <get_cpuid>
c010445a:	83 c4 0c             	add    $0xc,%esp
c010445d:	8b 45 cc             	mov    -0x34(%ebp),%eax
c0104460:	83 e0 40             	and    $0x40,%eax
c0104463:	85 c0                	test   %eax,%eax
c0104465:	74 12                	je     c0104479 <init_pae+0x34>
c0104467:	83 ec 0c             	sub    $0xc,%esp
c010446a:	68 c5 a9 10 c0       	push   $0xc010a9c5
c010446f:	e8 c0 06 00 00       	call   c0104b34 <logf>
c0104474:	83 c4 10             	add    $0x10,%esp
c0104477:	eb 10                	jmp    c0104489 <init_pae+0x44>
c0104479:	83 ec 0c             	sub    $0xc,%esp
c010447c:	68 d8 a9 10 c0       	push   $0xc010a9d8
c0104481:	e8 51 09 00 00       	call   c0104dd7 <panic>
c0104486:	83 c4 10             	add    $0x10,%esp
c0104489:	8d 45 bc             	lea    -0x44(%ebp),%eax
c010448c:	83 ec 08             	sub    $0x8,%esp
c010448f:	68 08 00 00 80       	push   $0x80000008
c0104494:	50                   	push   %eax
c0104495:	e8 29 4b 00 00       	call   c0108fc3 <get_cpuid>
c010449a:	83 c4 0c             	add    $0xc,%esp
c010449d:	8b 45 bc             	mov    -0x44(%ebp),%eax
c01044a0:	88 45 f7             	mov    %al,-0x9(%ebp)
c01044a3:	0f b6 45 f7          	movzbl -0x9(%ebp),%eax
c01044a7:	a3 08 30 11 c0       	mov    %eax,0xc0113008
c01044ac:	a1 08 30 11 c0       	mov    0xc0113008,%eax
c01044b1:	83 ec 08             	sub    $0x8,%esp
c01044b4:	50                   	push   %eax
c01044b5:	68 ed a9 10 c0       	push   $0xc010a9ed
