
word.bin:     file format elf32-i386
word.bin
architecture: i386, flags 0x00000112:
EXEC_P, HAS_SYMS, D_PAGED
start address 0x00100030

Program Header:
    LOAD off    0x00001000 vaddr 0x00100000 paddr 0x00100000 align 2**12
         filesz 0x00000096 memsz 0x00000096 flags rw-
    LOAD off    0x00002000 vaddr 0xc0101000 paddr 0x00101000 align 2**12
         filesz 0x0000497b memsz 0x0000497b flags r-x
    LOAD off    0x00007000 vaddr 0xc0106000 paddr 0x00106000 align 2**12
         filesz 0x00001650 memsz 0x00009010 flags rw-

Sections:
Idx Name          Size      VMA       LMA       File off  Algn
  0 .mb2_hdr      00000030  00100000  00100000  00001000  2**3
                  CONTENTS, ALLOC, LOAD, DATA
  1 .multiboot.text 00000066  00100030  00100030  00001030  2**0
                  CONTENTS, ALLOC, LOAD, READONLY, DATA
  2 .text         00003e39  c0101000  00101000  00002000  2**0
                  CONTENTS, ALLOC, LOAD, READONLY, CODE
  3 .rodata       0000097b  c0105000  00105000  00006000  2**2
                  CONTENTS, ALLOC, LOAD, READONLY, DATA
  4 .data         00001650  c0106000  00106000  00007000  2**5
                  CONTENTS, ALLOC, LOAD, DATA
  5 .bss          00007010  c0108000  00108000  00008650  2**12
                  ALLOC
  6 .comment      00000012  00000000  00000000  00008650  2**0
                  CONTENTS, READONLY
SYMBOL TABLE:
00000000 l    df *ABS*	00000000 bootNP.o
e85250d6 l       *ABS*	00000000 MAGIC_NUMBER
00000000 l       *ABS*	00000000 ARCH
00001000 l       *ABS*	00000000 PAGESIZE
c0000000 l       *ABS*	00000000 BOOTLOC
00100000 l       .mb2_hdr	00000000 mb2_hdr_begin
00100030 l       .mb2_hdr	00000000 mb2_hdr_end
00100010 l       .mb2_hdr	00000000 mb2_frame_buffer_req
00100024 l       .mb2_hdr	00000000 mb2_framebuffer_end
c010e010 l       .bss	00000000 boot_stack_base
c010f010 l       .bss	00000000 stack_top
c0109000 l       .bss	00000000 boot_page_directory
c010a000 l       .bss	00000000 boot_page_table1
c0102f39 l       .text	00000000 flush
00000000 l    df *ABS*	00000000 terminal.c
00000000 l    df *ABS*	00000000 string.c
00000000 l    df *ABS*	00000000 heap.c
00000000 l    df *ABS*	00000000 idtStub.o
c0101c7d l       .text	00000000 isr_frame_as
c0101cab l       .text	00000000 irq_frame
00000000 l    df *ABS*	00000000 apic.c
c0101ddf l     F .text	0000001b io_wait
00000000 l    df *ABS*	00000000 timer.c
00000000 l    df *ABS*	00000000 keyboard.c
c0102353 l     F .text	0000001b io_wait
00000000 l    df *ABS*	00000000 framebuffer.c
00000000 l    df *ABS*	00000000 pmm.c
c0106184 l     O .data	00000004 mem_top
c0106188 l     O .data	00000004 mem_bottom
00000000 l    df *ABS*	00000000 vmm.c
c010b010 l     O .bss	00000004 mem_top
c010b014 l     O .bss	00000004 mem_bottom
00000000 l    df *ABS*	00000000 mb_parse.c
c010b024 l     O .bss	00000004 mem_top
c010b028 l     O .bss	00000004 mem_bottom
c010b02c l     O .bss	00000004 bypp
00000000 l    df *ABS*	00000000 gdt.c
00000000 l    df *ABS*	00000000 idt.c
c010b070 l     O .bss	00000800 idt
c010b870 l     O .bss	00000006 idtr
00000000 l    df *ABS*	00000000 paging.c
c010e000 l     O .bss	00000004 mem_top
c010e004 l     O .bss	00000004 mem_bottom
00000000 l    df *ABS*	00000000 kernel.c
c010e008 l     O .bss	00000004 mem_top
c010e00c l     O .bss	00000004 mem_bottom
c0104825 l     F .text	000000c1 init_serial
c010c000 g     O .bss	00001000 kernel_pd
c0103178 g     F .text	00000014 physical_to_frame
c0101d35 g     F .text	00000000 isr_stub_17
c01020c0 g     F .text	000000c0 calibrate_timer
c0101d11 g     F .text	00000000 isr_stub_13
c0101577 g     F .text	00000130 printf
c0101e8b g     F .text	00000022 read_ioapic_register
c010825e g     O .bss	00000001 key_buffer_pos
c010333e g     F .text	0000009c create_vmm
c0101d19 g     F .text	00000000 isr_stub_14
c0108268 g     O .bss	00000002 cursor_xpaws
c0108044 g     O .bss	00000004 key_codes
c01045fb g     F .text	0000000c load_page_directory
c01018f1 g     F .text	00000016 memmove
c0108020 g     O .bss	00000004 glob_lapic_addr
c0101ced g     F .text	00000000 isr_stub_8
c01039a0 g     F .text	000000ae parse_MADT
c010618c g     O .data	00000004 pre_mem
c010230b g     F .text	0000000d poll_timer
c0104748 g     F .text	000000ad pg_init
c010b068 g     O .bss	00000006 gp
c0104b20 g     F .text	00000179 logf
c0108060 g     O .bss	000001fe key_buffer
c0104923 g     F .text	00000106 log_integer_to_serial
c01016a7 g     F .text	0000000e tflush
c0102ffb g     F .text	0000004c pre_malloc
c010801c g     O .bss	00000004 cur_heap_pos
c0101ead g     F .text	00000026 write_ioapic_register
c01030d2 g     F .text	00000043 clear_frame
c01047f5 g     F .text	00000019 inportb
c010d000 g     O .bss	00001000 kernel_pt
c0103d0d g     F .text	0000009f gdt_install
c0108024 g     O .bss	00000004 glob_ioapic_addr
c01018b4 g     F .text	0000003d memcpy
c010825f g     O .bss	00000001 current_state
c0101b70 g     F .text	0000010d kfree
c01043ab g     F .text	000000ac memory_unmap
c0108040 g     O .bss	00000000 extended_key_lookup
c0101cbc g       .text	00000000 isr_stub_1
c01019d5 g     F .text	00000006 malloc
c0103310 g     F .text	0000002e convert_x86_32_vm_flags
c01016b5 g     F .text	0000008a next_keycode
c0101dab g       .text	00000000 isr_stub_29
c0101e2c g     F .text	0000005f get_cpuid
c0102d80 g     F .text	00000026 get_glyph
c010b020 g     O .bss	00000004 old_acpi
c01013ef g     F .text	00000099 parse_color
c01011c4 g     F .text	00000076 write_char_text_buffer
c0101cd8 g       .text	00000000 isr_stub_5
c01025f5 g     F .text	000004f4 get_printable_char
c0101d5b g       .text	00000000 isr_stub_21
c0101d21 g       .text	00000000 isr_stub_15
c0101d47 g       .text	00000000 isr_stub_19
c010123a g     F .text	00000178 draw_text_buffer
c0108014 g     O .bss	00000004 term_bg
c0108004 g     O .bss	00000004 text_buffer
c0101dcf g     F .text	00000000 irq_stub_49
c010b01c g     O .bss	00000004 fb
c0108018 g     O .bss	00000004 heap_start
c0103a8e g     F .text	0000008a get_sdt_by_signature
c0103c6f g     F .text	0000009e gdt_set_gate
c0103b18 g     F .text	0000007b init_rsdt_v1
c0101fa5 g     F .text	00000020 lapic_write_reg
c0102da6 g     F .text	000000bb fill_square
c010f010 g       .bss	00000000 _kernel_end
c0101999 g     F .text	0000003c init_heap
c0102f0a g     F .text	00000000 enable_paging
c010388d g     F .text	0000006e get_pixel_addr
c0101488 g     F .text	000000ef term_render_hex
c0101cb5 g       .text	00000000 isr_stub_0
c0101d01 g     F .text	00000000 isr_stub_11
c010b008 g     O .bss	00000004 last_frame
c0106000 g     O .data	00000001 font_size
c0108260 g     O .bss	00000004 fb_virt_addr
c0104cb7 g     F .text	00000182 kernel_main
c0108264 g     O .bss	00000004 font_head
c0104607 g     F .text	0000001c enable_paging_c
c01031e7 g     F .text	00000070 transfer_dynamic
c010113d g     F .text	00000087 write_text_buffer
c0104457 g     F .text	00000099 create_new_pt
c0102190 g     F .text	0000004d set_pit_one_shot
c0101cca g       .text	00000000 isr_stub_3
c0104511 g     F .text	00000044 newinit_pd
c010b00c g     O .bss	00000004 current_vmm
c0101da1 g       .text	00000000 isr_stub_28
c0102efd g     F .text	00000000 load_directory
c010318c g     F .text	0000005b alloc_phys_page
c01048e6 g     F .text	0000003d log_to_serial
c0101dd7 g     F .text	00000000 irq_stub_50
c0101db5 g     F .text	00000000 isr_stub_30
c0103b93 g     F .text	000000dc init_multiboot
c010352e g     F .text	0000027d page_kalloc
c01044f0 g     F .text	00000021 copy_kernel_map
c010480e g     F .text	00000017 outportb
c01013b2 g     F .text	0000003d single_shtoi
c0103164 g     F .text	00000014 frame_to_physical
c0103dac g     F .text	00000061 idt_set_gate
c0101d6f g       .text	00000000 isr_stub_23
c0101000 g     F .text	00000006 func1
c010802c g     O .bss	00000004 calibrating
c0107650 g       .data	00000000 _binary_font_psf_end
c01022be g     F .text	0000004d polled_sleep
c0102000 g     F .text	0000001e set_initial_lapic_timer_count
00100030 g     F .multiboot.text	00000000 _start
c0102f3a g     F .text	000000c1 set_memory_map
c01041a0 g     F .text	000000cc exc_print
c0104323 g     F .text	00000088 memory_map
c0101f35 g     F .text	00000070 init_ioapic
c0102eb9 g     F .text	00000025 put_pixel
c0101dbd g       .text	00000000 isr_stub_31
c0103e0d g     F .text	00000393 init_idt
c0104c99 g     F .text	0000001e panic
c0101cc3 g       .text	00000000 isr_stub_2
c0108008 g     O .bss	00000002 textbuf_loc
c0103257 g     F .text	000000b9 kinit
c010184b g     F .text	00000069 memcmp
c010826c g     O .bss	00000002 screen_width
c0101d2b g       .text	00000000 isr_stub_16
c0102420 g     F .text	000000f6 handle_keychange
c010100c g     F .text	00000131 scroll_text_buffer_down
c0102030 g     F .text	0000001d send_EOI
c010347b g     F .text	000000b3 alloc_vm_obj
c01021dd g     F .text	000000e1 disable_pic
c010826e g     O .bss	00000002 screen_height
c0101907  w    F .text	0000002b memset
c0101d79 g       .text	00000000 isr_stub_24
c0102c34 g     F .text	0000014c fb_put_glyph
c0101006 g     F .text	00000006 func2
c0101d51 g       .text	00000000 isr_stub_20
c0104555 g     F .text	000000a6 init_kpt
c0101d83 g       .text	00000000 isr_stub_25
c010b040 g     O .bss	00000028 desc
c0101fc5 g     F .text	0000001c lapic_read_reg
c010201e g     F .text	00000012 get_lapic_timer_count
c01037ab g     F .text	000000e2 page_free
c01042eb g     F .text	00000038 isr_handler
c0108028 g     O .bss	00000004 ticks_per_ms
c0104a29 g     F .text	000000f7 print_hex
c0101dc7 g     F .text	00000000 irq_stub_48
c0101956 g     F .text	00000043 strcmp
c0101d8d g       .text	00000000 isr_stub_26
c0102e61 g     F .text	00000058 init_font
c010173f g     F .text	00000058 terminal_loop
c0101dfa g     F .text	00000032 get_apic_addr
c010204d g     F .text	00000073 init_apic
c010800c g     O .bss	00000004 max_char_x
c010b004 g     O .bss	00000004 num_frames
c010800a g     O .bss	00000002 cur_lines
c0101ce6 g       .text	00000000 isr_stub_7
c01033da g     F .text	00000093 vmm_transfer_dynamic
c0106190 g       .data	00000000 _binary_font_psf_start
c0104295 g     F .text	00000056 irq_handler
c0101cd1 g       .text	00000000 isr_stub_4
c0106004 g     O .data	00000004 term_fg
c010426c g     F .text	00000029 handle_keyboard
c0104623 g     F .text	00000125 handle_exception
c0102c00 g     F .text	0000001a fb_set_width
c010b018 g     O .bss	00000004 rsdt_addr
c01038fb g     F .text	000000a5 init_framebuffer
c0102f1c g     F .text	00000000 flush_gdt
c010826a g     O .bss	00000002 cursor_ypaws
c0101d3d g       .text	00000000 isr_stub_18
c0101ed3 g     F .text	00000062 ioapic_pit_irq
c0102c1a g     F .text	0000001a fb_set_height
c0102318 g     F .text	0000003b arm_interrupt_timer
c0102516 g     F .text	000000df recieve_scancode
c0101fe1 g     F .text	0000001f lapic_timer_init
c0101797 g     F .text	000000b4 init_terminal
c0101cf9 g     F .text	00000000 isr_stub_10
c0101d09 g     F .text	00000000 isr_stub_12
c0101cdf g       .text	00000000 isr_stub_6
000014c0 g       *ABS*	00000000 _binary_font_psf_size
c0103047 g     F .text	0000008b get_first_frame
c0103a4e g     F .text	00000040 validate_RSDP
c0101932 g     F .text	00000024 strlen
c010346d g     F .text	0000000e set_current_vmm
00100000 g       .mb2_hdr	00000000 _kernel_start
c010b000 g     O .bss	00000004 frames
c0106020 g     O .data	00000164 key_lookup
c0102180 g     F .text	00000010 end_calibration
c0101cf2 g       .text	00000000 isr_stub_9
c01019e1 g     F .text	0000018f kalloc
c0102ae9 g     F .text	00000117 init_keyboard
c0101d65 g       .text	00000000 isr_stub_22
c010236e g     F .text	000000b2 handle_masks
c0103115 g     F .text	0000004f set_frame
c0108000 g     O .bss	00000001 key_buffer_tail
c0108010 g     O .bss	00000004 max_char_y
c01019db g     F .text	00000006 free
c0101d97 g       .text	00000000 isr_stub_27



Disassembly of section .mb2_hdr:

00100000 <_kernel_start>:
  100000:	d6                   	(bad)
  100001:	50                   	push   %eax
  100002:	52                   	push   %edx
  100003:	e8 00 00 00 00       	call   100008 <_kernel_start+0x8>
  100008:	30 00                	xor    %al,(%eax)
  10000a:	00 00                	add    %al,(%eax)
  10000c:	fa                   	cli
  10000d:	ae                   	scas   %es:(%edi),%al
  10000e:	ad                   	lods   %ds:(%esi),%eax
  10000f:	17                   	pop    %ss

00100010 <mb2_frame_buffer_req>:
  100010:	05 00 01 00 14       	add    $0x14000100,%eax
  100015:	00 00                	add    %al,(%eax)
  100017:	00 20                	add    %ah,(%eax)
  100019:	03 00                	add    (%eax),%eax
  10001b:	00 58 02             	add    %bl,0x2(%eax)
  10001e:	00 00                	add    %al,(%eax)
  100020:	20 00                	and    %al,(%eax)
	...

00100024 <mb2_framebuffer_end>:
	...
  10002c:	08 00                	or     %al,(%eax)
	...

Disassembly of section .multiboot.text:

00100030 <_start>:
  100030:	bc 10 f0 10 c0       	mov    $0xc010f010,%esp
  100035:	bf 00 a0 10 00       	mov    $0x10a000,%edi
  10003a:	be 00 00 00 00       	mov    $0x0,%esi
  10003f:	b9 00 08 00 00       	mov    $0x800,%ecx
  100044:	81 fe 00 00 10 00    	cmp    $0x100000,%esi
  10004a:	7c 0f                	jl     10005b <_start+0x2b>
  10004c:	81 fe 10 f0 10 00    	cmp    $0x10f010,%esi
  100052:	7d 12                	jge    100066 <_start+0x36>
  100054:	89 f2                	mov    %esi,%edx
  100056:	83 ca 03             	or     $0x3,%edx
  100059:	89 17                	mov    %edx,(%edi)
  10005b:	81 c6 00 10 00 00    	add    $0x1000,%esi
  100061:	83 c7 04             	add    $0x4,%edi
  100064:	e2 de                	loop   100044 <_start+0x14>
  100066:	c7 05 00 90 10 00 03 	movl   $0x10a003,0x109000
  10006d:	a0 10 00 
  100070:	c7 05 00 9c 10 00 03 	movl   $0x10a003,0x109c00
  100077:	a0 10 00 
  10007a:	b9 00 90 10 00       	mov    $0x109000,%ecx
  10007f:	0f 22 d9             	mov    %ecx,%cr3
  100082:	0f 20 c1             	mov    %cr0,%ecx
  100085:	81 c9 00 00 00 80    	or     $0x80000000,%ecx
  10008b:	0f 22 c1             	mov    %ecx,%cr0
  10008e:	8d 0d de 2e 10 c0    	lea    0xc0102ede,%ecx
  100094:	ff e1                	jmp    *%ecx

Disassembly of section .text:

c0101000 <func1>:
c0101000:	55                   	push   %ebp
c0101001:	89 e5                	mov    %esp,%ebp
c0101003:	90                   	nop
c0101004:	5d                   	pop    %ebp
c0101005:	c3                   	ret

c0101006 <func2>:
c0101006:	55                   	push   %ebp
c0101007:	89 e5                	mov    %esp,%ebp
c0101009:	90                   	nop
c010100a:	5d                   	pop    %ebp
c010100b:	c3                   	ret

c010100c <scroll_text_buffer_down>:
c010100c:	55                   	push   %ebp
c010100d:	89 e5                	mov    %esp,%ebp
c010100f:	83 ec 18             	sub    $0x18,%esp
c0101012:	a1 0c 80 10 c0       	mov    0xc010800c,%eax
c0101017:	89 45 f4             	mov    %eax,-0xc(%ebp)
c010101a:	eb 04                	jmp    c0101020 <scroll_text_buffer_down+0x14>
c010101c:	83 45 f4 01          	addl   $0x1,-0xc(%ebp)
c0101020:	a1 0c 80 10 c0       	mov    0xc010800c,%eax
c0101025:	39 45 f4             	cmp    %eax,-0xc(%ebp)
c0101028:	7c f2                	jl     c010101c <scroll_text_buffer_down+0x10>
c010102a:	8b 15 04 80 10 c0    	mov    0xc0108004,%edx
c0101030:	8b 45 f4             	mov    -0xc(%ebp),%eax
c0101033:	01 d0                	add    %edx,%eax
c0101035:	0f b6 00             	movzbl (%eax),%eax
c0101038:	3c 0a                	cmp    $0xa,%al
c010103a:	75 e0                	jne    c010101c <scroll_text_buffer_down+0x10>
c010103c:	c7 45 f0 00 00 00 00 	movl   $0x0,-0x10(%ebp)
c0101043:	eb 21                	jmp    c0101066 <scroll_text_buffer_down+0x5a>
c0101045:	8b 15 04 80 10 c0    	mov    0xc0108004,%edx
c010104b:	8b 45 f0             	mov    -0x10(%ebp),%eax
c010104e:	01 d0                	add    %edx,%eax
c0101050:	0f b6 00             	movzbl (%eax),%eax
c0101053:	3c 0a                	cmp    $0xa,%al
c0101055:	75 0b                	jne    c0101062 <scroll_text_buffer_down+0x56>
c0101057:	8b 45 f0             	mov    -0x10(%ebp),%eax
c010105a:	83 c0 01             	add    $0x1,%eax
c010105d:	89 45 f4             	mov    %eax,-0xc(%ebp)
c0101060:	eb 0e                	jmp    c0101070 <scroll_text_buffer_down+0x64>
c0101062:	83 45 f0 01          	addl   $0x1,-0x10(%ebp)
c0101066:	a1 0c 80 10 c0       	mov    0xc010800c,%eax
c010106b:	39 45 f0             	cmp    %eax,-0x10(%ebp)
c010106e:	7c d5                	jl     c0101045 <scroll_text_buffer_down+0x39>
c0101070:	83 ec 08             	sub    $0x8,%esp
c0101073:	ff 75 f4             	push   -0xc(%ebp)
c0101076:	68 00 50 10 c0       	push   $0xc0105000
c010107b:	e8 a0 3a 00 00       	call   c0104b20 <logf>
c0101080:	83 c4 10             	add    $0x10,%esp
c0101083:	c7 45 ec 00 00 00 00 	movl   $0x0,-0x14(%ebp)
c010108a:	eb 39                	jmp    c01010c5 <scroll_text_buffer_down+0xb9>
c010108c:	a1 04 80 10 c0       	mov    0xc0108004,%eax
c0101091:	8b 4d ec             	mov    -0x14(%ebp),%ecx
c0101094:	8b 55 f4             	mov    -0xc(%ebp),%edx
c0101097:	01 ca                	add    %ecx,%edx
c0101099:	01 d0                	add    %edx,%eax
c010109b:	0f b6 00             	movzbl (%eax),%eax
c010109e:	84 c0                	test   %al,%al
c01010a0:	74 40                	je     c01010e2 <scroll_text_buffer_down+0xd6>
c01010a2:	a1 04 80 10 c0       	mov    0xc0108004,%eax
c01010a7:	8b 4d ec             	mov    -0x14(%ebp),%ecx
c01010aa:	8b 55 f4             	mov    -0xc(%ebp),%edx
c01010ad:	01 ca                	add    %ecx,%edx
c01010af:	01 d0                	add    %edx,%eax
c01010b1:	8b 0d 04 80 10 c0    	mov    0xc0108004,%ecx
c01010b7:	8b 55 ec             	mov    -0x14(%ebp),%edx
c01010ba:	01 ca                	add    %ecx,%edx
c01010bc:	0f b6 00             	movzbl (%eax),%eax
c01010bf:	88 02                	mov    %al,(%edx)
c01010c1:	83 45 ec 01          	addl   $0x1,-0x14(%ebp)
c01010c5:	8b 55 ec             	mov    -0x14(%ebp),%edx
c01010c8:	8b 45 f4             	mov    -0xc(%ebp),%eax
c01010cb:	8d 0c 02             	lea    (%edx,%eax,1),%ecx
c01010ce:	8b 15 0c 80 10 c0    	mov    0xc010800c,%edx
c01010d4:	a1 10 80 10 c0       	mov    0xc0108010,%eax
c01010d9:	0f af c2             	imul   %edx,%eax
c01010dc:	39 c1                	cmp    %eax,%ecx
c01010de:	7c ac                	jl     c010108c <scroll_text_buffer_down+0x80>
c01010e0:	eb 01                	jmp    c01010e3 <scroll_text_buffer_down+0xd7>
c01010e2:	90                   	nop
c01010e3:	c7 45 e8 00 00 00 00 	movl   $0x0,-0x18(%ebp)
c01010ea:	eb 16                	jmp    c0101102 <scroll_text_buffer_down+0xf6>
c01010ec:	a1 04 80 10 c0       	mov    0xc0108004,%eax
c01010f1:	8b 4d ec             	mov    -0x14(%ebp),%ecx
c01010f4:	8b 55 e8             	mov    -0x18(%ebp),%edx
c01010f7:	01 ca                	add    %ecx,%edx
c01010f9:	01 d0                	add    %edx,%eax
c01010fb:	c6 00 00             	movb   $0x0,(%eax)
c01010fe:	83 45 e8 01          	addl   $0x1,-0x18(%ebp)
c0101102:	a1 04 80 10 c0       	mov    0xc0108004,%eax
c0101107:	8b 4d ec             	mov    -0x14(%ebp),%ecx
c010110a:	8b 55 e8             	mov    -0x18(%ebp),%edx
c010110d:	01 ca                	add    %ecx,%edx
c010110f:	01 d0                	add    %edx,%eax
c0101111:	0f b6 00             	movzbl (%eax),%eax
c0101114:	84 c0                	test   %al,%al
c0101116:	75 d4                	jne    c01010ec <scroll_text_buffer_down+0xe0>
c0101118:	0f b7 05 0a 80 10 c0 	movzwl 0xc010800a,%eax
c010111f:	83 e8 01             	sub    $0x1,%eax
c0101122:	66 a3 0a 80 10 c0    	mov    %ax,0xc010800a
c0101128:	0f b7 05 08 80 10 c0 	movzwl 0xc0108008,%eax
c010112f:	8b 55 f4             	mov    -0xc(%ebp),%edx
c0101132:	29 d0                	sub    %edx,%eax
c0101134:	66 a3 08 80 10 c0    	mov    %ax,0xc0108008
c010113a:	90                   	nop
c010113b:	c9                   	leave
c010113c:	c3                   	ret

c010113d <write_text_buffer>:
c010113d:	55                   	push   %ebp
c010113e:	89 e5                	mov    %esp,%ebp
c0101140:	83 ec 18             	sub    $0x18,%esp
c0101143:	8b 15 0c 80 10 c0    	mov    0xc010800c,%edx
c0101149:	a1 10 80 10 c0       	mov    0xc0108010,%eax
c010114e:	0f af c2             	imul   %edx,%eax
c0101151:	89 45 f4             	mov    %eax,-0xc(%ebp)
c0101154:	eb 60                	jmp    c01011b6 <write_text_buffer+0x79>
c0101156:	8b 45 08             	mov    0x8(%ebp),%eax
c0101159:	0f b6 00             	movzbl (%eax),%eax
c010115c:	3c 0a                	cmp    $0xa,%al
c010115e:	75 10                	jne    c0101170 <write_text_buffer+0x33>
c0101160:	0f b7 05 0a 80 10 c0 	movzwl 0xc010800a,%eax
c0101167:	83 c0 01             	add    $0x1,%eax
c010116a:	66 a3 0a 80 10 c0    	mov    %ax,0xc010800a
c0101170:	0f b7 05 0a 80 10 c0 	movzwl 0xc010800a,%eax
c0101177:	0f b7 d0             	movzwl %ax,%edx
c010117a:	a1 10 80 10 c0       	mov    0xc0108010,%eax
c010117f:	39 c2                	cmp    %eax,%edx
c0101181:	7e 05                	jle    c0101188 <write_text_buffer+0x4b>
c0101183:	e8 84 fe ff ff       	call   c010100c <scroll_text_buffer_down>
c0101188:	8b 15 04 80 10 c0    	mov    0xc0108004,%edx
c010118e:	0f b7 05 08 80 10 c0 	movzwl 0xc0108008,%eax
c0101195:	0f b7 c0             	movzwl %ax,%eax
c0101198:	01 c2                	add    %eax,%edx
c010119a:	8b 45 08             	mov    0x8(%ebp),%eax
c010119d:	0f b6 00             	movzbl (%eax),%eax
c01011a0:	88 02                	mov    %al,(%edx)
c01011a2:	83 45 08 01          	addl   $0x1,0x8(%ebp)
c01011a6:	0f b7 05 08 80 10 c0 	movzwl 0xc0108008,%eax
c01011ad:	83 c0 01             	add    $0x1,%eax
c01011b0:	66 a3 08 80 10 c0    	mov    %ax,0xc0108008
c01011b6:	8b 45 08             	mov    0x8(%ebp),%eax
c01011b9:	0f b6 00             	movzbl (%eax),%eax
c01011bc:	84 c0                	test   %al,%al
c01011be:	75 96                	jne    c0101156 <write_text_buffer+0x19>
c01011c0:	90                   	nop
c01011c1:	90                   	nop
c01011c2:	c9                   	leave
c01011c3:	c3                   	ret

c01011c4 <write_char_text_buffer>:
c01011c4:	55                   	push   %ebp
c01011c5:	89 e5                	mov    %esp,%ebp
c01011c7:	83 ec 28             	sub    $0x28,%esp
c01011ca:	8b 45 08             	mov    0x8(%ebp),%eax
c01011cd:	88 45 e4             	mov    %al,-0x1c(%ebp)
c01011d0:	8b 15 0c 80 10 c0    	mov    0xc010800c,%edx
c01011d6:	a1 10 80 10 c0       	mov    0xc0108010,%eax
c01011db:	0f af c2             	imul   %edx,%eax
c01011de:	89 45 f4             	mov    %eax,-0xc(%ebp)
c01011e1:	80 7d e4 0a          	cmpb   $0xa,-0x1c(%ebp)
c01011e5:	75 10                	jne    c01011f7 <write_char_text_buffer+0x33>
c01011e7:	0f b7 05 0a 80 10 c0 	movzwl 0xc010800a,%eax
c01011ee:	83 c0 01             	add    $0x1,%eax
c01011f1:	66 a3 0a 80 10 c0    	mov    %ax,0xc010800a
c01011f7:	0f b7 05 0a 80 10 c0 	movzwl 0xc010800a,%eax
c01011fe:	0f b7 d0             	movzwl %ax,%edx
c0101201:	a1 10 80 10 c0       	mov    0xc0108010,%eax
c0101206:	39 c2                	cmp    %eax,%edx
c0101208:	7e 05                	jle    c010120f <write_char_text_buffer+0x4b>
c010120a:	e8 fd fd ff ff       	call   c010100c <scroll_text_buffer_down>
c010120f:	8b 15 04 80 10 c0    	mov    0xc0108004,%edx
c0101215:	0f b7 05 08 80 10 c0 	movzwl 0xc0108008,%eax
c010121c:	0f b7 c0             	movzwl %ax,%eax
c010121f:	01 c2                	add    %eax,%edx
c0101221:	0f b6 45 e4          	movzbl -0x1c(%ebp),%eax
c0101225:	88 02                	mov    %al,(%edx)
c0101227:	0f b7 05 08 80 10 c0 	movzwl 0xc0108008,%eax
c010122e:	83 c0 01             	add    $0x1,%eax
c0101231:	66 a3 08 80 10 c0    	mov    %ax,0xc0108008
c0101237:	90                   	nop
c0101238:	c9                   	leave
c0101239:	c3                   	ret

c010123a <draw_text_buffer>:
c010123a:	55                   	push   %ebp
c010123b:	89 e5                	mov    %esp,%ebp
c010123d:	57                   	push   %edi
c010123e:	56                   	push   %esi
c010123f:	53                   	push   %ebx
c0101240:	83 ec 2c             	sub    $0x2c,%esp
c0101243:	66 c7 45 e6 00 00    	movw   $0x0,-0x1a(%ebp)
c0101249:	66 c7 45 e4 00 00    	movw   $0x0,-0x1c(%ebp)
c010124f:	66 c7 45 e2 00 00    	movw   $0x0,-0x1e(%ebp)
c0101255:	0f b6 05 00 60 10 c0 	movzbl 0xc0106000,%eax
c010125c:	c1 e0 03             	shl    $0x3,%eax
c010125f:	88 45 db             	mov    %al,-0x25(%ebp)
c0101262:	0f b6 05 00 60 10 c0 	movzbl 0xc0106000,%eax
c0101269:	c1 e0 03             	shl    $0x3,%eax
c010126c:	88 45 da             	mov    %al,-0x26(%ebp)
c010126f:	e9 1d 01 00 00       	jmp    c0101391 <draw_text_buffer+0x157>
c0101274:	8b 15 04 80 10 c0    	mov    0xc0108004,%edx
c010127a:	0f b7 45 e6          	movzwl -0x1a(%ebp),%eax
c010127e:	01 d0                	add    %edx,%eax
c0101280:	0f b6 00             	movzbl (%eax),%eax
c0101283:	3c 0a                	cmp    $0xa,%al
c0101285:	75 79                	jne    c0101300 <draw_text_buffer+0xc6>
c0101287:	0f b7 45 e4          	movzwl -0x1c(%ebp),%eax
c010128b:	89 45 dc             	mov    %eax,-0x24(%ebp)
c010128e:	eb 45                	jmp    c01012d5 <draw_text_buffer+0x9b>
c0101290:	0f b6 05 00 60 10 c0 	movzbl 0xc0106000,%eax
c0101297:	0f b6 f0             	movzbl %al,%esi
c010129a:	8b 1d 14 80 10 c0    	mov    0xc0108014,%ebx
c01012a0:	8b 0d 04 60 10 c0    	mov    0xc0106004,%ecx
c01012a6:	0f b6 45 da          	movzbl -0x26(%ebp),%eax
c01012aa:	66 0f af 45 e2       	imul   -0x1e(%ebp),%ax
c01012af:	0f b7 d0             	movzwl %ax,%edx
c01012b2:	0f b6 45 db          	movzbl -0x25(%ebp),%eax
c01012b6:	8b 7d dc             	mov    -0x24(%ebp),%edi
c01012b9:	0f af c7             	imul   %edi,%eax
c01012bc:	0f b7 c0             	movzwl %ax,%eax
c01012bf:	83 ec 08             	sub    $0x8,%esp
c01012c2:	56                   	push   %esi
c01012c3:	53                   	push   %ebx
c01012c4:	51                   	push   %ecx
c01012c5:	52                   	push   %edx
c01012c6:	50                   	push   %eax
c01012c7:	6a 20                	push   $0x20
c01012c9:	e8 66 19 00 00       	call   c0102c34 <fb_put_glyph>
c01012ce:	83 c4 20             	add    $0x20,%esp
c01012d1:	83 45 dc 01          	addl   $0x1,-0x24(%ebp)
c01012d5:	a1 0c 80 10 c0       	mov    0xc010800c,%eax
c01012da:	39 45 dc             	cmp    %eax,-0x24(%ebp)
c01012dd:	7c b1                	jl     c0101290 <draw_text_buffer+0x56>
c01012df:	0f b7 45 e2          	movzwl -0x1e(%ebp),%eax
c01012e3:	83 c0 01             	add    $0x1,%eax
c01012e6:	66 89 45 e2          	mov    %ax,-0x1e(%ebp)
c01012ea:	0f b7 45 e6          	movzwl -0x1a(%ebp),%eax
c01012ee:	83 c0 01             	add    $0x1,%eax
c01012f1:	66 89 45 e6          	mov    %ax,-0x1a(%ebp)
c01012f5:	66 c7 45 e4 00 00    	movw   $0x0,-0x1c(%ebp)
c01012fb:	e9 91 00 00 00       	jmp    c0101391 <draw_text_buffer+0x157>
c0101300:	0f b7 45 e4          	movzwl -0x1c(%ebp),%eax
c0101304:	8b 0d 0c 80 10 c0    	mov    0xc010800c,%ecx
c010130a:	99                   	cltd
c010130b:	f7 f9                	idiv   %ecx
c010130d:	89 d0                	mov    %edx,%eax
c010130f:	85 c0                	test   %eax,%eax
c0101311:	75 11                	jne    c0101324 <draw_text_buffer+0xea>
c0101313:	0f b7 45 e2          	movzwl -0x1e(%ebp),%eax
c0101317:	83 c0 01             	add    $0x1,%eax
c010131a:	66 89 45 e2          	mov    %ax,-0x1e(%ebp)
c010131e:	66 c7 45 e4 00 00    	movw   $0x0,-0x1c(%ebp)
c0101324:	0f b6 05 00 60 10 c0 	movzbl 0xc0106000,%eax
c010132b:	0f b6 f8             	movzbl %al,%edi
c010132e:	8b 35 14 80 10 c0    	mov    0xc0108014,%esi
c0101334:	8b 1d 04 60 10 c0    	mov    0xc0106004,%ebx
c010133a:	0f b6 45 da          	movzbl -0x26(%ebp),%eax
c010133e:	66 0f af 45 e2       	imul   -0x1e(%ebp),%ax
c0101343:	0f b7 c8             	movzwl %ax,%ecx
c0101346:	0f b6 45 db          	movzbl -0x25(%ebp),%eax
c010134a:	66 0f af 45 e4       	imul   -0x1c(%ebp),%ax
c010134f:	0f b7 c0             	movzwl %ax,%eax
c0101352:	89 45 d4             	mov    %eax,-0x2c(%ebp)
c0101355:	a1 04 80 10 c0       	mov    0xc0108004,%eax
c010135a:	89 c2                	mov    %eax,%edx
c010135c:	0f b7 45 e6          	movzwl -0x1a(%ebp),%eax
c0101360:	01 d0                	add    %edx,%eax
c0101362:	0f b6 00             	movzbl (%eax),%eax
c0101365:	0f be c0             	movsbl %al,%eax
c0101368:	83 ec 08             	sub    $0x8,%esp
c010136b:	57                   	push   %edi
c010136c:	56                   	push   %esi
c010136d:	53                   	push   %ebx
c010136e:	51                   	push   %ecx
c010136f:	ff 75 d4             	push   -0x2c(%ebp)
c0101372:	50                   	push   %eax
c0101373:	e8 bc 18 00 00       	call   c0102c34 <fb_put_glyph>
c0101378:	83 c4 20             	add    $0x20,%esp
c010137b:	0f b7 45 e6          	movzwl -0x1a(%ebp),%eax
c010137f:	83 c0 01             	add    $0x1,%eax
c0101382:	66 89 45 e6          	mov    %ax,-0x1a(%ebp)
c0101386:	0f b7 45 e4          	movzwl -0x1c(%ebp),%eax
c010138a:	83 c0 01             	add    $0x1,%eax
c010138d:	66 89 45 e4          	mov    %ax,-0x1c(%ebp)
c0101391:	8b 15 04 80 10 c0    	mov    0xc0108004,%edx
c0101397:	0f b7 45 e6          	movzwl -0x1a(%ebp),%eax
c010139b:	01 d0                	add    %edx,%eax
c010139d:	0f b6 00             	movzbl (%eax),%eax
c01013a0:	84 c0                	test   %al,%al
c01013a2:	0f 85 cc fe ff ff    	jne    c0101274 <draw_text_buffer+0x3a>
c01013a8:	90                   	nop
c01013a9:	90                   	nop
c01013aa:	8d 65 f4             	lea    -0xc(%ebp),%esp
c01013ad:	5b                   	pop    %ebx
c01013ae:	5e                   	pop    %esi
c01013af:	5f                   	pop    %edi
c01013b0:	5d                   	pop    %ebp
c01013b1:	c3                   	ret

c01013b2 <single_shtoi>:
c01013b2:	55                   	push   %ebp
c01013b3:	89 e5                	mov    %esp,%ebp
c01013b5:	83 ec 04             	sub    $0x4,%esp
c01013b8:	8b 45 08             	mov    0x8(%ebp),%eax
c01013bb:	88 45 fc             	mov    %al,-0x4(%ebp)
c01013be:	80 7d fc 2f          	cmpb   $0x2f,-0x4(%ebp)
c01013c2:	7e 0f                	jle    c01013d3 <single_shtoi+0x21>
c01013c4:	80 7d fc 39          	cmpb   $0x39,-0x4(%ebp)
c01013c8:	7f 09                	jg     c01013d3 <single_shtoi+0x21>
c01013ca:	0f be 45 fc          	movsbl -0x4(%ebp),%eax
c01013ce:	83 e8 30             	sub    $0x30,%eax
c01013d1:	eb 1a                	jmp    c01013ed <single_shtoi+0x3b>
c01013d3:	80 7d fc 60          	cmpb   $0x60,-0x4(%ebp)
c01013d7:	7e 0f                	jle    c01013e8 <single_shtoi+0x36>
c01013d9:	80 7d fc 66          	cmpb   $0x66,-0x4(%ebp)
c01013dd:	7f 09                	jg     c01013e8 <single_shtoi+0x36>
c01013df:	0f be 45 fc          	movsbl -0x4(%ebp),%eax
c01013e3:	83 e8 57             	sub    $0x57,%eax
c01013e6:	eb 05                	jmp    c01013ed <single_shtoi+0x3b>
c01013e8:	b8 ff ff ff ff       	mov    $0xffffffff,%eax
c01013ed:	c9                   	leave
c01013ee:	c3                   	ret

c01013ef <parse_color>:
c01013ef:	55                   	push   %ebp
c01013f0:	89 e5                	mov    %esp,%ebp
c01013f2:	57                   	push   %edi
c01013f3:	83 ec 50             	sub    $0x50,%esp
c01013f6:	8d 55 b4             	lea    -0x4c(%ebp),%edx
c01013f9:	b8 00 00 00 00       	mov    $0x0,%eax
c01013fe:	b9 10 00 00 00       	mov    $0x10,%ecx
c0101403:	89 d7                	mov    %edx,%edi
c0101405:	f3 ab                	rep stos %eax,%es:(%edi)
c0101407:	c7 45 b8 00 ff ff ff 	movl   $0xffffff00,-0x48(%ebp)
c010140e:	c7 45 bc 00 00 00 ff 	movl   $0xff000000,-0x44(%ebp)
c0101415:	c7 45 c0 00 00 ff 00 	movl   $0xff0000,-0x40(%ebp)
c010141c:	c7 45 c4 00 ff 00 00 	movl   $0xff00,-0x3c(%ebp)
c0101423:	c7 45 c8 00 00 a0 c4 	movl   $0xc4a00000,-0x38(%ebp)
c010142a:	c7 45 cc 00 7b 50 75 	movl   $0x75507b00,-0x34(%ebp)
c0101431:	c7 45 d0 00 9a 98 06 	movl   $0x6989a00,-0x30(%ebp)
c0101438:	83 45 08 01          	addl   $0x1,0x8(%ebp)
c010143c:	8b 45 08             	mov    0x8(%ebp),%eax
c010143f:	0f b6 00             	movzbl (%eax),%eax
c0101442:	0f be c0             	movsbl %al,%eax
c0101445:	50                   	push   %eax
c0101446:	e8 67 ff ff ff       	call   c01013b2 <single_shtoi>
c010144b:	83 c4 04             	add    $0x4,%esp
c010144e:	89 45 f8             	mov    %eax,-0x8(%ebp)
c0101451:	83 45 08 01          	addl   $0x1,0x8(%ebp)
c0101455:	8b 45 08             	mov    0x8(%ebp),%eax
c0101458:	0f b6 00             	movzbl (%eax),%eax
c010145b:	0f be c0             	movsbl %al,%eax
c010145e:	50                   	push   %eax
c010145f:	e8 4e ff ff ff       	call   c01013b2 <single_shtoi>
c0101464:	83 c4 04             	add    $0x4,%esp
c0101467:	89 45 f4             	mov    %eax,-0xc(%ebp)
c010146a:	8b 45 f8             	mov    -0x8(%ebp),%eax
c010146d:	8b 44 85 b4          	mov    -0x4c(%ebp,%eax,4),%eax
c0101471:	a3 04 60 10 c0       	mov    %eax,0xc0106004
c0101476:	8b 45 f4             	mov    -0xc(%ebp),%eax
c0101479:	8b 44 85 b4          	mov    -0x4c(%ebp,%eax,4),%eax
c010147d:	a3 14 80 10 c0       	mov    %eax,0xc0108014
c0101482:	90                   	nop
c0101483:	8b 7d fc             	mov    -0x4(%ebp),%edi
c0101486:	c9                   	leave
c0101487:	c3                   	ret

c0101488 <term_render_hex>:
c0101488:	55                   	push   %ebp
c0101489:	89 e5                	mov    %esp,%ebp
c010148b:	83 ec 68             	sub    $0x68,%esp
c010148e:	83 7d 08 00          	cmpl   $0x0,0x8(%ebp)
c0101492:	75 15                	jne    c01014a9 <term_render_hex+0x21>
c0101494:	83 ec 0c             	sub    $0xc,%esp
c0101497:	68 13 50 10 c0       	push   $0xc0105013
c010149c:	e8 9c fc ff ff       	call   c010113d <write_text_buffer>
c01014a1:	83 c4 10             	add    $0x10,%esp
c01014a4:	e9 cc 00 00 00       	jmp    c0101575 <term_render_hex+0xed>
c01014a9:	c6 45 a0 30          	movb   $0x30,-0x60(%ebp)
c01014ad:	c6 45 a1 78          	movb   $0x78,-0x5f(%ebp)
c01014b1:	c7 45 f4 02 00 00 00 	movl   $0x2,-0xc(%ebp)
c01014b8:	8b 45 08             	mov    0x8(%ebp),%eax
c01014bb:	89 45 f0             	mov    %eax,-0x10(%ebp)
c01014be:	eb 42                	jmp    c0101502 <term_render_hex+0x7a>
c01014c0:	8b 45 f0             	mov    -0x10(%ebp),%eax
c01014c3:	83 e0 0f             	and    $0xf,%eax
c01014c6:	89 45 e0             	mov    %eax,-0x20(%ebp)
c01014c9:	83 7d e0 09          	cmpl   $0x9,-0x20(%ebp)
c01014cd:	77 14                	ja     c01014e3 <term_render_hex+0x5b>
c01014cf:	8b 45 e0             	mov    -0x20(%ebp),%eax
c01014d2:	83 c0 30             	add    $0x30,%eax
c01014d5:	89 c1                	mov    %eax,%ecx
c01014d7:	8d 55 a0             	lea    -0x60(%ebp),%edx
c01014da:	8b 45 f4             	mov    -0xc(%ebp),%eax
c01014dd:	01 d0                	add    %edx,%eax
c01014df:	88 08                	mov    %cl,(%eax)
c01014e1:	eb 12                	jmp    c01014f5 <term_render_hex+0x6d>
c01014e3:	8b 45 e0             	mov    -0x20(%ebp),%eax
c01014e6:	83 c0 57             	add    $0x57,%eax
c01014e9:	89 c1                	mov    %eax,%ecx
c01014eb:	8d 55 a0             	lea    -0x60(%ebp),%edx
c01014ee:	8b 45 f4             	mov    -0xc(%ebp),%eax
c01014f1:	01 d0                	add    %edx,%eax
c01014f3:	88 08                	mov    %cl,(%eax)
c01014f5:	83 45 f4 01          	addl   $0x1,-0xc(%ebp)
c01014f9:	8b 45 f0             	mov    -0x10(%ebp),%eax
c01014fc:	c1 e8 04             	shr    $0x4,%eax
c01014ff:	89 45 f0             	mov    %eax,-0x10(%ebp)
c0101502:	83 7d f0 00          	cmpl   $0x0,-0x10(%ebp)
c0101506:	75 b8                	jne    c01014c0 <term_render_hex+0x38>
c0101508:	c7 45 ec 02 00 00 00 	movl   $0x2,-0x14(%ebp)
c010150f:	8b 45 f4             	mov    -0xc(%ebp),%eax
c0101512:	83 e8 01             	sub    $0x1,%eax
c0101515:	89 45 e8             	mov    %eax,-0x18(%ebp)
c0101518:	eb 39                	jmp    c0101553 <term_render_hex+0xcb>
c010151a:	8d 55 a0             	lea    -0x60(%ebp),%edx
c010151d:	8b 45 e8             	mov    -0x18(%ebp),%eax
c0101520:	01 d0                	add    %edx,%eax
c0101522:	0f b6 00             	movzbl (%eax),%eax
c0101525:	88 45 e7             	mov    %al,-0x19(%ebp)
c0101528:	8d 55 a0             	lea    -0x60(%ebp),%edx
c010152b:	8b 45 ec             	mov    -0x14(%ebp),%eax
c010152e:	01 d0                	add    %edx,%eax
c0101530:	0f b6 00             	movzbl (%eax),%eax
c0101533:	8d 4d a0             	lea    -0x60(%ebp),%ecx
c0101536:	8b 55 e8             	mov    -0x18(%ebp),%edx
c0101539:	01 ca                	add    %ecx,%edx
c010153b:	88 02                	mov    %al,(%edx)
c010153d:	8d 55 a0             	lea    -0x60(%ebp),%edx
c0101540:	8b 45 ec             	mov    -0x14(%ebp),%eax
c0101543:	01 c2                	add    %eax,%edx
c0101545:	0f b6 45 e7          	movzbl -0x19(%ebp),%eax
c0101549:	88 02                	mov    %al,(%edx)
c010154b:	83 45 ec 01          	addl   $0x1,-0x14(%ebp)
c010154f:	83 6d e8 01          	subl   $0x1,-0x18(%ebp)
c0101553:	8b 45 ec             	mov    -0x14(%ebp),%eax
c0101556:	39 45 e8             	cmp    %eax,-0x18(%ebp)
c0101559:	73 bf                	jae    c010151a <term_render_hex+0x92>
c010155b:	8d 55 a0             	lea    -0x60(%ebp),%edx
c010155e:	8b 45 f4             	mov    -0xc(%ebp),%eax
c0101561:	01 d0                	add    %edx,%eax
c0101563:	c6 00 00             	movb   $0x0,(%eax)
c0101566:	83 ec 0c             	sub    $0xc,%esp
c0101569:	8d 45 a0             	lea    -0x60(%ebp),%eax
c010156c:	50                   	push   %eax
c010156d:	e8 cb fb ff ff       	call   c010113d <write_text_buffer>
c0101572:	83 c4 10             	add    $0x10,%esp
c0101575:	c9                   	leave
c0101576:	c3                   	ret

c0101577 <printf>:
c0101577:	55                   	push   %ebp
c0101578:	89 e5                	mov    %esp,%ebp
c010157a:	83 ec 18             	sub    $0x18,%esp
c010157d:	c7 45 f4 01 00 00 00 	movl   $0x1,-0xc(%ebp)
c0101584:	8d 45 0c             	lea    0xc(%ebp),%eax
c0101587:	89 45 ec             	mov    %eax,-0x14(%ebp)
c010158a:	83 ec 08             	sub    $0x8,%esp
c010158d:	ff 75 08             	push   0x8(%ebp)
c0101590:	68 17 50 10 c0       	push   $0xc0105017
c0101595:	e8 86 35 00 00       	call   c0104b20 <logf>
c010159a:	83 c4 10             	add    $0x10,%esp
c010159d:	e9 f3 00 00 00       	jmp    c0101695 <printf+0x11e>
c01015a2:	8b 45 08             	mov    0x8(%ebp),%eax
c01015a5:	0f b6 00             	movzbl (%eax),%eax
c01015a8:	3c 25                	cmp    $0x25,%al
c01015aa:	0f 85 bd 00 00 00    	jne    c010166d <printf+0xf6>
c01015b0:	83 45 08 01          	addl   $0x1,0x8(%ebp)
c01015b4:	8b 45 08             	mov    0x8(%ebp),%eax
c01015b7:	0f b6 00             	movzbl (%eax),%eax
c01015ba:	0f be c0             	movsbl %al,%eax
c01015bd:	83 f8 78             	cmp    $0x78,%eax
c01015c0:	74 31                	je     c01015f3 <printf+0x7c>
c01015c2:	83 f8 78             	cmp    $0x78,%eax
c01015c5:	0f 8f 9c 00 00 00    	jg     c0101667 <printf+0xf0>
c01015cb:	83 f8 74             	cmp    $0x74,%eax
c01015ce:	74 4b                	je     c010161b <printf+0xa4>
c01015d0:	83 f8 74             	cmp    $0x74,%eax
c01015d3:	0f 8f 8e 00 00 00    	jg     c0101667 <printf+0xf0>
c01015d9:	83 f8 73             	cmp    $0x73,%eax
c01015dc:	74 51                	je     c010162f <printf+0xb8>
c01015de:	83 f8 73             	cmp    $0x73,%eax
c01015e1:	0f 8f 80 00 00 00    	jg     c0101667 <printf+0xf0>
c01015e7:	83 f8 25             	cmp    $0x25,%eax
c01015ea:	74 20                	je     c010160c <printf+0x95>
c01015ec:	83 f8 63             	cmp    $0x63,%eax
c01015ef:	74 57                	je     c0101648 <printf+0xd1>
c01015f1:	eb 74                	jmp    c0101667 <printf+0xf0>
c01015f3:	8b 45 ec             	mov    -0x14(%ebp),%eax
c01015f6:	8d 50 04             	lea    0x4(%eax),%edx
c01015f9:	89 55 ec             	mov    %edx,-0x14(%ebp)
c01015fc:	8b 00                	mov    (%eax),%eax
c01015fe:	83 ec 0c             	sub    $0xc,%esp
c0101601:	50                   	push   %eax
c0101602:	e8 81 fe ff ff       	call   c0101488 <term_render_hex>
c0101607:	83 c4 10             	add    $0x10,%esp
c010160a:	eb 5b                	jmp    c0101667 <printf+0xf0>
c010160c:	83 ec 0c             	sub    $0xc,%esp
c010160f:	6a 25                	push   $0x25
c0101611:	e8 ae fb ff ff       	call   c01011c4 <write_char_text_buffer>
c0101616:	83 c4 10             	add    $0x10,%esp
c0101619:	eb 4c                	jmp    c0101667 <printf+0xf0>
c010161b:	83 ec 0c             	sub    $0xc,%esp
c010161e:	ff 75 08             	push   0x8(%ebp)
c0101621:	e8 c9 fd ff ff       	call   c01013ef <parse_color>
c0101626:	83 c4 10             	add    $0x10,%esp
c0101629:	83 45 08 02          	addl   $0x2,0x8(%ebp)
c010162d:	eb 38                	jmp    c0101667 <printf+0xf0>
c010162f:	8b 45 ec             	mov    -0x14(%ebp),%eax
c0101632:	8d 50 04             	lea    0x4(%eax),%edx
c0101635:	89 55 ec             	mov    %edx,-0x14(%ebp)
c0101638:	8b 00                	mov    (%eax),%eax
c010163a:	83 ec 0c             	sub    $0xc,%esp
c010163d:	50                   	push   %eax
c010163e:	e8 fa fa ff ff       	call   c010113d <write_text_buffer>
c0101643:	83 c4 10             	add    $0x10,%esp
c0101646:	eb 1f                	jmp    c0101667 <printf+0xf0>
c0101648:	8b 45 ec             	mov    -0x14(%ebp),%eax
c010164b:	8d 50 04             	lea    0x4(%eax),%edx
c010164e:	89 55 ec             	mov    %edx,-0x14(%ebp)
c0101651:	8b 00                	mov    (%eax),%eax
c0101653:	88 45 f3             	mov    %al,-0xd(%ebp)
c0101656:	0f be 45 f3          	movsbl -0xd(%ebp),%eax
c010165a:	83 ec 0c             	sub    $0xc,%esp
c010165d:	50                   	push   %eax
c010165e:	e8 61 fb ff ff       	call   c01011c4 <write_char_text_buffer>
c0101663:	83 c4 10             	add    $0x10,%esp
c0101666:	90                   	nop
c0101667:	83 45 08 01          	addl   $0x1,0x8(%ebp)
c010166b:	eb 28                	jmp    c0101695 <printf+0x11e>
c010166d:	8b 45 08             	mov    0x8(%ebp),%eax
c0101670:	0f b6 00             	movzbl (%eax),%eax
c0101673:	0f be c0             	movsbl %al,%eax
c0101676:	83 ec 0c             	sub    $0xc,%esp
c0101679:	50                   	push   %eax
c010167a:	e8 45 fb ff ff       	call   c01011c4 <write_char_text_buffer>
c010167f:	83 c4 10             	add    $0x10,%esp
c0101682:	8b 45 08             	mov    0x8(%ebp),%eax
c0101685:	0f b6 00             	movzbl (%eax),%eax
c0101688:	3c 0a                	cmp    $0xa,%al
c010168a:	75 05                	jne    c0101691 <printf+0x11a>
c010168c:	e8 a9 fb ff ff       	call   c010123a <draw_text_buffer>
c0101691:	83 45 08 01          	addl   $0x1,0x8(%ebp)
c0101695:	8b 45 08             	mov    0x8(%ebp),%eax
c0101698:	0f b6 00             	movzbl (%eax),%eax
c010169b:	84 c0                	test   %al,%al
c010169d:	0f 85 ff fe ff ff    	jne    c01015a2 <printf+0x2b>
c01016a3:	90                   	nop
c01016a4:	90                   	nop
c01016a5:	c9                   	leave
c01016a6:	c3                   	ret

c01016a7 <tflush>:
c01016a7:	55                   	push   %ebp
c01016a8:	89 e5                	mov    %esp,%ebp
c01016aa:	83 ec 08             	sub    $0x8,%esp
c01016ad:	e8 88 fb ff ff       	call   c010123a <draw_text_buffer>
c01016b2:	90                   	nop
c01016b3:	c9                   	leave
c01016b4:	c3                   	ret

c01016b5 <next_keycode>:
c01016b5:	55                   	push   %ebp
c01016b6:	89 e5                	mov    %esp,%ebp
c01016b8:	83 ec 10             	sub    $0x10,%esp
c01016bb:	0f b6 15 00 80 10 c0 	movzbl 0xc0108000,%edx
c01016c2:	0f b6 05 5e 82 10 c0 	movzbl 0xc010825e,%eax
c01016c9:	38 c2                	cmp    %al,%dl
c01016cb:	75 14                	jne    c01016e1 <next_keycode+0x2c>
c01016cd:	c6 45 fc 00          	movb   $0x0,-0x4(%ebp)
c01016d1:	c6 45 fd 00          	movb   $0x0,-0x3(%ebp)
c01016d5:	8b 45 08             	mov    0x8(%ebp),%eax
c01016d8:	0f b7 55 fc          	movzwl -0x4(%ebp),%edx
c01016dc:	66 89 10             	mov    %dx,(%eax)
c01016df:	eb 57                	jmp    c0101738 <next_keycode+0x83>
c01016e1:	0f b6 05 00 80 10 c0 	movzbl 0xc0108000,%eax
c01016e8:	0f b6 c0             	movzbl %al,%eax
c01016eb:	8d 48 01             	lea    0x1(%eax),%ecx
c01016ee:	ba 81 80 80 80       	mov    $0x80808081,%edx
c01016f3:	89 c8                	mov    %ecx,%eax
c01016f5:	f7 ea                	imul   %edx
c01016f7:	8d 04 0a             	lea    (%edx,%ecx,1),%eax
c01016fa:	c1 f8 07             	sar    $0x7,%eax
c01016fd:	89 c2                	mov    %eax,%edx
c01016ff:	89 c8                	mov    %ecx,%eax
c0101701:	c1 f8 1f             	sar    $0x1f,%eax
c0101704:	29 c2                	sub    %eax,%edx
c0101706:	89 d0                	mov    %edx,%eax
c0101708:	c1 e0 08             	shl    $0x8,%eax
c010170b:	29 d0                	sub    %edx,%eax
c010170d:	29 c1                	sub    %eax,%ecx
c010170f:	89 ca                	mov    %ecx,%edx
c0101711:	89 d0                	mov    %edx,%eax
c0101713:	a2 00 80 10 c0       	mov    %al,0xc0108000
c0101718:	0f b6 05 00 80 10 c0 	movzbl 0xc0108000,%eax
c010171f:	0f b6 c0             	movzbl %al,%eax
c0101722:	0f b7 84 00 60 80 10 	movzwl -0x3fef7fa0(%eax,%eax,1),%eax
c0101729:	c0 
c010172a:	66 89 45 fe          	mov    %ax,-0x2(%ebp)
c010172e:	8b 45 08             	mov    0x8(%ebp),%eax
c0101731:	0f b7 55 fe          	movzwl -0x2(%ebp),%edx
c0101735:	66 89 10             	mov    %dx,(%eax)
c0101738:	8b 45 08             	mov    0x8(%ebp),%eax
c010173b:	c9                   	leave
c010173c:	c2 04 00             	ret    $0x4

c010173f <terminal_loop>:
c010173f:	55                   	push   %ebp
c0101740:	89 e5                	mov    %esp,%ebp
c0101742:	83 ec 18             	sub    $0x18,%esp
c0101745:	8d 45 f6             	lea    -0xa(%ebp),%eax
c0101748:	50                   	push   %eax
c0101749:	e8 67 ff ff ff       	call   c01016b5 <next_keycode>
c010174e:	0f b6 45 f6          	movzbl -0xa(%ebp),%eax
c0101752:	84 c0                	test   %al,%al
c0101754:	74 3e                	je     c0101794 <terminal_loop+0x55>
c0101756:	0f b6 45 f7          	movzbl -0x9(%ebp),%eax
c010175a:	0f b6 c0             	movzbl %al,%eax
c010175d:	83 e0 08             	and    $0x8,%eax
c0101760:	85 c0                	test   %eax,%eax
c0101762:	74 18                	je     c010177c <terminal_loop+0x3d>
c0101764:	0f b6 45 f6          	movzbl -0xa(%ebp),%eax
c0101768:	0f b6 c0             	movzbl %al,%eax
c010176b:	83 ec 08             	sub    $0x8,%esp
c010176e:	50                   	push   %eax
c010176f:	68 23 50 10 c0       	push   $0xc0105023
c0101774:	e8 fe fd ff ff       	call   c0101577 <printf>
c0101779:	83 c4 10             	add    $0x10,%esp
c010177c:	0f b6 45 f6          	movzbl -0xa(%ebp),%eax
c0101780:	3c 1b                	cmp    $0x1b,%al
c0101782:	75 10                	jne    c0101794 <terminal_loop+0x55>
c0101784:	83 ec 0c             	sub    $0xc,%esp
c0101787:	68 35 50 10 c0       	push   $0xc0105035
c010178c:	e8 e6 fd ff ff       	call   c0101577 <printf>
c0101791:	83 c4 10             	add    $0x10,%esp
c0101794:	90                   	nop
c0101795:	c9                   	leave
c0101796:	c3                   	ret

c0101797 <init_terminal>:
c0101797:	55                   	push   %ebp
c0101798:	89 e5                	mov    %esp,%ebp
c010179a:	83 ec 18             	sub    $0x18,%esp
c010179d:	0f b7 05 6c 82 10 c0 	movzwl 0xc010826c,%eax
c01017a4:	0f b7 c0             	movzwl %ax,%eax
c01017a7:	0f b6 15 00 60 10 c0 	movzbl 0xc0106000,%edx
c01017ae:	0f b6 d2             	movzbl %dl,%edx
c01017b1:	8d 0c d5 00 00 00 00 	lea    0x0(,%edx,8),%ecx
c01017b8:	99                   	cltd
c01017b9:	f7 f9                	idiv   %ecx
c01017bb:	83 e8 01             	sub    $0x1,%eax
c01017be:	a3 0c 80 10 c0       	mov    %eax,0xc010800c
c01017c3:	0f b7 05 6e 82 10 c0 	movzwl 0xc010826e,%eax
c01017ca:	0f b7 c0             	movzwl %ax,%eax
c01017cd:	0f b6 15 00 60 10 c0 	movzbl 0xc0106000,%edx
c01017d4:	0f b6 d2             	movzbl %dl,%edx
c01017d7:	89 d1                	mov    %edx,%ecx
c01017d9:	c1 e1 04             	shl    $0x4,%ecx
c01017dc:	99                   	cltd
c01017dd:	f7 f9                	idiv   %ecx
c01017df:	83 e8 01             	sub    $0x1,%eax
c01017e2:	a3 10 80 10 c0       	mov    %eax,0xc0108010
c01017e7:	8b 15 0c 80 10 c0    	mov    0xc010800c,%edx
c01017ed:	a1 10 80 10 c0       	mov    0xc0108010,%eax
c01017f2:	0f af c2             	imul   %edx,%eax
c01017f5:	83 ec 0c             	sub    $0xc,%esp
c01017f8:	50                   	push   %eax
c01017f9:	e8 e3 01 00 00       	call   c01019e1 <kalloc>
c01017fe:	83 c4 10             	add    $0x10,%esp
c0101801:	a3 04 80 10 c0       	mov    %eax,0xc0108004
c0101806:	0f b7 05 08 80 10 c0 	movzwl 0xc0108008,%eax
c010180d:	0f b7 c0             	movzwl %ax,%eax
c0101810:	89 45 f4             	mov    %eax,-0xc(%ebp)
c0101813:	83 ec 0c             	sub    $0xc,%esp
c0101816:	68 43 50 10 c0       	push   $0xc0105043
c010181b:	e8 1d f9 ff ff       	call   c010113d <write_text_buffer>
c0101820:	83 c4 10             	add    $0x10,%esp
c0101823:	83 ec 0c             	sub    $0xc,%esp
c0101826:	68 51 50 10 c0       	push   $0xc0105051
c010182b:	e8 0d f9 ff ff       	call   c010113d <write_text_buffer>
c0101830:	83 c4 10             	add    $0x10,%esp
c0101833:	83 ec 0c             	sub    $0xc,%esp
c0101836:	68 5e 50 10 c0       	push   $0xc010505e
c010183b:	e8 fd f8 ff ff       	call   c010113d <write_text_buffer>
c0101840:	83 c4 10             	add    $0x10,%esp
c0101843:	e8 5f fe ff ff       	call   c01016a7 <tflush>
c0101848:	90                   	nop
c0101849:	c9                   	leave
c010184a:	c3                   	ret

c010184b <memcmp>:
c010184b:	55                   	push   %ebp
c010184c:	89 e5                	mov    %esp,%ebp
c010184e:	83 ec 10             	sub    $0x10,%esp
c0101851:	8b 45 08             	mov    0x8(%ebp),%eax
c0101854:	3b 45 0c             	cmp    0xc(%ebp),%eax
c0101857:	75 07                	jne    c0101860 <memcmp+0x15>
c0101859:	b8 00 00 00 00       	mov    $0x0,%eax
c010185e:	eb 52                	jmp    c01018b2 <memcmp+0x67>
c0101860:	c7 45 fc 00 00 00 00 	movl   $0x0,-0x4(%ebp)
c0101867:	eb 0c                	jmp    c0101875 <memcmp+0x2a>
c0101869:	83 45 fc 01          	addl   $0x1,-0x4(%ebp)
c010186d:	83 45 08 01          	addl   $0x1,0x8(%ebp)
c0101871:	83 45 0c 01          	addl   $0x1,0xc(%ebp)
c0101875:	8b 45 fc             	mov    -0x4(%ebp),%eax
c0101878:	3b 45 10             	cmp    0x10(%ebp),%eax
c010187b:	73 10                	jae    c010188d <memcmp+0x42>
c010187d:	8b 45 08             	mov    0x8(%ebp),%eax
c0101880:	0f b6 10             	movzbl (%eax),%edx
c0101883:	8b 45 0c             	mov    0xc(%ebp),%eax
c0101886:	0f b6 00             	movzbl (%eax),%eax
c0101889:	38 c2                	cmp    %al,%dl
c010188b:	74 dc                	je     c0101869 <memcmp+0x1e>
c010188d:	8b 45 fc             	mov    -0x4(%ebp),%eax
c0101890:	3b 45 10             	cmp    0x10(%ebp),%eax
c0101893:	74 18                	je     c01018ad <memcmp+0x62>
c0101895:	8b 45 08             	mov    0x8(%ebp),%eax
c0101898:	0f b6 00             	movzbl (%eax),%eax
c010189b:	0f b6 c8             	movzbl %al,%ecx
c010189e:	8b 45 0c             	mov    0xc(%ebp),%eax
c01018a1:	0f b6 00             	movzbl (%eax),%eax
c01018a4:	0f b6 d0             	movzbl %al,%edx
c01018a7:	89 c8                	mov    %ecx,%eax
c01018a9:	29 d0                	sub    %edx,%eax
c01018ab:	eb 05                	jmp    c01018b2 <memcmp+0x67>
c01018ad:	b8 00 00 00 00       	mov    $0x0,%eax
c01018b2:	c9                   	leave
c01018b3:	c3                   	ret

c01018b4 <memcpy>:
c01018b4:	55                   	push   %ebp
c01018b5:	89 e5                	mov    %esp,%ebp
c01018b7:	83 ec 10             	sub    $0x10,%esp
c01018ba:	8b 45 08             	mov    0x8(%ebp),%eax
c01018bd:	89 45 fc             	mov    %eax,-0x4(%ebp)
c01018c0:	8b 45 0c             	mov    0xc(%ebp),%eax
c01018c3:	89 45 f8             	mov    %eax,-0x8(%ebp)
c01018c6:	eb 17                	jmp    c01018df <memcpy+0x2b>
c01018c8:	8b 55 f8             	mov    -0x8(%ebp),%edx
c01018cb:	8d 42 01             	lea    0x1(%edx),%eax
c01018ce:	89 45 f8             	mov    %eax,-0x8(%ebp)
c01018d1:	8b 45 fc             	mov    -0x4(%ebp),%eax
c01018d4:	8d 48 01             	lea    0x1(%eax),%ecx
c01018d7:	89 4d fc             	mov    %ecx,-0x4(%ebp)
c01018da:	0f b6 12             	movzbl (%edx),%edx
c01018dd:	88 10                	mov    %dl,(%eax)
c01018df:	8b 45 10             	mov    0x10(%ebp),%eax
c01018e2:	8d 50 ff             	lea    -0x1(%eax),%edx
c01018e5:	89 55 10             	mov    %edx,0x10(%ebp)
c01018e8:	85 c0                	test   %eax,%eax
c01018ea:	75 dc                	jne    c01018c8 <memcpy+0x14>
c01018ec:	8b 45 08             	mov    0x8(%ebp),%eax
c01018ef:	c9                   	leave
c01018f0:	c3                   	ret

c01018f1 <memmove>:
c01018f1:	55                   	push   %ebp
c01018f2:	89 e5                	mov    %esp,%ebp
c01018f4:	ff 75 10             	push   0x10(%ebp)
c01018f7:	ff 75 0c             	push   0xc(%ebp)
c01018fa:	ff 75 08             	push   0x8(%ebp)
c01018fd:	e8 b2 ff ff ff       	call   c01018b4 <memcpy>
c0101902:	83 c4 0c             	add    $0xc,%esp
c0101905:	c9                   	leave
c0101906:	c3                   	ret

c0101907 <memset>:
c0101907:	55                   	push   %ebp
c0101908:	89 e5                	mov    %esp,%ebp
c010190a:	83 ec 10             	sub    $0x10,%esp
c010190d:	8b 45 08             	mov    0x8(%ebp),%eax
c0101910:	89 45 fc             	mov    %eax,-0x4(%ebp)
c0101913:	eb 12                	jmp    c0101927 <memset+0x20>
c0101915:	8b 45 0c             	mov    0xc(%ebp),%eax
c0101918:	89 c2                	mov    %eax,%edx
c010191a:	8b 45 fc             	mov    -0x4(%ebp),%eax
c010191d:	88 10                	mov    %dl,(%eax)
c010191f:	83 45 fc 01          	addl   $0x1,-0x4(%ebp)
c0101923:	83 6d 10 01          	subl   $0x1,0x10(%ebp)
c0101927:	83 7d 10 00          	cmpl   $0x0,0x10(%ebp)
c010192b:	75 e8                	jne    c0101915 <memset+0xe>
c010192d:	8b 45 08             	mov    0x8(%ebp),%eax
c0101930:	c9                   	leave
c0101931:	c3                   	ret

c0101932 <strlen>:
c0101932:	55                   	push   %ebp
c0101933:	89 e5                	mov    %esp,%ebp
c0101935:	83 ec 10             	sub    $0x10,%esp
c0101938:	8b 45 08             	mov    0x8(%ebp),%eax
c010193b:	89 45 fc             	mov    %eax,-0x4(%ebp)
c010193e:	eb 04                	jmp    c0101944 <strlen+0x12>
c0101940:	83 45 fc 01          	addl   $0x1,-0x4(%ebp)
c0101944:	8b 45 fc             	mov    -0x4(%ebp),%eax
c0101947:	0f b6 00             	movzbl (%eax),%eax
c010194a:	84 c0                	test   %al,%al
c010194c:	75 f2                	jne    c0101940 <strlen+0xe>
c010194e:	8b 45 fc             	mov    -0x4(%ebp),%eax
c0101951:	2b 45 08             	sub    0x8(%ebp),%eax
c0101954:	c9                   	leave
c0101955:	c3                   	ret

c0101956 <strcmp>:
c0101956:	55                   	push   %ebp
c0101957:	89 e5                	mov    %esp,%ebp
c0101959:	83 ec 10             	sub    $0x10,%esp
c010195c:	c7 45 fc 00 00 00 00 	movl   $0x0,-0x4(%ebp)
c0101963:	eb 25                	jmp    c010198a <strcmp+0x34>
c0101965:	8b 55 fc             	mov    -0x4(%ebp),%edx
c0101968:	8b 45 08             	mov    0x8(%ebp),%eax
c010196b:	01 d0                	add    %edx,%eax
c010196d:	0f b6 10             	movzbl (%eax),%edx
c0101970:	8b 4d fc             	mov    -0x4(%ebp),%ecx
c0101973:	8b 45 0c             	mov    0xc(%ebp),%eax
c0101976:	01 c8                	add    %ecx,%eax
c0101978:	0f b6 00             	movzbl (%eax),%eax
c010197b:	38 c2                	cmp    %al,%dl
c010197d:	74 07                	je     c0101986 <strcmp+0x30>
c010197f:	b8 00 00 00 00       	mov    $0x0,%eax
c0101984:	eb 11                	jmp    c0101997 <strcmp+0x41>
c0101986:	83 45 fc 01          	addl   $0x1,-0x4(%ebp)
c010198a:	8b 45 fc             	mov    -0x4(%ebp),%eax
c010198d:	3b 45 10             	cmp    0x10(%ebp),%eax
c0101990:	72 d3                	jb     c0101965 <strcmp+0xf>
c0101992:	b8 01 00 00 00       	mov    $0x1,%eax
c0101997:	c9                   	leave
c0101998:	c3                   	ret

c0101999 <init_heap>:
c0101999:	55                   	push   %ebp
c010199a:	89 e5                	mov    %esp,%ebp
c010199c:	83 ec 08             	sub    $0x8,%esp
c010199f:	83 ec 04             	sub    $0x4,%esp
c01019a2:	6a 00                	push   $0x0
c01019a4:	6a 03                	push   $0x3
c01019a6:	68 00 a0 00 00       	push   $0xa000
c01019ab:	e8 7e 1b 00 00       	call   c010352e <page_kalloc>
c01019b0:	83 c4 10             	add    $0x10,%esp
c01019b3:	a3 18 80 10 c0       	mov    %eax,0xc0108018
c01019b8:	a1 18 80 10 c0       	mov    0xc0108018,%eax
c01019bd:	a3 1c 80 10 c0       	mov    %eax,0xc010801c
c01019c2:	83 ec 0c             	sub    $0xc,%esp
c01019c5:	68 6c 50 10 c0       	push   $0xc010506c
c01019ca:	e8 51 31 00 00       	call   c0104b20 <logf>
c01019cf:	83 c4 10             	add    $0x10,%esp
c01019d2:	90                   	nop
c01019d3:	c9                   	leave
c01019d4:	c3                   	ret

c01019d5 <malloc>:
c01019d5:	55                   	push   %ebp
c01019d6:	89 e5                	mov    %esp,%ebp
c01019d8:	90                   	nop
c01019d9:	5d                   	pop    %ebp
c01019da:	c3                   	ret

c01019db <free>:
c01019db:	55                   	push   %ebp
c01019dc:	89 e5                	mov    %esp,%ebp
c01019de:	90                   	nop
c01019df:	5d                   	pop    %ebp
c01019e0:	c3                   	ret

c01019e1 <kalloc>:
c01019e1:	55                   	push   %ebp
c01019e2:	89 e5                	mov    %esp,%ebp
c01019e4:	83 ec 18             	sub    $0x18,%esp
c01019e7:	8b 45 08             	mov    0x8(%ebp),%eax
c01019ea:	83 c0 1f             	add    $0x1f,%eax
c01019ed:	83 e0 e0             	and    $0xffffffe0,%eax
c01019f0:	89 45 08             	mov    %eax,0x8(%ebp)
c01019f3:	83 ec 08             	sub    $0x8,%esp
c01019f6:	ff 75 08             	push   0x8(%ebp)
c01019f9:	68 7e 50 10 c0       	push   $0xc010507e
c01019fe:	e8 1d 31 00 00       	call   c0104b20 <logf>
c0101a03:	83 c4 10             	add    $0x10,%esp
c0101a06:	a1 18 80 10 c0       	mov    0xc0108018,%eax
c0101a0b:	89 45 f4             	mov    %eax,-0xc(%ebp)
c0101a0e:	c7 45 f0 00 00 00 00 	movl   $0x0,-0x10(%ebp)
c0101a15:	e9 df 00 00 00       	jmp    c0101af9 <kalloc+0x118>
c0101a1a:	83 ec 08             	sub    $0x8,%esp
c0101a1d:	ff 75 f4             	push   -0xc(%ebp)
c0101a20:	68 99 50 10 c0       	push   $0xc0105099
c0101a25:	e8 f6 30 00 00       	call   c0104b20 <logf>
c0101a2a:	83 c4 10             	add    $0x10,%esp
c0101a2d:	8b 45 f4             	mov    -0xc(%ebp),%eax
c0101a30:	8b 00                	mov    (%eax),%eax
c0101a32:	3b 45 08             	cmp    0x8(%ebp),%eax
c0101a35:	0f 82 ad 00 00 00    	jb     c0101ae8 <kalloc+0x107>
c0101a3b:	8b 45 f4             	mov    -0xc(%ebp),%eax
c0101a3e:	0f b6 40 04          	movzbl 0x4(%eax),%eax
c0101a42:	84 c0                	test   %al,%al
c0101a44:	0f 85 9e 00 00 00    	jne    c0101ae8 <kalloc+0x107>
c0101a4a:	8b 45 f4             	mov    -0xc(%ebp),%eax
c0101a4d:	8b 00                	mov    (%eax),%eax
c0101a4f:	2b 45 08             	sub    0x8(%ebp),%eax
c0101a52:	83 f8 2f             	cmp    $0x2f,%eax
c0101a55:	76 5e                	jbe    c0101ab5 <kalloc+0xd4>
c0101a57:	8b 45 f4             	mov    -0xc(%ebp),%eax
c0101a5a:	8b 00                	mov    (%eax),%eax
c0101a5c:	8d 50 10             	lea    0x10(%eax),%edx
c0101a5f:	8b 45 f4             	mov    -0xc(%ebp),%eax
c0101a62:	01 d0                	add    %edx,%eax
c0101a64:	89 45 e8             	mov    %eax,-0x18(%ebp)
c0101a67:	8b 45 e8             	mov    -0x18(%ebp),%eax
c0101a6a:	c6 40 04 00          	movb   $0x0,0x4(%eax)
c0101a6e:	8b 45 f4             	mov    -0xc(%ebp),%eax
c0101a71:	8b 00                	mov    (%eax),%eax
c0101a73:	2b 45 08             	sub    0x8(%ebp),%eax
c0101a76:	8d 50 f0             	lea    -0x10(%eax),%edx
c0101a79:	8b 45 e8             	mov    -0x18(%ebp),%eax
c0101a7c:	89 10                	mov    %edx,(%eax)
c0101a7e:	8b 45 f4             	mov    -0xc(%ebp),%eax
c0101a81:	8b 50 0c             	mov    0xc(%eax),%edx
c0101a84:	8b 45 e8             	mov    -0x18(%ebp),%eax
c0101a87:	89 50 0c             	mov    %edx,0xc(%eax)
c0101a8a:	8b 45 f4             	mov    -0xc(%ebp),%eax
c0101a8d:	8b 50 08             	mov    0x8(%eax),%edx
c0101a90:	8b 45 e8             	mov    -0x18(%ebp),%eax
c0101a93:	89 50 08             	mov    %edx,0x8(%eax)
c0101a96:	8b 45 f4             	mov    -0xc(%ebp),%eax
c0101a99:	8b 55 e8             	mov    -0x18(%ebp),%edx
c0101a9c:	89 50 0c             	mov    %edx,0xc(%eax)
c0101a9f:	83 ec 04             	sub    $0x4,%esp
c0101aa2:	ff 75 08             	push   0x8(%ebp)
c0101aa5:	ff 75 e8             	push   -0x18(%ebp)
c0101aa8:	68 a8 50 10 c0       	push   $0xc01050a8
c0101aad:	e8 6e 30 00 00       	call   c0104b20 <logf>
c0101ab2:	83 c4 10             	add    $0x10,%esp
c0101ab5:	8b 45 f4             	mov    -0xc(%ebp),%eax
c0101ab8:	c6 40 04 01          	movb   $0x1,0x4(%eax)
c0101abc:	8b 45 f4             	mov    -0xc(%ebp),%eax
c0101abf:	8b 55 f0             	mov    -0x10(%ebp),%edx
c0101ac2:	89 50 08             	mov    %edx,0x8(%eax)
c0101ac5:	83 7d f0 00          	cmpl   $0x0,-0x10(%ebp)
c0101ac9:	74 15                	je     c0101ae0 <kalloc+0xff>
c0101acb:	8b 45 f0             	mov    -0x10(%ebp),%eax
c0101ace:	8b 50 0c             	mov    0xc(%eax),%edx
c0101ad1:	8b 45 f4             	mov    -0xc(%ebp),%eax
c0101ad4:	89 50 0c             	mov    %edx,0xc(%eax)
c0101ad7:	8b 45 f0             	mov    -0x10(%ebp),%eax
c0101ada:	8b 55 f4             	mov    -0xc(%ebp),%edx
c0101add:	89 50 0c             	mov    %edx,0xc(%eax)
c0101ae0:	8b 45 f4             	mov    -0xc(%ebp),%eax
c0101ae3:	e9 86 00 00 00       	jmp    c0101b6e <kalloc+0x18d>
c0101ae8:	8b 45 f4             	mov    -0xc(%ebp),%eax
c0101aeb:	89 45 f0             	mov    %eax,-0x10(%ebp)
c0101aee:	8b 45 f4             	mov    -0xc(%ebp),%eax
c0101af1:	8b 00                	mov    (%eax),%eax
c0101af3:	83 c0 10             	add    $0x10,%eax
c0101af6:	01 45 f4             	add    %eax,-0xc(%ebp)
c0101af9:	a1 1c 80 10 c0       	mov    0xc010801c,%eax
c0101afe:	39 45 f4             	cmp    %eax,-0xc(%ebp)
c0101b01:	0f 82 13 ff ff ff    	jb     c0101a1a <kalloc+0x39>
c0101b07:	a1 1c 80 10 c0       	mov    0xc010801c,%eax
c0101b0c:	89 45 f4             	mov    %eax,-0xc(%ebp)
c0101b0f:	8b 45 f4             	mov    -0xc(%ebp),%eax
c0101b12:	8b 55 f0             	mov    -0x10(%ebp),%edx
c0101b15:	89 50 08             	mov    %edx,0x8(%eax)
c0101b18:	83 7d f0 00          	cmpl   $0x0,-0x10(%ebp)
c0101b1c:	74 09                	je     c0101b27 <kalloc+0x146>
c0101b1e:	8b 45 f0             	mov    -0x10(%ebp),%eax
c0101b21:	8b 55 f4             	mov    -0xc(%ebp),%edx
c0101b24:	89 50 0c             	mov    %edx,0xc(%eax)
c0101b27:	8b 45 f4             	mov    -0xc(%ebp),%eax
c0101b2a:	8b 55 08             	mov    0x8(%ebp),%edx
c0101b2d:	89 10                	mov    %edx,(%eax)
c0101b2f:	8b 45 f4             	mov    -0xc(%ebp),%eax
c0101b32:	c6 40 04 01          	movb   $0x1,0x4(%eax)
c0101b36:	8b 45 f4             	mov    -0xc(%ebp),%eax
c0101b39:	83 c0 10             	add    $0x10,%eax
c0101b3c:	89 45 ec             	mov    %eax,-0x14(%ebp)
c0101b3f:	8b 45 f4             	mov    -0xc(%ebp),%eax
c0101b42:	8b 00                	mov    (%eax),%eax
c0101b44:	8d 50 10             	lea    0x10(%eax),%edx
c0101b47:	8b 45 f4             	mov    -0xc(%ebp),%eax
c0101b4a:	01 d0                	add    %edx,%eax
c0101b4c:	a3 1c 80 10 c0       	mov    %eax,0xc010801c
c0101b51:	8b 45 f4             	mov    -0xc(%ebp),%eax
c0101b54:	8b 40 08             	mov    0x8(%eax),%eax
c0101b57:	83 ec 04             	sub    $0x4,%esp
c0101b5a:	50                   	push   %eax
c0101b5b:	ff 75 f4             	push   -0xc(%ebp)
c0101b5e:	68 cc 50 10 c0       	push   $0xc01050cc
c0101b63:	e8 b8 2f 00 00       	call   c0104b20 <logf>
c0101b68:	83 c4 10             	add    $0x10,%esp
c0101b6b:	8b 45 ec             	mov    -0x14(%ebp),%eax
c0101b6e:	c9                   	leave
c0101b6f:	c3                   	ret

c0101b70 <kfree>:
c0101b70:	55                   	push   %ebp
c0101b71:	89 e5                	mov    %esp,%ebp
c0101b73:	83 ec 18             	sub    $0x18,%esp
c0101b76:	8b 45 08             	mov    0x8(%ebp),%eax
c0101b79:	83 e8 10             	sub    $0x10,%eax
c0101b7c:	89 45 f4             	mov    %eax,-0xc(%ebp)
c0101b7f:	8b 45 f4             	mov    -0xc(%ebp),%eax
c0101b82:	c6 40 04 00          	movb   $0x0,0x4(%eax)
c0101b86:	8b 45 f4             	mov    -0xc(%ebp),%eax
c0101b89:	8b 40 0c             	mov    0xc(%eax),%eax
c0101b8c:	89 45 f0             	mov    %eax,-0x10(%ebp)
c0101b8f:	8b 45 f4             	mov    -0xc(%ebp),%eax
c0101b92:	8b 40 08             	mov    0x8(%eax),%eax
c0101b95:	89 45 ec             	mov    %eax,-0x14(%ebp)
c0101b98:	83 ec 08             	sub    $0x8,%esp
c0101b9b:	6a 10                	push   $0x10
c0101b9d:	68 ef 50 10 c0       	push   $0xc01050ef
c0101ba2:	e8 d0 f9 ff ff       	call   c0101577 <printf>
c0101ba7:	83 c4 10             	add    $0x10,%esp
c0101baa:	83 7d f0 00          	cmpl   $0x0,-0x10(%ebp)
c0101bae:	74 4d                	je     c0101bfd <kfree+0x8d>
c0101bb0:	8b 45 f0             	mov    -0x10(%ebp),%eax
c0101bb3:	0f b6 40 04          	movzbl 0x4(%eax),%eax
c0101bb7:	84 c0                	test   %al,%al
c0101bb9:	75 42                	jne    c0101bfd <kfree+0x8d>
c0101bbb:	8b 45 f4             	mov    -0xc(%ebp),%eax
c0101bbe:	8b 10                	mov    (%eax),%edx
c0101bc0:	8b 45 f0             	mov    -0x10(%ebp),%eax
c0101bc3:	8b 00                	mov    (%eax),%eax
c0101bc5:	01 d0                	add    %edx,%eax
c0101bc7:	8d 50 10             	lea    0x10(%eax),%edx
c0101bca:	8b 45 f4             	mov    -0xc(%ebp),%eax
c0101bcd:	89 10                	mov    %edx,(%eax)
c0101bcf:	8b 45 f0             	mov    -0x10(%ebp),%eax
c0101bd2:	c7 00 00 00 00 00    	movl   $0x0,(%eax)
c0101bd8:	8b 45 f0             	mov    -0x10(%ebp),%eax
c0101bdb:	8b 50 0c             	mov    0xc(%eax),%edx
c0101bde:	8b 45 f4             	mov    -0xc(%ebp),%eax
c0101be1:	89 50 0c             	mov    %edx,0xc(%eax)
c0101be4:	8b 45 f4             	mov    -0xc(%ebp),%eax
c0101be7:	8b 00                	mov    (%eax),%eax
c0101be9:	50                   	push   %eax
c0101bea:	ff 75 f0             	push   -0x10(%ebp)
c0101bed:	ff 75 f4             	push   -0xc(%ebp)
c0101bf0:	68 08 51 10 c0       	push   $0xc0105108
c0101bf5:	e8 7d f9 ff ff       	call   c0101577 <printf>
c0101bfa:	83 c4 10             	add    $0x10,%esp
c0101bfd:	83 7d ec 00          	cmpl   $0x0,-0x14(%ebp)
c0101c01:	74 77                	je     c0101c7a <kfree+0x10a>
c0101c03:	8b 45 ec             	mov    -0x14(%ebp),%eax
c0101c06:	0f b6 40 04          	movzbl 0x4(%eax),%eax
c0101c0a:	84 c0                	test   %al,%al
c0101c0c:	75 6c                	jne    c0101c7a <kfree+0x10a>
c0101c0e:	8b 45 ec             	mov    -0x14(%ebp),%eax
c0101c11:	8b 10                	mov    (%eax),%edx
c0101c13:	8b 45 f4             	mov    -0xc(%ebp),%eax
c0101c16:	8b 00                	mov    (%eax),%eax
c0101c18:	01 d0                	add    %edx,%eax
c0101c1a:	8d 50 10             	lea    0x10(%eax),%edx
c0101c1d:	8b 45 ec             	mov    -0x14(%ebp),%eax
c0101c20:	89 10                	mov    %edx,(%eax)
c0101c22:	8b 45 f4             	mov    -0xc(%ebp),%eax
c0101c25:	c7 00 00 00 00 00    	movl   $0x0,(%eax)
c0101c2b:	8b 45 f4             	mov    -0xc(%ebp),%eax
c0101c2e:	c7 40 08 00 00 00 00 	movl   $0x0,0x8(%eax)
c0101c35:	8b 45 f4             	mov    -0xc(%ebp),%eax
c0101c38:	8b 50 0c             	mov    0xc(%eax),%edx
c0101c3b:	8b 45 ec             	mov    -0x14(%ebp),%eax
c0101c3e:	89 50 0c             	mov    %edx,0xc(%eax)
c0101c41:	8b 45 f4             	mov    -0xc(%ebp),%eax
c0101c44:	8b 40 0c             	mov    0xc(%eax),%eax
c0101c47:	85 c0                	test   %eax,%eax
c0101c49:	74 16                	je     c0101c61 <kfree+0xf1>
c0101c4b:	8b 45 f4             	mov    -0xc(%ebp),%eax
c0101c4e:	8b 40 0c             	mov    0xc(%eax),%eax
c0101c51:	8b 55 ec             	mov    -0x14(%ebp),%edx
c0101c54:	89 50 08             	mov    %edx,0x8(%eax)
c0101c57:	8b 45 f4             	mov    -0xc(%ebp),%eax
c0101c5a:	c7 40 0c 00 00 00 00 	movl   $0x0,0xc(%eax)
c0101c61:	8b 45 ec             	mov    -0x14(%ebp),%eax
c0101c64:	8b 00                	mov    (%eax),%eax
c0101c66:	50                   	push   %eax
c0101c67:	ff 75 f4             	push   -0xc(%ebp)
c0101c6a:	ff 75 ec             	push   -0x14(%ebp)
c0101c6d:	68 08 51 10 c0       	push   $0xc0105108
c0101c72:	e8 00 f9 ff ff       	call   c0101577 <printf>
c0101c77:	83 c4 10             	add    $0x10,%esp
c0101c7a:	90                   	nop
c0101c7b:	c9                   	leave
c0101c7c:	c3                   	ret

c0101c7d <isr_frame_as>:
c0101c7d:	50                   	push   %eax
c0101c7e:	53                   	push   %ebx
c0101c7f:	51                   	push   %ecx
c0101c80:	52                   	push   %edx
c0101c81:	56                   	push   %esi
c0101c82:	57                   	push   %edi
c0101c83:	0f 20 c0             	mov    %cr0,%eax
c0101c86:	50                   	push   %eax
c0101c87:	0f 20 d0             	mov    %cr2,%eax
c0101c8a:	50                   	push   %eax
c0101c8b:	0f 20 d8             	mov    %cr3,%eax
c0101c8e:	50                   	push   %eax
c0101c8f:	e8 57 26 00 00       	call   c01042eb <isr_handler>
c0101c94:	58                   	pop    %eax
c0101c95:	0f 22 d8             	mov    %eax,%cr3
c0101c98:	58                   	pop    %eax
c0101c99:	0f 22 d0             	mov    %eax,%cr2
c0101c9c:	58                   	pop    %eax
c0101c9d:	0f 22 c0             	mov    %eax,%cr0
c0101ca0:	5f                   	pop    %edi
c0101ca1:	5e                   	pop    %esi
c0101ca2:	5a                   	pop    %edx
c0101ca3:	59                   	pop    %ecx
c0101ca4:	5b                   	pop    %ebx
c0101ca5:	58                   	pop    %eax
c0101ca6:	83 c4 08             	add    $0x8,%esp
c0101ca9:	fb                   	sti
c0101caa:	cf                   	iret

c0101cab <irq_frame>:
c0101cab:	e8 e5 25 00 00       	call   c0104295 <irq_handler>
c0101cb0:	83 c4 04             	add    $0x4,%esp
c0101cb3:	fb                   	sti
c0101cb4:	cf                   	iret

c0101cb5 <isr_stub_0>:
c0101cb5:	fa                   	cli
c0101cb6:	6a 00                	push   $0x0
c0101cb8:	6a 00                	push   $0x0
c0101cba:	eb c1                	jmp    c0101c7d <isr_frame_as>

c0101cbc <isr_stub_1>:
c0101cbc:	fa                   	cli
c0101cbd:	6a 00                	push   $0x0
c0101cbf:	6a 01                	push   $0x1
c0101cc1:	eb ba                	jmp    c0101c7d <isr_frame_as>

c0101cc3 <isr_stub_2>:
c0101cc3:	fa                   	cli
c0101cc4:	6a 00                	push   $0x0
c0101cc6:	6a 02                	push   $0x2
c0101cc8:	eb b3                	jmp    c0101c7d <isr_frame_as>

c0101cca <isr_stub_3>:
c0101cca:	fa                   	cli
c0101ccb:	6a 00                	push   $0x0
c0101ccd:	6a 03                	push   $0x3
c0101ccf:	eb ac                	jmp    c0101c7d <isr_frame_as>

c0101cd1 <isr_stub_4>:
c0101cd1:	fa                   	cli
c0101cd2:	6a 00                	push   $0x0
c0101cd4:	6a 04                	push   $0x4
c0101cd6:	eb a5                	jmp    c0101c7d <isr_frame_as>

c0101cd8 <isr_stub_5>:
c0101cd8:	fa                   	cli
c0101cd9:	6a 00                	push   $0x0
c0101cdb:	6a 05                	push   $0x5
c0101cdd:	eb 9e                	jmp    c0101c7d <isr_frame_as>

c0101cdf <isr_stub_6>:
c0101cdf:	fa                   	cli
c0101ce0:	6a 00                	push   $0x0
c0101ce2:	6a 06                	push   $0x6
c0101ce4:	eb 97                	jmp    c0101c7d <isr_frame_as>

c0101ce6 <isr_stub_7>:
c0101ce6:	fa                   	cli
c0101ce7:	6a 00                	push   $0x0
c0101ce9:	6a 07                	push   $0x7
c0101ceb:	eb 90                	jmp    c0101c7d <isr_frame_as>

c0101ced <isr_stub_8>:
c0101ced:	fa                   	cli
c0101cee:	6a 08                	push   $0x8
c0101cf0:	eb 8b                	jmp    c0101c7d <isr_frame_as>

c0101cf2 <isr_stub_9>:
c0101cf2:	fa                   	cli
c0101cf3:	6a 00                	push   $0x0
c0101cf5:	6a 09                	push   $0x9
c0101cf7:	eb 84                	jmp    c0101c7d <isr_frame_as>

c0101cf9 <isr_stub_10>:
c0101cf9:	fa                   	cli
c0101cfa:	6a 0a                	push   $0xa
c0101cfc:	e9 7c ff ff ff       	jmp    c0101c7d <isr_frame_as>

c0101d01 <isr_stub_11>:
c0101d01:	fa                   	cli
c0101d02:	6a 0b                	push   $0xb
c0101d04:	e9 74 ff ff ff       	jmp    c0101c7d <isr_frame_as>

c0101d09 <isr_stub_12>:
c0101d09:	fa                   	cli
c0101d0a:	6a 0c                	push   $0xc
c0101d0c:	e9 6c ff ff ff       	jmp    c0101c7d <isr_frame_as>

c0101d11 <isr_stub_13>:
c0101d11:	fa                   	cli
c0101d12:	6a 0d                	push   $0xd
c0101d14:	e9 64 ff ff ff       	jmp    c0101c7d <isr_frame_as>

c0101d19 <isr_stub_14>:
c0101d19:	fa                   	cli
c0101d1a:	6a 0e                	push   $0xe
c0101d1c:	e9 5c ff ff ff       	jmp    c0101c7d <isr_frame_as>

c0101d21 <isr_stub_15>:
c0101d21:	fa                   	cli
c0101d22:	6a 00                	push   $0x0
c0101d24:	6a 0f                	push   $0xf
c0101d26:	e9 52 ff ff ff       	jmp    c0101c7d <isr_frame_as>

c0101d2b <isr_stub_16>:
c0101d2b:	fa                   	cli
c0101d2c:	6a 00                	push   $0x0
c0101d2e:	6a 10                	push   $0x10
c0101d30:	e9 48 ff ff ff       	jmp    c0101c7d <isr_frame_as>

c0101d35 <isr_stub_17>:
c0101d35:	fa                   	cli
c0101d36:	6a 11                	push   $0x11
c0101d38:	e9 40 ff ff ff       	jmp    c0101c7d <isr_frame_as>

c0101d3d <isr_stub_18>:
c0101d3d:	fa                   	cli
c0101d3e:	6a 00                	push   $0x0
c0101d40:	6a 12                	push   $0x12
c0101d42:	e9 36 ff ff ff       	jmp    c0101c7d <isr_frame_as>

c0101d47 <isr_stub_19>:
c0101d47:	fa                   	cli
c0101d48:	6a 00                	push   $0x0
c0101d4a:	6a 13                	push   $0x13
c0101d4c:	e9 2c ff ff ff       	jmp    c0101c7d <isr_frame_as>

c0101d51 <isr_stub_20>:
c0101d51:	fa                   	cli
c0101d52:	6a 00                	push   $0x0
c0101d54:	6a 14                	push   $0x14
c0101d56:	e9 22 ff ff ff       	jmp    c0101c7d <isr_frame_as>

c0101d5b <isr_stub_21>:
c0101d5b:	fa                   	cli
c0101d5c:	6a 00                	push   $0x0
c0101d5e:	6a 15                	push   $0x15
c0101d60:	e9 18 ff ff ff       	jmp    c0101c7d <isr_frame_as>

c0101d65 <isr_stub_22>:
c0101d65:	fa                   	cli
c0101d66:	6a 00                	push   $0x0
c0101d68:	6a 16                	push   $0x16
c0101d6a:	e9 0e ff ff ff       	jmp    c0101c7d <isr_frame_as>

c0101d6f <isr_stub_23>:
c0101d6f:	fa                   	cli
c0101d70:	6a 00                	push   $0x0
c0101d72:	6a 17                	push   $0x17
c0101d74:	e9 04 ff ff ff       	jmp    c0101c7d <isr_frame_as>

c0101d79 <isr_stub_24>:
c0101d79:	fa                   	cli
c0101d7a:	6a 00                	push   $0x0
c0101d7c:	6a 18                	push   $0x18
c0101d7e:	e9 fa fe ff ff       	jmp    c0101c7d <isr_frame_as>

c0101d83 <isr_stub_25>:
c0101d83:	fa                   	cli
c0101d84:	6a 00                	push   $0x0
c0101d86:	6a 19                	push   $0x19
c0101d88:	e9 f0 fe ff ff       	jmp    c0101c7d <isr_frame_as>

c0101d8d <isr_stub_26>:
c0101d8d:	fa                   	cli
c0101d8e:	6a 00                	push   $0x0
c0101d90:	6a 1a                	push   $0x1a
c0101d92:	e9 e6 fe ff ff       	jmp    c0101c7d <isr_frame_as>

c0101d97 <isr_stub_27>:
c0101d97:	fa                   	cli
c0101d98:	6a 00                	push   $0x0
c0101d9a:	6a 1b                	push   $0x1b
c0101d9c:	e9 dc fe ff ff       	jmp    c0101c7d <isr_frame_as>

c0101da1 <isr_stub_28>:
c0101da1:	fa                   	cli
c0101da2:	6a 00                	push   $0x0
c0101da4:	6a 1c                	push   $0x1c
c0101da6:	e9 d2 fe ff ff       	jmp    c0101c7d <isr_frame_as>

c0101dab <isr_stub_29>:
c0101dab:	fa                   	cli
c0101dac:	6a 00                	push   $0x0
c0101dae:	6a 1d                	push   $0x1d
c0101db0:	e9 c8 fe ff ff       	jmp    c0101c7d <isr_frame_as>

c0101db5 <isr_stub_30>:
c0101db5:	fa                   	cli
c0101db6:	6a 1e                	push   $0x1e
c0101db8:	e9 c0 fe ff ff       	jmp    c0101c7d <isr_frame_as>

c0101dbd <isr_stub_31>:
c0101dbd:	fa                   	cli
c0101dbe:	6a 00                	push   $0x0
c0101dc0:	6a 1f                	push   $0x1f
c0101dc2:	e9 b6 fe ff ff       	jmp    c0101c7d <isr_frame_as>

c0101dc7 <irq_stub_48>:
c0101dc7:	fa                   	cli
c0101dc8:	6a 30                	push   $0x30
c0101dca:	e9 dc fe ff ff       	jmp    c0101cab <irq_frame>

c0101dcf <irq_stub_49>:
c0101dcf:	fa                   	cli
c0101dd0:	6a 31                	push   $0x31
c0101dd2:	e9 d4 fe ff ff       	jmp    c0101cab <irq_frame>

c0101dd7 <irq_stub_50>:
c0101dd7:	fa                   	cli
c0101dd8:	6a 32                	push   $0x32
c0101dda:	e9 cc fe ff ff       	jmp    c0101cab <irq_frame>

c0101ddf <io_wait>:
c0101ddf:	55                   	push   %ebp
c0101de0:	89 e5                	mov    %esp,%ebp
c0101de2:	83 ec 08             	sub    $0x8,%esp
c0101de5:	83 ec 08             	sub    $0x8,%esp
c0101de8:	6a 00                	push   $0x0
c0101dea:	68 80 00 00 00       	push   $0x80
c0101def:	e8 1a 2a 00 00       	call   c010480e <outportb>
c0101df4:	83 c4 10             	add    $0x10,%esp
c0101df7:	90                   	nop
c0101df8:	c9                   	leave
c0101df9:	c3                   	ret

c0101dfa <get_apic_addr>:
c0101dfa:	55                   	push   %ebp
c0101dfb:	89 e5                	mov    %esp,%ebp
c0101dfd:	83 ec 10             	sub    $0x10,%esp
c0101e00:	c7 45 fc 1b 00 00 00 	movl   $0x1b,-0x4(%ebp)
c0101e07:	c7 45 f8 00 00 00 00 	movl   $0x0,-0x8(%ebp)
c0101e0e:	c7 45 f4 00 00 00 00 	movl   $0x0,-0xc(%ebp)
c0101e15:	8b 45 fc             	mov    -0x4(%ebp),%eax
c0101e18:	89 c1                	mov    %eax,%ecx
c0101e1a:	0f 32                	rdmsr
c0101e1c:	89 45 f8             	mov    %eax,-0x8(%ebp)
c0101e1f:	89 55 f4             	mov    %edx,-0xc(%ebp)
c0101e22:	8b 45 f8             	mov    -0x8(%ebp),%eax
c0101e25:	25 00 f0 ff ff       	and    $0xfffff000,%eax
c0101e2a:	c9                   	leave
c0101e2b:	c3                   	ret

c0101e2c <get_cpuid>:
c0101e2c:	55                   	push   %ebp
c0101e2d:	89 e5                	mov    %esp,%ebp
c0101e2f:	53                   	push   %ebx
c0101e30:	83 ec 14             	sub    $0x14,%esp
c0101e33:	c7 45 f4 00 00 00 00 	movl   $0x0,-0xc(%ebp)
c0101e3a:	c7 45 f0 00 00 00 00 	movl   $0x0,-0x10(%ebp)
c0101e41:	c7 45 ec 00 00 00 00 	movl   $0x0,-0x14(%ebp)
c0101e48:	c7 45 e8 00 00 00 00 	movl   $0x0,-0x18(%ebp)
c0101e4f:	8b 45 08             	mov    0x8(%ebp),%eax
c0101e52:	89 c0                	mov    %eax,%eax
c0101e54:	0f a2                	cpuid
c0101e56:	89 45 f4             	mov    %eax,-0xc(%ebp)
c0101e59:	89 5d f0             	mov    %ebx,-0x10(%ebp)
c0101e5c:	89 4d ec             	mov    %ecx,-0x14(%ebp)
c0101e5f:	89 55 e8             	mov    %edx,-0x18(%ebp)
c0101e62:	8b 5d e8             	mov    -0x18(%ebp),%ebx
c0101e65:	8b 4d ec             	mov    -0x14(%ebp),%ecx
c0101e68:	8b 55 f0             	mov    -0x10(%ebp),%edx
c0101e6b:	8b 45 f4             	mov    -0xc(%ebp),%eax
c0101e6e:	83 ec 08             	sub    $0x8,%esp
c0101e71:	53                   	push   %ebx
c0101e72:	51                   	push   %ecx
c0101e73:	52                   	push   %edx
c0101e74:	50                   	push   %eax
c0101e75:	ff 75 08             	push   0x8(%ebp)
c0101e78:	68 44 51 10 c0       	push   $0xc0105144
c0101e7d:	e8 9e 2c 00 00       	call   c0104b20 <logf>
c0101e82:	83 c4 20             	add    $0x20,%esp
c0101e85:	90                   	nop
c0101e86:	8b 5d fc             	mov    -0x4(%ebp),%ebx
c0101e89:	c9                   	leave
c0101e8a:	c3                   	ret

c0101e8b <read_ioapic_register>:
c0101e8b:	55                   	push   %ebp
c0101e8c:	89 e5                	mov    %esp,%ebp
c0101e8e:	83 ec 10             	sub    $0x10,%esp
c0101e91:	a1 24 80 10 c0       	mov    0xc0108024,%eax
c0101e96:	8b 55 08             	mov    0x8(%ebp),%edx
c0101e99:	89 10                	mov    %edx,(%eax)
c0101e9b:	a1 24 80 10 c0       	mov    0xc0108024,%eax
c0101ea0:	83 c0 10             	add    $0x10,%eax
c0101ea3:	89 45 fc             	mov    %eax,-0x4(%ebp)
c0101ea6:	8b 45 fc             	mov    -0x4(%ebp),%eax
c0101ea9:	8b 00                	mov    (%eax),%eax
c0101eab:	c9                   	leave
c0101eac:	c3                   	ret

c0101ead <write_ioapic_register>:
c0101ead:	55                   	push   %ebp
c0101eae:	89 e5                	mov    %esp,%ebp
c0101eb0:	83 ec 10             	sub    $0x10,%esp
c0101eb3:	a1 24 80 10 c0       	mov    0xc0108024,%eax
c0101eb8:	8b 55 08             	mov    0x8(%ebp),%edx
c0101ebb:	89 10                	mov    %edx,(%eax)
c0101ebd:	a1 24 80 10 c0       	mov    0xc0108024,%eax
c0101ec2:	83 c0 10             	add    $0x10,%eax
c0101ec5:	89 45 fc             	mov    %eax,-0x4(%ebp)
c0101ec8:	8b 45 fc             	mov    -0x4(%ebp),%eax
c0101ecb:	8b 55 0c             	mov    0xc(%ebp),%edx
c0101ece:	89 10                	mov    %edx,(%eax)
c0101ed0:	90                   	nop
c0101ed1:	c9                   	leave
c0101ed2:	c3                   	ret

c0101ed3 <ioapic_pit_irq>:
c0101ed3:	55                   	push   %ebp
c0101ed4:	89 e5                	mov    %esp,%ebp
c0101ed6:	83 ec 18             	sub    $0x18,%esp
c0101ed9:	c6 45 f7 01          	movb   $0x1,-0x9(%ebp)
c0101edd:	c7 45 f0 00 00 00 00 	movl   $0x0,-0x10(%ebp)
c0101ee4:	0f b6 45 f7          	movzbl -0x9(%ebp),%eax
c0101ee8:	83 ec 08             	sub    $0x8,%esp
c0101eeb:	50                   	push   %eax
c0101eec:	6a 02                	push   $0x2
c0101eee:	e8 ad 1a 00 00       	call   c01039a0 <parse_MADT>
c0101ef3:	83 c4 10             	add    $0x10,%esp
c0101ef6:	89 45 f0             	mov    %eax,-0x10(%ebp)
c0101ef9:	eb 29                	jmp    c0101f24 <ioapic_pit_irq+0x51>
c0101efb:	8b 45 f0             	mov    -0x10(%ebp),%eax
c0101efe:	0f b6 00             	movzbl (%eax),%eax
c0101f01:	84 c0                	test   %al,%al
c0101f03:	74 27                	je     c0101f2c <ioapic_pit_irq+0x59>
c0101f05:	0f b6 45 f7          	movzbl -0x9(%ebp),%eax
c0101f09:	83 ec 08             	sub    $0x8,%esp
c0101f0c:	50                   	push   %eax
c0101f0d:	6a 02                	push   $0x2
c0101f0f:	e8 8c 1a 00 00       	call   c01039a0 <parse_MADT>
c0101f14:	83 c4 10             	add    $0x10,%esp
c0101f17:	89 45 f0             	mov    %eax,-0x10(%ebp)
c0101f1a:	0f b6 45 f7          	movzbl -0x9(%ebp),%eax
c0101f1e:	83 c0 01             	add    $0x1,%eax
c0101f21:	88 45 f7             	mov    %al,-0x9(%ebp)
c0101f24:	83 7d f0 00          	cmpl   $0x0,-0x10(%ebp)
c0101f28:	75 d1                	jne    c0101efb <ioapic_pit_irq+0x28>
c0101f2a:	eb 01                	jmp    c0101f2d <ioapic_pit_irq+0x5a>
c0101f2c:	90                   	nop
c0101f2d:	8b 45 f0             	mov    -0x10(%ebp),%eax
c0101f30:	8b 40 02             	mov    0x2(%eax),%eax
c0101f33:	c9                   	leave
c0101f34:	c3                   	ret

c0101f35 <init_ioapic>:
c0101f35:	55                   	push   %ebp
c0101f36:	89 e5                	mov    %esp,%ebp
c0101f38:	83 ec 18             	sub    $0x18,%esp
c0101f3b:	83 ec 08             	sub    $0x8,%esp
c0101f3e:	6a 01                	push   $0x1
c0101f40:	6a 01                	push   $0x1
c0101f42:	e8 59 1a 00 00       	call   c01039a0 <parse_MADT>
c0101f47:	83 c4 10             	add    $0x10,%esp
c0101f4a:	89 45 f4             	mov    %eax,-0xc(%ebp)
c0101f4d:	8b 45 f4             	mov    -0xc(%ebp),%eax
c0101f50:	8b 40 02             	mov    0x2(%eax),%eax
c0101f53:	83 ec 04             	sub    $0x4,%esp
c0101f56:	50                   	push   %eax
c0101f57:	68 13 01 00 00       	push   $0x113
c0101f5c:	68 00 04 00 00       	push   $0x400
c0101f61:	e8 c8 15 00 00       	call   c010352e <page_kalloc>
c0101f66:	83 c4 10             	add    $0x10,%esp
c0101f69:	a3 24 80 10 c0       	mov    %eax,0xc0108024
c0101f6e:	e8 60 ff ff ff       	call   c0101ed3 <ioapic_pit_irq>
c0101f73:	83 c0 08             	add    $0x8,%eax
c0101f76:	01 c0                	add    %eax,%eax
c0101f78:	88 45 f3             	mov    %al,-0xd(%ebp)
c0101f7b:	0f b6 45 f3          	movzbl -0xd(%ebp),%eax
c0101f7f:	83 ec 08             	sub    $0x8,%esp
c0101f82:	6a 31                	push   $0x31
c0101f84:	50                   	push   %eax
c0101f85:	e8 23 ff ff ff       	call   c0101ead <write_ioapic_register>
c0101f8a:	83 c4 10             	add    $0x10,%esp
c0101f8d:	0f b6 45 f3          	movzbl -0xd(%ebp),%eax
c0101f91:	83 c0 01             	add    $0x1,%eax
c0101f94:	83 ec 08             	sub    $0x8,%esp
c0101f97:	6a 00                	push   $0x0
c0101f99:	50                   	push   %eax
c0101f9a:	e8 0e ff ff ff       	call   c0101ead <write_ioapic_register>
c0101f9f:	83 c4 10             	add    $0x10,%esp
c0101fa2:	90                   	nop
c0101fa3:	c9                   	leave
c0101fa4:	c3                   	ret

c0101fa5 <lapic_write_reg>:
c0101fa5:	55                   	push   %ebp
c0101fa6:	89 e5                	mov    %esp,%ebp
c0101fa8:	83 ec 10             	sub    $0x10,%esp
c0101fab:	a1 20 80 10 c0       	mov    0xc0108020,%eax
c0101fb0:	89 c2                	mov    %eax,%edx
c0101fb2:	8b 45 08             	mov    0x8(%ebp),%eax
c0101fb5:	01 d0                	add    %edx,%eax
c0101fb7:	89 45 fc             	mov    %eax,-0x4(%ebp)
c0101fba:	8b 45 fc             	mov    -0x4(%ebp),%eax
c0101fbd:	8b 55 0c             	mov    0xc(%ebp),%edx
c0101fc0:	89 10                	mov    %edx,(%eax)
c0101fc2:	90                   	nop
c0101fc3:	c9                   	leave
c0101fc4:	c3                   	ret

c0101fc5 <lapic_read_reg>:
c0101fc5:	55                   	push   %ebp
c0101fc6:	89 e5                	mov    %esp,%ebp
c0101fc8:	83 ec 10             	sub    $0x10,%esp
c0101fcb:	a1 20 80 10 c0       	mov    0xc0108020,%eax
c0101fd0:	89 c2                	mov    %eax,%edx
c0101fd2:	8b 45 08             	mov    0x8(%ebp),%eax
c0101fd5:	01 d0                	add    %edx,%eax
c0101fd7:	89 45 fc             	mov    %eax,-0x4(%ebp)
c0101fda:	8b 45 fc             	mov    -0x4(%ebp),%eax
c0101fdd:	8b 00                	mov    (%eax),%eax
c0101fdf:	c9                   	leave
c0101fe0:	c3                   	ret

c0101fe1 <lapic_timer_init>:
c0101fe1:	55                   	push   %ebp
c0101fe2:	89 e5                	mov    %esp,%ebp
c0101fe4:	83 ec 10             	sub    $0x10,%esp
c0101fe7:	a1 20 80 10 c0       	mov    0xc0108020,%eax
c0101fec:	05 20 03 00 00       	add    $0x320,%eax
c0101ff1:	89 45 fc             	mov    %eax,-0x4(%ebp)
c0101ff4:	8b 45 fc             	mov    -0x4(%ebp),%eax
c0101ff7:	c7 00 30 00 02 00    	movl   $0x20030,(%eax)
c0101ffd:	90                   	nop
c0101ffe:	c9                   	leave
c0101fff:	c3                   	ret

c0102000 <set_initial_lapic_timer_count>:
c0102000:	55                   	push   %ebp
c0102001:	89 e5                	mov    %esp,%ebp
c0102003:	83 ec 10             	sub    $0x10,%esp
c0102006:	a1 20 80 10 c0       	mov    0xc0108020,%eax
c010200b:	05 80 03 00 00       	add    $0x380,%eax
c0102010:	89 45 fc             	mov    %eax,-0x4(%ebp)
c0102013:	8b 45 fc             	mov    -0x4(%ebp),%eax
c0102016:	8b 55 08             	mov    0x8(%ebp),%edx
c0102019:	89 10                	mov    %edx,(%eax)
c010201b:	90                   	nop
c010201c:	c9                   	leave
c010201d:	c3                   	ret

c010201e <get_lapic_timer_count>:
c010201e:	55                   	push   %ebp
c010201f:	89 e5                	mov    %esp,%ebp
c0102021:	68 90 03 00 00       	push   $0x390
c0102026:	e8 9a ff ff ff       	call   c0101fc5 <lapic_read_reg>
c010202b:	83 c4 04             	add    $0x4,%esp
c010202e:	c9                   	leave
c010202f:	c3                   	ret

c0102030 <send_EOI>:
c0102030:	55                   	push   %ebp
c0102031:	89 e5                	mov    %esp,%ebp
c0102033:	83 ec 10             	sub    $0x10,%esp
c0102036:	8b 45 08             	mov    0x8(%ebp),%eax
c0102039:	05 b0 00 00 00       	add    $0xb0,%eax
c010203e:	89 45 fc             	mov    %eax,-0x4(%ebp)
c0102041:	8b 45 fc             	mov    -0x4(%ebp),%eax
c0102044:	c7 00 00 00 00 00    	movl   $0x0,(%eax)
c010204a:	90                   	nop
c010204b:	c9                   	leave
c010204c:	c3                   	ret

c010204d <init_apic>:
c010204d:	55                   	push   %ebp
c010204e:	89 e5                	mov    %esp,%ebp
c0102050:	83 ec 18             	sub    $0x18,%esp
c0102053:	83 ec 0c             	sub    $0xc,%esp
c0102056:	68 74 51 10 c0       	push   $0xc0105174
c010205b:	e8 c0 2a 00 00       	call   c0104b20 <logf>
c0102060:	83 c4 10             	add    $0x10,%esp
c0102063:	e8 92 fd ff ff       	call   c0101dfa <get_apic_addr>
c0102068:	83 ec 04             	sub    $0x4,%esp
c010206b:	50                   	push   %eax
c010206c:	6a 03                	push   $0x3
c010206e:	68 00 10 00 00       	push   $0x1000
c0102073:	e8 b6 14 00 00       	call   c010352e <page_kalloc>
c0102078:	83 c4 10             	add    $0x10,%esp
c010207b:	a3 20 80 10 c0       	mov    %eax,0xc0108020
c0102080:	a1 20 80 10 c0       	mov    0xc0108020,%eax
c0102085:	05 f0 00 00 00       	add    $0xf0,%eax
c010208a:	89 45 f4             	mov    %eax,-0xc(%ebp)
c010208d:	8b 45 f4             	mov    -0xc(%ebp),%eax
c0102090:	8b 00                	mov    (%eax),%eax
c0102092:	0d ff 01 00 00       	or     $0x1ff,%eax
c0102097:	89 c2                	mov    %eax,%edx
c0102099:	8b 45 f4             	mov    -0xc(%ebp),%eax
c010209c:	89 10                	mov    %edx,(%eax)
c010209e:	83 ec 0c             	sub    $0xc,%esp
c01020a1:	68 9c 51 10 c0       	push   $0xc010519c
c01020a6:	e8 75 2a 00 00       	call   c0104b20 <logf>
c01020ab:	83 c4 10             	add    $0x10,%esp
c01020ae:	e8 2e ff ff ff       	call   c0101fe1 <lapic_timer_init>
c01020b3:	e8 7d fe ff ff       	call   c0101f35 <init_ioapic>
c01020b8:	e8 03 00 00 00       	call   c01020c0 <calibrate_timer>
c01020bd:	90                   	nop
c01020be:	c9                   	leave
c01020bf:	c3                   	ret

c01020c0 <calibrate_timer>:
c01020c0:	55                   	push   %ebp
c01020c1:	89 e5                	mov    %esp,%ebp
c01020c3:	83 ec 18             	sub    $0x18,%esp
c01020c6:	c7 45 f4 00 00 00 00 	movl   $0x0,-0xc(%ebp)
c01020cd:	68 00 00 01 00       	push   $0x10000
c01020d2:	68 20 03 00 00       	push   $0x320
c01020d7:	e8 c9 fe ff ff       	call   c0101fa5 <lapic_write_reg>
c01020dc:	83 c4 08             	add    $0x8,%esp
c01020df:	c7 45 f0 00 00 00 00 	movl   $0x0,-0x10(%ebp)
c01020e6:	eb 50                	jmp    c0102138 <calibrate_timer+0x78>
c01020e8:	c7 05 2c 80 10 c0 01 	movl   $0x1,0xc010802c
c01020ef:	00 00 00 
c01020f2:	83 ec 0c             	sub    $0xc,%esp
c01020f5:	68 c2 2e 00 00       	push   $0x2ec2
c01020fa:	e8 91 00 00 00       	call   c0102190 <set_pit_one_shot>
c01020ff:	83 c4 10             	add    $0x10,%esp
c0102102:	83 ec 0c             	sub    $0xc,%esp
c0102105:	6a ff                	push   $0xffffffff
c0102107:	e8 f4 fe ff ff       	call   c0102000 <set_initial_lapic_timer_count>
c010210c:	83 c4 10             	add    $0x10,%esp
c010210f:	90                   	nop
c0102110:	a1 2c 80 10 c0       	mov    0xc010802c,%eax
c0102115:	85 c0                	test   %eax,%eax
c0102117:	75 f7                	jne    c0102110 <calibrate_timer+0x50>
c0102119:	83 ec 0c             	sub    $0xc,%esp
c010211c:	68 90 03 00 00       	push   $0x390
c0102121:	e8 9f fe ff ff       	call   c0101fc5 <lapic_read_reg>
c0102126:	83 c4 10             	add    $0x10,%esp
c0102129:	f7 d0                	not    %eax
c010212b:	89 45 ec             	mov    %eax,-0x14(%ebp)
c010212e:	8b 45 ec             	mov    -0x14(%ebp),%eax
c0102131:	01 45 f4             	add    %eax,-0xc(%ebp)
c0102134:	83 45 f0 01          	addl   $0x1,-0x10(%ebp)
c0102138:	83 7d f0 09          	cmpl   $0x9,-0x10(%ebp)
c010213c:	7e aa                	jle    c01020e8 <calibrate_timer+0x28>
c010213e:	8b 45 f4             	mov    -0xc(%ebp),%eax
c0102141:	ba 1f 85 eb 51       	mov    $0x51eb851f,%edx
c0102146:	f7 e2                	mul    %edx
c0102148:	89 d0                	mov    %edx,%eax
c010214a:	c1 e8 05             	shr    $0x5,%eax
c010214d:	a3 28 80 10 c0       	mov    %eax,0xc0108028
c0102152:	a1 28 80 10 c0       	mov    0xc0108028,%eax
c0102157:	83 ec 08             	sub    $0x8,%esp
c010215a:	50                   	push   %eax
c010215b:	68 b8 51 10 c0       	push   $0xc01051b8
c0102160:	e8 bb 29 00 00       	call   c0104b20 <logf>
c0102165:	83 c4 10             	add    $0x10,%esp
c0102168:	83 ec 08             	sub    $0x8,%esp
c010216b:	68 30 00 02 00       	push   $0x20030
c0102170:	68 20 03 00 00       	push   $0x320
c0102175:	e8 2b fe ff ff       	call   c0101fa5 <lapic_write_reg>
c010217a:	83 c4 10             	add    $0x10,%esp
c010217d:	90                   	nop
c010217e:	c9                   	leave
c010217f:	c3                   	ret

c0102180 <end_calibration>:
c0102180:	55                   	push   %ebp
c0102181:	89 e5                	mov    %esp,%ebp
c0102183:	c7 05 2c 80 10 c0 00 	movl   $0x0,0xc010802c
c010218a:	00 00 00 
c010218d:	90                   	nop
c010218e:	5d                   	pop    %ebp
c010218f:	c3                   	ret

c0102190 <set_pit_one_shot>:
c0102190:	55                   	push   %ebp
c0102191:	89 e5                	mov    %esp,%ebp
c0102193:	83 ec 18             	sub    $0x18,%esp
c0102196:	8b 45 08             	mov    0x8(%ebp),%eax
c0102199:	66 89 45 f4          	mov    %ax,-0xc(%ebp)
c010219d:	83 ec 08             	sub    $0x8,%esp
c01021a0:	6a 30                	push   $0x30
c01021a2:	6a 43                	push   $0x43
c01021a4:	e8 65 26 00 00       	call   c010480e <outportb>
c01021a9:	83 c4 10             	add    $0x10,%esp
c01021ac:	0f b7 45 f4          	movzwl -0xc(%ebp),%eax
c01021b0:	0f b6 c0             	movzbl %al,%eax
c01021b3:	83 ec 08             	sub    $0x8,%esp
c01021b6:	50                   	push   %eax
c01021b7:	6a 40                	push   $0x40
c01021b9:	e8 50 26 00 00       	call   c010480e <outportb>
c01021be:	83 c4 10             	add    $0x10,%esp
c01021c1:	0f b7 45 f4          	movzwl -0xc(%ebp),%eax
c01021c5:	66 c1 e8 08          	shr    $0x8,%ax
c01021c9:	0f b6 c0             	movzbl %al,%eax
c01021cc:	83 ec 08             	sub    $0x8,%esp
c01021cf:	50                   	push   %eax
c01021d0:	6a 40                	push   $0x40
c01021d2:	e8 37 26 00 00       	call   c010480e <outportb>
c01021d7:	83 c4 10             	add    $0x10,%esp
c01021da:	90                   	nop
c01021db:	c9                   	leave
c01021dc:	c3                   	ret

c01021dd <disable_pic>:
c01021dd:	55                   	push   %ebp
c01021de:	89 e5                	mov    %esp,%ebp
c01021e0:	83 ec 08             	sub    $0x8,%esp
c01021e3:	83 ec 08             	sub    $0x8,%esp
c01021e6:	6a 11                	push   $0x11
c01021e8:	6a 20                	push   $0x20
c01021ea:	e8 1f 26 00 00       	call   c010480e <outportb>
c01021ef:	83 c4 10             	add    $0x10,%esp
c01021f2:	e8 e8 fb ff ff       	call   c0101ddf <io_wait>
c01021f7:	83 ec 08             	sub    $0x8,%esp
c01021fa:	6a 11                	push   $0x11
c01021fc:	68 a0 00 00 00       	push   $0xa0
c0102201:	e8 08 26 00 00       	call   c010480e <outportb>
c0102206:	83 c4 10             	add    $0x10,%esp
c0102209:	e8 d1 fb ff ff       	call   c0101ddf <io_wait>
c010220e:	83 ec 08             	sub    $0x8,%esp
c0102211:	6a 20                	push   $0x20
c0102213:	6a 21                	push   $0x21
c0102215:	e8 f4 25 00 00       	call   c010480e <outportb>
c010221a:	83 c4 10             	add    $0x10,%esp
c010221d:	e8 bd fb ff ff       	call   c0101ddf <io_wait>
c0102222:	83 ec 08             	sub    $0x8,%esp
c0102225:	6a 28                	push   $0x28
c0102227:	68 a1 00 00 00       	push   $0xa1
c010222c:	e8 dd 25 00 00       	call   c010480e <outportb>
c0102231:	83 c4 10             	add    $0x10,%esp
c0102234:	e8 a6 fb ff ff       	call   c0101ddf <io_wait>
c0102239:	83 ec 08             	sub    $0x8,%esp
c010223c:	6a 02                	push   $0x2
c010223e:	6a 21                	push   $0x21
c0102240:	e8 c9 25 00 00       	call   c010480e <outportb>
c0102245:	83 c4 10             	add    $0x10,%esp
c0102248:	e8 92 fb ff ff       	call   c0101ddf <io_wait>
c010224d:	83 ec 08             	sub    $0x8,%esp
c0102250:	6a 04                	push   $0x4
c0102252:	68 a1 00 00 00       	push   $0xa1
c0102257:	e8 b2 25 00 00       	call   c010480e <outportb>
c010225c:	83 c4 10             	add    $0x10,%esp
c010225f:	e8 7b fb ff ff       	call   c0101ddf <io_wait>
c0102264:	83 ec 08             	sub    $0x8,%esp
c0102267:	6a 01                	push   $0x1
c0102269:	6a 21                	push   $0x21
c010226b:	e8 9e 25 00 00       	call   c010480e <outportb>
c0102270:	83 c4 10             	add    $0x10,%esp
c0102273:	e8 67 fb ff ff       	call   c0101ddf <io_wait>
c0102278:	83 ec 08             	sub    $0x8,%esp
c010227b:	6a 01                	push   $0x1
c010227d:	68 a1 00 00 00       	push   $0xa1
c0102282:	e8 87 25 00 00       	call   c010480e <outportb>
c0102287:	83 c4 10             	add    $0x10,%esp
c010228a:	e8 50 fb ff ff       	call   c0101ddf <io_wait>
c010228f:	83 ec 08             	sub    $0x8,%esp
c0102292:	68 ff 00 00 00       	push   $0xff
c0102297:	6a 21                	push   $0x21
c0102299:	e8 70 25 00 00       	call   c010480e <outportb>
c010229e:	83 c4 10             	add    $0x10,%esp
c01022a1:	e8 39 fb ff ff       	call   c0101ddf <io_wait>
c01022a6:	83 ec 08             	sub    $0x8,%esp
c01022a9:	68 ff 00 00 00       	push   $0xff
c01022ae:	68 a1 00 00 00       	push   $0xa1
c01022b3:	e8 56 25 00 00       	call   c010480e <outportb>
c01022b8:	83 c4 10             	add    $0x10,%esp
c01022bb:	90                   	nop
c01022bc:	c9                   	leave
c01022bd:	c3                   	ret

c01022be <polled_sleep>:
c01022be:	55                   	push   %ebp
c01022bf:	89 e5                	mov    %esp,%ebp
c01022c1:	83 ec 28             	sub    $0x28,%esp
c01022c4:	e8 55 fd ff ff       	call   c010201e <get_lapic_timer_count>
c01022c9:	89 45 f4             	mov    %eax,-0xc(%ebp)
c01022cc:	c7 45 f0 00 00 00 00 	movl   $0x0,-0x10(%ebp)
c01022d3:	a1 28 80 10 c0       	mov    0xc0108028,%eax
c01022d8:	8b 55 08             	mov    0x8(%ebp),%edx
c01022db:	0f af c2             	imul   %edx,%eax
c01022de:	89 45 ec             	mov    %eax,-0x14(%ebp)
c01022e1:	c7 45 e8 00 00 00 00 	movl   $0x0,-0x18(%ebp)
c01022e8:	c7 45 e4 00 00 00 00 	movl   $0x0,-0x1c(%ebp)
c01022ef:	83 ec 0c             	sub    $0xc,%esp
c01022f2:	ff 75 ec             	push   -0x14(%ebp)
c01022f5:	e8 1e 00 00 00       	call   c0102318 <arm_interrupt_timer>
c01022fa:	83 c4 10             	add    $0x10,%esp
c01022fd:	90                   	nop
c01022fe:	e8 08 00 00 00       	call   c010230b <poll_timer>
c0102303:	85 c0                	test   %eax,%eax
c0102305:	75 f7                	jne    c01022fe <polled_sleep+0x40>
c0102307:	90                   	nop
c0102308:	90                   	nop
c0102309:	c9                   	leave
c010230a:	c3                   	ret

c010230b <poll_timer>:
c010230b:	55                   	push   %ebp
c010230c:	89 e5                	mov    %esp,%ebp
c010230e:	83 ec 08             	sub    $0x8,%esp
c0102311:	e8 08 fd ff ff       	call   c010201e <get_lapic_timer_count>
c0102316:	c9                   	leave
c0102317:	c3                   	ret

c0102318 <arm_interrupt_timer>:
c0102318:	55                   	push   %ebp
c0102319:	89 e5                	mov    %esp,%ebp
c010231b:	83 ec 08             	sub    $0x8,%esp
c010231e:	83 ec 0c             	sub    $0xc,%esp
c0102321:	68 20 03 00 00       	push   $0x320
c0102326:	e8 9a fc ff ff       	call   c0101fc5 <lapic_read_reg>
c010232b:	83 c4 10             	add    $0x10,%esp
c010232e:	0f b6 c0             	movzbl %al,%eax
c0102331:	83 ec 08             	sub    $0x8,%esp
c0102334:	50                   	push   %eax
c0102335:	68 20 03 00 00       	push   $0x320
c010233a:	e8 66 fc ff ff       	call   c0101fa5 <lapic_write_reg>
c010233f:	83 c4 10             	add    $0x10,%esp
c0102342:	83 ec 0c             	sub    $0xc,%esp
c0102345:	ff 75 08             	push   0x8(%ebp)
c0102348:	e8 b3 fc ff ff       	call   c0102000 <set_initial_lapic_timer_count>
c010234d:	83 c4 10             	add    $0x10,%esp
c0102350:	90                   	nop
c0102351:	c9                   	leave
c0102352:	c3                   	ret

c0102353 <io_wait>:
c0102353:	55                   	push   %ebp
c0102354:	89 e5                	mov    %esp,%ebp
c0102356:	83 ec 08             	sub    $0x8,%esp
c0102359:	83 ec 08             	sub    $0x8,%esp
c010235c:	6a 00                	push   $0x0
c010235e:	68 80 00 00 00       	push   $0x80
c0102363:	e8 a6 24 00 00       	call   c010480e <outportb>
c0102368:	83 c4 10             	add    $0x10,%esp
c010236b:	90                   	nop
c010236c:	c9                   	leave
c010236d:	c3                   	ret

c010236e <handle_masks>:
c010236e:	55                   	push   %ebp
c010236f:	89 e5                	mov    %esp,%ebp
c0102371:	83 7d 08 08          	cmpl   $0x8,0x8(%ebp)
c0102375:	74 1b                	je     c0102392 <handle_masks+0x24>
c0102377:	83 7d 08 08          	cmpl   $0x8,0x8(%ebp)
c010237b:	0f 87 98 00 00 00    	ja     c0102419 <handle_masks+0xab>
c0102381:	83 7d 08 06          	cmpl   $0x6,0x8(%ebp)
c0102385:	74 65                	je     c01023ec <handle_masks+0x7e>
c0102387:	83 7d 08 07          	cmpl   $0x7,0x8(%ebp)
c010238b:	74 32                	je     c01023bf <handle_masks+0x51>
c010238d:	e9 87 00 00 00       	jmp    c0102419 <handle_masks+0xab>
c0102392:	0f b6 05 5e 82 10 c0 	movzbl 0xc010825e,%eax
c0102399:	0f b6 c0             	movzbl %al,%eax
c010239c:	0f b6 94 00 61 80 10 	movzbl -0x3fef7f9f(%eax,%eax,1),%edx
c01023a3:	c0 
c01023a4:	0f b6 05 5e 82 10 c0 	movzbl 0xc010825e,%eax
c01023ab:	0f b6 c0             	movzbl %al,%eax
c01023ae:	83 ca 02             	or     $0x2,%edx
c01023b1:	88 94 00 61 80 10 c0 	mov    %dl,-0x3fef7f9f(%eax,%eax,1)
c01023b8:	b8 01 00 00 00       	mov    $0x1,%eax
c01023bd:	eb 5f                	jmp    c010241e <handle_masks+0xb0>
c01023bf:	0f b6 05 5e 82 10 c0 	movzbl 0xc010825e,%eax
c01023c6:	0f b6 c0             	movzbl %al,%eax
c01023c9:	0f b6 94 00 61 80 10 	movzbl -0x3fef7f9f(%eax,%eax,1),%edx
c01023d0:	c0 
c01023d1:	0f b6 05 5e 82 10 c0 	movzbl 0xc010825e,%eax
c01023d8:	0f b6 c0             	movzbl %al,%eax
c01023db:	83 ca 01             	or     $0x1,%edx
c01023de:	88 94 00 61 80 10 c0 	mov    %dl,-0x3fef7f9f(%eax,%eax,1)
c01023e5:	b8 01 00 00 00       	mov    $0x1,%eax
c01023ea:	eb 32                	jmp    c010241e <handle_masks+0xb0>
c01023ec:	0f b6 05 5e 82 10 c0 	movzbl 0xc010825e,%eax
c01023f3:	0f b6 c0             	movzbl %al,%eax
c01023f6:	0f b6 94 00 61 80 10 	movzbl -0x3fef7f9f(%eax,%eax,1),%edx
c01023fd:	c0 
c01023fe:	0f b6 05 5e 82 10 c0 	movzbl 0xc010825e,%eax
c0102405:	0f b6 c0             	movzbl %al,%eax
c0102408:	83 ca 04             	or     $0x4,%edx
c010240b:	88 94 00 61 80 10 c0 	mov    %dl,-0x3fef7f9f(%eax,%eax,1)
c0102412:	b8 01 00 00 00       	mov    $0x1,%eax
c0102417:	eb 05                	jmp    c010241e <handle_masks+0xb0>
c0102419:	b8 00 00 00 00       	mov    $0x0,%eax
c010241e:	5d                   	pop    %ebp
c010241f:	c3                   	ret

c0102420 <handle_keychange>:
c0102420:	55                   	push   %ebp
c0102421:	89 e5                	mov    %esp,%ebp
c0102423:	83 ec 18             	sub    $0x18,%esp
c0102426:	a1 44 80 10 c0       	mov    0xc0108044,%eax
c010242b:	83 ec 04             	sub    $0x4,%esp
c010242e:	6a 04                	push   $0x4
c0102430:	6a 00                	push   $0x0
c0102432:	50                   	push   %eax
c0102433:	e8 cf f4 ff ff       	call   c0101907 <memset>
c0102438:	83 c4 10             	add    $0x10,%esp
c010243b:	c7 45 f4 00 00 00 00 	movl   $0x0,-0xc(%ebp)
c0102442:	eb 2b                	jmp    c010246f <handle_keychange+0x4f>
c0102444:	83 ec 0c             	sub    $0xc,%esp
c0102447:	6a 60                	push   $0x60
c0102449:	e8 a7 23 00 00       	call   c01047f5 <inportb>
c010244e:	83 c4 10             	add    $0x10,%esp
c0102451:	88 45 f3             	mov    %al,-0xd(%ebp)
c0102454:	8b 15 44 80 10 c0    	mov    0xc0108044,%edx
c010245a:	8b 45 f4             	mov    -0xc(%ebp),%eax
c010245d:	01 c2                	add    %eax,%edx
c010245f:	0f b6 45 f3          	movzbl -0xd(%ebp),%eax
c0102463:	88 02                	mov    %al,(%edx)
c0102465:	80 7d f3 e0          	cmpb   $0xe0,-0xd(%ebp)
c0102469:	75 0c                	jne    c0102477 <handle_keychange+0x57>
c010246b:	83 45 f4 01          	addl   $0x1,-0xc(%ebp)
c010246f:	83 7d f4 03          	cmpl   $0x3,-0xc(%ebp)
c0102473:	7e cf                	jle    c0102444 <handle_keychange+0x24>
c0102475:	eb 01                	jmp    c0102478 <handle_keychange+0x58>
c0102477:	90                   	nop
c0102478:	0f b6 05 5e 82 10 c0 	movzbl 0xc010825e,%eax
c010247f:	0f b6 c0             	movzbl %al,%eax
c0102482:	8d 48 01             	lea    0x1(%eax),%ecx
c0102485:	ba 81 80 80 80       	mov    $0x80808081,%edx
c010248a:	89 c8                	mov    %ecx,%eax
c010248c:	f7 ea                	imul   %edx
c010248e:	8d 04 0a             	lea    (%edx,%ecx,1),%eax
c0102491:	c1 f8 07             	sar    $0x7,%eax
c0102494:	89 c2                	mov    %eax,%edx
c0102496:	89 c8                	mov    %ecx,%eax
c0102498:	c1 f8 1f             	sar    $0x1f,%eax
c010249b:	29 c2                	sub    %eax,%edx
c010249d:	89 d0                	mov    %edx,%eax
c010249f:	c1 e0 08             	shl    $0x8,%eax
c01024a2:	29 d0                	sub    %edx,%eax
c01024a4:	29 c1                	sub    %eax,%ecx
c01024a6:	89 ca                	mov    %ecx,%edx
c01024a8:	89 d0                	mov    %edx,%eax
c01024aa:	a2 5e 82 10 c0       	mov    %al,0xc010825e
c01024af:	8b 15 44 80 10 c0    	mov    0xc0108044,%edx
c01024b5:	8b 45 f4             	mov    -0xc(%ebp),%eax
c01024b8:	01 d0                	add    %edx,%eax
c01024ba:	0f b6 00             	movzbl (%eax),%eax
c01024bd:	0f b6 c0             	movzbl %al,%eax
c01024c0:	83 e0 7f             	and    $0x7f,%eax
c01024c3:	8b 14 85 20 60 10 c0 	mov    -0x3fef9fe0(,%eax,4),%edx
c01024ca:	0f b6 05 5e 82 10 c0 	movzbl 0xc010825e,%eax
c01024d1:	0f b6 c0             	movzbl %al,%eax
c01024d4:	88 94 00 60 80 10 c0 	mov    %dl,-0x3fef7fa0(%eax,%eax,1)
c01024db:	8b 15 44 80 10 c0    	mov    0xc0108044,%edx
c01024e1:	8b 45 f4             	mov    -0xc(%ebp),%eax
c01024e4:	01 d0                	add    %edx,%eax
c01024e6:	0f b6 00             	movzbl (%eax),%eax
c01024e9:	3c 80                	cmp    $0x80,%al
c01024eb:	76 26                	jbe    c0102513 <handle_keychange+0xf3>
c01024ed:	0f b6 05 5e 82 10 c0 	movzbl 0xc010825e,%eax
c01024f4:	0f b6 c0             	movzbl %al,%eax
c01024f7:	0f b6 94 00 61 80 10 	movzbl -0x3fef7f9f(%eax,%eax,1),%edx
c01024fe:	c0 
c01024ff:	0f b6 05 5e 82 10 c0 	movzbl 0xc010825e,%eax
c0102506:	0f b6 c0             	movzbl %al,%eax
c0102509:	83 ca 08             	or     $0x8,%edx
c010250c:	88 94 00 61 80 10 c0 	mov    %dl,-0x3fef7f9f(%eax,%eax,1)
c0102513:	90                   	nop
c0102514:	c9                   	leave
c0102515:	c3                   	ret

c0102516 <recieve_scancode>:
c0102516:	55                   	push   %ebp
c0102517:	89 e5                	mov    %esp,%ebp
c0102519:	83 ec 14             	sub    $0x14,%esp
c010251c:	8b 45 08             	mov    0x8(%ebp),%eax
c010251f:	88 45 ec             	mov    %al,-0x14(%ebp)
c0102522:	80 7d ec e0          	cmpb   $0xe0,-0x14(%ebp)
c0102526:	74 0a                	je     c0102532 <recieve_scancode+0x1c>
c0102528:	80 7d ec 55          	cmpb   $0x55,-0x14(%ebp)
c010252c:	0f 87 bd 00 00 00    	ja     c01025ef <recieve_scancode+0xd9>
c0102532:	0f b6 05 5f 82 10 c0 	movzbl 0xc010825f,%eax
c0102539:	84 c0                	test   %al,%al
c010253b:	0f 85 81 00 00 00    	jne    c01025c2 <recieve_scancode+0xac>
c0102541:	80 7d ec e0          	cmpb   $0xe0,-0x14(%ebp)
c0102545:	75 0c                	jne    c0102553 <recieve_scancode+0x3d>
c0102547:	c6 05 5f 82 10 c0 01 	movb   $0x1,0xc010825f
c010254e:	e9 a0 00 00 00       	jmp    c01025f3 <recieve_scancode+0xdd>
c0102553:	0f b6 45 ec          	movzbl -0x14(%ebp),%eax
c0102557:	8b 04 85 20 60 10 c0 	mov    -0x3fef9fe0(,%eax,4),%eax
c010255e:	50                   	push   %eax
c010255f:	e8 0a fe ff ff       	call   c010236e <handle_masks>
c0102564:	83 c4 04             	add    $0x4,%esp
c0102567:	84 c0                	test   %al,%al
c0102569:	0f 85 83 00 00 00    	jne    c01025f2 <recieve_scancode+0xdc>
c010256f:	0f b6 05 5e 82 10 c0 	movzbl 0xc010825e,%eax
c0102576:	0f b6 c0             	movzbl %al,%eax
c0102579:	8d 48 01             	lea    0x1(%eax),%ecx
c010257c:	ba 81 80 80 80       	mov    $0x80808081,%edx
c0102581:	89 c8                	mov    %ecx,%eax
c0102583:	f7 ea                	imul   %edx
c0102585:	8d 04 0a             	lea    (%edx,%ecx,1),%eax
c0102588:	c1 f8 07             	sar    $0x7,%eax
c010258b:	89 c2                	mov    %eax,%edx
c010258d:	89 c8                	mov    %ecx,%eax
c010258f:	c1 f8 1f             	sar    $0x1f,%eax
c0102592:	29 c2                	sub    %eax,%edx
c0102594:	89 d0                	mov    %edx,%eax
c0102596:	c1 e0 08             	shl    $0x8,%eax
c0102599:	29 d0                	sub    %edx,%eax
c010259b:	29 c1                	sub    %eax,%ecx
c010259d:	89 ca                	mov    %ecx,%edx
c010259f:	89 d0                	mov    %edx,%eax
c01025a1:	a2 5e 82 10 c0       	mov    %al,0xc010825e
c01025a6:	0f b6 45 ec          	movzbl -0x14(%ebp),%eax
c01025aa:	8b 14 85 20 60 10 c0 	mov    -0x3fef9fe0(,%eax,4),%edx
c01025b1:	0f b6 05 5e 82 10 c0 	movzbl 0xc010825e,%eax
c01025b8:	0f b6 c0             	movzbl %al,%eax
c01025bb:	88 94 00 60 80 10 c0 	mov    %dl,-0x3fef7fa0(%eax,%eax,1)
c01025c2:	0f b6 05 5f 82 10 c0 	movzbl 0xc010825f,%eax
c01025c9:	3c 01                	cmp    $0x1,%al
c01025cb:	75 26                	jne    c01025f3 <recieve_scancode+0xdd>
c01025cd:	c6 05 5f 82 10 c0 00 	movb   $0x0,0xc010825f
c01025d4:	0f b6 45 ec          	movzbl -0x14(%ebp),%eax
c01025d8:	8b 04 85 20 60 10 c0 	mov    -0x3fef9fe0(,%eax,4),%eax
c01025df:	89 45 fc             	mov    %eax,-0x4(%ebp)
c01025e2:	ff 75 fc             	push   -0x4(%ebp)
c01025e5:	e8 84 fd ff ff       	call   c010236e <handle_masks>
c01025ea:	83 c4 04             	add    $0x4,%esp
c01025ed:	eb 04                	jmp    c01025f3 <recieve_scancode+0xdd>
c01025ef:	90                   	nop
c01025f0:	eb 01                	jmp    c01025f3 <recieve_scancode+0xdd>
c01025f2:	90                   	nop
c01025f3:	c9                   	leave
c01025f4:	c3                   	ret

c01025f5 <get_printable_char>:
c01025f5:	55                   	push   %ebp
c01025f6:	89 e5                	mov    %esp,%ebp
c01025f8:	83 ec 10             	sub    $0x10,%esp
c01025fb:	0f b6 45 09          	movzbl 0x9(%ebp),%eax
c01025ff:	83 e0 04             	and    $0x4,%eax
c0102602:	88 45 ff             	mov    %al,-0x1(%ebp)
c0102605:	0f b6 45 08          	movzbl 0x8(%ebp),%eax
c0102609:	0f b6 c0             	movzbl %al,%eax
c010260c:	83 f8 45             	cmp    $0x45,%eax
c010260f:	0f 87 cd 04 00 00    	ja     c0102ae2 <get_printable_char+0x4ed>
c0102615:	8b 04 85 e0 51 10 c0 	mov    -0x3fefae20(,%eax,4),%eax
c010261c:	ff e0                	jmp    *%eax
c010261e:	80 7d ff 00          	cmpb   $0x0,-0x1(%ebp)
c0102622:	74 0a                	je     c010262e <get_printable_char+0x39>
c0102624:	b8 41 00 00 00       	mov    $0x41,%eax
c0102629:	e9 b9 04 00 00       	jmp    c0102ae7 <get_printable_char+0x4f2>
c010262e:	b8 61 00 00 00       	mov    $0x61,%eax
c0102633:	e9 af 04 00 00       	jmp    c0102ae7 <get_printable_char+0x4f2>
c0102638:	80 7d ff 00          	cmpb   $0x0,-0x1(%ebp)
c010263c:	74 0a                	je     c0102648 <get_printable_char+0x53>
c010263e:	b8 42 00 00 00       	mov    $0x42,%eax
c0102643:	e9 9f 04 00 00       	jmp    c0102ae7 <get_printable_char+0x4f2>
c0102648:	b8 62 00 00 00       	mov    $0x62,%eax
c010264d:	e9 95 04 00 00       	jmp    c0102ae7 <get_printable_char+0x4f2>
c0102652:	80 7d ff 00          	cmpb   $0x0,-0x1(%ebp)
c0102656:	74 0a                	je     c0102662 <get_printable_char+0x6d>
c0102658:	b8 43 00 00 00       	mov    $0x43,%eax
c010265d:	e9 85 04 00 00       	jmp    c0102ae7 <get_printable_char+0x4f2>
c0102662:	b8 63 00 00 00       	mov    $0x63,%eax
c0102667:	e9 7b 04 00 00       	jmp    c0102ae7 <get_printable_char+0x4f2>
c010266c:	80 7d ff 00          	cmpb   $0x0,-0x1(%ebp)
c0102670:	74 0a                	je     c010267c <get_printable_char+0x87>
c0102672:	b8 44 00 00 00       	mov    $0x44,%eax
c0102677:	e9 6b 04 00 00       	jmp    c0102ae7 <get_printable_char+0x4f2>
c010267c:	b8 64 00 00 00       	mov    $0x64,%eax
c0102681:	e9 61 04 00 00       	jmp    c0102ae7 <get_printable_char+0x4f2>
c0102686:	80 7d ff 00          	cmpb   $0x0,-0x1(%ebp)
c010268a:	74 0a                	je     c0102696 <get_printable_char+0xa1>
c010268c:	b8 45 00 00 00       	mov    $0x45,%eax
c0102691:	e9 51 04 00 00       	jmp    c0102ae7 <get_printable_char+0x4f2>
c0102696:	b8 65 00 00 00       	mov    $0x65,%eax
c010269b:	e9 47 04 00 00       	jmp    c0102ae7 <get_printable_char+0x4f2>
c01026a0:	80 7d ff 00          	cmpb   $0x0,-0x1(%ebp)
c01026a4:	74 0a                	je     c01026b0 <get_printable_char+0xbb>
c01026a6:	b8 46 00 00 00       	mov    $0x46,%eax
c01026ab:	e9 37 04 00 00       	jmp    c0102ae7 <get_printable_char+0x4f2>
c01026b0:	b8 66 00 00 00       	mov    $0x66,%eax
c01026b5:	e9 2d 04 00 00       	jmp    c0102ae7 <get_printable_char+0x4f2>
c01026ba:	80 7d ff 00          	cmpb   $0x0,-0x1(%ebp)
c01026be:	74 0a                	je     c01026ca <get_printable_char+0xd5>
c01026c0:	b8 47 00 00 00       	mov    $0x47,%eax
c01026c5:	e9 1d 04 00 00       	jmp    c0102ae7 <get_printable_char+0x4f2>
c01026ca:	b8 67 00 00 00       	mov    $0x67,%eax
c01026cf:	e9 13 04 00 00       	jmp    c0102ae7 <get_printable_char+0x4f2>
c01026d4:	80 7d ff 00          	cmpb   $0x0,-0x1(%ebp)
c01026d8:	74 0a                	je     c01026e4 <get_printable_char+0xef>
c01026da:	b8 48 00 00 00       	mov    $0x48,%eax
c01026df:	e9 03 04 00 00       	jmp    c0102ae7 <get_printable_char+0x4f2>
c01026e4:	b8 68 00 00 00       	mov    $0x68,%eax
c01026e9:	e9 f9 03 00 00       	jmp    c0102ae7 <get_printable_char+0x4f2>
c01026ee:	80 7d ff 00          	cmpb   $0x0,-0x1(%ebp)
c01026f2:	74 0a                	je     c01026fe <get_printable_char+0x109>
c01026f4:	b8 49 00 00 00       	mov    $0x49,%eax
c01026f9:	e9 e9 03 00 00       	jmp    c0102ae7 <get_printable_char+0x4f2>
c01026fe:	b8 69 00 00 00       	mov    $0x69,%eax
c0102703:	e9 df 03 00 00       	jmp    c0102ae7 <get_printable_char+0x4f2>
c0102708:	80 7d ff 00          	cmpb   $0x0,-0x1(%ebp)
c010270c:	74 0a                	je     c0102718 <get_printable_char+0x123>
c010270e:	b8 4a 00 00 00       	mov    $0x4a,%eax
c0102713:	e9 cf 03 00 00       	jmp    c0102ae7 <get_printable_char+0x4f2>
c0102718:	b8 6a 00 00 00       	mov    $0x6a,%eax
c010271d:	e9 c5 03 00 00       	jmp    c0102ae7 <get_printable_char+0x4f2>
c0102722:	80 7d ff 00          	cmpb   $0x0,-0x1(%ebp)
c0102726:	74 0a                	je     c0102732 <get_printable_char+0x13d>
c0102728:	b8 4b 00 00 00       	mov    $0x4b,%eax
c010272d:	e9 b5 03 00 00       	jmp    c0102ae7 <get_printable_char+0x4f2>
c0102732:	b8 6b 00 00 00       	mov    $0x6b,%eax
c0102737:	e9 ab 03 00 00       	jmp    c0102ae7 <get_printable_char+0x4f2>
c010273c:	80 7d ff 00          	cmpb   $0x0,-0x1(%ebp)
c0102740:	74 0a                	je     c010274c <get_printable_char+0x157>
c0102742:	b8 4c 00 00 00       	mov    $0x4c,%eax
c0102747:	e9 9b 03 00 00       	jmp    c0102ae7 <get_printable_char+0x4f2>
c010274c:	b8 6c 00 00 00       	mov    $0x6c,%eax
c0102751:	e9 91 03 00 00       	jmp    c0102ae7 <get_printable_char+0x4f2>
c0102756:	80 7d ff 00          	cmpb   $0x0,-0x1(%ebp)
c010275a:	74 0a                	je     c0102766 <get_printable_char+0x171>
c010275c:	b8 4d 00 00 00       	mov    $0x4d,%eax
c0102761:	e9 81 03 00 00       	jmp    c0102ae7 <get_printable_char+0x4f2>
c0102766:	b8 6d 00 00 00       	mov    $0x6d,%eax
c010276b:	e9 77 03 00 00       	jmp    c0102ae7 <get_printable_char+0x4f2>
c0102770:	80 7d ff 00          	cmpb   $0x0,-0x1(%ebp)
c0102774:	74 0a                	je     c0102780 <get_printable_char+0x18b>
c0102776:	b8 4e 00 00 00       	mov    $0x4e,%eax
c010277b:	e9 67 03 00 00       	jmp    c0102ae7 <get_printable_char+0x4f2>
c0102780:	b8 6e 00 00 00       	mov    $0x6e,%eax
c0102785:	e9 5d 03 00 00       	jmp    c0102ae7 <get_printable_char+0x4f2>
c010278a:	80 7d ff 00          	cmpb   $0x0,-0x1(%ebp)
c010278e:	74 0a                	je     c010279a <get_printable_char+0x1a5>
c0102790:	b8 4f 00 00 00       	mov    $0x4f,%eax
c0102795:	e9 4d 03 00 00       	jmp    c0102ae7 <get_printable_char+0x4f2>
c010279a:	b8 6f 00 00 00       	mov    $0x6f,%eax
c010279f:	e9 43 03 00 00       	jmp    c0102ae7 <get_printable_char+0x4f2>
c01027a4:	80 7d ff 00          	cmpb   $0x0,-0x1(%ebp)
c01027a8:	74 0a                	je     c01027b4 <get_printable_char+0x1bf>
c01027aa:	b8 50 00 00 00       	mov    $0x50,%eax
c01027af:	e9 33 03 00 00       	jmp    c0102ae7 <get_printable_char+0x4f2>
c01027b4:	b8 70 00 00 00       	mov    $0x70,%eax
c01027b9:	e9 29 03 00 00       	jmp    c0102ae7 <get_printable_char+0x4f2>
c01027be:	80 7d ff 00          	cmpb   $0x0,-0x1(%ebp)
c01027c2:	74 0a                	je     c01027ce <get_printable_char+0x1d9>
c01027c4:	b8 51 00 00 00       	mov    $0x51,%eax
c01027c9:	e9 19 03 00 00       	jmp    c0102ae7 <get_printable_char+0x4f2>
c01027ce:	b8 71 00 00 00       	mov    $0x71,%eax
c01027d3:	e9 0f 03 00 00       	jmp    c0102ae7 <get_printable_char+0x4f2>
c01027d8:	80 7d ff 00          	cmpb   $0x0,-0x1(%ebp)
c01027dc:	74 0a                	je     c01027e8 <get_printable_char+0x1f3>
c01027de:	b8 52 00 00 00       	mov    $0x52,%eax
c01027e3:	e9 ff 02 00 00       	jmp    c0102ae7 <get_printable_char+0x4f2>
c01027e8:	b8 72 00 00 00       	mov    $0x72,%eax
c01027ed:	e9 f5 02 00 00       	jmp    c0102ae7 <get_printable_char+0x4f2>
c01027f2:	80 7d ff 00          	cmpb   $0x0,-0x1(%ebp)
c01027f6:	74 0a                	je     c0102802 <get_printable_char+0x20d>
c01027f8:	b8 53 00 00 00       	mov    $0x53,%eax
c01027fd:	e9 e5 02 00 00       	jmp    c0102ae7 <get_printable_char+0x4f2>
c0102802:	b8 73 00 00 00       	mov    $0x73,%eax
c0102807:	e9 db 02 00 00       	jmp    c0102ae7 <get_printable_char+0x4f2>
c010280c:	80 7d ff 00          	cmpb   $0x0,-0x1(%ebp)
c0102810:	74 0a                	je     c010281c <get_printable_char+0x227>
c0102812:	b8 54 00 00 00       	mov    $0x54,%eax
c0102817:	e9 cb 02 00 00       	jmp    c0102ae7 <get_printable_char+0x4f2>
c010281c:	b8 74 00 00 00       	mov    $0x74,%eax
c0102821:	e9 c1 02 00 00       	jmp    c0102ae7 <get_printable_char+0x4f2>
c0102826:	80 7d ff 00          	cmpb   $0x0,-0x1(%ebp)
c010282a:	74 0a                	je     c0102836 <get_printable_char+0x241>
c010282c:	b8 55 00 00 00       	mov    $0x55,%eax
c0102831:	e9 b1 02 00 00       	jmp    c0102ae7 <get_printable_char+0x4f2>
c0102836:	b8 75 00 00 00       	mov    $0x75,%eax
c010283b:	e9 a7 02 00 00       	jmp    c0102ae7 <get_printable_char+0x4f2>
c0102840:	80 7d ff 00          	cmpb   $0x0,-0x1(%ebp)
c0102844:	74 0a                	je     c0102850 <get_printable_char+0x25b>
c0102846:	b8 56 00 00 00       	mov    $0x56,%eax
c010284b:	e9 97 02 00 00       	jmp    c0102ae7 <get_printable_char+0x4f2>
c0102850:	b8 76 00 00 00       	mov    $0x76,%eax
c0102855:	e9 8d 02 00 00       	jmp    c0102ae7 <get_printable_char+0x4f2>
c010285a:	80 7d ff 00          	cmpb   $0x0,-0x1(%ebp)
c010285e:	74 0a                	je     c010286a <get_printable_char+0x275>
c0102860:	b8 57 00 00 00       	mov    $0x57,%eax
c0102865:	e9 7d 02 00 00       	jmp    c0102ae7 <get_printable_char+0x4f2>
c010286a:	b8 77 00 00 00       	mov    $0x77,%eax
c010286f:	e9 73 02 00 00       	jmp    c0102ae7 <get_printable_char+0x4f2>
c0102874:	80 7d ff 00          	cmpb   $0x0,-0x1(%ebp)
c0102878:	74 0a                	je     c0102884 <get_printable_char+0x28f>
c010287a:	b8 58 00 00 00       	mov    $0x58,%eax
c010287f:	e9 63 02 00 00       	jmp    c0102ae7 <get_printable_char+0x4f2>
c0102884:	b8 78 00 00 00       	mov    $0x78,%eax
c0102889:	e9 59 02 00 00       	jmp    c0102ae7 <get_printable_char+0x4f2>
c010288e:	80 7d ff 00          	cmpb   $0x0,-0x1(%ebp)
c0102892:	74 0a                	je     c010289e <get_printable_char+0x2a9>
c0102894:	b8 59 00 00 00       	mov    $0x59,%eax
c0102899:	e9 49 02 00 00       	jmp    c0102ae7 <get_printable_char+0x4f2>
c010289e:	b8 79 00 00 00       	mov    $0x79,%eax
c01028a3:	e9 3f 02 00 00       	jmp    c0102ae7 <get_printable_char+0x4f2>
c01028a8:	80 7d ff 00          	cmpb   $0x0,-0x1(%ebp)
c01028ac:	74 0a                	je     c01028b8 <get_printable_char+0x2c3>
c01028ae:	b8 5a 00 00 00       	mov    $0x5a,%eax
c01028b3:	e9 2f 02 00 00       	jmp    c0102ae7 <get_printable_char+0x4f2>
c01028b8:	b8 7a 00 00 00       	mov    $0x7a,%eax
c01028bd:	e9 25 02 00 00       	jmp    c0102ae7 <get_printable_char+0x4f2>
c01028c2:	80 7d ff 00          	cmpb   $0x0,-0x1(%ebp)
c01028c6:	74 0a                	je     c01028d2 <get_printable_char+0x2dd>
c01028c8:	b8 21 00 00 00       	mov    $0x21,%eax
c01028cd:	e9 15 02 00 00       	jmp    c0102ae7 <get_printable_char+0x4f2>
c01028d2:	b8 31 00 00 00       	mov    $0x31,%eax
c01028d7:	e9 0b 02 00 00       	jmp    c0102ae7 <get_printable_char+0x4f2>
c01028dc:	80 7d ff 00          	cmpb   $0x0,-0x1(%ebp)
c01028e0:	74 0a                	je     c01028ec <get_printable_char+0x2f7>
c01028e2:	b8 40 00 00 00       	mov    $0x40,%eax
c01028e7:	e9 fb 01 00 00       	jmp    c0102ae7 <get_printable_char+0x4f2>
c01028ec:	b8 32 00 00 00       	mov    $0x32,%eax
c01028f1:	e9 f1 01 00 00       	jmp    c0102ae7 <get_printable_char+0x4f2>
c01028f6:	80 7d ff 00          	cmpb   $0x0,-0x1(%ebp)
c01028fa:	74 0a                	je     c0102906 <get_printable_char+0x311>
c01028fc:	b8 23 00 00 00       	mov    $0x23,%eax
c0102901:	e9 e1 01 00 00       	jmp    c0102ae7 <get_printable_char+0x4f2>
c0102906:	b8 33 00 00 00       	mov    $0x33,%eax
c010290b:	e9 d7 01 00 00       	jmp    c0102ae7 <get_printable_char+0x4f2>
c0102910:	80 7d ff 00          	cmpb   $0x0,-0x1(%ebp)
c0102914:	74 0a                	je     c0102920 <get_printable_char+0x32b>
c0102916:	b8 24 00 00 00       	mov    $0x24,%eax
c010291b:	e9 c7 01 00 00       	jmp    c0102ae7 <get_printable_char+0x4f2>
c0102920:	b8 34 00 00 00       	mov    $0x34,%eax
c0102925:	e9 bd 01 00 00       	jmp    c0102ae7 <get_printable_char+0x4f2>
c010292a:	80 7d ff 00          	cmpb   $0x0,-0x1(%ebp)
c010292e:	74 0a                	je     c010293a <get_printable_char+0x345>
c0102930:	b8 25 00 00 00       	mov    $0x25,%eax
c0102935:	e9 ad 01 00 00       	jmp    c0102ae7 <get_printable_char+0x4f2>
c010293a:	b8 35 00 00 00       	mov    $0x35,%eax
c010293f:	e9 a3 01 00 00       	jmp    c0102ae7 <get_printable_char+0x4f2>
c0102944:	80 7d ff 00          	cmpb   $0x0,-0x1(%ebp)
c0102948:	74 0a                	je     c0102954 <get_printable_char+0x35f>
c010294a:	b8 5e 00 00 00       	mov    $0x5e,%eax
c010294f:	e9 93 01 00 00       	jmp    c0102ae7 <get_printable_char+0x4f2>
c0102954:	b8 36 00 00 00       	mov    $0x36,%eax
c0102959:	e9 89 01 00 00       	jmp    c0102ae7 <get_printable_char+0x4f2>
c010295e:	80 7d ff 00          	cmpb   $0x0,-0x1(%ebp)
c0102962:	74 0a                	je     c010296e <get_printable_char+0x379>
c0102964:	b8 26 00 00 00       	mov    $0x26,%eax
c0102969:	e9 79 01 00 00       	jmp    c0102ae7 <get_printable_char+0x4f2>
c010296e:	b8 37 00 00 00       	mov    $0x37,%eax
c0102973:	e9 6f 01 00 00       	jmp    c0102ae7 <get_printable_char+0x4f2>
c0102978:	80 7d ff 00          	cmpb   $0x0,-0x1(%ebp)
c010297c:	74 0a                	je     c0102988 <get_printable_char+0x393>
c010297e:	b8 2a 00 00 00       	mov    $0x2a,%eax
c0102983:	e9 5f 01 00 00       	jmp    c0102ae7 <get_printable_char+0x4f2>
c0102988:	b8 38 00 00 00       	mov    $0x38,%eax
c010298d:	e9 55 01 00 00       	jmp    c0102ae7 <get_printable_char+0x4f2>
c0102992:	80 7d ff 00          	cmpb   $0x0,-0x1(%ebp)
c0102996:	74 0a                	je     c01029a2 <get_printable_char+0x3ad>
c0102998:	b8 28 00 00 00       	mov    $0x28,%eax
c010299d:	e9 45 01 00 00       	jmp    c0102ae7 <get_printable_char+0x4f2>
c01029a2:	b8 39 00 00 00       	mov    $0x39,%eax
c01029a7:	e9 3b 01 00 00       	jmp    c0102ae7 <get_printable_char+0x4f2>
c01029ac:	80 7d ff 00          	cmpb   $0x0,-0x1(%ebp)
c01029b0:	74 0a                	je     c01029bc <get_printable_char+0x3c7>
c01029b2:	b8 29 00 00 00       	mov    $0x29,%eax
c01029b7:	e9 2b 01 00 00       	jmp    c0102ae7 <get_printable_char+0x4f2>
c01029bc:	b8 30 00 00 00       	mov    $0x30,%eax
c01029c1:	e9 21 01 00 00       	jmp    c0102ae7 <get_printable_char+0x4f2>
c01029c6:	80 7d ff 00          	cmpb   $0x0,-0x1(%ebp)
c01029ca:	74 0a                	je     c01029d6 <get_printable_char+0x3e1>
c01029cc:	b8 7b 00 00 00       	mov    $0x7b,%eax
c01029d1:	e9 11 01 00 00       	jmp    c0102ae7 <get_printable_char+0x4f2>
c01029d6:	b8 5b 00 00 00       	mov    $0x5b,%eax
c01029db:	e9 07 01 00 00       	jmp    c0102ae7 <get_printable_char+0x4f2>
c01029e0:	80 7d ff 00          	cmpb   $0x0,-0x1(%ebp)
c01029e4:	74 0a                	je     c01029f0 <get_printable_char+0x3fb>
c01029e6:	b8 7d 00 00 00       	mov    $0x7d,%eax
c01029eb:	e9 f7 00 00 00       	jmp    c0102ae7 <get_printable_char+0x4f2>
c01029f0:	b8 5d 00 00 00       	mov    $0x5d,%eax
c01029f5:	e9 ed 00 00 00       	jmp    c0102ae7 <get_printable_char+0x4f2>
c01029fa:	80 7d ff 00          	cmpb   $0x0,-0x1(%ebp)
c01029fe:	74 0a                	je     c0102a0a <get_printable_char+0x415>
c0102a00:	b8 3f 00 00 00       	mov    $0x3f,%eax
c0102a05:	e9 dd 00 00 00       	jmp    c0102ae7 <get_printable_char+0x4f2>
c0102a0a:	b8 2f 00 00 00       	mov    $0x2f,%eax
c0102a0f:	e9 d3 00 00 00       	jmp    c0102ae7 <get_printable_char+0x4f2>
c0102a14:	80 7d ff 00          	cmpb   $0x0,-0x1(%ebp)
c0102a18:	74 0a                	je     c0102a24 <get_printable_char+0x42f>
c0102a1a:	b8 7c 00 00 00       	mov    $0x7c,%eax
c0102a1f:	e9 c3 00 00 00       	jmp    c0102ae7 <get_printable_char+0x4f2>
c0102a24:	b8 5c 00 00 00       	mov    $0x5c,%eax
c0102a29:	e9 b9 00 00 00       	jmp    c0102ae7 <get_printable_char+0x4f2>
c0102a2e:	80 7d ff 00          	cmpb   $0x0,-0x1(%ebp)
c0102a32:	74 0a                	je     c0102a3e <get_printable_char+0x449>
c0102a34:	b8 22 00 00 00       	mov    $0x22,%eax
c0102a39:	e9 a9 00 00 00       	jmp    c0102ae7 <get_printable_char+0x4f2>
c0102a3e:	b8 27 00 00 00       	mov    $0x27,%eax
c0102a43:	e9 9f 00 00 00       	jmp    c0102ae7 <get_printable_char+0x4f2>
c0102a48:	80 7d ff 00          	cmpb   $0x0,-0x1(%ebp)
c0102a4c:	74 0a                	je     c0102a58 <get_printable_char+0x463>
c0102a4e:	b8 3a 00 00 00       	mov    $0x3a,%eax
c0102a53:	e9 8f 00 00 00       	jmp    c0102ae7 <get_printable_char+0x4f2>
c0102a58:	b8 3b 00 00 00       	mov    $0x3b,%eax
c0102a5d:	e9 85 00 00 00       	jmp    c0102ae7 <get_printable_char+0x4f2>
c0102a62:	80 7d ff 00          	cmpb   $0x0,-0x1(%ebp)
c0102a66:	74 07                	je     c0102a6f <get_printable_char+0x47a>
c0102a68:	b8 3e 00 00 00       	mov    $0x3e,%eax
c0102a6d:	eb 78                	jmp    c0102ae7 <get_printable_char+0x4f2>
c0102a6f:	b8 2e 00 00 00       	mov    $0x2e,%eax
c0102a74:	eb 71                	jmp    c0102ae7 <get_printable_char+0x4f2>
c0102a76:	80 7d ff 00          	cmpb   $0x0,-0x1(%ebp)
c0102a7a:	74 07                	je     c0102a83 <get_printable_char+0x48e>
c0102a7c:	b8 3c 00 00 00       	mov    $0x3c,%eax
c0102a81:	eb 64                	jmp    c0102ae7 <get_printable_char+0x4f2>
c0102a83:	b8 2c 00 00 00       	mov    $0x2c,%eax
c0102a88:	eb 5d                	jmp    c0102ae7 <get_printable_char+0x4f2>
c0102a8a:	80 7d ff 00          	cmpb   $0x0,-0x1(%ebp)
c0102a8e:	74 07                	je     c0102a97 <get_printable_char+0x4a2>
c0102a90:	b8 2b 00 00 00       	mov    $0x2b,%eax
c0102a95:	eb 50                	jmp    c0102ae7 <get_printable_char+0x4f2>
c0102a97:	b8 3d 00 00 00       	mov    $0x3d,%eax
c0102a9c:	eb 49                	jmp    c0102ae7 <get_printable_char+0x4f2>
c0102a9e:	80 7d ff 00          	cmpb   $0x0,-0x1(%ebp)
c0102aa2:	74 07                	je     c0102aab <get_printable_char+0x4b6>
c0102aa4:	b8 5f 00 00 00       	mov    $0x5f,%eax
c0102aa9:	eb 3c                	jmp    c0102ae7 <get_printable_char+0x4f2>
c0102aab:	b8 2d 00 00 00       	mov    $0x2d,%eax
c0102ab0:	eb 35                	jmp    c0102ae7 <get_printable_char+0x4f2>
c0102ab2:	80 7d ff 00          	cmpb   $0x0,-0x1(%ebp)
c0102ab6:	74 07                	je     c0102abf <get_printable_char+0x4ca>
c0102ab8:	b8 7e 00 00 00       	mov    $0x7e,%eax
c0102abd:	eb 28                	jmp    c0102ae7 <get_printable_char+0x4f2>
c0102abf:	b8 60 00 00 00       	mov    $0x60,%eax
c0102ac4:	eb 21                	jmp    c0102ae7 <get_printable_char+0x4f2>
c0102ac6:	b8 20 00 00 00       	mov    $0x20,%eax
c0102acb:	eb 1a                	jmp    c0102ae7 <get_printable_char+0x4f2>
c0102acd:	b8 09 00 00 00       	mov    $0x9,%eax
c0102ad2:	eb 13                	jmp    c0102ae7 <get_printable_char+0x4f2>
c0102ad4:	b8 08 00 00 00       	mov    $0x8,%eax
c0102ad9:	eb 0c                	jmp    c0102ae7 <get_printable_char+0x4f2>
c0102adb:	b8 0a 00 00 00       	mov    $0xa,%eax
c0102ae0:	eb 05                	jmp    c0102ae7 <get_printable_char+0x4f2>
c0102ae2:	b8 00 00 00 00       	mov    $0x0,%eax
c0102ae7:	c9                   	leave
c0102ae8:	c3                   	ret

c0102ae9 <init_keyboard>:
c0102ae9:	55                   	push   %ebp
c0102aea:	89 e5                	mov    %esp,%ebp
c0102aec:	83 ec 18             	sub    $0x18,%esp
c0102aef:	83 ec 08             	sub    $0x8,%esp
c0102af2:	6a 20                	push   $0x20
c0102af4:	6a 64                	push   $0x64
c0102af6:	e8 13 1d 00 00       	call   c010480e <outportb>
c0102afb:	83 c4 10             	add    $0x10,%esp
c0102afe:	83 ec 0c             	sub    $0xc,%esp
c0102b01:	6a 60                	push   $0x60
c0102b03:	e8 ed 1c 00 00       	call   c01047f5 <inportb>
c0102b08:	83 c4 10             	add    $0x10,%esp
c0102b0b:	88 45 f7             	mov    %al,-0x9(%ebp)
c0102b0e:	e8 40 f8 ff ff       	call   c0102353 <io_wait>
c0102b13:	0f b6 45 f7          	movzbl -0x9(%ebp),%eax
c0102b17:	83 ec 08             	sub    $0x8,%esp
c0102b1a:	50                   	push   %eax
c0102b1b:	68 f8 52 10 c0       	push   $0xc01052f8
c0102b20:	e8 fb 1f 00 00       	call   c0104b20 <logf>
c0102b25:	83 c4 10             	add    $0x10,%esp
c0102b28:	83 ec 08             	sub    $0x8,%esp
c0102b2b:	68 f0 00 00 00       	push   $0xf0
c0102b30:	6a 60                	push   $0x60
c0102b32:	e8 d7 1c 00 00       	call   c010480e <outportb>
c0102b37:	83 c4 10             	add    $0x10,%esp
c0102b3a:	e8 14 f8 ff ff       	call   c0102353 <io_wait>
c0102b3f:	83 ec 08             	sub    $0x8,%esp
c0102b42:	6a 02                	push   $0x2
c0102b44:	6a 60                	push   $0x60
c0102b46:	e8 c3 1c 00 00       	call   c010480e <outportb>
c0102b4b:	83 c4 10             	add    $0x10,%esp
c0102b4e:	e8 00 f8 ff ff       	call   c0102353 <io_wait>
c0102b53:	83 ec 0c             	sub    $0xc,%esp
c0102b56:	6a 60                	push   $0x60
c0102b58:	e8 98 1c 00 00       	call   c01047f5 <inportb>
c0102b5d:	83 c4 10             	add    $0x10,%esp
c0102b60:	88 45 f6             	mov    %al,-0xa(%ebp)
c0102b63:	e8 eb f7 ff ff       	call   c0102353 <io_wait>
c0102b68:	83 ec 0c             	sub    $0xc,%esp
c0102b6b:	6a 60                	push   $0x60
c0102b6d:	e8 83 1c 00 00       	call   c01047f5 <inportb>
c0102b72:	83 c4 10             	add    $0x10,%esp
c0102b75:	88 45 f5             	mov    %al,-0xb(%ebp)
c0102b78:	0f b6 55 f5          	movzbl -0xb(%ebp),%edx
c0102b7c:	0f b6 45 f6          	movzbl -0xa(%ebp),%eax
c0102b80:	83 ec 04             	sub    $0x4,%esp
c0102b83:	52                   	push   %edx
c0102b84:	50                   	push   %eax
c0102b85:	68 08 53 10 c0       	push   $0xc0105308
c0102b8a:	e8 e8 e9 ff ff       	call   c0101577 <printf>
c0102b8f:	83 c4 10             	add    $0x10,%esp
c0102b92:	0f b6 45 f7          	movzbl -0x9(%ebp),%eax
c0102b96:	c0 e8 06             	shr    $0x6,%al
c0102b99:	84 c0                	test   %al,%al
c0102b9b:	75 18                	jne    c0102bb5 <init_keyboard+0xcc>
c0102b9d:	80 7d f5 43          	cmpb   $0x43,-0xb(%ebp)
c0102ba1:	74 12                	je     c0102bb5 <init_keyboard+0xcc>
c0102ba3:	83 ec 0c             	sub    $0xc,%esp
c0102ba6:	68 2c 53 10 c0       	push   $0xc010532c
c0102bab:	e8 e9 20 00 00       	call   c0104c99 <panic>
c0102bb0:	83 c4 10             	add    $0x10,%esp
c0102bb3:	eb 10                	jmp    c0102bc5 <init_keyboard+0xdc>
c0102bb5:	83 ec 0c             	sub    $0xc,%esp
c0102bb8:	68 54 53 10 c0       	push   $0xc0105354
c0102bbd:	e8 5e 1f 00 00       	call   c0104b20 <logf>
c0102bc2:	83 c4 10             	add    $0x10,%esp
c0102bc5:	83 ec 0c             	sub    $0xc,%esp
c0102bc8:	6a 04                	push   $0x4
c0102bca:	e8 12 ee ff ff       	call   c01019e1 <kalloc>
c0102bcf:	83 c4 10             	add    $0x10,%esp
c0102bd2:	a3 44 80 10 c0       	mov    %eax,0xc0108044
c0102bd7:	c6 45 f4 12          	movb   $0x12,-0xc(%ebp)
c0102bdb:	0f b6 45 f4          	movzbl -0xc(%ebp),%eax
c0102bdf:	83 ec 08             	sub    $0x8,%esp
c0102be2:	6a 32                	push   $0x32
c0102be4:	50                   	push   %eax
c0102be5:	e8 c3 f2 ff ff       	call   c0101ead <write_ioapic_register>
c0102bea:	83 c4 10             	add    $0x10,%esp
c0102bed:	83 ec 0c             	sub    $0xc,%esp
c0102bf0:	68 78 53 10 c0       	push   $0xc0105378
c0102bf5:	e8 7d e9 ff ff       	call   c0101577 <printf>
c0102bfa:	83 c4 10             	add    $0x10,%esp
c0102bfd:	90                   	nop
c0102bfe:	c9                   	leave
c0102bff:	c3                   	ret

c0102c00 <fb_set_width>:
c0102c00:	55                   	push   %ebp
c0102c01:	89 e5                	mov    %esp,%ebp
c0102c03:	83 ec 04             	sub    $0x4,%esp
c0102c06:	8b 45 08             	mov    0x8(%ebp),%eax
c0102c09:	66 89 45 fc          	mov    %ax,-0x4(%ebp)
c0102c0d:	0f b7 45 fc          	movzwl -0x4(%ebp),%eax
c0102c11:	66 a3 6c 82 10 c0    	mov    %ax,0xc010826c
c0102c17:	90                   	nop
c0102c18:	c9                   	leave
c0102c19:	c3                   	ret

c0102c1a <fb_set_height>:
c0102c1a:	55                   	push   %ebp
c0102c1b:	89 e5                	mov    %esp,%ebp
c0102c1d:	83 ec 04             	sub    $0x4,%esp
c0102c20:	8b 45 08             	mov    0x8(%ebp),%eax
c0102c23:	66 89 45 fc          	mov    %ax,-0x4(%ebp)
c0102c27:	0f b7 45 fc          	movzwl -0x4(%ebp),%eax
c0102c2b:	66 a3 6e 82 10 c0    	mov    %ax,0xc010826e
c0102c31:	90                   	nop
c0102c32:	c9                   	leave
c0102c33:	c3                   	ret

c0102c34 <fb_put_glyph>:
c0102c34:	55                   	push   %ebp
c0102c35:	89 e5                	mov    %esp,%ebp
c0102c37:	56                   	push   %esi
c0102c38:	53                   	push   %ebx
c0102c39:	83 ec 30             	sub    $0x30,%esp
c0102c3c:	8b 5d 08             	mov    0x8(%ebp),%ebx
c0102c3f:	8b 4d 0c             	mov    0xc(%ebp),%ecx
c0102c42:	8b 55 10             	mov    0x10(%ebp),%edx
c0102c45:	8b 45 1c             	mov    0x1c(%ebp),%eax
c0102c48:	88 5d d4             	mov    %bl,-0x2c(%ebp)
c0102c4b:	66 89 4d d0          	mov    %cx,-0x30(%ebp)
c0102c4f:	66 89 55 cc          	mov    %dx,-0x34(%ebp)
c0102c53:	66 89 45 c8          	mov    %ax,-0x38(%ebp)
c0102c57:	0f be 45 d4          	movsbl -0x2c(%ebp),%eax
c0102c5b:	83 ec 0c             	sub    $0xc,%esp
c0102c5e:	50                   	push   %eax
c0102c5f:	e8 1c 01 00 00       	call   c0102d80 <get_glyph>
c0102c64:	83 c4 10             	add    $0x10,%esp
c0102c67:	89 45 f4             	mov    %eax,-0xc(%ebp)
c0102c6a:	8b 45 14             	mov    0x14(%ebp),%eax
c0102c6d:	c1 e8 18             	shr    $0x18,%eax
c0102c70:	88 45 e7             	mov    %al,-0x19(%ebp)
c0102c73:	8b 45 14             	mov    0x14(%ebp),%eax
c0102c76:	c1 e8 10             	shr    $0x10,%eax
c0102c79:	88 45 e6             	mov    %al,-0x1a(%ebp)
c0102c7c:	8b 45 14             	mov    0x14(%ebp),%eax
c0102c7f:	c1 e8 08             	shr    $0x8,%eax
c0102c82:	88 45 e5             	mov    %al,-0x1b(%ebp)
c0102c85:	8b 45 18             	mov    0x18(%ebp),%eax
c0102c88:	c1 e8 18             	shr    $0x18,%eax
c0102c8b:	88 45 e4             	mov    %al,-0x1c(%ebp)
c0102c8e:	8b 45 18             	mov    0x18(%ebp),%eax
c0102c91:	c1 e8 10             	shr    $0x10,%eax
c0102c94:	88 45 e3             	mov    %al,-0x1d(%ebp)
c0102c97:	8b 45 18             	mov    0x18(%ebp),%eax
c0102c9a:	c1 e8 08             	shr    $0x8,%eax
c0102c9d:	88 45 e2             	mov    %al,-0x1e(%ebp)
c0102ca0:	c7 45 f0 00 00 00 00 	movl   $0x0,-0x10(%ebp)
c0102ca7:	e9 b6 00 00 00       	jmp    c0102d62 <fb_put_glyph+0x12e>
c0102cac:	0f b7 55 cc          	movzwl -0x34(%ebp),%edx
c0102cb0:	0f b7 45 d0          	movzwl -0x30(%ebp),%eax
c0102cb4:	83 ec 08             	sub    $0x8,%esp
c0102cb7:	52                   	push   %edx
c0102cb8:	50                   	push   %eax
c0102cb9:	e8 cf 0b 00 00       	call   c010388d <get_pixel_addr>
c0102cbe:	83 c4 10             	add    $0x10,%esp
c0102cc1:	89 45 ec             	mov    %eax,-0x14(%ebp)
c0102cc4:	c7 45 e8 07 00 00 00 	movl   $0x7,-0x18(%ebp)
c0102ccb:	eb 7b                	jmp    c0102d48 <fb_put_glyph+0x114>
c0102ccd:	8b 45 f4             	mov    -0xc(%ebp),%eax
c0102cd0:	0f b6 00             	movzbl (%eax),%eax
c0102cd3:	0f b6 d0             	movzbl %al,%edx
c0102cd6:	8b 45 e8             	mov    -0x18(%ebp),%eax
c0102cd9:	89 c1                	mov    %eax,%ecx
c0102cdb:	d3 fa                	sar    %cl,%edx
c0102cdd:	89 d0                	mov    %edx,%eax
c0102cdf:	83 e0 01             	and    $0x1,%eax
c0102ce2:	85 c0                	test   %eax,%eax
c0102ce4:	74 2b                	je     c0102d11 <fb_put_glyph+0xdd>
c0102ce6:	0f b6 75 e5          	movzbl -0x1b(%ebp),%esi
c0102cea:	0f b6 5d e6          	movzbl -0x1a(%ebp),%ebx
c0102cee:	0f b6 4d e7          	movzbl -0x19(%ebp),%ecx
c0102cf2:	0f b7 55 c8          	movzwl -0x38(%ebp),%edx
c0102cf6:	0f b7 45 c8          	movzwl -0x38(%ebp),%eax
c0102cfa:	83 ec 04             	sub    $0x4,%esp
c0102cfd:	6a 00                	push   $0x0
c0102cff:	56                   	push   %esi
c0102d00:	53                   	push   %ebx
c0102d01:	51                   	push   %ecx
c0102d02:	52                   	push   %edx
c0102d03:	50                   	push   %eax
c0102d04:	ff 75 ec             	push   -0x14(%ebp)
c0102d07:	e8 9a 00 00 00       	call   c0102da6 <fill_square>
c0102d0c:	83 c4 20             	add    $0x20,%esp
c0102d0f:	eb 29                	jmp    c0102d3a <fb_put_glyph+0x106>
c0102d11:	0f b6 75 e2          	movzbl -0x1e(%ebp),%esi
c0102d15:	0f b6 5d e3          	movzbl -0x1d(%ebp),%ebx
c0102d19:	0f b6 4d e4          	movzbl -0x1c(%ebp),%ecx
c0102d1d:	0f b7 55 c8          	movzwl -0x38(%ebp),%edx
c0102d21:	0f b7 45 c8          	movzwl -0x38(%ebp),%eax
c0102d25:	83 ec 04             	sub    $0x4,%esp
c0102d28:	6a 00                	push   $0x0
c0102d2a:	56                   	push   %esi
c0102d2b:	53                   	push   %ebx
c0102d2c:	51                   	push   %ecx
c0102d2d:	52                   	push   %edx
c0102d2e:	50                   	push   %eax
c0102d2f:	ff 75 ec             	push   -0x14(%ebp)
c0102d32:	e8 6f 00 00 00       	call   c0102da6 <fill_square>
c0102d37:	83 c4 20             	add    $0x20,%esp
c0102d3a:	0f b7 45 c8          	movzwl -0x38(%ebp),%eax
c0102d3e:	c1 e0 02             	shl    $0x2,%eax
c0102d41:	01 45 ec             	add    %eax,-0x14(%ebp)
c0102d44:	83 6d e8 01          	subl   $0x1,-0x18(%ebp)
c0102d48:	83 7d e8 00          	cmpl   $0x0,-0x18(%ebp)
c0102d4c:	0f 89 7b ff ff ff    	jns    c0102ccd <fb_put_glyph+0x99>
c0102d52:	0f b7 45 c8          	movzwl -0x38(%ebp),%eax
c0102d56:	66 01 45 cc          	add    %ax,-0x34(%ebp)
c0102d5a:	83 45 f4 01          	addl   $0x1,-0xc(%ebp)
c0102d5e:	83 45 f0 01          	addl   $0x1,-0x10(%ebp)
c0102d62:	a1 64 82 10 c0       	mov    0xc0108264,%eax
c0102d67:	0f b6 40 03          	movzbl 0x3(%eax),%eax
c0102d6b:	0f b6 c0             	movzbl %al,%eax
c0102d6e:	39 45 f0             	cmp    %eax,-0x10(%ebp)
c0102d71:	0f 8c 35 ff ff ff    	jl     c0102cac <fb_put_glyph+0x78>
c0102d77:	90                   	nop
c0102d78:	90                   	nop
c0102d79:	8d 65 f8             	lea    -0x8(%ebp),%esp
c0102d7c:	5b                   	pop    %ebx
c0102d7d:	5e                   	pop    %esi
c0102d7e:	5d                   	pop    %ebp
c0102d7f:	c3                   	ret

c0102d80 <get_glyph>:
c0102d80:	55                   	push   %ebp
c0102d81:	89 e5                	mov    %esp,%ebp
c0102d83:	83 ec 10             	sub    $0x10,%esp
c0102d86:	a1 64 82 10 c0       	mov    0xc0108264,%eax
c0102d8b:	0f b6 40 03          	movzbl 0x3(%eax),%eax
c0102d8f:	0f b6 c0             	movzbl %al,%eax
c0102d92:	0f af 45 08          	imul   0x8(%ebp),%eax
c0102d96:	83 c0 04             	add    $0x4,%eax
c0102d99:	05 90 61 10 c0       	add    $0xc0106190,%eax
c0102d9e:	89 45 fc             	mov    %eax,-0x4(%ebp)
c0102da1:	8b 45 fc             	mov    -0x4(%ebp),%eax
c0102da4:	c9                   	leave
c0102da5:	c3                   	ret

c0102da6 <fill_square>:
c0102da6:	55                   	push   %ebp
c0102da7:	89 e5                	mov    %esp,%ebp
c0102da9:	57                   	push   %edi
c0102daa:	56                   	push   %esi
c0102dab:	53                   	push   %ebx
c0102dac:	83 ec 28             	sub    $0x28,%esp
c0102daf:	8b 7d 0c             	mov    0xc(%ebp),%edi
c0102db2:	8b 75 10             	mov    0x10(%ebp),%esi
c0102db5:	8b 5d 14             	mov    0x14(%ebp),%ebx
c0102db8:	8b 4d 18             	mov    0x18(%ebp),%ecx
c0102dbb:	8b 55 1c             	mov    0x1c(%ebp),%edx
c0102dbe:	8b 45 20             	mov    0x20(%ebp),%eax
c0102dc1:	66 89 7d e0          	mov    %di,-0x20(%ebp)
c0102dc5:	66 89 75 dc          	mov    %si,-0x24(%ebp)
c0102dc9:	88 5d d8             	mov    %bl,-0x28(%ebp)
c0102dcc:	88 4d d4             	mov    %cl,-0x2c(%ebp)
c0102dcf:	88 55 d0             	mov    %dl,-0x30(%ebp)
c0102dd2:	88 45 cc             	mov    %al,-0x34(%ebp)
c0102dd5:	8b 45 08             	mov    0x8(%ebp),%eax
c0102dd8:	89 45 f0             	mov    %eax,-0x10(%ebp)
c0102ddb:	c6 45 e7 04          	movb   $0x4,-0x19(%ebp)
c0102ddf:	c7 45 ec 00 00 00 00 	movl   $0x0,-0x14(%ebp)
c0102de6:	eb 66                	jmp    c0102e4e <fill_square+0xa8>
c0102de8:	c7 45 e8 00 00 00 00 	movl   $0x0,-0x18(%ebp)
c0102def:	eb 45                	jmp    c0102e36 <fill_square+0x90>
c0102df1:	0f b6 45 e7          	movzbl -0x19(%ebp),%eax
c0102df5:	0f af 45 e8          	imul   -0x18(%ebp),%eax
c0102df9:	89 c2                	mov    %eax,%edx
c0102dfb:	8b 45 f0             	mov    -0x10(%ebp),%eax
c0102dfe:	01 c2                	add    %eax,%edx
c0102e00:	0f b6 45 d0          	movzbl -0x30(%ebp),%eax
c0102e04:	88 02                	mov    %al,(%edx)
c0102e06:	0f b6 45 e7          	movzbl -0x19(%ebp),%eax
c0102e0a:	0f af 45 e8          	imul   -0x18(%ebp),%eax
c0102e0e:	8d 50 01             	lea    0x1(%eax),%edx
c0102e11:	8b 45 f0             	mov    -0x10(%ebp),%eax
c0102e14:	01 c2                	add    %eax,%edx
c0102e16:	0f b6 45 d4          	movzbl -0x2c(%ebp),%eax
c0102e1a:	88 02                	mov    %al,(%edx)
c0102e1c:	0f b6 45 e7          	movzbl -0x19(%ebp),%eax
c0102e20:	0f af 45 e8          	imul   -0x18(%ebp),%eax
c0102e24:	8d 50 02             	lea    0x2(%eax),%edx
c0102e27:	8b 45 f0             	mov    -0x10(%ebp),%eax
c0102e2a:	01 c2                	add    %eax,%edx
c0102e2c:	0f b6 45 d8          	movzbl -0x28(%ebp),%eax
c0102e30:	88 02                	mov    %al,(%edx)
c0102e32:	83 45 e8 01          	addl   $0x1,-0x18(%ebp)
c0102e36:	0f b7 45 e0          	movzwl -0x20(%ebp),%eax
c0102e3a:	39 45 e8             	cmp    %eax,-0x18(%ebp)
c0102e3d:	7c b2                	jl     c0102df1 <fill_square+0x4b>
c0102e3f:	a1 1c b0 10 c0       	mov    0xc010b01c,%eax
c0102e44:	8b 40 10             	mov    0x10(%eax),%eax
c0102e47:	01 45 f0             	add    %eax,-0x10(%ebp)
c0102e4a:	83 45 ec 01          	addl   $0x1,-0x14(%ebp)
c0102e4e:	0f b7 45 dc          	movzwl -0x24(%ebp),%eax
c0102e52:	39 45 ec             	cmp    %eax,-0x14(%ebp)
c0102e55:	7c 91                	jl     c0102de8 <fill_square+0x42>
c0102e57:	90                   	nop
c0102e58:	90                   	nop
c0102e59:	83 c4 28             	add    $0x28,%esp
c0102e5c:	5b                   	pop    %ebx
c0102e5d:	5e                   	pop    %esi
c0102e5e:	5f                   	pop    %edi
c0102e5f:	5d                   	pop    %ebp
c0102e60:	c3                   	ret

c0102e61 <init_font>:
c0102e61:	55                   	push   %ebp
c0102e62:	89 e5                	mov    %esp,%ebp
c0102e64:	83 ec 08             	sub    $0x8,%esp
c0102e67:	c7 05 64 82 10 c0 90 	movl   $0xc0106190,0xc0108264
c0102e6e:	61 10 c0 
c0102e71:	a1 64 82 10 c0       	mov    0xc0108264,%eax
c0102e76:	0f b6 00             	movzbl (%eax),%eax
c0102e79:	3c 36                	cmp    $0x36,%al
c0102e7b:	75 39                	jne    c0102eb6 <init_font+0x55>
c0102e7d:	a1 64 82 10 c0       	mov    0xc0108264,%eax
c0102e82:	0f b6 40 01          	movzbl 0x1(%eax),%eax
c0102e86:	3c 04                	cmp    $0x4,%al
c0102e88:	75 2c                	jne    c0102eb6 <init_font+0x55>
c0102e8a:	a1 64 82 10 c0       	mov    0xc0108264,%eax
c0102e8f:	0f b6 40 03          	movzbl 0x3(%eax),%eax
c0102e93:	0f b6 d0             	movzbl %al,%edx
c0102e96:	a1 64 82 10 c0       	mov    0xc0108264,%eax
c0102e9b:	0f b6 40 02          	movzbl 0x2(%eax),%eax
c0102e9f:	0f b6 c0             	movzbl %al,%eax
c0102ea2:	83 ec 04             	sub    $0x4,%esp
c0102ea5:	52                   	push   %edx
c0102ea6:	50                   	push   %eax
c0102ea7:	68 98 53 10 c0       	push   $0xc0105398
c0102eac:	e8 6f 1c 00 00       	call   c0104b20 <logf>
c0102eb1:	83 c4 10             	add    $0x10,%esp
c0102eb4:	eb 01                	jmp    c0102eb7 <init_font+0x56>
c0102eb6:	90                   	nop
c0102eb7:	c9                   	leave
c0102eb8:	c3                   	ret

c0102eb9 <put_pixel>:
c0102eb9:	55                   	push   %ebp
c0102eba:	89 e5                	mov    %esp,%ebp
c0102ebc:	83 ec 18             	sub    $0x18,%esp
c0102ebf:	83 ec 08             	sub    $0x8,%esp
c0102ec2:	ff 75 0c             	push   0xc(%ebp)
c0102ec5:	ff 75 08             	push   0x8(%ebp)
c0102ec8:	e8 c0 09 00 00       	call   c010388d <get_pixel_addr>
c0102ecd:	83 c4 10             	add    $0x10,%esp
c0102ed0:	89 45 f4             	mov    %eax,-0xc(%ebp)
c0102ed3:	8b 45 f4             	mov    -0xc(%ebp),%eax
c0102ed6:	8b 55 10             	mov    0x10(%ebp),%edx
c0102ed9:	89 10                	mov    %edx,(%eax)
c0102edb:	90                   	nop
c0102edc:	c9                   	leave
c0102edd:	c3                   	ret
c0102ede:	c7 05 00 90 10 c0 00 	movl   $0x0,0xc0109000
c0102ee5:	00 00 00 
c0102ee8:	0f 20 d9             	mov    %cr3,%ecx
c0102eeb:	0f 22 d9             	mov    %ecx,%cr3
c0102eee:	53                   	push   %ebx
c0102eef:	68 00 90 10 c0       	push   $0xc0109000
c0102ef4:	e8 be 1d 00 00       	call   c0104cb7 <kernel_main>
c0102ef9:	fa                   	cli
c0102efa:	f4                   	hlt
c0102efb:	eb fd                	jmp    c0102efa <put_pixel+0x41>

c0102efd <load_directory>:
c0102efd:	55                   	push   %ebp
c0102efe:	89 e5                	mov    %esp,%ebp
c0102f00:	8b 45 08             	mov    0x8(%ebp),%eax
c0102f03:	0f 22 d8             	mov    %eax,%cr3
c0102f06:	89 ec                	mov    %ebp,%esp
c0102f08:	5d                   	pop    %ebp
c0102f09:	c3                   	ret

c0102f0a <enable_paging>:
c0102f0a:	55                   	push   %ebp
c0102f0b:	89 e5                	mov    %esp,%ebp
c0102f0d:	0f 20 c0             	mov    %cr0,%eax
c0102f10:	0d 00 00 00 80       	or     $0x80000000,%eax
c0102f15:	0f 22 c0             	mov    %eax,%cr0
c0102f18:	89 ec                	mov    %ebp,%esp
c0102f1a:	5d                   	pop    %ebp
c0102f1b:	c3                   	ret

c0102f1c <flush_gdt>:
c0102f1c:	8b 44 24 04          	mov    0x4(%esp),%eax
c0102f20:	fa                   	cli
c0102f21:	0f 01 10             	lgdtl  (%eax)
c0102f24:	66 b8 10 00          	mov    $0x10,%ax
c0102f28:	8e d8                	mov    %eax,%ds
c0102f2a:	8e c0                	mov    %eax,%es
c0102f2c:	8e e0                	mov    %eax,%fs
c0102f2e:	8e e8                	mov    %eax,%gs
c0102f30:	8e d0                	mov    %eax,%ss
c0102f32:	ea 39 2f 10 c0 08 00 	ljmp   $0x8,$0xc0102f39

c0102f39 <flush>:
c0102f39:	c3                   	ret

c0102f3a <set_memory_map>:
c0102f3a:	55                   	push   %ebp
c0102f3b:	89 e5                	mov    %esp,%ebp
c0102f3d:	53                   	push   %ebx
c0102f3e:	83 ec 24             	sub    $0x24,%esp
c0102f41:	8b 45 08             	mov    0x8(%ebp),%eax
c0102f44:	8b 40 04             	mov    0x4(%eax),%eax
c0102f47:	8d 48 f0             	lea    -0x10(%eax),%ecx
c0102f4a:	8b 45 08             	mov    0x8(%ebp),%eax
c0102f4d:	8b 58 08             	mov    0x8(%eax),%ebx
c0102f50:	89 c8                	mov    %ecx,%eax
c0102f52:	ba 00 00 00 00       	mov    $0x0,%edx
c0102f57:	f7 f3                	div    %ebx
c0102f59:	89 45 f0             	mov    %eax,-0x10(%ebp)
c0102f5c:	c7 45 f4 00 00 00 00 	movl   $0x0,-0xc(%ebp)
c0102f63:	e9 80 00 00 00       	jmp    c0102fe8 <set_memory_map+0xae>
c0102f68:	8b 4d 08             	mov    0x8(%ebp),%ecx
c0102f6b:	8b 55 f4             	mov    -0xc(%ebp),%edx
c0102f6e:	89 d0                	mov    %edx,%eax
c0102f70:	01 c0                	add    %eax,%eax
c0102f72:	01 d0                	add    %edx,%eax
c0102f74:	c1 e0 03             	shl    $0x3,%eax
c0102f77:	01 c8                	add    %ecx,%eax
c0102f79:	83 c0 10             	add    $0x10,%eax
c0102f7c:	8b 10                	mov    (%eax),%edx
c0102f7e:	89 55 d8             	mov    %edx,-0x28(%ebp)
c0102f81:	8b 50 04             	mov    0x4(%eax),%edx
c0102f84:	89 55 dc             	mov    %edx,-0x24(%ebp)
c0102f87:	8b 50 08             	mov    0x8(%eax),%edx
c0102f8a:	89 55 e0             	mov    %edx,-0x20(%ebp)
c0102f8d:	8b 50 0c             	mov    0xc(%eax),%edx
c0102f90:	89 55 e4             	mov    %edx,-0x1c(%ebp)
c0102f93:	8b 50 10             	mov    0x10(%eax),%edx
c0102f96:	89 55 e8             	mov    %edx,-0x18(%ebp)
c0102f99:	8b 40 14             	mov    0x14(%eax),%eax
c0102f9c:	89 45 ec             	mov    %eax,-0x14(%ebp)
c0102f9f:	8b 45 e8             	mov    -0x18(%ebp),%eax
c0102fa2:	83 f8 01             	cmp    $0x1,%eax
c0102fa5:	75 3d                	jne    c0102fe4 <set_memory_map+0xaa>
c0102fa7:	8b 45 d8             	mov    -0x28(%ebp),%eax
c0102faa:	8b 55 dc             	mov    -0x24(%ebp),%edx
c0102fad:	a3 88 61 10 c0       	mov    %eax,0xc0106188
c0102fb2:	8b 45 d8             	mov    -0x28(%ebp),%eax
c0102fb5:	8b 55 dc             	mov    -0x24(%ebp),%edx
c0102fb8:	89 c1                	mov    %eax,%ecx
c0102fba:	8b 45 e0             	mov    -0x20(%ebp),%eax
c0102fbd:	8b 55 e4             	mov    -0x1c(%ebp),%edx
c0102fc0:	01 c8                	add    %ecx,%eax
c0102fc2:	a3 84 61 10 c0       	mov    %eax,0xc0106184
c0102fc7:	8b 15 84 61 10 c0    	mov    0xc0106184,%edx
c0102fcd:	a1 88 61 10 c0       	mov    0xc0106188,%eax
c0102fd2:	83 ec 04             	sub    $0x4,%esp
c0102fd5:	52                   	push   %edx
c0102fd6:	50                   	push   %eax
c0102fd7:	68 b8 53 10 c0       	push   $0xc01053b8
c0102fdc:	e8 3f 1b 00 00       	call   c0104b20 <logf>
c0102fe1:	83 c4 10             	add    $0x10,%esp
c0102fe4:	83 45 f4 01          	addl   $0x1,-0xc(%ebp)
c0102fe8:	8b 45 f4             	mov    -0xc(%ebp),%eax
c0102feb:	3b 45 f0             	cmp    -0x10(%ebp),%eax
c0102fee:	0f 8c 74 ff ff ff    	jl     c0102f68 <set_memory_map+0x2e>
c0102ff4:	90                   	nop
c0102ff5:	90                   	nop
c0102ff6:	8b 5d fc             	mov    -0x4(%ebp),%ebx
c0102ff9:	c9                   	leave
c0102ffa:	c3                   	ret

c0102ffb <pre_malloc>:
c0102ffb:	55                   	push   %ebp
c0102ffc:	89 e5                	mov    %esp,%ebp
c0102ffe:	83 ec 10             	sub    $0x10,%esp
c0103001:	a1 8c 61 10 c0       	mov    0xc010618c,%eax
c0103006:	05 ff 03 00 00       	add    $0x3ff,%eax
c010300b:	25 00 fc ff ff       	and    $0xfffffc00,%eax
c0103010:	89 45 fc             	mov    %eax,-0x4(%ebp)
c0103013:	8b 45 08             	mov    0x8(%ebp),%eax
c0103016:	05 ff 03 00 00       	add    $0x3ff,%eax
c010301b:	25 00 fc ff ff       	and    $0xfffffc00,%eax
c0103020:	89 c2                	mov    %eax,%edx
c0103022:	a1 8c 61 10 c0       	mov    0xc010618c,%eax
c0103027:	01 d0                	add    %edx,%eax
c0103029:	a3 8c 61 10 c0       	mov    %eax,0xc010618c
c010302e:	83 7d 0c 00          	cmpl   $0x0,0xc(%ebp)
c0103032:	74 0e                	je     c0103042 <pre_malloc+0x47>
c0103034:	8b 45 fc             	mov    -0x4(%ebp),%eax
c0103037:	8d 90 00 00 00 40    	lea    0x40000000(%eax),%edx
c010303d:	8b 45 0c             	mov    0xc(%ebp),%eax
c0103040:	89 10                	mov    %edx,(%eax)
c0103042:	8b 45 fc             	mov    -0x4(%ebp),%eax
c0103045:	c9                   	leave
c0103046:	c3                   	ret

c0103047 <get_first_frame>:
c0103047:	55                   	push   %ebp
c0103048:	89 e5                	mov    %esp,%ebp
c010304a:	83 ec 10             	sub    $0x10,%esp
c010304d:	c7 45 fc 00 00 00 00 	movl   $0x0,-0x4(%ebp)
c0103054:	eb 6b                	jmp    c01030c1 <get_first_frame+0x7a>
c0103056:	a1 00 b0 10 c0       	mov    0xc010b000,%eax
c010305b:	8b 55 fc             	mov    -0x4(%ebp),%edx
c010305e:	c1 e2 02             	shl    $0x2,%edx
c0103061:	01 d0                	add    %edx,%eax
c0103063:	8b 00                	mov    (%eax),%eax
c0103065:	83 f8 ff             	cmp    $0xffffffff,%eax
c0103068:	74 53                	je     c01030bd <get_first_frame+0x76>
c010306a:	c7 45 f8 00 00 00 00 	movl   $0x0,-0x8(%ebp)
c0103071:	eb 44                	jmp    c01030b7 <get_first_frame+0x70>
c0103073:	8b 45 f8             	mov    -0x8(%ebp),%eax
c0103076:	ba 01 00 00 00       	mov    $0x1,%edx
c010307b:	89 c1                	mov    %eax,%ecx
c010307d:	d3 e2                	shl    %cl,%edx
c010307f:	89 d0                	mov    %edx,%eax
c0103081:	89 45 f4             	mov    %eax,-0xc(%ebp)
c0103084:	a1 00 b0 10 c0       	mov    0xc010b000,%eax
c0103089:	8b 55 fc             	mov    -0x4(%ebp),%edx
c010308c:	c1 e2 02             	shl    $0x2,%edx
c010308f:	01 d0                	add    %edx,%eax
c0103091:	8b 00                	mov    (%eax),%eax
c0103093:	23 45 f4             	and    -0xc(%ebp),%eax
c0103096:	85 c0                	test   %eax,%eax
c0103098:	75 19                	jne    c01030b3 <get_first_frame+0x6c>
c010309a:	8b 45 fc             	mov    -0x4(%ebp),%eax
c010309d:	c1 e0 05             	shl    $0x5,%eax
c01030a0:	89 c2                	mov    %eax,%edx
c01030a2:	8b 45 f8             	mov    -0x8(%ebp),%eax
c01030a5:	01 d0                	add    %edx,%eax
c01030a7:	a3 08 b0 10 c0       	mov    %eax,0xc010b008
c01030ac:	a1 08 b0 10 c0       	mov    0xc010b008,%eax
c01030b1:	eb 1d                	jmp    c01030d0 <get_first_frame+0x89>
c01030b3:	83 45 f8 01          	addl   $0x1,-0x8(%ebp)
c01030b7:	83 7d f8 1f          	cmpl   $0x1f,-0x8(%ebp)
c01030bb:	7e b6                	jle    c0103073 <get_first_frame+0x2c>
c01030bd:	83 45 fc 01          	addl   $0x1,-0x4(%ebp)
c01030c1:	a1 04 b0 10 c0       	mov    0xc010b004,%eax
c01030c6:	39 45 fc             	cmp    %eax,-0x4(%ebp)
c01030c9:	72 8b                	jb     c0103056 <get_first_frame+0xf>
c01030cb:	b8 ff ff ff ff       	mov    $0xffffffff,%eax
c01030d0:	c9                   	leave
c01030d1:	c3                   	ret

c01030d2 <clear_frame>:
c01030d2:	55                   	push   %ebp
c01030d3:	89 e5                	mov    %esp,%ebp
c01030d5:	53                   	push   %ebx
c01030d6:	8b 0d 00 b0 10 c0    	mov    0xc010b000,%ecx
c01030dc:	8b 45 08             	mov    0x8(%ebp),%eax
c01030df:	c1 e8 05             	shr    $0x5,%eax
c01030e2:	8d 14 85 00 00 00 00 	lea    0x0(,%eax,4),%edx
c01030e9:	01 ca                	add    %ecx,%edx
c01030eb:	8b 12                	mov    (%edx),%edx
c01030ed:	8b 4d 08             	mov    0x8(%ebp),%ecx
c01030f0:	83 e1 1f             	and    $0x1f,%ecx
c01030f3:	bb 01 00 00 00       	mov    $0x1,%ebx
c01030f8:	d3 e3                	shl    %cl,%ebx
c01030fa:	89 d9                	mov    %ebx,%ecx
c01030fc:	f7 d1                	not    %ecx
c01030fe:	89 cb                	mov    %ecx,%ebx
c0103100:	8b 0d 00 b0 10 c0    	mov    0xc010b000,%ecx
c0103106:	c1 e0 02             	shl    $0x2,%eax
c0103109:	01 c8                	add    %ecx,%eax
c010310b:	21 da                	and    %ebx,%edx
c010310d:	89 10                	mov    %edx,(%eax)
c010310f:	90                   	nop
c0103110:	8b 5d fc             	mov    -0x4(%ebp),%ebx
c0103113:	c9                   	leave
c0103114:	c3                   	ret

c0103115 <set_frame>:
c0103115:	55                   	push   %ebp
c0103116:	89 e5                	mov    %esp,%ebp
c0103118:	53                   	push   %ebx
c0103119:	83 ec 10             	sub    $0x10,%esp
c010311c:	8b 45 08             	mov    0x8(%ebp),%eax
c010311f:	c1 e8 05             	shr    $0x5,%eax
c0103122:	89 45 f8             	mov    %eax,-0x8(%ebp)
c0103125:	8b 45 08             	mov    0x8(%ebp),%eax
c0103128:	83 e0 1f             	and    $0x1f,%eax
c010312b:	89 45 f4             	mov    %eax,-0xc(%ebp)
c010312e:	a1 00 b0 10 c0       	mov    0xc010b000,%eax
c0103133:	8b 55 f8             	mov    -0x8(%ebp),%edx
c0103136:	c1 e2 02             	shl    $0x2,%edx
c0103139:	01 d0                	add    %edx,%eax
c010313b:	8b 10                	mov    (%eax),%edx
c010313d:	8b 45 f4             	mov    -0xc(%ebp),%eax
c0103140:	bb 01 00 00 00       	mov    $0x1,%ebx
c0103145:	89 c1                	mov    %eax,%ecx
c0103147:	d3 e3                	shl    %cl,%ebx
c0103149:	89 d8                	mov    %ebx,%eax
c010314b:	89 c3                	mov    %eax,%ebx
c010314d:	a1 00 b0 10 c0       	mov    0xc010b000,%eax
c0103152:	8b 4d f8             	mov    -0x8(%ebp),%ecx
c0103155:	c1 e1 02             	shl    $0x2,%ecx
c0103158:	01 c8                	add    %ecx,%eax
c010315a:	09 da                	or     %ebx,%edx
c010315c:	89 10                	mov    %edx,(%eax)
c010315e:	90                   	nop
c010315f:	8b 5d fc             	mov    -0x4(%ebp),%ebx
c0103162:	c9                   	leave
c0103163:	c3                   	ret

c0103164 <frame_to_physical>:
c0103164:	55                   	push   %ebp
c0103165:	89 e5                	mov    %esp,%ebp
c0103167:	8b 45 08             	mov    0x8(%ebp),%eax
c010316a:	c1 e0 0c             	shl    $0xc,%eax
c010316d:	89 c2                	mov    %eax,%edx
c010316f:	a1 88 61 10 c0       	mov    0xc0106188,%eax
c0103174:	01 d0                	add    %edx,%eax
c0103176:	5d                   	pop    %ebp
c0103177:	c3                   	ret

c0103178 <physical_to_frame>:
c0103178:	55                   	push   %ebp
c0103179:	89 e5                	mov    %esp,%ebp
c010317b:	8b 55 08             	mov    0x8(%ebp),%edx
c010317e:	a1 88 61 10 c0       	mov    0xc0106188,%eax
c0103183:	29 c2                	sub    %eax,%edx
c0103185:	89 d0                	mov    %edx,%eax
c0103187:	c1 e8 0c             	shr    $0xc,%eax
c010318a:	5d                   	pop    %ebp
c010318b:	c3                   	ret

c010318c <alloc_phys_page>:
c010318c:	55                   	push   %ebp
c010318d:	89 e5                	mov    %esp,%ebp
c010318f:	83 ec 18             	sub    $0x18,%esp
c0103192:	e8 b0 fe ff ff       	call   c0103047 <get_first_frame>
c0103197:	89 45 f4             	mov    %eax,-0xc(%ebp)
c010319a:	83 7d f4 ff          	cmpl   $0xffffffff,-0xc(%ebp)
c010319e:	75 07                	jne    c01031a7 <alloc_phys_page+0x1b>
c01031a0:	b8 00 00 00 00       	mov    $0x0,%eax
c01031a5:	eb 3e                	jmp    c01031e5 <alloc_phys_page+0x59>
c01031a7:	ff 75 f4             	push   -0xc(%ebp)
c01031aa:	e8 66 ff ff ff       	call   c0103115 <set_frame>
c01031af:	83 c4 04             	add    $0x4,%esp
c01031b2:	ff 75 f4             	push   -0xc(%ebp)
c01031b5:	e8 aa ff ff ff       	call   c0103164 <frame_to_physical>
c01031ba:	83 c4 04             	add    $0x4,%esp
c01031bd:	8b 15 84 61 10 c0    	mov    0xc0106184,%edx
c01031c3:	39 c2                	cmp    %eax,%edx
c01031c5:	73 10                	jae    c01031d7 <alloc_phys_page+0x4b>
c01031c7:	83 ec 0c             	sub    $0xc,%esp
c01031ca:	68 d8 53 10 c0       	push   $0xc01053d8
c01031cf:	e8 c5 1a 00 00       	call   c0104c99 <panic>
c01031d4:	83 c4 10             	add    $0x10,%esp
c01031d7:	83 ec 0c             	sub    $0xc,%esp
c01031da:	ff 75 f4             	push   -0xc(%ebp)
c01031dd:	e8 82 ff ff ff       	call   c0103164 <frame_to_physical>
c01031e2:	83 c4 10             	add    $0x10,%esp
c01031e5:	c9                   	leave
c01031e6:	c3                   	ret

c01031e7 <transfer_dynamic>:
c01031e7:	55                   	push   %ebp
c01031e8:	89 e5                	mov    %esp,%ebp
c01031ea:	83 ec 18             	sub    $0x18,%esp
c01031ed:	a1 04 b0 10 c0       	mov    0xc010b004,%eax
c01031f2:	83 ec 04             	sub    $0x4,%esp
c01031f5:	6a 00                	push   $0x0
c01031f7:	6a 03                	push   $0x3
c01031f9:	50                   	push   %eax
c01031fa:	e8 2f 03 00 00       	call   c010352e <page_kalloc>
c01031ff:	83 c4 10             	add    $0x10,%esp
c0103202:	89 45 f4             	mov    %eax,-0xc(%ebp)
c0103205:	a1 00 b0 10 c0       	mov    0xc010b000,%eax
c010320a:	83 ec 08             	sub    $0x8,%esp
c010320d:	50                   	push   %eax
c010320e:	68 e7 53 10 c0       	push   $0xc01053e7
c0103213:	e8 08 19 00 00       	call   c0104b20 <logf>
c0103218:	83 c4 10             	add    $0x10,%esp
c010321b:	8b 15 04 b0 10 c0    	mov    0xc010b004,%edx
c0103221:	a1 00 b0 10 c0       	mov    0xc010b000,%eax
c0103226:	83 ec 04             	sub    $0x4,%esp
c0103229:	52                   	push   %edx
c010322a:	50                   	push   %eax
c010322b:	ff 75 f4             	push   -0xc(%ebp)
c010322e:	e8 81 e6 ff ff       	call   c01018b4 <memcpy>
c0103233:	83 c4 10             	add    $0x10,%esp
c0103236:	8b 45 f4             	mov    -0xc(%ebp),%eax
c0103239:	a3 00 b0 10 c0       	mov    %eax,0xc010b000
c010323e:	a1 00 b0 10 c0       	mov    0xc010b000,%eax
c0103243:	83 ec 08             	sub    $0x8,%esp
c0103246:	50                   	push   %eax
c0103247:	68 00 54 10 c0       	push   $0xc0105400
c010324c:	e8 cf 18 00 00       	call   c0104b20 <logf>
c0103251:	83 c4 10             	add    $0x10,%esp
c0103254:	90                   	nop
c0103255:	c9                   	leave
c0103256:	c3                   	ret

c0103257 <kinit>:
c0103257:	55                   	push   %ebp
c0103258:	89 e5                	mov    %esp,%ebp
c010325a:	83 ec 18             	sub    $0x18,%esp
c010325d:	81 7d 08 10 f0 10 c0 	cmpl   $0xc010f010,0x8(%ebp)
c0103264:	72 11                	jb     c0103277 <kinit+0x20>
c0103266:	8b 45 08             	mov    0x8(%ebp),%eax
c0103269:	8b 10                	mov    (%eax),%edx
c010326b:	a1 8c 61 10 c0       	mov    0xc010618c,%eax
c0103270:	01 d0                	add    %edx,%eax
c0103272:	a3 8c 61 10 c0       	mov    %eax,0xc010618c
c0103277:	8b 15 8c 61 10 c0    	mov    0xc010618c,%edx
c010327d:	8b 45 08             	mov    0x8(%ebp),%eax
c0103280:	8b 00                	mov    (%eax),%eax
c0103282:	52                   	push   %edx
c0103283:	50                   	push   %eax
c0103284:	68 10 f0 10 c0       	push   $0xc010f010
c0103289:	68 1c 54 10 c0       	push   $0xc010541c
c010328e:	e8 8d 18 00 00       	call   c0104b20 <logf>
c0103293:	83 c4 10             	add    $0x10,%esp
c0103296:	83 ec 08             	sub    $0x8,%esp
c0103299:	68 00 0a 00 00       	push   $0xa00
c010329e:	68 3e 54 10 c0       	push   $0xc010543e
c01032a3:	e8 78 18 00 00       	call   c0104b20 <logf>
c01032a8:	83 c4 10             	add    $0x10,%esp
c01032ab:	c7 05 04 b0 10 c0 00 	movl   $0xa00,0xc010b004
c01032b2:	0a 00 00 
c01032b5:	a1 04 b0 10 c0       	mov    0xc010b004,%eax
c01032ba:	83 ec 08             	sub    $0x8,%esp
c01032bd:	6a 00                	push   $0x0
c01032bf:	50                   	push   %eax
c01032c0:	e8 36 fd ff ff       	call   c0102ffb <pre_malloc>
c01032c5:	83 c4 10             	add    $0x10,%esp
c01032c8:	a3 00 b0 10 c0       	mov    %eax,0xc010b000
c01032cd:	8b 15 04 b0 10 c0    	mov    0xc010b004,%edx
c01032d3:	a1 00 b0 10 c0       	mov    0xc010b000,%eax
c01032d8:	83 ec 04             	sub    $0x4,%esp
c01032db:	52                   	push   %edx
c01032dc:	6a 00                	push   $0x0
c01032de:	50                   	push   %eax
c01032df:	e8 23 e6 ff ff       	call   c0101907 <memset>
c01032e4:	83 c4 10             	add    $0x10,%esp
c01032e7:	c7 45 f4 00 00 00 00 	movl   $0x0,-0xc(%ebp)
c01032ee:	eb 13                	jmp    c0103303 <kinit+0xac>
c01032f0:	8b 45 f4             	mov    -0xc(%ebp),%eax
c01032f3:	83 ec 0c             	sub    $0xc,%esp
c01032f6:	50                   	push   %eax
c01032f7:	e8 19 fe ff ff       	call   c0103115 <set_frame>
c01032fc:	83 c4 10             	add    $0x10,%esp
c01032ff:	83 45 f4 01          	addl   $0x1,-0xc(%ebp)
c0103303:	83 7d f4 2f          	cmpl   $0x2f,-0xc(%ebp)
c0103307:	7e e7                	jle    c01032f0 <kinit+0x99>
c0103309:	a1 8c 61 10 c0       	mov    0xc010618c,%eax
c010330e:	c9                   	leave
c010330f:	c3                   	ret

c0103310 <convert_x86_32_vm_flags>:
c0103310:	55                   	push   %ebp
c0103311:	89 e5                	mov    %esp,%ebp
c0103313:	83 ec 10             	sub    $0x10,%esp
c0103316:	c7 45 fc 01 00 00 00 	movl   $0x1,-0x4(%ebp)
c010331d:	8b 45 08             	mov    0x8(%ebp),%eax
c0103320:	83 e0 02             	and    $0x2,%eax
c0103323:	85 c0                	test   %eax,%eax
c0103325:	74 04                	je     c010332b <convert_x86_32_vm_flags+0x1b>
c0103327:	83 4d fc 02          	orl    $0x2,-0x4(%ebp)
c010332b:	8b 45 08             	mov    0x8(%ebp),%eax
c010332e:	83 e0 04             	and    $0x4,%eax
c0103331:	85 c0                	test   %eax,%eax
c0103333:	74 04                	je     c0103339 <convert_x86_32_vm_flags+0x29>
c0103335:	83 4d fc 04          	orl    $0x4,-0x4(%ebp)
c0103339:	8b 45 fc             	mov    -0x4(%ebp),%eax
c010333c:	c9                   	leave
c010333d:	c3                   	ret

c010333e <create_vmm>:
c010333e:	55                   	push   %ebp
c010333f:	89 e5                	mov    %esp,%ebp
c0103341:	83 ec 18             	sub    $0x18,%esp
c0103344:	e8 43 fe ff ff       	call   c010318c <alloc_phys_page>
c0103349:	6a 03                	push   $0x3
c010334b:	68 00 00 00 ff       	push   $0xff000000
c0103350:	50                   	push   %eax
c0103351:	ff 75 08             	push   0x8(%ebp)
c0103354:	e8 ca 0f 00 00       	call   c0104323 <memory_map>
c0103359:	83 c4 10             	add    $0x10,%esp
c010335c:	83 ec 04             	sub    $0x4,%esp
c010335f:	68 00 10 00 00       	push   $0x1000
c0103364:	6a 00                	push   $0x0
c0103366:	68 00 00 00 ff       	push   $0xff000000
c010336b:	e8 97 e5 ff ff       	call   c0101907 <memset>
c0103370:	83 c4 10             	add    $0x10,%esp
c0103373:	c7 45 f4 00 00 00 ff 	movl   $0xff000000,-0xc(%ebp)
c010337a:	8b 45 f4             	mov    -0xc(%ebp),%eax
c010337d:	8b 55 08             	mov    0x8(%ebp),%edx
c0103380:	89 10                	mov    %edx,(%eax)
c0103382:	8b 45 f4             	mov    -0xc(%ebp),%eax
c0103385:	c7 40 04 00 00 00 00 	movl   $0x0,0x4(%eax)
c010338c:	8b 45 f4             	mov    -0xc(%ebp),%eax
c010338f:	c7 40 08 14 00 00 ff 	movl   $0xff000014,0x8(%eax)
c0103396:	8b 45 0c             	mov    0xc(%ebp),%eax
c0103399:	05 ff 0f 00 00       	add    $0xfff,%eax
c010339e:	25 00 f0 ff ff       	and    $0xfffff000,%eax
c01033a3:	83 ec 04             	sub    $0x4,%esp
c01033a6:	ff 75 10             	push   0x10(%ebp)
c01033a9:	50                   	push   %eax
c01033aa:	68 50 54 10 c0       	push   $0xc0105450
c01033af:	e8 6c 17 00 00       	call   c0104b20 <logf>
c01033b4:	83 c4 10             	add    $0x10,%esp
c01033b7:	8b 45 0c             	mov    0xc(%ebp),%eax
c01033ba:	05 ff 0f 00 00       	add    $0xfff,%eax
c01033bf:	25 00 f0 ff ff       	and    $0xfffff000,%eax
c01033c4:	89 c2                	mov    %eax,%edx
c01033c6:	8b 45 f4             	mov    -0xc(%ebp),%eax
c01033c9:	89 50 0c             	mov    %edx,0xc(%eax)
c01033cc:	8b 45 f4             	mov    -0xc(%ebp),%eax
c01033cf:	8b 55 10             	mov    0x10(%ebp),%edx
c01033d2:	89 50 10             	mov    %edx,0x10(%eax)
c01033d5:	8b 45 f4             	mov    -0xc(%ebp),%eax
c01033d8:	c9                   	leave
c01033d9:	c3                   	ret

c01033da <vmm_transfer_dynamic>:
c01033da:	55                   	push   %ebp
c01033db:	89 e5                	mov    %esp,%ebp
c01033dd:	83 ec 18             	sub    $0x18,%esp
c01033e0:	83 ec 04             	sub    $0x4,%esp
c01033e3:	6a 00                	push   $0x0
c01033e5:	6a 03                	push   $0x3
c01033e7:	68 00 10 00 00       	push   $0x1000
c01033ec:	e8 3d 01 00 00       	call   c010352e <page_kalloc>
c01033f1:	83 c4 10             	add    $0x10,%esp
c01033f4:	89 45 f4             	mov    %eax,-0xc(%ebp)
c01033f7:	a1 0c b0 10 c0       	mov    0xc010b00c,%eax
c01033fc:	83 ec 04             	sub    $0x4,%esp
c01033ff:	68 00 10 00 00       	push   $0x1000
c0103404:	50                   	push   %eax
c0103405:	ff 75 f4             	push   -0xc(%ebp)
c0103408:	e8 a7 e4 ff ff       	call   c01018b4 <memcpy>
c010340d:	83 c4 10             	add    $0x10,%esp
c0103410:	a1 0c b0 10 c0       	mov    0xc010b00c,%eax
c0103415:	83 ec 04             	sub    $0x4,%esp
c0103418:	ff 75 f4             	push   -0xc(%ebp)
c010341b:	50                   	push   %eax
c010341c:	68 7c 54 10 c0       	push   $0xc010547c
c0103421:	e8 fa 16 00 00       	call   c0104b20 <logf>
c0103426:	83 c4 10             	add    $0x10,%esp
c0103429:	a1 0c b0 10 c0       	mov    0xc010b00c,%eax
c010342e:	89 45 f0             	mov    %eax,-0x10(%ebp)
c0103431:	8b 45 f4             	mov    -0xc(%ebp),%eax
c0103434:	a3 0c b0 10 c0       	mov    %eax,0xc010b00c
c0103439:	a1 0c b0 10 c0       	mov    0xc010b00c,%eax
c010343e:	8b 40 08             	mov    0x8(%eax),%eax
c0103441:	25 ff 03 00 00       	and    $0x3ff,%eax
c0103446:	89 c2                	mov    %eax,%edx
c0103448:	a1 0c b0 10 c0       	mov    0xc010b00c,%eax
c010344d:	89 c1                	mov    %eax,%ecx
c010344f:	a1 0c b0 10 c0       	mov    0xc010b00c,%eax
c0103454:	01 ca                	add    %ecx,%edx
c0103456:	89 50 08             	mov    %edx,0x8(%eax)
c0103459:	83 ec 08             	sub    $0x8,%esp
c010345c:	ff 75 f0             	push   -0x10(%ebp)
c010345f:	ff 75 08             	push   0x8(%ebp)
c0103462:	e8 44 0f 00 00       	call   c01043ab <memory_unmap>
c0103467:	83 c4 10             	add    $0x10,%esp
c010346a:	90                   	nop
c010346b:	c9                   	leave
c010346c:	c3                   	ret

c010346d <set_current_vmm>:
c010346d:	55                   	push   %ebp
c010346e:	89 e5                	mov    %esp,%ebp
c0103470:	8b 45 08             	mov    0x8(%ebp),%eax
c0103473:	a3 0c b0 10 c0       	mov    %eax,0xc010b00c
c0103478:	90                   	nop
c0103479:	5d                   	pop    %ebp
c010347a:	c3                   	ret

c010347b <alloc_vm_obj>:
c010347b:	55                   	push   %ebp
c010347c:	89 e5                	mov    %esp,%ebp
c010347e:	83 ec 28             	sub    $0x28,%esp
c0103481:	a1 0c b0 10 c0       	mov    0xc010b00c,%eax
c0103486:	89 45 f4             	mov    %eax,-0xc(%ebp)
c0103489:	8b 45 f4             	mov    -0xc(%ebp),%eax
c010348c:	05 00 10 00 00       	add    $0x1000,%eax
c0103491:	89 45 ec             	mov    %eax,-0x14(%ebp)
c0103494:	83 45 f4 14          	addl   $0x14,-0xc(%ebp)
c0103498:	a1 0c b0 10 c0       	mov    0xc010b00c,%eax
c010349d:	8b 40 08             	mov    0x8(%eax),%eax
c01034a0:	89 45 e8             	mov    %eax,-0x18(%ebp)
c01034a3:	8b 45 e8             	mov    -0x18(%ebp),%eax
c01034a6:	3b 45 ec             	cmp    -0x14(%ebp),%eax
c01034a9:	73 2b                	jae    c01034d6 <alloc_vm_obj+0x5b>
c01034ab:	a1 0c b0 10 c0       	mov    0xc010b00c,%eax
c01034b0:	8b 50 08             	mov    0x8(%eax),%edx
c01034b3:	a1 0c b0 10 c0       	mov    0xc010b00c,%eax
c01034b8:	83 c2 10             	add    $0x10,%edx
c01034bb:	89 50 08             	mov    %edx,0x8(%eax)
c01034be:	83 ec 08             	sub    $0x8,%esp
c01034c1:	ff 75 e8             	push   -0x18(%ebp)
c01034c4:	68 a6 54 10 c0       	push   $0xc01054a6
c01034c9:	e8 52 16 00 00       	call   c0104b20 <logf>
c01034ce:	83 c4 10             	add    $0x10,%esp
c01034d1:	8b 45 e8             	mov    -0x18(%ebp),%eax
c01034d4:	eb 56                	jmp    c010352c <alloc_vm_obj+0xb1>
c01034d6:	c7 45 f0 00 00 00 00 	movl   $0x0,-0x10(%ebp)
c01034dd:	eb 2c                	jmp    c010350b <alloc_vm_obj+0x90>
c01034df:	8b 45 f4             	mov    -0xc(%ebp),%eax
c01034e2:	89 45 e4             	mov    %eax,-0x1c(%ebp)
c01034e5:	8b 45 e4             	mov    -0x1c(%ebp),%eax
c01034e8:	8b 00                	mov    (%eax),%eax
c01034ea:	83 e0 01             	and    $0x1,%eax
c01034ed:	85 c0                	test   %eax,%eax
c01034ef:	75 16                	jne    c0103507 <alloc_vm_obj+0x8c>
c01034f1:	8b 45 e4             	mov    -0x1c(%ebp),%eax
c01034f4:	89 45 f0             	mov    %eax,-0x10(%ebp)
c01034f7:	a1 0c b0 10 c0       	mov    0xc010b00c,%eax
c01034fc:	8b 55 f0             	mov    -0x10(%ebp),%edx
c01034ff:	83 c2 10             	add    $0x10,%edx
c0103502:	89 50 08             	mov    %edx,0x8(%eax)
c0103505:	eb 0c                	jmp    c0103513 <alloc_vm_obj+0x98>
c0103507:	83 45 f4 10          	addl   $0x10,-0xc(%ebp)
c010350b:	8b 45 ec             	mov    -0x14(%ebp),%eax
c010350e:	39 45 f4             	cmp    %eax,-0xc(%ebp)
c0103511:	72 cc                	jb     c01034df <alloc_vm_obj+0x64>
c0103513:	83 7d f0 00          	cmpl   $0x0,-0x10(%ebp)
c0103517:	75 10                	jne    c0103529 <alloc_vm_obj+0xae>
c0103519:	83 ec 0c             	sub    $0xc,%esp
c010351c:	68 c0 54 10 c0       	push   $0xc01054c0
c0103521:	e8 73 17 00 00       	call   c0104c99 <panic>
c0103526:	83 c4 10             	add    $0x10,%esp
c0103529:	8b 45 f0             	mov    -0x10(%ebp),%eax
c010352c:	c9                   	leave
c010352d:	c3                   	ret

c010352e <page_kalloc>:
c010352e:	55                   	push   %ebp
c010352f:	89 e5                	mov    %esp,%ebp
c0103531:	53                   	push   %ebx
c0103532:	83 ec 34             	sub    $0x34,%esp
c0103535:	c7 45 e0 fe ff ff ff 	movl   $0xfffffffe,-0x20(%ebp)
c010353c:	a1 0c b0 10 c0       	mov    0xc010b00c,%eax
c0103541:	8b 40 04             	mov    0x4(%eax),%eax
c0103544:	89 45 f4             	mov    %eax,-0xc(%ebp)
c0103547:	c7 45 f0 00 00 00 00 	movl   $0x0,-0x10(%ebp)
c010354e:	8b 45 08             	mov    0x8(%ebp),%eax
c0103551:	05 ff 0f 00 00       	add    $0xfff,%eax
c0103556:	25 00 f0 ff ff       	and    $0xfffff000,%eax
c010355b:	89 45 08             	mov    %eax,0x8(%ebp)
c010355e:	c7 45 ec 00 00 00 00 	movl   $0x0,-0x14(%ebp)
c0103565:	a1 0c b0 10 c0       	mov    0xc010b00c,%eax
c010356a:	8b 50 10             	mov    0x10(%eax),%edx
c010356d:	a1 0c b0 10 c0       	mov    0xc010b00c,%eax
c0103572:	8b 40 0c             	mov    0xc(%eax),%eax
c0103575:	29 c2                	sub    %eax,%edx
c0103577:	3b 55 08             	cmp    0x8(%ebp),%edx
c010357a:	73 2c                	jae    c01035a8 <page_kalloc+0x7a>
c010357c:	a1 0c b0 10 c0       	mov    0xc010b00c,%eax
c0103581:	8b 50 0c             	mov    0xc(%eax),%edx
c0103584:	a1 0c b0 10 c0       	mov    0xc010b00c,%eax
c0103589:	8b 40 10             	mov    0x10(%eax),%eax
c010358c:	83 ec 04             	sub    $0x4,%esp
c010358f:	52                   	push   %edx
c0103590:	50                   	push   %eax
c0103591:	68 dc 54 10 c0       	push   $0xc01054dc
c0103596:	e8 85 15 00 00       	call   c0104b20 <logf>
c010359b:	83 c4 10             	add    $0x10,%esp
c010359e:	b8 00 00 00 00       	mov    $0x0,%eax
c01035a3:	e9 fe 01 00 00       	jmp    c01037a6 <page_kalloc+0x278>
c01035a8:	83 7d f4 00          	cmpl   $0x0,-0xc(%ebp)
c01035ac:	0f 85 a6 00 00 00    	jne    c0103658 <page_kalloc+0x12a>
c01035b2:	a1 0c b0 10 c0       	mov    0xc010b00c,%eax
c01035b7:	8b 40 0c             	mov    0xc(%eax),%eax
c01035ba:	89 45 ec             	mov    %eax,-0x14(%ebp)
c01035bd:	e8 b9 fe ff ff       	call   c010347b <alloc_vm_obj>
c01035c2:	89 45 d0             	mov    %eax,-0x30(%ebp)
c01035c5:	8b 45 ec             	mov    -0x14(%ebp),%eax
c01035c8:	83 c8 01             	or     $0x1,%eax
c01035cb:	89 c2                	mov    %eax,%edx
c01035cd:	8b 45 d0             	mov    -0x30(%ebp),%eax
c01035d0:	89 10                	mov    %edx,(%eax)
c01035d2:	8b 45 d0             	mov    -0x30(%ebp),%eax
c01035d5:	8b 55 08             	mov    0x8(%ebp),%edx
c01035d8:	89 50 04             	mov    %edx,0x4(%eax)
c01035db:	8b 45 d0             	mov    -0x30(%ebp),%eax
c01035de:	8b 55 0c             	mov    0xc(%ebp),%edx
c01035e1:	89 50 08             	mov    %edx,0x8(%eax)
c01035e4:	8b 45 d0             	mov    -0x30(%ebp),%eax
c01035e7:	c7 40 0c 00 00 00 00 	movl   $0x0,0xc(%eax)
c01035ee:	a1 0c b0 10 c0       	mov    0xc010b00c,%eax
c01035f3:	8b 55 d0             	mov    -0x30(%ebp),%edx
c01035f6:	89 50 04             	mov    %edx,0x4(%eax)
c01035f9:	e9 f9 00 00 00       	jmp    c01036f7 <page_kalloc+0x1c9>
c01035fe:	83 7d f4 00          	cmpl   $0x0,-0xc(%ebp)
c0103602:	74 5c                	je     c0103660 <page_kalloc+0x132>
c0103604:	83 7d f0 00          	cmpl   $0x0,-0x10(%ebp)
c0103608:	75 0a                	jne    c0103614 <page_kalloc+0xe6>
c010360a:	a1 0c b0 10 c0       	mov    0xc010b00c,%eax
c010360f:	8b 40 10             	mov    0x10(%eax),%eax
c0103612:	eb 08                	jmp    c010361c <page_kalloc+0xee>
c0103614:	8b 45 f0             	mov    -0x10(%ebp),%eax
c0103617:	8b 00                	mov    (%eax),%eax
c0103619:	23 45 e0             	and    -0x20(%ebp),%eax
c010361c:	89 45 dc             	mov    %eax,-0x24(%ebp)
c010361f:	8b 45 f4             	mov    -0xc(%ebp),%eax
c0103622:	8b 00                	mov    (%eax),%eax
c0103624:	23 45 e0             	and    -0x20(%ebp),%eax
c0103627:	89 c2                	mov    %eax,%edx
c0103629:	8b 45 f4             	mov    -0xc(%ebp),%eax
c010362c:	8b 40 04             	mov    0x4(%eax),%eax
c010362f:	01 d0                	add    %edx,%eax
c0103631:	89 45 d8             	mov    %eax,-0x28(%ebp)
c0103634:	8b 55 d8             	mov    -0x28(%ebp),%edx
c0103637:	8b 45 08             	mov    0x8(%ebp),%eax
c010363a:	01 d0                	add    %edx,%eax
c010363c:	39 45 dc             	cmp    %eax,-0x24(%ebp)
c010363f:	72 08                	jb     c0103649 <page_kalloc+0x11b>
c0103641:	8b 45 d8             	mov    -0x28(%ebp),%eax
c0103644:	89 45 ec             	mov    %eax,-0x14(%ebp)
c0103647:	eb 18                	jmp    c0103661 <page_kalloc+0x133>
c0103649:	8b 45 f4             	mov    -0xc(%ebp),%eax
c010364c:	89 45 f0             	mov    %eax,-0x10(%ebp)
c010364f:	8b 45 f4             	mov    -0xc(%ebp),%eax
c0103652:	8b 40 0c             	mov    0xc(%eax),%eax
c0103655:	89 45 f4             	mov    %eax,-0xc(%ebp)
c0103658:	83 7d f4 00          	cmpl   $0x0,-0xc(%ebp)
c010365c:	75 a0                	jne    c01035fe <page_kalloc+0xd0>
c010365e:	eb 01                	jmp    c0103661 <page_kalloc+0x133>
c0103660:	90                   	nop
c0103661:	83 7d f4 00          	cmpl   $0x0,-0xc(%ebp)
c0103665:	75 24                	jne    c010368b <page_kalloc+0x15d>
c0103667:	a1 0c b0 10 c0       	mov    0xc010b00c,%eax
c010366c:	8b 50 0c             	mov    0xc(%eax),%edx
c010366f:	8b 45 08             	mov    0x8(%ebp),%eax
c0103672:	01 c2                	add    %eax,%edx
c0103674:	8b 45 f0             	mov    -0x10(%ebp),%eax
c0103677:	8b 00                	mov    (%eax),%eax
c0103679:	23 45 e0             	and    -0x20(%ebp),%eax
c010367c:	39 d0                	cmp    %edx,%eax
c010367e:	72 0b                	jb     c010368b <page_kalloc+0x15d>
c0103680:	a1 0c b0 10 c0       	mov    0xc010b00c,%eax
c0103685:	8b 40 0c             	mov    0xc(%eax),%eax
c0103688:	89 45 ec             	mov    %eax,-0x14(%ebp)
c010368b:	83 7d ec 00          	cmpl   $0x0,-0x14(%ebp)
c010368f:	75 1a                	jne    c01036ab <page_kalloc+0x17d>
c0103691:	83 ec 0c             	sub    $0xc,%esp
c0103694:	68 02 55 10 c0       	push   $0xc0105502
c0103699:	e8 82 14 00 00       	call   c0104b20 <logf>
c010369e:	83 c4 10             	add    $0x10,%esp
c01036a1:	b8 00 00 00 00       	mov    $0x0,%eax
c01036a6:	e9 fb 00 00 00       	jmp    c01037a6 <page_kalloc+0x278>
c01036ab:	e8 cb fd ff ff       	call   c010347b <alloc_vm_obj>
c01036b0:	89 45 d4             	mov    %eax,-0x2c(%ebp)
c01036b3:	8b 45 ec             	mov    -0x14(%ebp),%eax
c01036b6:	83 c8 01             	or     $0x1,%eax
c01036b9:	89 c2                	mov    %eax,%edx
c01036bb:	8b 45 d4             	mov    -0x2c(%ebp),%eax
c01036be:	89 10                	mov    %edx,(%eax)
c01036c0:	8b 45 d4             	mov    -0x2c(%ebp),%eax
c01036c3:	8b 55 08             	mov    0x8(%ebp),%edx
c01036c6:	89 50 04             	mov    %edx,0x4(%eax)
c01036c9:	8b 45 d4             	mov    -0x2c(%ebp),%eax
c01036cc:	8b 55 0c             	mov    0xc(%ebp),%edx
c01036cf:	89 50 08             	mov    %edx,0x8(%eax)
c01036d2:	8b 45 d4             	mov    -0x2c(%ebp),%eax
c01036d5:	8b 55 f4             	mov    -0xc(%ebp),%edx
c01036d8:	89 50 0c             	mov    %edx,0xc(%eax)
c01036db:	83 7d f0 00          	cmpl   $0x0,-0x10(%ebp)
c01036df:	74 0b                	je     c01036ec <page_kalloc+0x1be>
c01036e1:	8b 45 f0             	mov    -0x10(%ebp),%eax
c01036e4:	8b 55 d4             	mov    -0x2c(%ebp),%edx
c01036e7:	89 50 0c             	mov    %edx,0xc(%eax)
c01036ea:	eb 0b                	jmp    c01036f7 <page_kalloc+0x1c9>
c01036ec:	a1 0c b0 10 c0       	mov    0xc010b00c,%eax
c01036f1:	8b 55 d4             	mov    -0x2c(%ebp),%edx
c01036f4:	89 50 04             	mov    %edx,0x4(%eax)
c01036f7:	83 7d 10 00          	cmpl   $0x0,0x10(%ebp)
c01036fb:	75 3f                	jne    c010373c <page_kalloc+0x20e>
c01036fd:	c7 45 e8 00 00 00 00 	movl   $0x0,-0x18(%ebp)
c0103704:	eb 2c                	jmp    c0103732 <page_kalloc+0x204>
c0103706:	8b 55 e8             	mov    -0x18(%ebp),%edx
c0103709:	8b 45 ec             	mov    -0x14(%ebp),%eax
c010370c:	01 d0                	add    %edx,%eax
c010370e:	89 c3                	mov    %eax,%ebx
c0103710:	e8 77 fa ff ff       	call   c010318c <alloc_phys_page>
c0103715:	8b 15 0c b0 10 c0    	mov    0xc010b00c,%edx
c010371b:	8b 12                	mov    (%edx),%edx
c010371d:	ff 75 0c             	push   0xc(%ebp)
c0103720:	53                   	push   %ebx
c0103721:	50                   	push   %eax
c0103722:	52                   	push   %edx
c0103723:	e8 fb 0b 00 00       	call   c0104323 <memory_map>
c0103728:	83 c4 10             	add    $0x10,%esp
c010372b:	81 45 e8 00 10 00 00 	addl   $0x1000,-0x18(%ebp)
c0103732:	8b 45 e8             	mov    -0x18(%ebp),%eax
c0103735:	3b 45 08             	cmp    0x8(%ebp),%eax
c0103738:	72 cc                	jb     c0103706 <page_kalloc+0x1d8>
c010373a:	eb 48                	jmp    c0103784 <page_kalloc+0x256>
c010373c:	c7 45 e4 00 00 00 00 	movl   $0x0,-0x1c(%ebp)
c0103743:	eb 37                	jmp    c010377c <page_kalloc+0x24e>
c0103745:	8b 55 e4             	mov    -0x1c(%ebp),%edx
c0103748:	8b 45 ec             	mov    -0x14(%ebp),%eax
c010374b:	01 d0                	add    %edx,%eax
c010374d:	89 c1                	mov    %eax,%ecx
c010374f:	8b 45 10             	mov    0x10(%ebp),%eax
c0103752:	25 00 f0 ff ff       	and    $0xfffff000,%eax
c0103757:	89 c2                	mov    %eax,%edx
c0103759:	8b 45 e4             	mov    -0x1c(%ebp),%eax
c010375c:	01 d0                	add    %edx,%eax
c010375e:	89 c2                	mov    %eax,%edx
c0103760:	a1 0c b0 10 c0       	mov    0xc010b00c,%eax
c0103765:	8b 00                	mov    (%eax),%eax
c0103767:	ff 75 0c             	push   0xc(%ebp)
c010376a:	51                   	push   %ecx
c010376b:	52                   	push   %edx
c010376c:	50                   	push   %eax
c010376d:	e8 b1 0b 00 00       	call   c0104323 <memory_map>
c0103772:	83 c4 10             	add    $0x10,%esp
c0103775:	81 45 e4 00 10 00 00 	addl   $0x1000,-0x1c(%ebp)
c010377c:	8b 45 e4             	mov    -0x1c(%ebp),%eax
c010377f:	3b 45 08             	cmp    0x8(%ebp),%eax
c0103782:	72 c1                	jb     c0103745 <page_kalloc+0x217>
c0103784:	83 ec 08             	sub    $0x8,%esp
c0103787:	ff 75 10             	push   0x10(%ebp)
c010378a:	68 0d 55 10 c0       	push   $0xc010550d
c010378f:	e8 8c 13 00 00       	call   c0104b20 <logf>
c0103794:	83 c4 10             	add    $0x10,%esp
c0103797:	8b 45 10             	mov    0x10(%ebp),%eax
c010379a:	25 ff 0f 00 00       	and    $0xfff,%eax
c010379f:	89 c2                	mov    %eax,%edx
c01037a1:	8b 45 ec             	mov    -0x14(%ebp),%eax
c01037a4:	01 d0                	add    %edx,%eax
c01037a6:	8b 5d fc             	mov    -0x4(%ebp),%ebx
c01037a9:	c9                   	leave
c01037aa:	c3                   	ret

c01037ab <page_free>:
c01037ab:	55                   	push   %ebp
c01037ac:	89 e5                	mov    %esp,%ebp
c01037ae:	83 ec 18             	sub    $0x18,%esp
c01037b1:	a1 0c b0 10 c0       	mov    0xc010b00c,%eax
c01037b6:	8b 40 04             	mov    0x4(%eax),%eax
c01037b9:	89 45 f4             	mov    %eax,-0xc(%ebp)
c01037bc:	c7 45 f0 00 00 00 00 	movl   $0x0,-0x10(%ebp)
c01037c3:	83 ec 0c             	sub    $0xc,%esp
c01037c6:	68 20 55 10 c0       	push   $0xc0105520
c01037cb:	e8 50 13 00 00       	call   c0104b20 <logf>
c01037d0:	83 c4 10             	add    $0x10,%esp
c01037d3:	eb 22                	jmp    c01037f7 <page_free+0x4c>
c01037d5:	83 7d f4 00          	cmpl   $0x0,-0xc(%ebp)
c01037d9:	74 24                	je     c01037ff <page_free+0x54>
c01037db:	8b 45 f4             	mov    -0xc(%ebp),%eax
c01037de:	8b 00                	mov    (%eax),%eax
c01037e0:	83 e0 fe             	and    $0xfffffffe,%eax
c01037e3:	39 45 08             	cmp    %eax,0x8(%ebp)
c01037e6:	74 1a                	je     c0103802 <page_free+0x57>
c01037e8:	8b 45 f4             	mov    -0xc(%ebp),%eax
c01037eb:	89 45 f0             	mov    %eax,-0x10(%ebp)
c01037ee:	8b 45 f4             	mov    -0xc(%ebp),%eax
c01037f1:	8b 40 0c             	mov    0xc(%eax),%eax
c01037f4:	89 45 f4             	mov    %eax,-0xc(%ebp)
c01037f7:	83 7d f4 00          	cmpl   $0x0,-0xc(%ebp)
c01037fb:	75 d8                	jne    c01037d5 <page_free+0x2a>
c01037fd:	eb 04                	jmp    c0103803 <page_free+0x58>
c01037ff:	90                   	nop
c0103800:	eb 01                	jmp    c0103803 <page_free+0x58>
c0103802:	90                   	nop
c0103803:	83 7d f4 00          	cmpl   $0x0,-0xc(%ebp)
c0103807:	75 15                	jne    c010381e <page_free+0x73>
c0103809:	83 ec 08             	sub    $0x8,%esp
c010380c:	ff 75 08             	push   0x8(%ebp)
c010380f:	68 46 55 10 c0       	push   $0xc0105546
c0103814:	e8 07 13 00 00       	call   c0104b20 <logf>
c0103819:	83 c4 10             	add    $0x10,%esp
c010381c:	eb 6d                	jmp    c010388b <page_free+0xe0>
c010381e:	83 7d f0 00          	cmpl   $0x0,-0x10(%ebp)
c0103822:	74 0e                	je     c0103832 <page_free+0x87>
c0103824:	8b 45 f4             	mov    -0xc(%ebp),%eax
c0103827:	8b 50 0c             	mov    0xc(%eax),%edx
c010382a:	8b 45 f0             	mov    -0x10(%ebp),%eax
c010382d:	89 50 0c             	mov    %edx,0xc(%eax)
c0103830:	eb 0e                	jmp    c0103840 <page_free+0x95>
c0103832:	a1 0c b0 10 c0       	mov    0xc010b00c,%eax
c0103837:	8b 55 f4             	mov    -0xc(%ebp),%edx
c010383a:	8b 52 0c             	mov    0xc(%edx),%edx
c010383d:	89 50 04             	mov    %edx,0x4(%eax)
c0103840:	c7 45 ec 00 00 00 00 	movl   $0x0,-0x14(%ebp)
c0103847:	eb 23                	jmp    c010386c <page_free+0xc1>
c0103849:	8b 55 ec             	mov    -0x14(%ebp),%edx
c010384c:	8b 45 08             	mov    0x8(%ebp),%eax
c010384f:	01 c2                	add    %eax,%edx
c0103851:	a1 0c b0 10 c0       	mov    0xc010b00c,%eax
c0103856:	8b 00                	mov    (%eax),%eax
c0103858:	83 ec 08             	sub    $0x8,%esp
c010385b:	52                   	push   %edx
c010385c:	50                   	push   %eax
c010385d:	e8 49 0b 00 00       	call   c01043ab <memory_unmap>
c0103862:	83 c4 10             	add    $0x10,%esp
c0103865:	81 45 ec 00 10 00 00 	addl   $0x1000,-0x14(%ebp)
c010386c:	8b 45 f4             	mov    -0xc(%ebp),%eax
c010386f:	8b 40 04             	mov    0x4(%eax),%eax
c0103872:	8b 55 ec             	mov    -0x14(%ebp),%edx
c0103875:	39 c2                	cmp    %eax,%edx
c0103877:	72 d0                	jb     c0103849 <page_free+0x9e>
c0103879:	83 ec 04             	sub    $0x4,%esp
c010387c:	6a 10                	push   $0x10
c010387e:	6a 00                	push   $0x0
c0103880:	ff 75 f4             	push   -0xc(%ebp)
c0103883:	e8 7f e0 ff ff       	call   c0101907 <memset>
c0103888:	83 c4 10             	add    $0x10,%esp
c010388b:	c9                   	leave
c010388c:	c3                   	ret

c010388d <get_pixel_addr>:
c010388d:	55                   	push   %ebp
c010388e:	89 e5                	mov    %esp,%ebp
c0103890:	83 ec 10             	sub    $0x10,%esp
c0103893:	a1 1c b0 10 c0       	mov    0xc010b01c,%eax
c0103898:	8b 40 14             	mov    0x14(%eax),%eax
c010389b:	3b 45 08             	cmp    0x8(%ebp),%eax
c010389e:	73 0b                	jae    c01038ab <get_pixel_addr+0x1e>
c01038a0:	a1 1c b0 10 c0       	mov    0xc010b01c,%eax
c01038a5:	8b 40 14             	mov    0x14(%eax),%eax
c01038a8:	89 45 08             	mov    %eax,0x8(%ebp)
c01038ab:	a1 1c b0 10 c0       	mov    0xc010b01c,%eax
c01038b0:	8b 40 18             	mov    0x18(%eax),%eax
c01038b3:	3b 45 0c             	cmp    0xc(%ebp),%eax
c01038b6:	73 0b                	jae    c01038c3 <get_pixel_addr+0x36>
c01038b8:	a1 1c b0 10 c0       	mov    0xc010b01c,%eax
c01038bd:	8b 40 18             	mov    0x18(%eax),%eax
c01038c0:	89 45 0c             	mov    %eax,0xc(%ebp)
c01038c3:	a1 1c b0 10 c0       	mov    0xc010b01c,%eax
c01038c8:	8b 40 10             	mov    0x10(%eax),%eax
c01038cb:	8b 55 0c             	mov    0xc(%ebp),%edx
c01038ce:	0f af c2             	imul   %edx,%eax
c01038d1:	89 45 fc             	mov    %eax,-0x4(%ebp)
c01038d4:	a1 2c b0 10 c0       	mov    0xc010b02c,%eax
c01038d9:	8b 55 08             	mov    0x8(%ebp),%edx
c01038dc:	0f af c2             	imul   %edx,%eax
c01038df:	89 45 f8             	mov    %eax,-0x8(%ebp)
c01038e2:	a1 60 82 10 c0       	mov    0xc0108260,%eax
c01038e7:	89 c2                	mov    %eax,%edx
c01038e9:	8b 45 fc             	mov    -0x4(%ebp),%eax
c01038ec:	01 c2                	add    %eax,%edx
c01038ee:	8b 45 f8             	mov    -0x8(%ebp),%eax
c01038f1:	01 d0                	add    %edx,%eax
c01038f3:	89 45 f4             	mov    %eax,-0xc(%ebp)
c01038f6:	8b 45 f4             	mov    -0xc(%ebp),%eax
c01038f9:	c9                   	leave
c01038fa:	c3                   	ret

c01038fb <init_framebuffer>:
c01038fb:	55                   	push   %ebp
c01038fc:	89 e5                	mov    %esp,%ebp
c01038fe:	83 ec 18             	sub    $0x18,%esp
c0103901:	a1 1c b0 10 c0       	mov    0xc010b01c,%eax
c0103906:	8b 50 0c             	mov    0xc(%eax),%edx
c0103909:	8b 40 08             	mov    0x8(%eax),%eax
c010390c:	89 45 f4             	mov    %eax,-0xc(%ebp)
c010390f:	a1 1c b0 10 c0       	mov    0xc010b01c,%eax
c0103914:	8b 50 10             	mov    0x10(%eax),%edx
c0103917:	a1 1c b0 10 c0       	mov    0xc010b01c,%eax
c010391c:	8b 40 18             	mov    0x18(%eax),%eax
c010391f:	0f af c2             	imul   %edx,%eax
c0103922:	89 45 f0             	mov    %eax,-0x10(%ebp)
c0103925:	a1 1c b0 10 c0       	mov    0xc010b01c,%eax
c010392a:	0f b6 40 1d          	movzbl 0x1d(%eax),%eax
c010392e:	0f b6 c0             	movzbl %al,%eax
c0103931:	83 ec 08             	sub    $0x8,%esp
c0103934:	50                   	push   %eax
c0103935:	68 64 55 10 c0       	push   $0xc0105564
c010393a:	e8 e1 11 00 00       	call   c0104b20 <logf>
c010393f:	83 c4 10             	add    $0x10,%esp
c0103942:	8b 45 f4             	mov    -0xc(%ebp),%eax
c0103945:	83 ec 04             	sub    $0x4,%esp
c0103948:	50                   	push   %eax
c0103949:	6a 03                	push   $0x3
c010394b:	ff 75 f0             	push   -0x10(%ebp)
c010394e:	e8 db fb ff ff       	call   c010352e <page_kalloc>
c0103953:	83 c4 10             	add    $0x10,%esp
c0103956:	a3 60 82 10 c0       	mov    %eax,0xc0108260
c010395b:	a1 1c b0 10 c0       	mov    0xc010b01c,%eax
c0103960:	0f b6 40 1c          	movzbl 0x1c(%eax),%eax
c0103964:	c0 e8 03             	shr    $0x3,%al
c0103967:	0f b6 c0             	movzbl %al,%eax
c010396a:	a3 2c b0 10 c0       	mov    %eax,0xc010b02c
c010396f:	a1 1c b0 10 c0       	mov    0xc010b01c,%eax
c0103974:	8b 40 14             	mov    0x14(%eax),%eax
c0103977:	0f b7 c0             	movzwl %ax,%eax
c010397a:	83 ec 0c             	sub    $0xc,%esp
c010397d:	50                   	push   %eax
c010397e:	e8 7d f2 ff ff       	call   c0102c00 <fb_set_width>
c0103983:	83 c4 10             	add    $0x10,%esp
c0103986:	a1 1c b0 10 c0       	mov    0xc010b01c,%eax
c010398b:	8b 40 18             	mov    0x18(%eax),%eax
c010398e:	0f b7 c0             	movzwl %ax,%eax
c0103991:	83 ec 0c             	sub    $0xc,%esp
c0103994:	50                   	push   %eax
c0103995:	e8 80 f2 ff ff       	call   c0102c1a <fb_set_height>
c010399a:	83 c4 10             	add    $0x10,%esp
c010399d:	90                   	nop
c010399e:	c9                   	leave
c010399f:	c3                   	ret

c01039a0 <parse_MADT>:
c01039a0:	55                   	push   %ebp
c01039a1:	89 e5                	mov    %esp,%ebp
c01039a3:	83 ec 38             	sub    $0x38,%esp
c01039a6:	8b 55 08             	mov    0x8(%ebp),%edx
c01039a9:	8b 45 0c             	mov    0xc(%ebp),%eax
c01039ac:	88 55 d4             	mov    %dl,-0x2c(%ebp)
c01039af:	88 45 d0             	mov    %al,-0x30(%ebp)
c01039b2:	83 ec 0c             	sub    $0xc,%esp
c01039b5:	68 7d 55 10 c0       	push   $0xc010557d
c01039ba:	e8 cf 00 00 00       	call   c0103a8e <get_sdt_by_signature>
c01039bf:	83 c4 10             	add    $0x10,%esp
c01039c2:	89 45 e8             	mov    %eax,-0x18(%ebp)
c01039c5:	66 c7 45 f6 2c 00    	movw   $0x2c,-0xa(%ebp)
c01039cb:	0f b7 55 f6          	movzwl -0xa(%ebp),%edx
c01039cf:	8b 45 e8             	mov    -0x18(%ebp),%eax
c01039d2:	01 d0                	add    %edx,%eax
c01039d4:	89 45 f0             	mov    %eax,-0x10(%ebp)
c01039d7:	c6 45 ef 00          	movb   $0x0,-0x11(%ebp)
c01039db:	eb 47                	jmp    c0103a24 <parse_MADT+0x84>
c01039dd:	8b 45 f0             	mov    -0x10(%ebp),%eax
c01039e0:	89 45 e4             	mov    %eax,-0x1c(%ebp)
c01039e3:	8b 45 e4             	mov    -0x1c(%ebp),%eax
c01039e6:	0f b6 00             	movzbl (%eax),%eax
c01039e9:	38 45 d4             	cmp    %al,-0x2c(%ebp)
c01039ec:	75 1b                	jne    c0103a09 <parse_MADT+0x69>
c01039ee:	0f b6 45 ef          	movzbl -0x11(%ebp),%eax
c01039f2:	83 c0 01             	add    $0x1,%eax
c01039f5:	88 45 ef             	mov    %al,-0x11(%ebp)
c01039f8:	0f b6 45 ef          	movzbl -0x11(%ebp),%eax
c01039fc:	3a 45 d0             	cmp    -0x30(%ebp),%al
c01039ff:	75 08                	jne    c0103a09 <parse_MADT+0x69>
c0103a01:	8b 45 f0             	mov    -0x10(%ebp),%eax
c0103a04:	83 c0 02             	add    $0x2,%eax
c0103a07:	eb 43                	jmp    c0103a4c <parse_MADT+0xac>
c0103a09:	8b 45 e4             	mov    -0x1c(%ebp),%eax
c0103a0c:	0f b6 40 01          	movzbl 0x1(%eax),%eax
c0103a10:	0f b6 c0             	movzbl %al,%eax
c0103a13:	66 01 45 f6          	add    %ax,-0xa(%ebp)
c0103a17:	8b 45 e4             	mov    -0x1c(%ebp),%eax
c0103a1a:	0f b6 40 01          	movzbl 0x1(%eax),%eax
c0103a1e:	0f b6 c0             	movzbl %al,%eax
c0103a21:	01 45 f0             	add    %eax,-0x10(%ebp)
c0103a24:	0f b7 45 f6          	movzwl -0xa(%ebp),%eax
c0103a28:	8b 55 e8             	mov    -0x18(%ebp),%edx
c0103a2b:	8b 52 04             	mov    0x4(%edx),%edx
c0103a2e:	39 c2                	cmp    %eax,%edx
c0103a30:	73 ab                	jae    c01039dd <parse_MADT+0x3d>
c0103a32:	0f b6 45 d4          	movzbl -0x2c(%ebp),%eax
c0103a36:	83 ec 08             	sub    $0x8,%esp
c0103a39:	50                   	push   %eax
c0103a3a:	68 84 55 10 c0       	push   $0xc0105584
c0103a3f:	e8 dc 10 00 00       	call   c0104b20 <logf>
c0103a44:	83 c4 10             	add    $0x10,%esp
c0103a47:	b8 00 00 00 00       	mov    $0x0,%eax
c0103a4c:	c9                   	leave
c0103a4d:	c3                   	ret

c0103a4e <validate_RSDP>:
c0103a4e:	55                   	push   %ebp
c0103a4f:	89 e5                	mov    %esp,%ebp
c0103a51:	83 ec 10             	sub    $0x10,%esp
c0103a54:	c7 45 fc 00 00 00 00 	movl   $0x0,-0x4(%ebp)
c0103a5b:	c7 45 f8 00 00 00 00 	movl   $0x0,-0x8(%ebp)
c0103a62:	eb 15                	jmp    c0103a79 <validate_RSDP+0x2b>
c0103a64:	8b 55 f8             	mov    -0x8(%ebp),%edx
c0103a67:	8b 45 08             	mov    0x8(%ebp),%eax
c0103a6a:	01 d0                	add    %edx,%eax
c0103a6c:	0f b6 00             	movzbl (%eax),%eax
c0103a6f:	0f be c0             	movsbl %al,%eax
c0103a72:	01 45 fc             	add    %eax,-0x4(%ebp)
c0103a75:	83 45 f8 01          	addl   $0x1,-0x8(%ebp)
c0103a79:	8b 45 f8             	mov    -0x8(%ebp),%eax
c0103a7c:	3b 45 0c             	cmp    0xc(%ebp),%eax
c0103a7f:	72 e3                	jb     c0103a64 <validate_RSDP+0x16>
c0103a81:	8b 45 fc             	mov    -0x4(%ebp),%eax
c0103a84:	0f b6 c0             	movzbl %al,%eax
c0103a87:	85 c0                	test   %eax,%eax
c0103a89:	0f 94 c0             	sete   %al
c0103a8c:	c9                   	leave
c0103a8d:	c3                   	ret

c0103a8e <get_sdt_by_signature>:
c0103a8e:	55                   	push   %ebp
c0103a8f:	89 e5                	mov    %esp,%ebp
c0103a91:	83 ec 28             	sub    $0x28,%esp
c0103a94:	a1 18 b0 10 c0       	mov    0xc010b018,%eax
c0103a99:	8b 40 04             	mov    0x4(%eax),%eax
c0103a9c:	83 e8 24             	sub    $0x24,%eax
c0103a9f:	c1 e8 02             	shr    $0x2,%eax
c0103aa2:	83 e8 01             	sub    $0x1,%eax
c0103aa5:	89 45 f0             	mov    %eax,-0x10(%ebp)
c0103aa8:	a1 18 b0 10 c0       	mov    0xc010b018,%eax
c0103aad:	89 45 ec             	mov    %eax,-0x14(%ebp)
c0103ab0:	8b 45 ec             	mov    -0x14(%ebp),%eax
c0103ab3:	8b 40 04             	mov    0x4(%eax),%eax
c0103ab6:	83 e8 24             	sub    $0x24,%eax
c0103ab9:	c1 e8 02             	shr    $0x2,%eax
c0103abc:	89 45 e8             	mov    %eax,-0x18(%ebp)
c0103abf:	c7 45 f4 00 00 00 00 	movl   $0x0,-0xc(%ebp)
c0103ac6:	eb 31                	jmp    c0103af9 <get_sdt_by_signature+0x6b>
c0103ac8:	8b 45 ec             	mov    -0x14(%ebp),%eax
c0103acb:	8b 55 f4             	mov    -0xc(%ebp),%edx
c0103ace:	83 c2 08             	add    $0x8,%edx
c0103ad1:	8b 44 90 04          	mov    0x4(%eax,%edx,4),%eax
c0103ad5:	89 45 e4             	mov    %eax,-0x1c(%ebp)
c0103ad8:	8b 45 e4             	mov    -0x1c(%ebp),%eax
c0103adb:	83 ec 04             	sub    $0x4,%esp
c0103ade:	6a 04                	push   $0x4
c0103ae0:	50                   	push   %eax
c0103ae1:	ff 75 08             	push   0x8(%ebp)
c0103ae4:	e8 6d de ff ff       	call   c0101956 <strcmp>
c0103ae9:	83 c4 10             	add    $0x10,%esp
c0103aec:	84 c0                	test   %al,%al
c0103aee:	74 05                	je     c0103af5 <get_sdt_by_signature+0x67>
c0103af0:	8b 45 e4             	mov    -0x1c(%ebp),%eax
c0103af3:	eb 21                	jmp    c0103b16 <get_sdt_by_signature+0x88>
c0103af5:	83 45 f4 01          	addl   $0x1,-0xc(%ebp)
c0103af9:	8b 45 f4             	mov    -0xc(%ebp),%eax
c0103afc:	3b 45 e8             	cmp    -0x18(%ebp),%eax
c0103aff:	7c c7                	jl     c0103ac8 <get_sdt_by_signature+0x3a>
c0103b01:	83 ec 0c             	sub    $0xc,%esp
c0103b04:	68 a8 55 10 c0       	push   $0xc01055a8
c0103b09:	e8 8b 11 00 00       	call   c0104c99 <panic>
c0103b0e:	83 c4 10             	add    $0x10,%esp
c0103b11:	b8 00 00 00 00       	mov    $0x0,%eax
c0103b16:	c9                   	leave
c0103b17:	c3                   	ret

c0103b18 <init_rsdt_v1>:
c0103b18:	55                   	push   %ebp
c0103b19:	89 e5                	mov    %esp,%ebp
c0103b1b:	83 ec 18             	sub    $0x18,%esp
c0103b1e:	a1 20 b0 10 c0       	mov    0xc010b020,%eax
c0103b23:	85 c0                	test   %eax,%eax
c0103b25:	74 69                	je     c0103b90 <init_rsdt_v1+0x78>
c0103b27:	a1 20 b0 10 c0       	mov    0xc010b020,%eax
c0103b2c:	83 c0 08             	add    $0x8,%eax
c0103b2f:	89 45 f4             	mov    %eax,-0xc(%ebp)
c0103b32:	6a 04                	push   $0x4
c0103b34:	ff 75 f4             	push   -0xc(%ebp)
c0103b37:	e8 12 ff ff ff       	call   c0103a4e <validate_RSDP>
c0103b3c:	83 c4 08             	add    $0x8,%esp
c0103b3f:	84 c0                	test   %al,%al
c0103b41:	74 12                	je     c0103b55 <init_rsdt_v1+0x3d>
c0103b43:	83 ec 0c             	sub    $0xc,%esp
c0103b46:	68 cc 55 10 c0       	push   $0xc01055cc
c0103b4b:	e8 d0 0f 00 00       	call   c0104b20 <logf>
c0103b50:	83 c4 10             	add    $0x10,%esp
c0103b53:	eb 3c                	jmp    c0103b91 <init_rsdt_v1+0x79>
c0103b55:	8b 45 f4             	mov    -0xc(%ebp),%eax
c0103b58:	8b 40 10             	mov    0x10(%eax),%eax
c0103b5b:	25 00 f0 ff ff       	and    $0xfffff000,%eax
c0103b60:	89 c1                	mov    %eax,%ecx
c0103b62:	8b 45 f4             	mov    -0xc(%ebp),%eax
c0103b65:	8b 40 10             	mov    0x10(%eax),%eax
c0103b68:	25 00 f0 ff ff       	and    $0xfffff000,%eax
c0103b6d:	89 c2                	mov    %eax,%edx
c0103b6f:	a1 0c b0 10 c0       	mov    0xc010b00c,%eax
c0103b74:	8b 00                	mov    (%eax),%eax
c0103b76:	6a 01                	push   $0x1
c0103b78:	51                   	push   %ecx
c0103b79:	52                   	push   %edx
c0103b7a:	50                   	push   %eax
c0103b7b:	e8 a3 07 00 00       	call   c0104323 <memory_map>
c0103b80:	83 c4 10             	add    $0x10,%esp
c0103b83:	8b 45 f4             	mov    -0xc(%ebp),%eax
c0103b86:	8b 40 10             	mov    0x10(%eax),%eax
c0103b89:	a3 18 b0 10 c0       	mov    %eax,0xc010b018
c0103b8e:	eb 01                	jmp    c0103b91 <init_rsdt_v1+0x79>
c0103b90:	90                   	nop
c0103b91:	c9                   	leave
c0103b92:	c3                   	ret

c0103b93 <init_multiboot>:
c0103b93:	55                   	push   %ebp
c0103b94:	89 e5                	mov    %esp,%ebp
c0103b96:	83 ec 28             	sub    $0x28,%esp
c0103b99:	c7 45 e4 00 00 00 00 	movl   $0x0,-0x1c(%ebp)
c0103ba0:	c7 45 e8 00 00 00 00 	movl   $0x0,-0x18(%ebp)
c0103ba7:	c7 45 ec 00 00 00 00 	movl   $0x0,-0x14(%ebp)
c0103bae:	8b 45 0c             	mov    0xc(%ebp),%eax
c0103bb1:	8b 00                	mov    (%eax),%eax
c0103bb3:	89 45 f0             	mov    %eax,-0x10(%ebp)
c0103bb6:	8b 45 0c             	mov    0xc(%ebp),%eax
c0103bb9:	83 c0 08             	add    $0x8,%eax
c0103bbc:	89 45 f4             	mov    %eax,-0xc(%ebp)
c0103bbf:	eb 5d                	jmp    c0103c1e <init_multiboot+0x8b>
c0103bc1:	8b 45 f4             	mov    -0xc(%ebp),%eax
c0103bc4:	8b 00                	mov    (%eax),%eax
c0103bc6:	83 f8 0f             	cmp    $0xf,%eax
c0103bc9:	74 43                	je     c0103c0e <init_multiboot+0x7b>
c0103bcb:	83 f8 0f             	cmp    $0xf,%eax
c0103bce:	77 3f                	ja     c0103c0f <init_multiboot+0x7c>
c0103bd0:	83 f8 0e             	cmp    $0xe,%eax
c0103bd3:	74 31                	je     c0103c06 <init_multiboot+0x73>
c0103bd5:	83 f8 0e             	cmp    $0xe,%eax
c0103bd8:	77 35                	ja     c0103c0f <init_multiboot+0x7c>
c0103bda:	83 f8 06             	cmp    $0x6,%eax
c0103bdd:	74 07                	je     c0103be6 <init_multiboot+0x53>
c0103bdf:	83 f8 08             	cmp    $0x8,%eax
c0103be2:	74 1a                	je     c0103bfe <init_multiboot+0x6b>
c0103be4:	eb 29                	jmp    c0103c0f <init_multiboot+0x7c>
c0103be6:	83 ec 0c             	sub    $0xc,%esp
c0103be9:	68 e6 55 10 c0       	push   $0xc01055e6
c0103bee:	e8 2d 0f 00 00       	call   c0104b20 <logf>
c0103bf3:	83 c4 10             	add    $0x10,%esp
c0103bf6:	8b 45 f4             	mov    -0xc(%ebp),%eax
c0103bf9:	89 45 e4             	mov    %eax,-0x1c(%ebp)
c0103bfc:	eb 11                	jmp    c0103c0f <init_multiboot+0x7c>
c0103bfe:	8b 45 f4             	mov    -0xc(%ebp),%eax
c0103c01:	89 45 e8             	mov    %eax,-0x18(%ebp)
c0103c04:	eb 09                	jmp    c0103c0f <init_multiboot+0x7c>
c0103c06:	8b 45 f4             	mov    -0xc(%ebp),%eax
c0103c09:	89 45 ec             	mov    %eax,-0x14(%ebp)
c0103c0c:	eb 01                	jmp    c0103c0f <init_multiboot+0x7c>
c0103c0e:	90                   	nop
c0103c0f:	8b 45 f4             	mov    -0xc(%ebp),%eax
c0103c12:	8b 40 04             	mov    0x4(%eax),%eax
c0103c15:	83 c0 07             	add    $0x7,%eax
c0103c18:	83 e0 f8             	and    $0xfffffff8,%eax
c0103c1b:	01 45 f4             	add    %eax,-0xc(%ebp)
c0103c1e:	8b 45 f4             	mov    -0xc(%ebp),%eax
c0103c21:	8b 00                	mov    (%eax),%eax
c0103c23:	85 c0                	test   %eax,%eax
c0103c25:	75 9a                	jne    c0103bc1 <init_multiboot+0x2e>
c0103c27:	8b 45 e8             	mov    -0x18(%ebp),%eax
c0103c2a:	a3 1c b0 10 c0       	mov    %eax,0xc010b01c
c0103c2f:	8b 45 ec             	mov    -0x14(%ebp),%eax
c0103c32:	a3 20 b0 10 c0       	mov    %eax,0xc010b020
c0103c37:	a1 20 b0 10 c0       	mov    0xc010b020,%eax
c0103c3c:	85 c0                	test   %eax,%eax
c0103c3e:	74 05                	je     c0103c45 <init_multiboot+0xb2>
c0103c40:	e8 d3 fe ff ff       	call   c0103b18 <init_rsdt_v1>
c0103c45:	8b 45 e4             	mov    -0x1c(%ebp),%eax
c0103c48:	83 ec 0c             	sub    $0xc,%esp
c0103c4b:	50                   	push   %eax
c0103c4c:	e8 e9 f2 ff ff       	call   c0102f3a <set_memory_map>
c0103c51:	83 c4 10             	add    $0x10,%esp
c0103c54:	8b 45 08             	mov    0x8(%ebp),%eax
c0103c57:	8b 55 e4             	mov    -0x1c(%ebp),%edx
c0103c5a:	89 10                	mov    %edx,(%eax)
c0103c5c:	8b 55 e8             	mov    -0x18(%ebp),%edx
c0103c5f:	89 50 04             	mov    %edx,0x4(%eax)
c0103c62:	8b 55 ec             	mov    -0x14(%ebp),%edx
c0103c65:	89 50 08             	mov    %edx,0x8(%eax)
c0103c68:	8b 45 08             	mov    0x8(%ebp),%eax
c0103c6b:	c9                   	leave
c0103c6c:	c2 04 00             	ret    $0x4

c0103c6f <gdt_set_gate>:
c0103c6f:	55                   	push   %ebp
c0103c70:	89 e5                	mov    %esp,%ebp
c0103c72:	83 ec 08             	sub    $0x8,%esp
c0103c75:	8b 55 14             	mov    0x14(%ebp),%edx
c0103c78:	8b 45 18             	mov    0x18(%ebp),%eax
c0103c7b:	88 55 fc             	mov    %dl,-0x4(%ebp)
c0103c7e:	88 45 f8             	mov    %al,-0x8(%ebp)
c0103c81:	8b 45 0c             	mov    0xc(%ebp),%eax
c0103c84:	89 c2                	mov    %eax,%edx
c0103c86:	8b 45 08             	mov    0x8(%ebp),%eax
c0103c89:	66 89 14 c5 42 b0 10 	mov    %dx,-0x3fef4fbe(,%eax,8)
c0103c90:	c0 
c0103c91:	8b 45 0c             	mov    0xc(%ebp),%eax
c0103c94:	c1 e8 10             	shr    $0x10,%eax
c0103c97:	89 c2                	mov    %eax,%edx
c0103c99:	8b 45 08             	mov    0x8(%ebp),%eax
c0103c9c:	88 14 c5 44 b0 10 c0 	mov    %dl,-0x3fef4fbc(,%eax,8)
c0103ca3:	8b 45 0c             	mov    0xc(%ebp),%eax
c0103ca6:	c1 e8 18             	shr    $0x18,%eax
c0103ca9:	89 c2                	mov    %eax,%edx
c0103cab:	8b 45 08             	mov    0x8(%ebp),%eax
c0103cae:	88 14 c5 47 b0 10 c0 	mov    %dl,-0x3fef4fb9(,%eax,8)
c0103cb5:	8b 45 10             	mov    0x10(%ebp),%eax
c0103cb8:	89 c2                	mov    %eax,%edx
c0103cba:	8b 45 08             	mov    0x8(%ebp),%eax
c0103cbd:	66 89 14 c5 40 b0 10 	mov    %dx,-0x3fef4fc0(,%eax,8)
c0103cc4:	c0 
c0103cc5:	8b 45 10             	mov    0x10(%ebp),%eax
c0103cc8:	c1 e8 10             	shr    $0x10,%eax
c0103ccb:	83 e0 0f             	and    $0xf,%eax
c0103cce:	89 c2                	mov    %eax,%edx
c0103cd0:	8b 45 08             	mov    0x8(%ebp),%eax
c0103cd3:	88 14 c5 46 b0 10 c0 	mov    %dl,-0x3fef4fba(,%eax,8)
c0103cda:	8b 45 08             	mov    0x8(%ebp),%eax
c0103cdd:	0f b6 04 c5 46 b0 10 	movzbl -0x3fef4fba(,%eax,8),%eax
c0103ce4:	c0 
c0103ce5:	89 c2                	mov    %eax,%edx
c0103ce7:	0f b6 45 f8          	movzbl -0x8(%ebp),%eax
c0103ceb:	83 e0 f0             	and    $0xfffffff0,%eax
c0103cee:	09 d0                	or     %edx,%eax
c0103cf0:	89 c2                	mov    %eax,%edx
c0103cf2:	8b 45 08             	mov    0x8(%ebp),%eax
c0103cf5:	88 14 c5 46 b0 10 c0 	mov    %dl,-0x3fef4fba(,%eax,8)
c0103cfc:	8b 45 08             	mov    0x8(%ebp),%eax
c0103cff:	0f b6 55 fc          	movzbl -0x4(%ebp),%edx
c0103d03:	88 14 c5 45 b0 10 c0 	mov    %dl,-0x3fef4fbb(,%eax,8)
c0103d0a:	90                   	nop
c0103d0b:	c9                   	leave
c0103d0c:	c3                   	ret

c0103d0d <gdt_install>:
c0103d0d:	55                   	push   %ebp
c0103d0e:	89 e5                	mov    %esp,%ebp
c0103d10:	83 ec 08             	sub    $0x8,%esp
c0103d13:	66 c7 05 68 b0 10 c0 	movw   $0x27,0xc010b068
c0103d1a:	27 00 
c0103d1c:	b8 40 b0 10 c0       	mov    $0xc010b040,%eax
c0103d21:	a3 6a b0 10 c0       	mov    %eax,0xc010b06a
c0103d26:	6a 00                	push   $0x0
c0103d28:	6a 00                	push   $0x0
c0103d2a:	6a 00                	push   $0x0
c0103d2c:	6a 00                	push   $0x0
c0103d2e:	6a 00                	push   $0x0
c0103d30:	e8 3a ff ff ff       	call   c0103c6f <gdt_set_gate>
c0103d35:	83 c4 14             	add    $0x14,%esp
c0103d38:	68 cf 00 00 00       	push   $0xcf
c0103d3d:	68 9a 00 00 00       	push   $0x9a
c0103d42:	6a ff                	push   $0xffffffff
c0103d44:	6a 00                	push   $0x0
c0103d46:	6a 01                	push   $0x1
c0103d48:	e8 22 ff ff ff       	call   c0103c6f <gdt_set_gate>
c0103d4d:	83 c4 14             	add    $0x14,%esp
c0103d50:	68 cf 00 00 00       	push   $0xcf
c0103d55:	68 92 00 00 00       	push   $0x92
c0103d5a:	6a ff                	push   $0xffffffff
c0103d5c:	6a 00                	push   $0x0
c0103d5e:	6a 02                	push   $0x2
c0103d60:	e8 0a ff ff ff       	call   c0103c6f <gdt_set_gate>
c0103d65:	83 c4 14             	add    $0x14,%esp
c0103d68:	68 cf 00 00 00       	push   $0xcf
c0103d6d:	68 fa 00 00 00       	push   $0xfa
c0103d72:	6a ff                	push   $0xffffffff
c0103d74:	6a 00                	push   $0x0
c0103d76:	6a 03                	push   $0x3
c0103d78:	e8 f2 fe ff ff       	call   c0103c6f <gdt_set_gate>
c0103d7d:	83 c4 14             	add    $0x14,%esp
c0103d80:	68 cf 00 00 00       	push   $0xcf
c0103d85:	68 f2 00 00 00       	push   $0xf2
c0103d8a:	6a ff                	push   $0xffffffff
c0103d8c:	6a 00                	push   $0x0
c0103d8e:	6a 04                	push   $0x4
c0103d90:	e8 da fe ff ff       	call   c0103c6f <gdt_set_gate>
c0103d95:	83 c4 14             	add    $0x14,%esp
c0103d98:	b8 68 b0 10 c0       	mov    $0xc010b068,%eax
c0103d9d:	83 ec 0c             	sub    $0xc,%esp
c0103da0:	50                   	push   %eax
c0103da1:	e8 76 f1 ff ff       	call   c0102f1c <flush_gdt>
c0103da6:	83 c4 10             	add    $0x10,%esp
c0103da9:	90                   	nop
c0103daa:	c9                   	leave
c0103dab:	c3                   	ret

c0103dac <idt_set_gate>:
c0103dac:	55                   	push   %ebp
c0103dad:	89 e5                	mov    %esp,%ebp
c0103daf:	83 ec 08             	sub    $0x8,%esp
c0103db2:	8b 55 08             	mov    0x8(%ebp),%edx
c0103db5:	8b 45 10             	mov    0x10(%ebp),%eax
c0103db8:	88 55 fc             	mov    %dl,-0x4(%ebp)
c0103dbb:	88 45 f8             	mov    %al,-0x8(%ebp)
c0103dbe:	0f b6 45 fc          	movzbl -0x4(%ebp),%eax
c0103dc2:	8b 55 0c             	mov    0xc(%ebp),%edx
c0103dc5:	66 89 14 c5 70 b0 10 	mov    %dx,-0x3fef4f90(,%eax,8)
c0103dcc:	c0 
c0103dcd:	0f b6 45 fc          	movzbl -0x4(%ebp),%eax
c0103dd1:	66 c7 04 c5 72 b0 10 	movw   $0x8,-0x3fef4f8e(,%eax,8)
c0103dd8:	c0 08 00 
c0103ddb:	0f b6 45 fc          	movzbl -0x4(%ebp),%eax
c0103ddf:	0f b6 55 f8          	movzbl -0x8(%ebp),%edx
c0103de3:	88 14 c5 75 b0 10 c0 	mov    %dl,-0x3fef4f8b(,%eax,8)
c0103dea:	8b 45 0c             	mov    0xc(%ebp),%eax
c0103ded:	c1 e8 10             	shr    $0x10,%eax
c0103df0:	89 c2                	mov    %eax,%edx
c0103df2:	0f b6 45 fc          	movzbl -0x4(%ebp),%eax
c0103df6:	66 89 14 c5 76 b0 10 	mov    %dx,-0x3fef4f8a(,%eax,8)
c0103dfd:	c0 
c0103dfe:	0f b6 45 fc          	movzbl -0x4(%ebp),%eax
c0103e02:	c6 04 c5 74 b0 10 c0 	movb   $0x0,-0x3fef4f8c(,%eax,8)
c0103e09:	00 
c0103e0a:	90                   	nop
c0103e0b:	c9                   	leave
c0103e0c:	c3                   	ret

c0103e0d <init_idt>:
c0103e0d:	55                   	push   %ebp
c0103e0e:	89 e5                	mov    %esp,%ebp
c0103e10:	83 ec 08             	sub    $0x8,%esp
c0103e13:	b8 70 b0 10 c0       	mov    $0xc010b070,%eax
c0103e18:	a3 72 b8 10 c0       	mov    %eax,0xc010b872
c0103e1d:	66 c7 05 70 b8 10 c0 	movw   $0x7ff,0xc010b870
c0103e24:	ff 07 
c0103e26:	83 ec 04             	sub    $0x4,%esp
c0103e29:	68 ff 07 00 00       	push   $0x7ff
c0103e2e:	6a 00                	push   $0x0
c0103e30:	68 70 b0 10 c0       	push   $0xc010b070
c0103e35:	e8 cd da ff ff       	call   c0101907 <memset>
c0103e3a:	83 c4 10             	add    $0x10,%esp
c0103e3d:	b8 b5 1c 10 c0       	mov    $0xc0101cb5,%eax
c0103e42:	83 ec 04             	sub    $0x4,%esp
c0103e45:	68 8e 00 00 00       	push   $0x8e
c0103e4a:	50                   	push   %eax
c0103e4b:	6a 00                	push   $0x0
c0103e4d:	e8 5a ff ff ff       	call   c0103dac <idt_set_gate>
c0103e52:	83 c4 10             	add    $0x10,%esp
c0103e55:	b8 bc 1c 10 c0       	mov    $0xc0101cbc,%eax
c0103e5a:	83 ec 04             	sub    $0x4,%esp
c0103e5d:	68 8e 00 00 00       	push   $0x8e
c0103e62:	50                   	push   %eax
c0103e63:	6a 01                	push   $0x1
c0103e65:	e8 42 ff ff ff       	call   c0103dac <idt_set_gate>
c0103e6a:	83 c4 10             	add    $0x10,%esp
c0103e6d:	b8 c3 1c 10 c0       	mov    $0xc0101cc3,%eax
c0103e72:	83 ec 04             	sub    $0x4,%esp
c0103e75:	68 8e 00 00 00       	push   $0x8e
c0103e7a:	50                   	push   %eax
c0103e7b:	6a 02                	push   $0x2
c0103e7d:	e8 2a ff ff ff       	call   c0103dac <idt_set_gate>
c0103e82:	83 c4 10             	add    $0x10,%esp
c0103e85:	b8 ca 1c 10 c0       	mov    $0xc0101cca,%eax
c0103e8a:	83 ec 04             	sub    $0x4,%esp
c0103e8d:	68 8e 00 00 00       	push   $0x8e
c0103e92:	50                   	push   %eax
c0103e93:	6a 03                	push   $0x3
c0103e95:	e8 12 ff ff ff       	call   c0103dac <idt_set_gate>
c0103e9a:	83 c4 10             	add    $0x10,%esp
c0103e9d:	b8 d1 1c 10 c0       	mov    $0xc0101cd1,%eax
c0103ea2:	83 ec 04             	sub    $0x4,%esp
c0103ea5:	68 8e 00 00 00       	push   $0x8e
c0103eaa:	50                   	push   %eax
c0103eab:	6a 04                	push   $0x4
c0103ead:	e8 fa fe ff ff       	call   c0103dac <idt_set_gate>
c0103eb2:	83 c4 10             	add    $0x10,%esp
c0103eb5:	b8 d8 1c 10 c0       	mov    $0xc0101cd8,%eax
c0103eba:	83 ec 04             	sub    $0x4,%esp
c0103ebd:	68 8e 00 00 00       	push   $0x8e
c0103ec2:	50                   	push   %eax
c0103ec3:	6a 05                	push   $0x5
c0103ec5:	e8 e2 fe ff ff       	call   c0103dac <idt_set_gate>
c0103eca:	83 c4 10             	add    $0x10,%esp
c0103ecd:	b8 df 1c 10 c0       	mov    $0xc0101cdf,%eax
c0103ed2:	83 ec 04             	sub    $0x4,%esp
c0103ed5:	68 8e 00 00 00       	push   $0x8e
c0103eda:	50                   	push   %eax
c0103edb:	6a 06                	push   $0x6
c0103edd:	e8 ca fe ff ff       	call   c0103dac <idt_set_gate>
c0103ee2:	83 c4 10             	add    $0x10,%esp
c0103ee5:	b8 e6 1c 10 c0       	mov    $0xc0101ce6,%eax
c0103eea:	83 ec 04             	sub    $0x4,%esp
c0103eed:	68 8e 00 00 00       	push   $0x8e
c0103ef2:	50                   	push   %eax
c0103ef3:	6a 07                	push   $0x7
c0103ef5:	e8 b2 fe ff ff       	call   c0103dac <idt_set_gate>
c0103efa:	83 c4 10             	add    $0x10,%esp
c0103efd:	b8 ed 1c 10 c0       	mov    $0xc0101ced,%eax
c0103f02:	83 ec 04             	sub    $0x4,%esp
c0103f05:	68 8e 00 00 00       	push   $0x8e
c0103f0a:	50                   	push   %eax
c0103f0b:	6a 08                	push   $0x8
c0103f0d:	e8 9a fe ff ff       	call   c0103dac <idt_set_gate>
c0103f12:	83 c4 10             	add    $0x10,%esp
c0103f15:	b8 f2 1c 10 c0       	mov    $0xc0101cf2,%eax
c0103f1a:	83 ec 04             	sub    $0x4,%esp
c0103f1d:	68 8e 00 00 00       	push   $0x8e
c0103f22:	50                   	push   %eax
c0103f23:	6a 09                	push   $0x9
c0103f25:	e8 82 fe ff ff       	call   c0103dac <idt_set_gate>
c0103f2a:	83 c4 10             	add    $0x10,%esp
c0103f2d:	b8 f9 1c 10 c0       	mov    $0xc0101cf9,%eax
c0103f32:	83 ec 04             	sub    $0x4,%esp
c0103f35:	68 8e 00 00 00       	push   $0x8e
c0103f3a:	50                   	push   %eax
c0103f3b:	6a 0a                	push   $0xa
c0103f3d:	e8 6a fe ff ff       	call   c0103dac <idt_set_gate>
c0103f42:	83 c4 10             	add    $0x10,%esp
c0103f45:	b8 01 1d 10 c0       	mov    $0xc0101d01,%eax
c0103f4a:	83 ec 04             	sub    $0x4,%esp
c0103f4d:	68 8e 00 00 00       	push   $0x8e
c0103f52:	50                   	push   %eax
c0103f53:	6a 0b                	push   $0xb
c0103f55:	e8 52 fe ff ff       	call   c0103dac <idt_set_gate>
c0103f5a:	83 c4 10             	add    $0x10,%esp
c0103f5d:	b8 09 1d 10 c0       	mov    $0xc0101d09,%eax
c0103f62:	83 ec 04             	sub    $0x4,%esp
c0103f65:	68 8e 00 00 00       	push   $0x8e
c0103f6a:	50                   	push   %eax
c0103f6b:	6a 0c                	push   $0xc
c0103f6d:	e8 3a fe ff ff       	call   c0103dac <idt_set_gate>
c0103f72:	83 c4 10             	add    $0x10,%esp
c0103f75:	b8 11 1d 10 c0       	mov    $0xc0101d11,%eax
c0103f7a:	83 ec 04             	sub    $0x4,%esp
c0103f7d:	68 8e 00 00 00       	push   $0x8e
c0103f82:	50                   	push   %eax
c0103f83:	6a 0d                	push   $0xd
c0103f85:	e8 22 fe ff ff       	call   c0103dac <idt_set_gate>
c0103f8a:	83 c4 10             	add    $0x10,%esp
c0103f8d:	b8 19 1d 10 c0       	mov    $0xc0101d19,%eax
c0103f92:	83 ec 04             	sub    $0x4,%esp
c0103f95:	68 8e 00 00 00       	push   $0x8e
c0103f9a:	50                   	push   %eax
c0103f9b:	6a 0e                	push   $0xe
c0103f9d:	e8 0a fe ff ff       	call   c0103dac <idt_set_gate>
c0103fa2:	83 c4 10             	add    $0x10,%esp
c0103fa5:	b8 21 1d 10 c0       	mov    $0xc0101d21,%eax
c0103faa:	83 ec 04             	sub    $0x4,%esp
c0103fad:	68 8e 00 00 00       	push   $0x8e
c0103fb2:	50                   	push   %eax
c0103fb3:	6a 0f                	push   $0xf
c0103fb5:	e8 f2 fd ff ff       	call   c0103dac <idt_set_gate>
c0103fba:	83 c4 10             	add    $0x10,%esp
c0103fbd:	b8 2b 1d 10 c0       	mov    $0xc0101d2b,%eax
c0103fc2:	83 ec 04             	sub    $0x4,%esp
c0103fc5:	68 8e 00 00 00       	push   $0x8e
c0103fca:	50                   	push   %eax
c0103fcb:	6a 10                	push   $0x10
c0103fcd:	e8 da fd ff ff       	call   c0103dac <idt_set_gate>
c0103fd2:	83 c4 10             	add    $0x10,%esp
c0103fd5:	b8 35 1d 10 c0       	mov    $0xc0101d35,%eax
c0103fda:	83 ec 04             	sub    $0x4,%esp
c0103fdd:	68 8e 00 00 00       	push   $0x8e
c0103fe2:	50                   	push   %eax
c0103fe3:	6a 11                	push   $0x11
c0103fe5:	e8 c2 fd ff ff       	call   c0103dac <idt_set_gate>
c0103fea:	83 c4 10             	add    $0x10,%esp
c0103fed:	b8 3d 1d 10 c0       	mov    $0xc0101d3d,%eax
c0103ff2:	83 ec 04             	sub    $0x4,%esp
c0103ff5:	68 8e 00 00 00       	push   $0x8e
c0103ffa:	50                   	push   %eax
c0103ffb:	6a 12                	push   $0x12
c0103ffd:	e8 aa fd ff ff       	call   c0103dac <idt_set_gate>
c0104002:	83 c4 10             	add    $0x10,%esp
c0104005:	b8 47 1d 10 c0       	mov    $0xc0101d47,%eax
c010400a:	83 ec 04             	sub    $0x4,%esp
c010400d:	68 8e 00 00 00       	push   $0x8e
c0104012:	50                   	push   %eax
c0104013:	6a 13                	push   $0x13
c0104015:	e8 92 fd ff ff       	call   c0103dac <idt_set_gate>
c010401a:	83 c4 10             	add    $0x10,%esp
c010401d:	b8 51 1d 10 c0       	mov    $0xc0101d51,%eax
c0104022:	83 ec 04             	sub    $0x4,%esp
c0104025:	68 8e 00 00 00       	push   $0x8e
c010402a:	50                   	push   %eax
c010402b:	6a 14                	push   $0x14
c010402d:	e8 7a fd ff ff       	call   c0103dac <idt_set_gate>
c0104032:	83 c4 10             	add    $0x10,%esp
c0104035:	b8 5b 1d 10 c0       	mov    $0xc0101d5b,%eax
c010403a:	83 ec 04             	sub    $0x4,%esp
c010403d:	68 8e 00 00 00       	push   $0x8e
c0104042:	50                   	push   %eax
c0104043:	6a 15                	push   $0x15
c0104045:	e8 62 fd ff ff       	call   c0103dac <idt_set_gate>
c010404a:	83 c4 10             	add    $0x10,%esp
c010404d:	b8 65 1d 10 c0       	mov    $0xc0101d65,%eax
c0104052:	83 ec 04             	sub    $0x4,%esp
c0104055:	68 8e 00 00 00       	push   $0x8e
c010405a:	50                   	push   %eax
c010405b:	6a 16                	push   $0x16
c010405d:	e8 4a fd ff ff       	call   c0103dac <idt_set_gate>
c0104062:	83 c4 10             	add    $0x10,%esp
c0104065:	b8 6f 1d 10 c0       	mov    $0xc0101d6f,%eax
c010406a:	83 ec 04             	sub    $0x4,%esp
c010406d:	68 8e 00 00 00       	push   $0x8e
c0104072:	50                   	push   %eax
c0104073:	6a 17                	push   $0x17
c0104075:	e8 32 fd ff ff       	call   c0103dac <idt_set_gate>
c010407a:	83 c4 10             	add    $0x10,%esp
c010407d:	b8 79 1d 10 c0       	mov    $0xc0101d79,%eax
c0104082:	83 ec 04             	sub    $0x4,%esp
c0104085:	68 8e 00 00 00       	push   $0x8e
c010408a:	50                   	push   %eax
c010408b:	6a 18                	push   $0x18
c010408d:	e8 1a fd ff ff       	call   c0103dac <idt_set_gate>
c0104092:	83 c4 10             	add    $0x10,%esp
c0104095:	b8 83 1d 10 c0       	mov    $0xc0101d83,%eax
c010409a:	83 ec 04             	sub    $0x4,%esp
c010409d:	68 8e 00 00 00       	push   $0x8e
c01040a2:	50                   	push   %eax
c01040a3:	6a 19                	push   $0x19
c01040a5:	e8 02 fd ff ff       	call   c0103dac <idt_set_gate>
c01040aa:	83 c4 10             	add    $0x10,%esp
c01040ad:	b8 8d 1d 10 c0       	mov    $0xc0101d8d,%eax
c01040b2:	83 ec 04             	sub    $0x4,%esp
c01040b5:	68 8e 00 00 00       	push   $0x8e
c01040ba:	50                   	push   %eax
c01040bb:	6a 1a                	push   $0x1a
c01040bd:	e8 ea fc ff ff       	call   c0103dac <idt_set_gate>
c01040c2:	83 c4 10             	add    $0x10,%esp
c01040c5:	b8 97 1d 10 c0       	mov    $0xc0101d97,%eax
c01040ca:	83 ec 04             	sub    $0x4,%esp
c01040cd:	68 8e 00 00 00       	push   $0x8e
c01040d2:	50                   	push   %eax
c01040d3:	6a 1b                	push   $0x1b
c01040d5:	e8 d2 fc ff ff       	call   c0103dac <idt_set_gate>
c01040da:	83 c4 10             	add    $0x10,%esp
c01040dd:	b8 a1 1d 10 c0       	mov    $0xc0101da1,%eax
c01040e2:	83 ec 04             	sub    $0x4,%esp
c01040e5:	68 8e 00 00 00       	push   $0x8e
c01040ea:	50                   	push   %eax
c01040eb:	6a 1c                	push   $0x1c
c01040ed:	e8 ba fc ff ff       	call   c0103dac <idt_set_gate>
c01040f2:	83 c4 10             	add    $0x10,%esp
c01040f5:	b8 ab 1d 10 c0       	mov    $0xc0101dab,%eax
c01040fa:	83 ec 04             	sub    $0x4,%esp
c01040fd:	68 8e 00 00 00       	push   $0x8e
c0104102:	50                   	push   %eax
c0104103:	6a 1d                	push   $0x1d
c0104105:	e8 a2 fc ff ff       	call   c0103dac <idt_set_gate>
c010410a:	83 c4 10             	add    $0x10,%esp
c010410d:	b8 b5 1d 10 c0       	mov    $0xc0101db5,%eax
c0104112:	83 ec 04             	sub    $0x4,%esp
c0104115:	68 8e 00 00 00       	push   $0x8e
c010411a:	50                   	push   %eax
c010411b:	6a 1e                	push   $0x1e
c010411d:	e8 8a fc ff ff       	call   c0103dac <idt_set_gate>
c0104122:	83 c4 10             	add    $0x10,%esp
c0104125:	b8 bd 1d 10 c0       	mov    $0xc0101dbd,%eax
c010412a:	83 ec 04             	sub    $0x4,%esp
c010412d:	68 8e 00 00 00       	push   $0x8e
c0104132:	50                   	push   %eax
c0104133:	6a 1f                	push   $0x1f
c0104135:	e8 72 fc ff ff       	call   c0103dac <idt_set_gate>
c010413a:	83 c4 10             	add    $0x10,%esp
c010413d:	b8 c7 1d 10 c0       	mov    $0xc0101dc7,%eax
c0104142:	83 ec 04             	sub    $0x4,%esp
c0104145:	68 8e 00 00 00       	push   $0x8e
c010414a:	50                   	push   %eax
c010414b:	6a 30                	push   $0x30
c010414d:	e8 5a fc ff ff       	call   c0103dac <idt_set_gate>
c0104152:	83 c4 10             	add    $0x10,%esp
c0104155:	b8 cf 1d 10 c0       	mov    $0xc0101dcf,%eax
c010415a:	83 ec 04             	sub    $0x4,%esp
c010415d:	68 8e 00 00 00       	push   $0x8e
c0104162:	50                   	push   %eax
c0104163:	6a 31                	push   $0x31
c0104165:	e8 42 fc ff ff       	call   c0103dac <idt_set_gate>
c010416a:	83 c4 10             	add    $0x10,%esp
c010416d:	b8 d7 1d 10 c0       	mov    $0xc0101dd7,%eax
c0104172:	83 ec 04             	sub    $0x4,%esp
c0104175:	68 8e 00 00 00       	push   $0x8e
c010417a:	50                   	push   %eax
c010417b:	6a 32                	push   $0x32
c010417d:	e8 2a fc ff ff       	call   c0103dac <idt_set_gate>
c0104182:	83 c4 10             	add    $0x10,%esp
c0104185:	83 ec 0c             	sub    $0xc,%esp
c0104188:	68 04 56 10 c0       	push   $0xc0105604
c010418d:	e8 54 07 00 00       	call   c01048e6 <log_to_serial>
c0104192:	83 c4 10             	add    $0x10,%esp
c0104195:	0f 01 1d 70 b8 10 c0 	lidtl  0xc010b870
c010419c:	fb                   	sti
c010419d:	90                   	nop
c010419e:	c9                   	leave
c010419f:	c3                   	ret

c01041a0 <exc_print>:
c01041a0:	55                   	push   %ebp
c01041a1:	89 e5                	mov    %esp,%ebp
c01041a3:	83 ec 18             	sub    $0x18,%esp
c01041a6:	c7 45 f4 01 00 00 00 	movl   $0x1,-0xc(%ebp)
c01041ad:	8b 45 08             	mov    0x8(%ebp),%eax
c01041b0:	8b 40 24             	mov    0x24(%eax),%eax
c01041b3:	83 f8 0e             	cmp    $0xe,%eax
c01041b6:	74 6a                	je     c0104222 <exc_print+0x82>
c01041b8:	83 f8 0e             	cmp    $0xe,%eax
c01041bb:	77 7b                	ja     c0104238 <exc_print+0x98>
c01041bd:	83 f8 0d             	cmp    $0xd,%eax
c01041c0:	74 37                	je     c01041f9 <exc_print+0x59>
c01041c2:	83 f8 0d             	cmp    $0xd,%eax
c01041c5:	77 71                	ja     c0104238 <exc_print+0x98>
c01041c7:	85 c0                	test   %eax,%eax
c01041c9:	74 07                	je     c01041d2 <exc_print+0x32>
c01041cb:	83 f8 06             	cmp    $0x6,%eax
c01041ce:	74 17                	je     c01041e7 <exc_print+0x47>
c01041d0:	eb 66                	jmp    c0104238 <exc_print+0x98>
c01041d2:	83 ec 0c             	sub    $0xc,%esp
c01041d5:	68 10 56 10 c0       	push   $0xc0105610
c01041da:	e8 07 07 00 00       	call   c01048e6 <log_to_serial>
c01041df:	83 c4 10             	add    $0x10,%esp
c01041e2:	e9 80 00 00 00       	jmp    c0104267 <exc_print+0xc7>
c01041e7:	83 ec 0c             	sub    $0xc,%esp
c01041ea:	68 34 56 10 c0       	push   $0xc0105634
c01041ef:	e8 f2 06 00 00       	call   c01048e6 <log_to_serial>
c01041f4:	83 c4 10             	add    $0x10,%esp
c01041f7:	eb 6e                	jmp    c0104267 <exc_print+0xc7>
c01041f9:	8b 45 08             	mov    0x8(%ebp),%eax
c01041fc:	8b 40 28             	mov    0x28(%eax),%eax
c01041ff:	83 ec 08             	sub    $0x8,%esp
c0104202:	50                   	push   %eax
c0104203:	68 55 56 10 c0       	push   $0xc0105655
c0104208:	e8 13 09 00 00       	call   c0104b20 <logf>
c010420d:	83 c4 10             	add    $0x10,%esp
c0104210:	83 ec 0c             	sub    $0xc,%esp
c0104213:	68 64 56 10 c0       	push   $0xc0105664
c0104218:	e8 c9 06 00 00       	call   c01048e6 <log_to_serial>
c010421d:	83 c4 10             	add    $0x10,%esp
c0104220:	eb 45                	jmp    c0104267 <exc_print+0xc7>
c0104222:	83 ec 0c             	sub    $0xc,%esp
c0104225:	ff 75 08             	push   0x8(%ebp)
c0104228:	e8 f6 03 00 00       	call   c0104623 <handle_exception>
c010422d:	83 c4 10             	add    $0x10,%esp
c0104230:	0f b6 c0             	movzbl %al,%eax
c0104233:	89 45 f4             	mov    %eax,-0xc(%ebp)
c0104236:	eb 2f                	jmp    c0104267 <exc_print+0xc7>
c0104238:	8b 45 08             	mov    0x8(%ebp),%eax
c010423b:	8b 50 24             	mov    0x24(%eax),%edx
c010423e:	8b 45 08             	mov    0x8(%ebp),%eax
c0104241:	8b 40 28             	mov    0x28(%eax),%eax
c0104244:	83 ec 04             	sub    $0x4,%esp
c0104247:	52                   	push   %edx
c0104248:	50                   	push   %eax
c0104249:	68 84 56 10 c0       	push   $0xc0105684
c010424e:	e8 cd 08 00 00       	call   c0104b20 <logf>
c0104253:	83 c4 10             	add    $0x10,%esp
c0104256:	83 ec 0c             	sub    $0xc,%esp
c0104259:	68 a7 56 10 c0       	push   $0xc01056a7
c010425e:	e8 83 06 00 00       	call   c01048e6 <log_to_serial>
c0104263:	83 c4 10             	add    $0x10,%esp
c0104266:	90                   	nop
c0104267:	8b 45 f4             	mov    -0xc(%ebp),%eax
c010426a:	c9                   	leave
c010426b:	c3                   	ret

c010426c <handle_keyboard>:
c010426c:	55                   	push   %ebp
c010426d:	89 e5                	mov    %esp,%ebp
c010426f:	83 ec 18             	sub    $0x18,%esp
c0104272:	83 ec 0c             	sub    $0xc,%esp
c0104275:	6a 60                	push   $0x60
c0104277:	e8 79 05 00 00       	call   c01047f5 <inportb>
c010427c:	83 c4 10             	add    $0x10,%esp
c010427f:	88 45 f7             	mov    %al,-0x9(%ebp)
c0104282:	0f b6 45 f7          	movzbl -0x9(%ebp),%eax
c0104286:	83 ec 0c             	sub    $0xc,%esp
c0104289:	50                   	push   %eax
c010428a:	e8 87 e2 ff ff       	call   c0102516 <recieve_scancode>
c010428f:	83 c4 10             	add    $0x10,%esp
c0104292:	90                   	nop
c0104293:	c9                   	leave
c0104294:	c3                   	ret

c0104295 <irq_handler>:
c0104295:	55                   	push   %ebp
c0104296:	89 e5                	mov    %esp,%ebp
c0104298:	83 ec 08             	sub    $0x8,%esp
c010429b:	81 7d 08 80 00 00 00 	cmpl   $0x80,0x8(%ebp)
c01042a2:	74 2f                	je     c01042d3 <irq_handler+0x3e>
c01042a4:	81 7d 08 80 00 00 00 	cmpl   $0x80,0x8(%ebp)
c01042ab:	7f 2a                	jg     c01042d7 <irq_handler+0x42>
c01042ad:	83 7d 08 32          	cmpl   $0x32,0x8(%ebp)
c01042b1:	74 19                	je     c01042cc <irq_handler+0x37>
c01042b3:	83 7d 08 32          	cmpl   $0x32,0x8(%ebp)
c01042b7:	7f 1e                	jg     c01042d7 <irq_handler+0x42>
c01042b9:	83 7d 08 30          	cmpl   $0x30,0x8(%ebp)
c01042bd:	74 17                	je     c01042d6 <irq_handler+0x41>
c01042bf:	83 7d 08 31          	cmpl   $0x31,0x8(%ebp)
c01042c3:	75 12                	jne    c01042d7 <irq_handler+0x42>
c01042c5:	e8 b6 de ff ff       	call   c0102180 <end_calibration>
c01042ca:	eb 0b                	jmp    c01042d7 <irq_handler+0x42>
c01042cc:	e8 4f e1 ff ff       	call   c0102420 <handle_keychange>
c01042d1:	eb 04                	jmp    c01042d7 <irq_handler+0x42>
c01042d3:	90                   	nop
c01042d4:	eb 01                	jmp    c01042d7 <irq_handler+0x42>
c01042d6:	90                   	nop
c01042d7:	a1 20 80 10 c0       	mov    0xc0108020,%eax
c01042dc:	83 ec 0c             	sub    $0xc,%esp
c01042df:	50                   	push   %eax
c01042e0:	e8 4b dd ff ff       	call   c0102030 <send_EOI>
c01042e5:	83 c4 10             	add    $0x10,%esp
c01042e8:	90                   	nop
c01042e9:	c9                   	leave
c01042ea:	c3                   	ret

c01042eb <isr_handler>:
c01042eb:	55                   	push   %ebp
c01042ec:	89 e5                	mov    %esp,%ebp
c01042ee:	83 ec 08             	sub    $0x8,%esp
c01042f1:	8b 45 2c             	mov    0x2c(%ebp),%eax
c01042f4:	83 f8 1f             	cmp    $0x1f,%eax
c01042f7:	77 13                	ja     c010430c <isr_handler+0x21>
c01042f9:	83 ec 0c             	sub    $0xc,%esp
c01042fc:	8d 45 08             	lea    0x8(%ebp),%eax
c01042ff:	50                   	push   %eax
c0104300:	e8 9b fe ff ff       	call   c01041a0 <exc_print>
c0104305:	83 c4 10             	add    $0x10,%esp
c0104308:	84 c0                	test   %al,%al
c010430a:	74 14                	je     c0104320 <isr_handler+0x35>
c010430c:	83 ec 0c             	sub    $0xc,%esp
c010430f:	68 ac 56 10 c0       	push   $0xc01056ac
c0104314:	e8 07 08 00 00       	call   c0104b20 <logf>
c0104319:	83 c4 10             	add    $0x10,%esp
c010431c:	fa                   	cli
c010431d:	f4                   	hlt
c010431e:	eb 01                	jmp    c0104321 <isr_handler+0x36>
c0104320:	90                   	nop
c0104321:	c9                   	leave
c0104322:	c3                   	ret

c0104323 <memory_map>:
c0104323:	55                   	push   %ebp
c0104324:	89 e5                	mov    %esp,%ebp
c0104326:	83 ec 18             	sub    $0x18,%esp
c0104329:	8b 45 10             	mov    0x10(%ebp),%eax
c010432c:	c1 e8 16             	shr    $0x16,%eax
c010432f:	89 45 f4             	mov    %eax,-0xc(%ebp)
c0104332:	8b 45 10             	mov    0x10(%ebp),%eax
c0104335:	c1 e8 0c             	shr    $0xc,%eax
c0104338:	25 ff 03 00 00       	and    $0x3ff,%eax
c010433d:	89 45 f0             	mov    %eax,-0x10(%ebp)
c0104340:	8b 45 f4             	mov    -0xc(%ebp),%eax
c0104343:	8d 14 85 00 00 00 00 	lea    0x0(,%eax,4),%edx
c010434a:	8b 45 08             	mov    0x8(%ebp),%eax
c010434d:	01 d0                	add    %edx,%eax
c010434f:	8b 00                	mov    (%eax),%eax
c0104351:	85 c0                	test   %eax,%eax
c0104353:	75 11                	jne    c0104366 <memory_map+0x43>
c0104355:	83 ec 08             	sub    $0x8,%esp
c0104358:	ff 75 f4             	push   -0xc(%ebp)
c010435b:	ff 75 08             	push   0x8(%ebp)
c010435e:	e8 f4 00 00 00       	call   c0104457 <create_new_pt>
c0104363:	83 c4 10             	add    $0x10,%esp
c0104366:	8b 45 f4             	mov    -0xc(%ebp),%eax
c0104369:	c1 e0 0c             	shl    $0xc,%eax
c010436c:	0d 00 00 c0 ff       	or     $0xffc00000,%eax
c0104371:	89 45 ec             	mov    %eax,-0x14(%ebp)
c0104374:	8b 45 0c             	mov    0xc(%ebp),%eax
c0104377:	25 ff 03 00 00       	and    $0x3ff,%eax
c010437c:	85 c0                	test   %eax,%eax
c010437e:	74 12                	je     c0104392 <memory_map+0x6f>
c0104380:	83 ec 0c             	sub    $0xc,%esp
c0104383:	68 d0 56 10 c0       	push   $0xc01056d0
c0104388:	e8 59 05 00 00       	call   c01048e6 <log_to_serial>
c010438d:	83 c4 10             	add    $0x10,%esp
c0104390:	eb 17                	jmp    c01043a9 <memory_map+0x86>
c0104392:	8b 45 0c             	mov    0xc(%ebp),%eax
c0104395:	8b 55 f0             	mov    -0x10(%ebp),%edx
c0104398:	8d 0c 95 00 00 00 00 	lea    0x0(,%edx,4),%ecx
c010439f:	8b 55 ec             	mov    -0x14(%ebp),%edx
c01043a2:	01 ca                	add    %ecx,%edx
c01043a4:	0b 45 14             	or     0x14(%ebp),%eax
c01043a7:	89 02                	mov    %eax,(%edx)
c01043a9:	c9                   	leave
c01043aa:	c3                   	ret

c01043ab <memory_unmap>:
c01043ab:	55                   	push   %ebp
c01043ac:	89 e5                	mov    %esp,%ebp
c01043ae:	83 ec 18             	sub    $0x18,%esp
c01043b1:	8b 45 0c             	mov    0xc(%ebp),%eax
c01043b4:	c1 e8 16             	shr    $0x16,%eax
c01043b7:	89 45 f4             	mov    %eax,-0xc(%ebp)
c01043ba:	8b 45 0c             	mov    0xc(%ebp),%eax
c01043bd:	c1 e8 0c             	shr    $0xc,%eax
c01043c0:	25 ff 03 00 00       	and    $0x3ff,%eax
c01043c5:	89 45 f0             	mov    %eax,-0x10(%ebp)
c01043c8:	8b 45 f4             	mov    -0xc(%ebp),%eax
c01043cb:	c1 e0 0c             	shl    $0xc,%eax
c01043ce:	0d 00 00 c0 ff       	or     $0xffc00000,%eax
c01043d3:	89 45 ec             	mov    %eax,-0x14(%ebp)
c01043d6:	8b 45 f4             	mov    -0xc(%ebp),%eax
c01043d9:	8d 14 85 00 00 00 00 	lea    0x0(,%eax,4),%edx
c01043e0:	8b 45 08             	mov    0x8(%ebp),%eax
c01043e3:	01 d0                	add    %edx,%eax
c01043e5:	8b 00                	mov    (%eax),%eax
c01043e7:	85 c0                	test   %eax,%eax
c01043e9:	74 69                	je     c0104454 <memory_unmap+0xa9>
c01043eb:	8b 45 0c             	mov    0xc(%ebp),%eax
c01043ee:	25 ff 03 00 00       	and    $0x3ff,%eax
c01043f3:	85 c0                	test   %eax,%eax
c01043f5:	74 12                	je     c0104409 <memory_unmap+0x5e>
c01043f7:	83 ec 0c             	sub    $0xc,%esp
c01043fa:	68 d0 56 10 c0       	push   $0xc01056d0
c01043ff:	e8 e2 04 00 00       	call   c01048e6 <log_to_serial>
c0104404:	83 c4 10             	add    $0x10,%esp
c0104407:	eb 4c                	jmp    c0104455 <memory_unmap+0xaa>
c0104409:	8b 45 f0             	mov    -0x10(%ebp),%eax
c010440c:	8d 14 85 00 00 00 00 	lea    0x0(,%eax,4),%edx
c0104413:	8b 45 ec             	mov    -0x14(%ebp),%eax
c0104416:	01 d0                	add    %edx,%eax
c0104418:	8b 00                	mov    (%eax),%eax
c010441a:	25 00 f0 ff ff       	and    $0xfffff000,%eax
c010441f:	89 45 e8             	mov    %eax,-0x18(%ebp)
c0104422:	8b 45 e8             	mov    -0x18(%ebp),%eax
c0104425:	83 ec 0c             	sub    $0xc,%esp
c0104428:	50                   	push   %eax
c0104429:	e8 4a ed ff ff       	call   c0103178 <physical_to_frame>
c010442e:	83 c4 10             	add    $0x10,%esp
c0104431:	83 ec 0c             	sub    $0xc,%esp
c0104434:	50                   	push   %eax
c0104435:	e8 98 ec ff ff       	call   c01030d2 <clear_frame>
c010443a:	83 c4 10             	add    $0x10,%esp
c010443d:	8b 45 f0             	mov    -0x10(%ebp),%eax
c0104440:	8d 14 85 00 00 00 00 	lea    0x0(,%eax,4),%edx
c0104447:	8b 45 ec             	mov    -0x14(%ebp),%eax
c010444a:	01 d0                	add    %edx,%eax
c010444c:	c7 00 00 00 00 00    	movl   $0x0,(%eax)
c0104452:	eb 01                	jmp    c0104455 <memory_unmap+0xaa>
c0104454:	90                   	nop
c0104455:	c9                   	leave
c0104456:	c3                   	ret

c0104457 <create_new_pt>:
c0104457:	55                   	push   %ebp
c0104458:	89 e5                	mov    %esp,%ebp
c010445a:	83 ec 18             	sub    $0x18,%esp
c010445d:	83 ec 0c             	sub    $0xc,%esp
c0104460:	68 f3 56 10 c0       	push   $0xc01056f3
c0104465:	e8 7c 04 00 00       	call   c01048e6 <log_to_serial>
c010446a:	83 c4 10             	add    $0x10,%esp
c010446d:	8b 45 08             	mov    0x8(%ebp),%eax
c0104470:	05 fc 0f 00 00       	add    $0xffc,%eax
c0104475:	8b 00                	mov    (%eax),%eax
c0104477:	2d 00 00 00 40       	sub    $0x40000000,%eax
c010447c:	89 45 f4             	mov    %eax,-0xc(%ebp)
c010447f:	e8 08 ed ff ff       	call   c010318c <alloc_phys_page>
c0104484:	89 45 f0             	mov    %eax,-0x10(%ebp)
c0104487:	8b 55 f0             	mov    -0x10(%ebp),%edx
c010448a:	8b 45 0c             	mov    0xc(%ebp),%eax
c010448d:	8d 0c 85 00 00 00 00 	lea    0x0(,%eax,4),%ecx
c0104494:	8b 45 f4             	mov    -0xc(%ebp),%eax
c0104497:	01 c8                	add    %ecx,%eax
c0104499:	83 ca 03             	or     $0x3,%edx
c010449c:	89 10                	mov    %edx,(%eax)
c010449e:	8b 55 f0             	mov    -0x10(%ebp),%edx
c01044a1:	8b 45 0c             	mov    0xc(%ebp),%eax
c01044a4:	8d 0c 85 00 00 00 00 	lea    0x0(,%eax,4),%ecx
c01044ab:	8b 45 08             	mov    0x8(%ebp),%eax
c01044ae:	01 c8                	add    %ecx,%eax
c01044b0:	83 ca 03             	or     $0x3,%edx
c01044b3:	89 10                	mov    %edx,(%eax)
c01044b5:	8b 45 0c             	mov    0xc(%ebp),%eax
c01044b8:	c1 e0 0c             	shl    $0xc,%eax
c01044bb:	0d 00 00 c0 ff       	or     $0xffc00000,%eax
c01044c0:	89 45 ec             	mov    %eax,-0x14(%ebp)
c01044c3:	83 ec 04             	sub    $0x4,%esp
c01044c6:	68 00 04 00 00       	push   $0x400
c01044cb:	6a 00                	push   $0x0
c01044cd:	ff 75 ec             	push   -0x14(%ebp)
c01044d0:	e8 32 d4 ff ff       	call   c0101907 <memset>
c01044d5:	83 c4 10             	add    $0x10,%esp
c01044d8:	83 ec 08             	sub    $0x8,%esp
c01044db:	ff 75 0c             	push   0xc(%ebp)
c01044de:	68 04 57 10 c0       	push   $0xc0105704
c01044e3:	e8 38 06 00 00       	call   c0104b20 <logf>
c01044e8:	83 c4 10             	add    $0x10,%esp
c01044eb:	8b 45 ec             	mov    -0x14(%ebp),%eax
c01044ee:	c9                   	leave
c01044ef:	c3                   	ret

c01044f0 <copy_kernel_map>:
c01044f0:	55                   	push   %ebp
c01044f1:	89 e5                	mov    %esp,%ebp
c01044f3:	83 ec 08             	sub    $0x8,%esp
c01044f6:	83 ec 04             	sub    $0x4,%esp
c01044f9:	68 00 10 00 00       	push   $0x1000
c01044fe:	68 00 c0 10 c0       	push   $0xc010c000
c0104503:	ff 75 08             	push   0x8(%ebp)
c0104506:	e8 a9 d3 ff ff       	call   c01018b4 <memcpy>
c010450b:	83 c4 10             	add    $0x10,%esp
c010450e:	90                   	nop
c010450f:	c9                   	leave
c0104510:	c3                   	ret

c0104511 <newinit_pd>:
c0104511:	55                   	push   %ebp
c0104512:	89 e5                	mov    %esp,%ebp
c0104514:	83 ec 10             	sub    $0x10,%esp
c0104517:	c7 45 fc 00 00 00 00 	movl   $0x0,-0x4(%ebp)
c010451e:	eb 19                	jmp    c0104539 <newinit_pd+0x28>
c0104520:	8b 45 fc             	mov    -0x4(%ebp),%eax
c0104523:	8d 14 85 00 00 00 00 	lea    0x0(,%eax,4),%edx
c010452a:	8b 45 08             	mov    0x8(%ebp),%eax
c010452d:	01 d0                	add    %edx,%eax
c010452f:	c7 00 03 00 00 00    	movl   $0x3,(%eax)
c0104535:	83 45 fc 01          	addl   $0x1,-0x4(%ebp)
c0104539:	81 7d fc ff 03 00 00 	cmpl   $0x3ff,-0x4(%ebp)
c0104540:	7e de                	jle    c0104520 <newinit_pd+0xf>
c0104542:	8b 55 08             	mov    0x8(%ebp),%edx
c0104545:	8b 45 08             	mov    0x8(%ebp),%eax
c0104548:	05 fc 0f 00 00       	add    $0xffc,%eax
c010454d:	83 ca 03             	or     $0x3,%edx
c0104550:	89 10                	mov    %edx,(%eax)
c0104552:	90                   	nop
c0104553:	c9                   	leave
c0104554:	c3                   	ret

c0104555 <init_kpt>:
c0104555:	55                   	push   %ebp
c0104556:	89 e5                	mov    %esp,%ebp
c0104558:	83 ec 18             	sub    $0x18,%esp
c010455b:	c7 45 f4 00 00 00 00 	movl   $0x0,-0xc(%ebp)
c0104562:	c7 45 f0 03 00 00 00 	movl   $0x3,-0x10(%ebp)
c0104569:	b8 10 f0 10 c0       	mov    $0xc010f010,%eax
c010456e:	8d 90 00 0c f0 3f    	lea    0x3ff00c00(%eax),%edx
c0104574:	8b 45 0c             	mov    0xc(%ebp),%eax
c0104577:	01 d0                	add    %edx,%eax
c0104579:	c1 e8 0c             	shr    $0xc,%eax
c010457c:	89 45 e8             	mov    %eax,-0x18(%ebp)
c010457f:	83 ec 08             	sub    $0x8,%esp
c0104582:	ff 75 e8             	push   -0x18(%ebp)
c0104585:	68 20 57 10 c0       	push   $0xc0105720
c010458a:	e8 91 05 00 00       	call   c0104b20 <logf>
c010458f:	83 c4 10             	add    $0x10,%esp
c0104592:	c7 45 ec 00 01 00 00 	movl   $0x100,-0x14(%ebp)
c0104599:	eb 53                	jmp    c01045ee <init_kpt+0x99>
c010459b:	8b 45 e8             	mov    -0x18(%ebp),%eax
c010459e:	05 04 01 00 00       	add    $0x104,%eax
c01045a3:	3b 45 ec             	cmp    -0x14(%ebp),%eax
c01045a6:	73 07                	jae    c01045af <init_kpt+0x5a>
c01045a8:	c7 45 f0 02 00 00 00 	movl   $0x2,-0x10(%ebp)
c01045af:	8b 45 ec             	mov    -0x14(%ebp),%eax
c01045b2:	8d 14 85 00 00 00 00 	lea    0x0(,%eax,4),%edx
c01045b9:	8b 45 08             	mov    0x8(%ebp),%eax
c01045bc:	01 d0                	add    %edx,%eax
c01045be:	8b 00                	mov    (%eax),%eax
c01045c0:	83 e0 03             	and    $0x3,%eax
c01045c3:	85 c0                	test   %eax,%eax
c01045c5:	75 1f                	jne    c01045e6 <init_kpt+0x91>
c01045c7:	8b 45 f4             	mov    -0xc(%ebp),%eax
c01045ca:	05 00 01 00 00       	add    $0x100,%eax
c01045cf:	c1 e0 0c             	shl    $0xc,%eax
c01045d2:	8b 55 ec             	mov    -0x14(%ebp),%edx
c01045d5:	8d 0c 95 00 00 00 00 	lea    0x0(,%edx,4),%ecx
c01045dc:	8b 55 08             	mov    0x8(%ebp),%edx
c01045df:	01 ca                	add    %ecx,%edx
c01045e1:	0b 45 f0             	or     -0x10(%ebp),%eax
c01045e4:	89 02                	mov    %eax,(%edx)
c01045e6:	83 45 f4 01          	addl   $0x1,-0xc(%ebp)
c01045ea:	83 45 ec 01          	addl   $0x1,-0x14(%ebp)
c01045ee:	81 7d ec ff 03 00 00 	cmpl   $0x3ff,-0x14(%ebp)
c01045f5:	76 a4                	jbe    c010459b <init_kpt+0x46>
c01045f7:	90                   	nop
c01045f8:	90                   	nop
c01045f9:	c9                   	leave
c01045fa:	c3                   	ret

c01045fb <load_page_directory>:
c01045fb:	55                   	push   %ebp
c01045fc:	89 e5                	mov    %esp,%ebp
c01045fe:	8b 45 08             	mov    0x8(%ebp),%eax
c0104601:	0f 22 d8             	mov    %eax,%cr3
c0104604:	90                   	nop
c0104605:	5d                   	pop    %ebp
c0104606:	c3                   	ret

c0104607 <enable_paging_c>:
c0104607:	55                   	push   %ebp
c0104608:	89 e5                	mov    %esp,%ebp
c010460a:	83 ec 10             	sub    $0x10,%esp
c010460d:	0f 20 c0             	mov    %cr0,%eax
c0104610:	89 45 fc             	mov    %eax,-0x4(%ebp)
c0104613:	81 4d fc 00 00 00 80 	orl    $0x80000000,-0x4(%ebp)
c010461a:	8b 45 fc             	mov    -0x4(%ebp),%eax
c010461d:	0f 22 c0             	mov    %eax,%cr0
c0104620:	90                   	nop
c0104621:	c9                   	leave
c0104622:	c3                   	ret

c0104623 <handle_exception>:
c0104623:	55                   	push   %ebp
c0104624:	89 e5                	mov    %esp,%ebp
c0104626:	83 ec 18             	sub    $0x18,%esp
c0104629:	8b 45 08             	mov    0x8(%ebp),%eax
c010462c:	8b 40 28             	mov    0x28(%eax),%eax
c010462f:	89 45 f4             	mov    %eax,-0xc(%ebp)
c0104632:	8b 45 f4             	mov    -0xc(%ebp),%eax
c0104635:	83 e0 01             	and    $0x1,%eax
c0104638:	85 c0                	test   %eax,%eax
c010463a:	74 10                	je     c010464c <handle_exception+0x29>
c010463c:	83 ec 0c             	sub    $0xc,%esp
c010463f:	68 2b 57 10 c0       	push   $0xc010572b
c0104644:	e8 9d 02 00 00       	call   c01048e6 <log_to_serial>
c0104649:	83 c4 10             	add    $0x10,%esp
c010464c:	8b 45 f4             	mov    -0xc(%ebp),%eax
c010464f:	83 e0 02             	and    $0x2,%eax
c0104652:	85 c0                	test   %eax,%eax
c0104654:	74 17                	je     c010466d <handle_exception+0x4a>
c0104656:	8b 45 08             	mov    0x8(%ebp),%eax
c0104659:	8b 40 04             	mov    0x4(%eax),%eax
c010465c:	83 ec 08             	sub    $0x8,%esp
c010465f:	50                   	push   %eax
